ARM GAS  C:\Users\yeapz\AppData\Local\Temp\ccr1BY4Z.s 			page 1


   1              		.syntax unified
   2              		.cpu cortex-m3
   3              		.fpu softvfp
   4              		.eabi_attribute 20, 1
   5              		.eabi_attribute 21, 1
   6              		.eabi_attribute 23, 3
   7              		.eabi_attribute 24, 1
   8              		.eabi_attribute 25, 1
   9              		.eabi_attribute 26, 1
  10              		.eabi_attribute 30, 1
  11              		.eabi_attribute 34, 1
  12              		.eabi_attribute 18, 4
  13              		.thumb
  14              		.syntax unified
  15              		.file	"main.c"
  16              		.text
  17              	.Ltext0:
  18              		.cfi_sections	.debug_frame
  19              		.section	.text.ISR_Handler_1,"ax",%progbits
  20              		.align	2
  21              		.global	ISR_Handler_1
  22              		.thumb
  23              		.thumb_func
  24              		.type	ISR_Handler_1, %function
  25              	ISR_Handler_1:
  26              	.LFB63:
  27              		.file 1 "main.c"
   1:main.c        **** /* ========================================
   2:main.c        ****  *
   3:main.c        ****  * Copyright YOUR COMPANY, THE YEAR
   4:main.c        ****  * All Rights Reserved
   5:main.c        ****  * UNPUBLISHED, LICENSED SOFTWARE.
   6:main.c        ****  *
   7:main.c        ****  * CONFIDENTIAL AND PROPRIETARY INFORMATION
   8:main.c        ****  * WHICH IS THE PROPERTY OF your company.
   9:main.c        ****  *
  10:main.c        ****  * ========================================
  11:main.c        **** */
  12:main.c        **** #include "project.h"
  13:main.c        **** // big servo
  14:main.c        **** // setting 649
  15:main.c        **** //int start = 625; 
  16:main.c        **** //int end = 525;
  17:main.c        **** 
  18:main.c        **** //small servo
  19:main.c        **** // setting 999
  20:main.c        **** int start = 980; 
  21:main.c        **** int end = 930; 
  22:main.c        **** CY_ISR(ISR_Handler_1)
  23:main.c        **** {
  28              		.loc 1 23 0
  29              		.cfi_startproc
  30              		@ args = 0, pretend = 0, frame = 0
  31              		@ frame_needed = 0, uses_anonymous_args = 0
  32 0000 08B5     		push	{r3, lr}
  33              		.cfi_def_cfa_offset 8
  34              		.cfi_offset 3, -8
ARM GAS  C:\Users\yeapz\AppData\Local\Temp\ccr1BY4Z.s 			page 2


  35              		.cfi_offset 14, -4
  24:main.c        ****     if (PWM_1_ReadCompare() ==start)
  36              		.loc 1 24 0
  37 0002 FFF7FEFF 		bl	PWM_1_ReadCompare
  38              	.LVL0:
  39 0006 064B     		ldr	r3, .L5
  40 0008 1B68     		ldr	r3, [r3]
  41 000a 9842     		cmp	r0, r3
  42 000c 04D1     		bne	.L2
  25:main.c        ****     {
  26:main.c        **** 
  27:main.c        ****         PWM_1_WriteCompare(end);
  43              		.loc 1 27 0
  44 000e 044B     		ldr	r3, .L5
  45 0010 9888     		ldrh	r0, [r3, #4]
  46 0012 FFF7FEFF 		bl	PWM_1_WriteCompare
  47              	.LVL1:
  48 0016 08BD     		pop	{r3, pc}
  49              	.L2:
  28:main.c        ****     }
  29:main.c        ****     else
  30:main.c        ****     {
  31:main.c        ****         PWM_1_WriteCompare(start);
  50              		.loc 1 31 0
  51 0018 98B2     		uxth	r0, r3
  52 001a FFF7FEFF 		bl	PWM_1_WriteCompare
  53              	.LVL2:
  54 001e 08BD     		pop	{r3, pc}
  55              	.L6:
  56              		.align	2
  57              	.L5:
  58 0020 00000000 		.word	.LANCHOR0
  59              		.cfi_endproc
  60              	.LFE63:
  61              		.size	ISR_Handler_1, .-ISR_Handler_1
  62              		.section	.text.main,"ax",%progbits
  63              		.align	2
  64              		.global	main
  65              		.thumb
  66              		.thumb_func
  67              		.type	main, %function
  68              	main:
  69              	.LFB64:
  32:main.c        ****     }
  33:main.c        **** }
  34:main.c        **** 
  35:main.c        **** 
  36:main.c        **** int main(void)
  37:main.c        **** {
  70              		.loc 1 37 0
  71              		.cfi_startproc
  72              		@ Volatile: function does not return.
  73              		@ args = 0, pretend = 0, frame = 0
  74              		@ frame_needed = 0, uses_anonymous_args = 0
  75 0000 08B5     		push	{r3, lr}
  76              		.cfi_def_cfa_offset 8
  77              		.cfi_offset 3, -8
ARM GAS  C:\Users\yeapz\AppData\Local\Temp\ccr1BY4Z.s 			page 3


  78              		.cfi_offset 14, -4
  38:main.c        ****     CyGlobalIntEnable; /* Enable global interrupts. */
  79              		.loc 1 38 0
  80              		.syntax unified
  81              	@ 38 "main.c" 1
  82 0002 62B6     		CPSIE   i
  83              	@ 0 "" 2
  39:main.c        **** 
  40:main.c        ****     /* Place your initialization/startup code here (e.g. MyInst_Start()) */
  41:main.c        ****     PWM_1_Start();
  84              		.loc 1 41 0
  85              		.thumb
  86              		.syntax unified
  87 0004 FFF7FEFF 		bl	PWM_1_Start
  88              	.LVL3:
  42:main.c        ****     isr_1_StartEx(ISR_Handler_1);
  89              		.loc 1 42 0
  90 0008 0148     		ldr	r0, .L10
  91 000a FFF7FEFF 		bl	isr_1_StartEx
  92              	.LVL4:
  93              	.L8:
  94 000e FEE7     		b	.L8
  95              	.L11:
  96              		.align	2
  97              	.L10:
  98 0010 00000000 		.word	ISR_Handler_1
  99              		.cfi_endproc
 100              	.LFE64:
 101              		.size	main, .-main
 102              		.global	end
 103              		.global	start
 104              		.data
 105              		.align	2
 106              		.set	.LANCHOR0,. + 0
 107              		.type	start, %object
 108              		.size	start, 4
 109              	start:
 110 0000 D4030000 		.word	980
 111              		.type	end, %object
 112              		.size	end, 4
 113              	end:
 114 0004 A2030000 		.word	930
 115              		.text
 116              	.Letext0:
 117              		.file 2 "c:\\program files (x86)\\cypress\\psoc creator\\4.4\\psoc creator\\import\\gnu\\arm\\5.4.
 118              		.file 3 "c:\\program files (x86)\\cypress\\psoc creator\\4.4\\psoc creator\\import\\gnu\\arm\\5.4.
 119              		.file 4 "Generated_Source\\PSoC5/core_cm3.h"
 120              		.file 5 "Generated_Source\\PSoC5/PWM_1.h"
 121              		.file 6 "Generated_Source\\PSoC5/isr_1.h"