ARM GAS  C:\Users\ASUS\AppData\Local\Temp\ccoKtpNE.s 			page 1


   1              		.syntax unified
   2              		.cpu cortex-m3
   3              		.fpu softvfp
   4              		.eabi_attribute 20, 1
   5              		.eabi_attribute 21, 1
   6              		.eabi_attribute 23, 3
   7              		.eabi_attribute 24, 1
   8              		.eabi_attribute 25, 1
   9              		.eabi_attribute 26, 1
  10              		.eabi_attribute 30, 1
  11              		.eabi_attribute 34, 1
  12              		.eabi_attribute 18, 4
  13              		.thumb
  14              		.syntax unified
  15              		.file	"main.c"
  16              		.text
  17              	.Ltext0:
  18              		.cfi_sections	.debug_frame
  19              		.global	__aeabi_i2d
  20              		.global	__aeabi_dmul
  21              		.global	__aeabi_f2d
  22              		.global	__aeabi_dadd
  23              		.global	__aeabi_d2f
  24              		.global	__aeabi_f2uiz
  25              		.section	.text.Speed_Control,"ax",%progbits
  26              		.align	2
  27              		.global	Speed_Control
  28              		.thumb
  29              		.thumb_func
  30              		.type	Speed_Control, %function
  31              	Speed_Control:
  32              	.LFB64:
  33              		.file 1 "main.c"
   1:main.c        **** /* ========================================
   2:main.c        ****  *
   3:main.c        ****  * Copyright YOUR COMPANY, THE YEAR
   4:main.c        ****  * All Rights Reserved
   5:main.c        ****  * UNPUBLISHED, LICENSED SOFTWARE.
   6:main.c        ****  *
   7:main.c        ****  * CONFIDENTIAL AND PROPRIETARY INFORMATION
   8:main.c        ****  * WHICH IS THE PROPERTY OF your company.
   9:main.c        ****  *
  10:main.c        ****  * ========================================
  11:main.c        **** */
  12:main.c        **** #include "project.h"
  13:main.c        **** #include <stdio.h>
  14:main.c        **** #include <stdlib.h>
  15:main.c        **** #include <math.h> 
  16:main.c        **** 
  17:main.c        **** const double WHEEL_DIAMETER = 5.4; //cm
  18:main.c        **** int Count_Master = 0;
  19:main.c        **** int Count_Slave = 0;
  20:main.c        **** char string_1[20];
  21:main.c        **** char string_2[20];
  22:main.c        **** char string_3[20];
  23:main.c        **** double error = 0;
  24:main.c        **** double accumulated_error = 0;
ARM GAS  C:\Users\ASUS\AppData\Local\Temp\ccoKtpNE.s 			page 2


  25:main.c        **** double last_error = 0;
  26:main.c        **** double derivative_error = 0;
  27:main.c        **** double timer_period = 5;
  28:main.c        **** double K_p = 50;
  29:main.c        **** double K_i = 0;
  30:main.c        **** double K_d = 0;
  31:main.c        **** float PWM_Master = 23000;
  32:main.c        **** float PWM_Slave = 23000;
  33:main.c        **** int is_moving = 0;
  34:main.c        **** uint16 front_det_count = 0;
  35:main.c        **** float front_measured = 0;
  36:main.c        **** double x_coord = 0;
  37:main.c        **** double y_coord = 0;
  38:main.c        **** int direction = 0;
  39:main.c        **** int step = 0;
  40:main.c        **** 
  41:main.c        **** CY_ISR (Speed_Control)
  42:main.c        **** {
  34              		.loc 1 42 0
  35              		.cfi_startproc
  36              		@ args = 0, pretend = 0, frame = 0
  37              		@ frame_needed = 0, uses_anonymous_args = 0
  38 0000 F8B5     		push	{r3, r4, r5, r6, r7, lr}
  39              		.cfi_def_cfa_offset 24
  40              		.cfi_offset 3, -24
  41              		.cfi_offset 4, -20
  42              		.cfi_offset 5, -16
  43              		.cfi_offset 6, -12
  44              		.cfi_offset 7, -8
  45              		.cfi_offset 14, -4
  43:main.c        ****     if(is_moving == 1)
  46              		.loc 1 43 0
  47 0002 164B     		ldr	r3, .L4
  48 0004 1B68     		ldr	r3, [r3]
  49 0006 012B     		cmp	r3, #1
  50 0008 27D1     		bne	.L1
  44:main.c        ****     {
  45:main.c        ****         error = abs(Count_Master) - abs(Count_Slave);
  51              		.loc 1 45 0
  52 000a 144C     		ldr	r4, .L4
  53 000c 6068     		ldr	r0, [r4, #4]
  54 000e 0028     		cmp	r0, #0
  55 0010 B8BF     		it	lt
  56 0012 4042     		rsblt	r0, r0, #0
  57 0014 A368     		ldr	r3, [r4, #8]
  58 0016 002B     		cmp	r3, #0
  59 0018 B8BF     		it	lt
  60 001a 5B42     		rsblt	r3, r3, #0
  61 001c C01A     		subs	r0, r0, r3
  62 001e FFF7FEFF 		bl	__aeabi_i2d
  63              	.LVL0:
  64 0022 C4E90401 		strd	r0, [r4, #16]
  46:main.c        ****     	//accumulated_error = accumulated_error + (error*timer_period);
  47:main.c        ****         //derivative_error = (error - last_error)/timer_period;
  48:main.c        ****         //K_i = 1.2 * K_p / timer_period;
  49:main.c        ****         //K_d = 0.075 * K_p * timer_period;
  50:main.c        ****         //PWM_Slave = 25000 - (K_p*error + K_i*accumulated_error + K_d*derivative_error);
ARM GAS  C:\Users\ASUS\AppData\Local\Temp\ccoKtpNE.s 			page 3


  51:main.c        ****         PWM_Slave = PWM_Master + K_p*error;
  65              		.loc 1 51 0
  66 0026 0E4D     		ldr	r5, .L4+4
  67 0028 D5E90023 		ldrd	r2, [r5]
  68 002c FFF7FEFF 		bl	__aeabi_dmul
  69              	.LVL1:
  70 0030 0646     		mov	r6, r0
  71 0032 0F46     		mov	r7, r1
  72 0034 A868     		ldr	r0, [r5, #8]	@ float
  73 0036 FFF7FEFF 		bl	__aeabi_f2d
  74              	.LVL2:
  75 003a 3246     		mov	r2, r6
  76 003c 3B46     		mov	r3, r7
  77 003e FFF7FEFF 		bl	__aeabi_dadd
  78              	.LVL3:
  79 0042 FFF7FEFF 		bl	__aeabi_d2f
  80              	.LVL4:
  81 0046 E860     		str	r0, [r5, #12]	@ float
  52:main.c        ****         //if (PWM_Slave>25000)
  53:main.c        ****         //{
  54:main.c        ****         //    PWM_Slave = 23000;
  55:main.c        ****         //}
  56:main.c        ****     
  57:main.c        ****         PWM_Slave_WriteCompare(PWM_Slave);
  82              		.loc 1 57 0
  83 0048 FFF7FEFF 		bl	__aeabi_f2uiz
  84              	.LVL5:
  85 004c 80B2     		uxth	r0, r0
  86 004e FFF7FEFF 		bl	PWM_Slave_WriteCompare
  87              	.LVL6:
  58:main.c        ****         last_error = error;
  88              		.loc 1 58 0
  89 0052 D4E90423 		ldrd	r2, [r4, #16]
  90 0056 C4E90623 		strd	r2, [r4, #24]
  91              	.L1:
  92 005a F8BD     		pop	{r3, r4, r5, r6, r7, pc}
  93              	.L5:
  94              		.align	2
  95              	.L4:
  96 005c 00000000 		.word	.LANCHOR0
  97 0060 00000000 		.word	.LANCHOR1
  98              		.cfi_endproc
  99              	.LFE64:
 100              		.size	Speed_Control, .-Speed_Control
 101              		.global	__aeabi_i2f
 102              		.section	.text.dist_front_detection,"ax",%progbits
 103              		.align	2
 104              		.global	dist_front_detection
 105              		.thumb
 106              		.thumb_func
 107              		.type	dist_front_detection, %function
 108              	dist_front_detection:
 109              	.LFB65:
  59:main.c        ****     }
  60:main.c        **** 
  61:main.c        ****     //sprintf(string_3, "PWM_Slave: %f\n", PWM_Slave);
  62:main.c        ****     //UART_1_PutString(string_3);
ARM GAS  C:\Users\ASUS\AppData\Local\Temp\ccoKtpNE.s 			page 4


  63:main.c        **** }
  64:main.c        **** 
  65:main.c        **** CY_ISR(dist_front_detection)
  66:main.c        **** {
 110              		.loc 1 66 0
 111              		.cfi_startproc
 112              		@ args = 0, pretend = 0, frame = 0
 113              		@ frame_needed = 0, uses_anonymous_args = 0
 114 0000 10B5     		push	{r4, lr}
 115              		.cfi_def_cfa_offset 8
 116              		.cfi_offset 4, -8
 117              		.cfi_offset 14, -4
  67:main.c        ****     Timer_2_ReadStatusRegister();
 118              		.loc 1 67 0
 119 0002 FFF7FEFF 		bl	Timer_2_ReadStatusRegister
 120              	.LVL7:
  68:main.c        ****     front_det_count = Timer_2_ReadCounter();
 121              		.loc 1 68 0
 122 0006 FFF7FEFF 		bl	Timer_2_ReadCounter
 123              	.LVL8:
 124 000a 0E4C     		ldr	r4, .L8
 125 000c 2084     		strh	r0, [r4, #32]	@ movhi
  69:main.c        ****     front_measured = (65535-front_det_count)/58;
 126              		.loc 1 69 0
 127 000e C0F57F43 		rsb	r3, r0, #65280
 128 0012 FF33     		adds	r3, r3, #255
 129 0014 0C48     		ldr	r0, .L8+4
 130 0016 80FB0320 		smull	r2, r0, r0, r3
 131 001a 1844     		add	r0, r0, r3
 132 001c DB17     		asrs	r3, r3, #31
 133 001e C3EB6010 		rsb	r0, r3, r0, asr #5
 134 0022 FFF7FEFF 		bl	__aeabi_i2f
 135              	.LVL9:
 136 0026 6062     		str	r0, [r4, #36]	@ float
  70:main.c        ****     sprintf(string_1, "front dist: %lf\n", front_measured);
 137              		.loc 1 70 0
 138 0028 FFF7FEFF 		bl	__aeabi_f2d
 139              	.LVL10:
 140 002c 074C     		ldr	r4, .L8+8
 141 002e 0246     		mov	r2, r0
 142 0030 0B46     		mov	r3, r1
 143 0032 0749     		ldr	r1, .L8+12
 144 0034 2046     		mov	r0, r4
 145 0036 FFF7FEFF 		bl	sprintf
 146              	.LVL11:
  71:main.c        ****     UART_1_PutString(string_1);
 147              		.loc 1 71 0
 148 003a 2046     		mov	r0, r4
 149 003c FFF7FEFF 		bl	UART_1_PutString
 150              	.LVL12:
 151 0040 10BD     		pop	{r4, pc}
 152              	.L9:
 153 0042 00BF     		.align	2
 154              	.L8:
 155 0044 00000000 		.word	.LANCHOR0
 156 0048 09CB3D8D 		.word	-1925330167
 157 004c 00000000 		.word	string_1
ARM GAS  C:\Users\ASUS\AppData\Local\Temp\ccoKtpNE.s 			page 5


 158 0050 00000000 		.word	.LC0
 159              		.cfi_endproc
 160              	.LFE65:
 161              		.size	dist_front_detection, .-dist_front_detection
 162              		.section	.text.stop,"ax",%progbits
 163              		.align	2
 164              		.global	stop
 165              		.thumb
 166              		.thumb_func
 167              		.type	stop, %function
 168              	stop:
 169              	.LFB66:
  72:main.c        **** }
  73:main.c        **** 
  74:main.c        **** void stop()
  75:main.c        **** {
 170              		.loc 1 75 0
 171              		.cfi_startproc
 172              		@ args = 0, pretend = 0, frame = 0
 173              		@ frame_needed = 0, uses_anonymous_args = 0
 174 0000 10B5     		push	{r4, lr}
 175              		.cfi_def_cfa_offset 8
 176              		.cfi_offset 4, -8
 177              		.cfi_offset 14, -4
  76:main.c        ****     is_moving = 0;
 178              		.loc 1 76 0
 179 0002 0024     		movs	r4, #0
 180 0004 074B     		ldr	r3, .L12
 181 0006 1C60     		str	r4, [r3]
  77:main.c        ****     Motor_1_IN_1_Write(0);
 182              		.loc 1 77 0
 183 0008 2046     		mov	r0, r4
 184 000a FFF7FEFF 		bl	Motor_1_IN_1_Write
 185              	.LVL13:
  78:main.c        ****     Motor_1_IN_2_Write(0);
 186              		.loc 1 78 0
 187 000e 2046     		mov	r0, r4
 188 0010 FFF7FEFF 		bl	Motor_1_IN_2_Write
 189              	.LVL14:
  79:main.c        ****     Motor_2_IN_3_Write(0);
 190              		.loc 1 79 0
 191 0014 2046     		mov	r0, r4
 192 0016 FFF7FEFF 		bl	Motor_2_IN_3_Write
 193              	.LVL15:
  80:main.c        ****     Motor_2_IN_4_Write(0);
 194              		.loc 1 80 0
 195 001a 2046     		mov	r0, r4
 196 001c FFF7FEFF 		bl	Motor_2_IN_4_Write
 197              	.LVL16:
 198 0020 10BD     		pop	{r4, pc}
 199              	.L13:
 200 0022 00BF     		.align	2
 201              	.L12:
 202 0024 00000000 		.word	.LANCHOR0
 203              		.cfi_endproc
 204              	.LFE66:
 205              		.size	stop, .-stop
ARM GAS  C:\Users\ASUS\AppData\Local\Temp\ccoKtpNE.s 			page 6


 206              		.section	.text.forward,"ax",%progbits
 207              		.align	2
 208              		.global	forward
 209              		.thumb
 210              		.thumb_func
 211              		.type	forward, %function
 212              	forward:
 213              	.LFB67:
  81:main.c        **** }
  82:main.c        **** 
  83:main.c        **** void forward()
  84:main.c        **** {
 214              		.loc 1 84 0
 215              		.cfi_startproc
 216              		@ args = 0, pretend = 0, frame = 0
 217              		@ frame_needed = 0, uses_anonymous_args = 0
 218 0000 10B5     		push	{r4, lr}
 219              		.cfi_def_cfa_offset 8
 220              		.cfi_offset 4, -8
 221              		.cfi_offset 14, -4
  85:main.c        ****     is_moving = 1;
 222              		.loc 1 85 0
 223 0002 0124     		movs	r4, #1
 224 0004 074B     		ldr	r3, .L16
 225 0006 1C60     		str	r4, [r3]
  86:main.c        ****     Motor_1_IN_1_Write(0);
 226              		.loc 1 86 0
 227 0008 0020     		movs	r0, #0
 228 000a FFF7FEFF 		bl	Motor_1_IN_1_Write
 229              	.LVL17:
  87:main.c        ****     Motor_1_IN_2_Write(1);
 230              		.loc 1 87 0
 231 000e 2046     		mov	r0, r4
 232 0010 FFF7FEFF 		bl	Motor_1_IN_2_Write
 233              	.LVL18:
  88:main.c        ****     Motor_2_IN_3_Write(0);
 234              		.loc 1 88 0
 235 0014 0020     		movs	r0, #0
 236 0016 FFF7FEFF 		bl	Motor_2_IN_3_Write
 237              	.LVL19:
  89:main.c        ****     Motor_2_IN_4_Write(1);
 238              		.loc 1 89 0
 239 001a 2046     		mov	r0, r4
 240 001c FFF7FEFF 		bl	Motor_2_IN_4_Write
 241              	.LVL20:
 242 0020 10BD     		pop	{r4, pc}
 243              	.L17:
 244 0022 00BF     		.align	2
 245              	.L16:
 246 0024 00000000 		.word	.LANCHOR0
 247              		.cfi_endproc
 248              	.LFE67:
 249              		.size	forward, .-forward
 250              		.section	.text.reverse,"ax",%progbits
 251              		.align	2
 252              		.global	reverse
 253              		.thumb
ARM GAS  C:\Users\ASUS\AppData\Local\Temp\ccoKtpNE.s 			page 7


 254              		.thumb_func
 255              		.type	reverse, %function
 256              	reverse:
 257              	.LFB68:
  90:main.c        **** }
  91:main.c        **** 
  92:main.c        **** void reverse()
  93:main.c        **** {
 258              		.loc 1 93 0
 259              		.cfi_startproc
 260              		@ args = 0, pretend = 0, frame = 0
 261              		@ frame_needed = 0, uses_anonymous_args = 0
 262 0000 10B5     		push	{r4, lr}
 263              		.cfi_def_cfa_offset 8
 264              		.cfi_offset 4, -8
 265              		.cfi_offset 14, -4
  94:main.c        ****     is_moving = 1;
 266              		.loc 1 94 0
 267 0002 0124     		movs	r4, #1
 268 0004 074B     		ldr	r3, .L20
 269 0006 1C60     		str	r4, [r3]
  95:main.c        ****     Motor_1_IN_1_Write(1);
 270              		.loc 1 95 0
 271 0008 2046     		mov	r0, r4
 272 000a FFF7FEFF 		bl	Motor_1_IN_1_Write
 273              	.LVL21:
  96:main.c        ****     Motor_1_IN_2_Write(0);
 274              		.loc 1 96 0
 275 000e 0020     		movs	r0, #0
 276 0010 FFF7FEFF 		bl	Motor_1_IN_2_Write
 277              	.LVL22:
  97:main.c        ****     Motor_2_IN_3_Write(1);
 278              		.loc 1 97 0
 279 0014 2046     		mov	r0, r4
 280 0016 FFF7FEFF 		bl	Motor_2_IN_3_Write
 281              	.LVL23:
  98:main.c        ****     Motor_2_IN_4_Write(0);
 282              		.loc 1 98 0
 283 001a 0020     		movs	r0, #0
 284 001c FFF7FEFF 		bl	Motor_2_IN_4_Write
 285              	.LVL24:
 286 0020 10BD     		pop	{r4, pc}
 287              	.L21:
 288 0022 00BF     		.align	2
 289              	.L20:
 290 0024 00000000 		.word	.LANCHOR0
 291              		.cfi_endproc
 292              	.LFE68:
 293              		.size	reverse, .-reverse
 294              		.section	.text.turn_anticlockwise,"ax",%progbits
 295              		.align	2
 296              		.global	turn_anticlockwise
 297              		.thumb
 298              		.thumb_func
 299              		.type	turn_anticlockwise, %function
 300              	turn_anticlockwise:
 301              	.LFB69:
ARM GAS  C:\Users\ASUS\AppData\Local\Temp\ccoKtpNE.s 			page 8


  99:main.c        **** }
 100:main.c        **** 
 101:main.c        **** void turn_anticlockwise()
 102:main.c        **** {
 302              		.loc 1 102 0
 303              		.cfi_startproc
 304              		@ args = 0, pretend = 0, frame = 0
 305              		@ frame_needed = 0, uses_anonymous_args = 0
 306 0000 10B5     		push	{r4, lr}
 307              		.cfi_def_cfa_offset 8
 308              		.cfi_offset 4, -8
 309              		.cfi_offset 14, -4
 103:main.c        ****     is_moving = 1;
 310              		.loc 1 103 0
 311 0002 0124     		movs	r4, #1
 312 0004 074B     		ldr	r3, .L24
 313 0006 1C60     		str	r4, [r3]
 104:main.c        ****     Motor_1_IN_1_Write(0);
 314              		.loc 1 104 0
 315 0008 0020     		movs	r0, #0
 316 000a FFF7FEFF 		bl	Motor_1_IN_1_Write
 317              	.LVL25:
 105:main.c        ****     Motor_1_IN_2_Write(1);
 318              		.loc 1 105 0
 319 000e 2046     		mov	r0, r4
 320 0010 FFF7FEFF 		bl	Motor_1_IN_2_Write
 321              	.LVL26:
 106:main.c        ****     Motor_2_IN_3_Write(1);
 322              		.loc 1 106 0
 323 0014 2046     		mov	r0, r4
 324 0016 FFF7FEFF 		bl	Motor_2_IN_3_Write
 325              	.LVL27:
 107:main.c        ****     Motor_2_IN_4_Write(0);
 326              		.loc 1 107 0
 327 001a 0020     		movs	r0, #0
 328 001c FFF7FEFF 		bl	Motor_2_IN_4_Write
 329              	.LVL28:
 330 0020 10BD     		pop	{r4, pc}
 331              	.L25:
 332 0022 00BF     		.align	2
 333              	.L24:
 334 0024 00000000 		.word	.LANCHOR0
 335              		.cfi_endproc
 336              	.LFE69:
 337              		.size	turn_anticlockwise, .-turn_anticlockwise
 338              		.section	.text.turn_clockwise,"ax",%progbits
 339              		.align	2
 340              		.global	turn_clockwise
 341              		.thumb
 342              		.thumb_func
 343              		.type	turn_clockwise, %function
 344              	turn_clockwise:
 345              	.LFB70:
 108:main.c        **** }
 109:main.c        **** 
 110:main.c        **** void turn_clockwise()
 111:main.c        **** {
ARM GAS  C:\Users\ASUS\AppData\Local\Temp\ccoKtpNE.s 			page 9


 346              		.loc 1 111 0
 347              		.cfi_startproc
 348              		@ args = 0, pretend = 0, frame = 0
 349              		@ frame_needed = 0, uses_anonymous_args = 0
 350 0000 10B5     		push	{r4, lr}
 351              		.cfi_def_cfa_offset 8
 352              		.cfi_offset 4, -8
 353              		.cfi_offset 14, -4
 112:main.c        ****     is_moving = 1;
 354              		.loc 1 112 0
 355 0002 0124     		movs	r4, #1
 356 0004 074B     		ldr	r3, .L28
 357 0006 1C60     		str	r4, [r3]
 113:main.c        ****     Motor_1_IN_1_Write(1);
 358              		.loc 1 113 0
 359 0008 2046     		mov	r0, r4
 360 000a FFF7FEFF 		bl	Motor_1_IN_1_Write
 361              	.LVL29:
 114:main.c        ****     Motor_1_IN_2_Write(0);
 362              		.loc 1 114 0
 363 000e 0020     		movs	r0, #0
 364 0010 FFF7FEFF 		bl	Motor_1_IN_2_Write
 365              	.LVL30:
 115:main.c        ****     Motor_2_IN_3_Write(0);
 366              		.loc 1 115 0
 367 0014 0020     		movs	r0, #0
 368 0016 FFF7FEFF 		bl	Motor_2_IN_3_Write
 369              	.LVL31:
 116:main.c        ****     Motor_2_IN_4_Write(1);
 370              		.loc 1 116 0
 371 001a 2046     		mov	r0, r4
 372 001c FFF7FEFF 		bl	Motor_2_IN_4_Write
 373              	.LVL32:
 374 0020 10BD     		pop	{r4, pc}
 375              	.L29:
 376 0022 00BF     		.align	2
 377              	.L28:
 378 0024 00000000 		.word	.LANCHOR0
 379              		.cfi_endproc
 380              	.LFE70:
 381              		.size	turn_clockwise, .-turn_clockwise
 382              		.global	__aeabi_fcmpgt
 383              		.global	__aeabi_dsub
 384              		.section	.text.F_or_R,"ax",%progbits
 385              		.align	2
 386              		.global	F_or_R
 387              		.thumb
 388              		.thumb_func
 389              		.type	F_or_R, %function
 390              	F_or_R:
 391              	.LFB71:
 117:main.c        **** }
 118:main.c        **** void F_or_R(int dist_count, int flag_FR)
 119:main.c        **** {
 392              		.loc 1 119 0
 393              		.cfi_startproc
 394              		@ args = 0, pretend = 0, frame = 0
ARM GAS  C:\Users\ASUS\AppData\Local\Temp\ccoKtpNE.s 			page 10


 395              		@ frame_needed = 0, uses_anonymous_args = 0
 396              	.LVL33:
 397 0000 70B5     		push	{r4, r5, r6, lr}
 398              		.cfi_def_cfa_offset 16
 399              		.cfi_offset 4, -16
 400              		.cfi_offset 5, -12
 401              		.cfi_offset 6, -8
 402              		.cfi_offset 14, -4
 403 0002 0546     		mov	r5, r0
 404 0004 0E46     		mov	r6, r1
 405              	.LVL34:
 120:main.c        ****     double avg_count, avg_dist;
 121:main.c        ****     int flag_stop = 0;
 122:main.c        ****     //while(abs(Count_Master) <= dist_count && abs(Count_Slave) <= dist_count && front_measured>10)
 123:main.c        ****     while(abs(Count_Master) <= dist_count && abs(Count_Slave) <= dist_count && front_measured>10)
 406              		.loc 1 123 0
 407 0006 1EE0     		b	.L31
 408              	.LVL35:
 409              	.L37:
 124:main.c        ****     {
 125:main.c        ****         /* Place your application code here. */
 126:main.c        ****         Count_Master = QuadDec_1_GetCounter();
 410              		.loc 1 126 0
 411 0008 FFF7FEFF 		bl	QuadDec_1_GetCounter
 412              	.LVL36:
 413 000c 3C4C     		ldr	r4, .L43+8
 414 000e 6060     		str	r0, [r4, #4]
 127:main.c        ****         Count_Slave = QuadDec_2_GetCounter();
 415              		.loc 1 127 0
 416 0010 FFF7FEFF 		bl	QuadDec_2_GetCounter
 417              	.LVL37:
 418 0014 A060     		str	r0, [r4, #8]
 128:main.c        ****         /*
 129:main.c        ****         sprintf(string_1, "Right (Master): %d\n", Count_Master);
 130:main.c        ****         UART_1_PutString(string_1);
 131:main.c        ****         sprintf(string_2, "Left (Slave): %d\n", Count_Slave);
 132:main.c        ****         UART_1_PutString(string_2);
 133:main.c        ****         sprintf(string_3, "PWM_Slave: %f\n", PWM_Slave);
 134:main.c        ****         UART_1_PutString(string_3);
 135:main.c        **** 
 136:main.c        ****         CyDelay(100);
 137:main.c        ****         */
 138:main.c        ****         
 139:main.c        ****         /*
 140:main.c        ****         if (front_measured <10)
 141:main.c        ****         {
 142:main.c        ****             flag_stop = flag_stop+1;
 143:main.c        ****         }
 144:main.c        ****         */
 145:main.c        ****         if (flag_FR==1)
 419              		.loc 1 145 0
 420 0016 012E     		cmp	r6, #1
 421 0018 02D1     		bne	.L32
 146:main.c        ****         {
 147:main.c        ****             forward();
 422              		.loc 1 147 0
 423 001a FFF7FEFF 		bl	forward
ARM GAS  C:\Users\ASUS\AppData\Local\Temp\ccoKtpNE.s 			page 11


 424              	.LVL38:
 425 001e 01E0     		b	.L33
 426              	.L32:
 148:main.c        ****         }
 149:main.c        ****         else
 150:main.c        ****         {
 151:main.c        ****             reverse();
 427              		.loc 1 151 0
 428 0020 FFF7FEFF 		bl	reverse
 429              	.LVL39:
 430              	.L33:
 152:main.c        ****         }
 153:main.c        ****         CyDelay(50);
 431              		.loc 1 153 0
 432 0024 3220     		movs	r0, #50
 433 0026 FFF7FEFF 		bl	CyDelay
 434              	.LVL40:
 154:main.c        ****         while(Front_Echo_Read()==0)
 435              		.loc 1 154 0
 436 002a 08E0     		b	.L34
 437              	.L35:
 155:main.c        ****         {
 156:main.c        ****             Front_Trigger_Write(1);
 438              		.loc 1 156 0
 439 002c 0120     		movs	r0, #1
 440 002e FFF7FEFF 		bl	Front_Trigger_Write
 441              	.LVL41:
 157:main.c        ****             CyDelayUs(10);
 442              		.loc 1 157 0
 443 0032 0A20     		movs	r0, #10
 444 0034 FFF7FEFF 		bl	CyDelayUs
 445              	.LVL42:
 158:main.c        ****             Front_Trigger_Write(0);
 446              		.loc 1 158 0
 447 0038 0020     		movs	r0, #0
 448 003a FFF7FEFF 		bl	Front_Trigger_Write
 449              	.LVL43:
 450              	.L34:
 154:main.c        ****         {
 451              		.loc 1 154 0
 452 003e FFF7FEFF 		bl	Front_Echo_Read
 453              	.LVL44:
 454 0042 0028     		cmp	r0, #0
 455 0044 F2D0     		beq	.L35
 456              	.L31:
 123:main.c        ****     {
 457              		.loc 1 123 0
 458 0046 2E4B     		ldr	r3, .L43+8
 459 0048 5B68     		ldr	r3, [r3, #4]
 460 004a 002B     		cmp	r3, #0
 461 004c B8BF     		it	lt
 462 004e 5B42     		rsblt	r3, r3, #0
 463 0050 AB42     		cmp	r3, r5
 464 0052 0DDC     		bgt	.L36
 123:main.c        ****     {
 465              		.loc 1 123 0 is_stmt 0 discriminator 1
 466 0054 2A4B     		ldr	r3, .L43+8
ARM GAS  C:\Users\ASUS\AppData\Local\Temp\ccoKtpNE.s 			page 12


 467 0056 9B68     		ldr	r3, [r3, #8]
 468 0058 002B     		cmp	r3, #0
 469 005a B8BF     		it	lt
 470 005c 5B42     		rsblt	r3, r3, #0
 471 005e 9D42     		cmp	r5, r3
 472 0060 06DB     		blt	.L36
 123:main.c        ****     {
 473              		.loc 1 123 0 discriminator 2
 474 0062 2849     		ldr	r1, .L43+12
 475 0064 264B     		ldr	r3, .L43+8
 476 0066 586A     		ldr	r0, [r3, #36]	@ float
 477 0068 FFF7FEFF 		bl	__aeabi_fcmpgt
 478              	.LVL45:
 479 006c 0028     		cmp	r0, #0
 480 006e CBD1     		bne	.L37
 481              	.L36:
 159:main.c        ****         }
 160:main.c        ****     }
 161:main.c        ****     stop();
 482              		.loc 1 161 0 is_stmt 1
 483 0070 FFF7FEFF 		bl	stop
 484              	.LVL46:
 162:main.c        ****     avg_count = (QuadDec_1_GetCounter()+QuadDec_2_GetCounter())/2;
 485              		.loc 1 162 0
 486 0074 FFF7FEFF 		bl	QuadDec_1_GetCounter
 487              	.LVL47:
 488 0078 0446     		mov	r4, r0
 489 007a FFF7FEFF 		bl	QuadDec_2_GetCounter
 490              	.LVL48:
 491 007e 2044     		add	r0, r0, r4
 492 0080 00EBD070 		add	r0, r0, r0, lsr #31
 493 0084 4010     		asrs	r0, r0, #1
 494 0086 FFF7FEFF 		bl	__aeabi_i2d
 495              	.LVL49:
 163:main.c        ****     avg_dist = avg_count*(M_PI*WHEEL_DIAMETER/3667);
 496              		.loc 1 163 0
 497 008a 1BA3     		adr	r3, .L43
 498 008c D3E90023 		ldrd	r2, [r3]
 499 0090 FFF7FEFF 		bl	__aeabi_dmul
 500              	.LVL50:
 164:main.c        ****     if (direction ==0)
 501              		.loc 1 164 0
 502 0094 1A4B     		ldr	r3, .L43+8
 503 0096 9B6A     		ldr	r3, [r3, #40]
 504 0098 3BB9     		cbnz	r3, .L38
 165:main.c        ****     {
 166:main.c        ****         y_coord = y_coord + avg_dist;
 505              		.loc 1 166 0
 506 009a 194C     		ldr	r4, .L43+8
 507 009c D4E90C23 		ldrd	r2, [r4, #48]
 508 00a0 FFF7FEFF 		bl	__aeabi_dadd
 509              	.LVL51:
 510 00a4 C4E90C01 		strd	r0, [r4, #48]
 511 00a8 20E0     		b	.L39
 512              	.LVL52:
 513              	.L38:
 167:main.c        ****     }
ARM GAS  C:\Users\ASUS\AppData\Local\Temp\ccoKtpNE.s 			page 13


 168:main.c        ****     else if (direction ==1)
 514              		.loc 1 168 0
 515 00aa 012B     		cmp	r3, #1
 516 00ac 07D1     		bne	.L40
 169:main.c        ****     {
 170:main.c        ****         
 171:main.c        ****         x_coord = x_coord + avg_dist;
 517              		.loc 1 171 0
 518 00ae 144C     		ldr	r4, .L43+8
 519 00b0 D4E90E23 		ldrd	r2, [r4, #56]
 520 00b4 FFF7FEFF 		bl	__aeabi_dadd
 521              	.LVL53:
 522 00b8 C4E90E01 		strd	r0, [r4, #56]
 523 00bc 16E0     		b	.L39
 524              	.LVL54:
 525              	.L40:
 172:main.c        ****     }
 173:main.c        ****     else if (direction ==2)
 526              		.loc 1 173 0
 527 00be 022B     		cmp	r3, #2
 528 00c0 09D1     		bne	.L41
 174:main.c        ****     {
 175:main.c        ****         
 176:main.c        ****         y_coord = y_coord - avg_dist;
 529              		.loc 1 176 0
 530 00c2 0F4C     		ldr	r4, .L43+8
 531 00c4 0246     		mov	r2, r0
 532 00c6 0B46     		mov	r3, r1
 533 00c8 D4E90C01 		ldrd	r0, [r4, #48]
 534              	.LVL55:
 535 00cc FFF7FEFF 		bl	__aeabi_dsub
 536              	.LVL56:
 537 00d0 C4E90C01 		strd	r0, [r4, #48]
 538 00d4 0AE0     		b	.L39
 539              	.LVL57:
 540              	.L41:
 177:main.c        ****     }
 178:main.c        ****     else if (direction ==3)
 541              		.loc 1 178 0
 542 00d6 032B     		cmp	r3, #3
 543 00d8 08D1     		bne	.L39
 179:main.c        ****     {
 180:main.c        ****         
 181:main.c        ****         x_coord = x_coord - avg_dist;
 544              		.loc 1 181 0
 545 00da 094C     		ldr	r4, .L43+8
 546 00dc 0246     		mov	r2, r0
 547 00de 0B46     		mov	r3, r1
 548 00e0 D4E90E01 		ldrd	r0, [r4, #56]
 549              	.LVL58:
 550 00e4 FFF7FEFF 		bl	__aeabi_dsub
 551              	.LVL59:
 552 00e8 C4E90E01 		strd	r0, [r4, #56]
 553              	.L39:
 182:main.c        ****     }
 183:main.c        ****     step = step +1;
 554              		.loc 1 183 0
ARM GAS  C:\Users\ASUS\AppData\Local\Temp\ccoKtpNE.s 			page 14


 555 00ec 044A     		ldr	r2, .L43+8
 556 00ee 136C     		ldr	r3, [r2, #64]
 557 00f0 0133     		adds	r3, r3, #1
 558 00f2 1364     		str	r3, [r2, #64]
 559 00f4 70BD     		pop	{r4, r5, r6, pc}
 560              	.LVL60:
 561              	.L44:
 562 00f6 00BF     		.align	3
 563              	.L43:
 564 00f8 269071E4 		.word	-462319578
 565 00fc 03F3723F 		.word	1064497923
 566 0100 00000000 		.word	.LANCHOR0
 567 0104 00002041 		.word	1092616192
 568              		.cfi_endproc
 569              	.LFE71:
 570              		.size	F_or_R, .-F_or_R
 571              		.section	.text.CW,"ax",%progbits
 572              		.align	2
 573              		.global	CW
 574              		.thumb
 575              		.thumb_func
 576              		.type	CW, %function
 577              	CW:
 578              	.LFB72:
 184:main.c        ****     //
 185:main.c        ****     //QuadDec_2_SetCounter(0);
 186:main.c        **** }
 187:main.c        **** void CW(int PT_TURN_COUNT, int flag_CW)
 188:main.c        **** {
 579              		.loc 1 188 0
 580              		.cfi_startproc
 581              		@ args = 0, pretend = 0, frame = 0
 582              		@ frame_needed = 0, uses_anonymous_args = 0
 583              	.LVL61:
 584 0000 70B5     		push	{r4, r5, r6, lr}
 585              		.cfi_def_cfa_offset 16
 586              		.cfi_offset 4, -16
 587              		.cfi_offset 5, -12
 588              		.cfi_offset 6, -8
 589              		.cfi_offset 14, -4
 590 0002 0546     		mov	r5, r0
 591 0004 0E46     		mov	r6, r1
 189:main.c        ****     while(abs(Count_Master) <= PT_TURN_COUNT && abs(Count_Slave) <= PT_TURN_COUNT)
 592              		.loc 1 189 0
 593 0006 0DE0     		b	.L46
 594              	.LVL62:
 595              	.L50:
 190:main.c        ****     {
 191:main.c        ****         /* Place your application code here. */
 192:main.c        ****         Count_Master = QuadDec_1_GetCounter();
 596              		.loc 1 192 0
 597 0008 FFF7FEFF 		bl	QuadDec_1_GetCounter
 598              	.LVL63:
 599 000c 1D4C     		ldr	r4, .L56
 600 000e 6060     		str	r0, [r4, #4]
 193:main.c        ****         Count_Slave = QuadDec_2_GetCounter();
 601              		.loc 1 193 0
ARM GAS  C:\Users\ASUS\AppData\Local\Temp\ccoKtpNE.s 			page 15


 602 0010 FFF7FEFF 		bl	QuadDec_2_GetCounter
 603              	.LVL64:
 604 0014 A060     		str	r0, [r4, #8]
 194:main.c        ****         /*
 195:main.c        ****         sprintf(string_1, "Right (Master): %d\n", Count_Master);
 196:main.c        ****         UART_1_PutString(string_1);
 197:main.c        ****         sprintf(string_2, "Left (Slave): %d\n", Count_Slave);
 198:main.c        ****         UART_1_PutString(string_2);
 199:main.c        ****         sprintf(string_3, "PWM_Slave: %f\n", PWM_Slave);
 200:main.c        ****         UART_1_PutString(string_3);
 201:main.c        **** 
 202:main.c        ****         CyDelay(100);
 203:main.c        ****         */
 204:main.c        ****         if (flag_CW == 1)
 605              		.loc 1 204 0
 606 0016 012E     		cmp	r6, #1
 607 0018 02D1     		bne	.L47
 205:main.c        ****         {
 206:main.c        ****             turn_clockwise();
 608              		.loc 1 206 0
 609 001a FFF7FEFF 		bl	turn_clockwise
 610              	.LVL65:
 611 001e 01E0     		b	.L46
 612              	.L47:
 207:main.c        ****         }
 208:main.c        ****         else 
 209:main.c        ****         {
 210:main.c        ****             turn_anticlockwise();
 613              		.loc 1 210 0
 614 0020 FFF7FEFF 		bl	turn_anticlockwise
 615              	.LVL66:
 616              	.L46:
 189:main.c        ****     {
 617              		.loc 1 189 0
 618 0024 174B     		ldr	r3, .L56
 619 0026 5B68     		ldr	r3, [r3, #4]
 620 0028 002B     		cmp	r3, #0
 621 002a B8BF     		it	lt
 622 002c 5B42     		rsblt	r3, r3, #0
 623 002e AB42     		cmp	r3, r5
 624 0030 06DC     		bgt	.L49
 189:main.c        ****     {
 625              		.loc 1 189 0 is_stmt 0 discriminator 1
 626 0032 144B     		ldr	r3, .L56
 627 0034 9B68     		ldr	r3, [r3, #8]
 628 0036 002B     		cmp	r3, #0
 629 0038 B8BF     		it	lt
 630 003a 5B42     		rsblt	r3, r3, #0
 631 003c 9D42     		cmp	r5, r3
 632 003e E3DA     		bge	.L50
 633              	.L49:
 211:main.c        ****         }
 212:main.c        ****     }
 213:main.c        ****     stop();
 634              		.loc 1 213 0 is_stmt 1
 635 0040 FFF7FEFF 		bl	stop
 636              	.LVL67:
ARM GAS  C:\Users\ASUS\AppData\Local\Temp\ccoKtpNE.s 			page 16


 214:main.c        ****     if (flag_CW == 1)
 637              		.loc 1 214 0
 638 0044 012E     		cmp	r6, #1
 639 0046 0BD1     		bne	.L51
 215:main.c        ****     {
 216:main.c        ****         if (direction == 3)
 640              		.loc 1 216 0
 641 0048 0E4B     		ldr	r3, .L56
 642 004a 9B6A     		ldr	r3, [r3, #40]
 643 004c 032B     		cmp	r3, #3
 644 004e 03D1     		bne	.L52
 217:main.c        ****         {
 218:main.c        ****             direction = 0;
 645              		.loc 1 218 0
 646 0050 0022     		movs	r2, #0
 647 0052 0C4B     		ldr	r3, .L56
 648 0054 9A62     		str	r2, [r3, #40]
 649 0056 0DE0     		b	.L53
 650              	.L52:
 219:main.c        ****         }
 220:main.c        ****         else
 221:main.c        ****         {
 222:main.c        ****             direction = direction +1;
 651              		.loc 1 222 0
 652 0058 0133     		adds	r3, r3, #1
 653 005a 0A4A     		ldr	r2, .L56
 654 005c 9362     		str	r3, [r2, #40]
 655 005e 09E0     		b	.L53
 656              	.L51:
 223:main.c        ****         }
 224:main.c        ****     }
 225:main.c        ****     else
 226:main.c        ****     {
 227:main.c        ****         if (direction ==0)
 657              		.loc 1 227 0
 658 0060 084B     		ldr	r3, .L56
 659 0062 9B6A     		ldr	r3, [r3, #40]
 660 0064 1BB9     		cbnz	r3, .L54
 228:main.c        ****         {
 229:main.c        ****             direction = 3;
 661              		.loc 1 229 0
 662 0066 0322     		movs	r2, #3
 663 0068 064B     		ldr	r3, .L56
 664 006a 9A62     		str	r2, [r3, #40]
 665 006c 02E0     		b	.L53
 666              	.L54:
 230:main.c        ****         }
 231:main.c        ****         else
 232:main.c        ****         {
 233:main.c        ****             direction = direction -1;
 667              		.loc 1 233 0
 668 006e 013B     		subs	r3, r3, #1
 669 0070 044A     		ldr	r2, .L56
 670 0072 9362     		str	r3, [r2, #40]
 671              	.L53:
 234:main.c        ****         }
 235:main.c        ****     }
ARM GAS  C:\Users\ASUS\AppData\Local\Temp\ccoKtpNE.s 			page 17


 236:main.c        ****     QuadDec_1_SetCounter(0);
 672              		.loc 1 236 0
 673 0074 0020     		movs	r0, #0
 674 0076 FFF7FEFF 		bl	QuadDec_1_SetCounter
 675              	.LVL68:
 237:main.c        ****     QuadDec_2_SetCounter(0);
 676              		.loc 1 237 0
 677 007a 0020     		movs	r0, #0
 678 007c FFF7FEFF 		bl	QuadDec_2_SetCounter
 679              	.LVL69:
 680 0080 70BD     		pop	{r4, r5, r6, pc}
 681              	.LVL70:
 682              	.L57:
 683 0082 00BF     		.align	2
 684              	.L56:
 685 0084 00000000 		.word	.LANCHOR0
 686              		.cfi_endproc
 687              	.LFE72:
 688              		.size	CW, .-CW
 689              		.section	.text.main,"ax",%progbits
 690              		.align	2
 691              		.global	main
 692              		.thumb
 693              		.thumb_func
 694              		.type	main, %function
 695              	main:
 696              	.LFB73:
 238:main.c        **** }
 239:main.c        ****             
 240:main.c        **** int main(void)
 241:main.c        **** {
 697              		.loc 1 241 0
 698              		.cfi_startproc
 699              		@ args = 0, pretend = 0, frame = 0
 700              		@ frame_needed = 0, uses_anonymous_args = 0
 701 0000 10B5     		push	{r4, lr}
 702              		.cfi_def_cfa_offset 8
 703              		.cfi_offset 4, -8
 704              		.cfi_offset 14, -4
 242:main.c        ****     CyGlobalIntEnable; /* Enable global interrupts. */
 705              		.loc 1 242 0
 706              		.syntax unified
 707              	@ 242 "main.c" 1
 708 0002 62B6     		CPSIE   i
 709              	@ 0 "" 2
 243:main.c        ****     isr_1_StartEx(Speed_Control);
 710              		.loc 1 243 0
 711              		.thumb
 712              		.syntax unified
 713 0004 2748     		ldr	r0, .L64
 714 0006 FFF7FEFF 		bl	isr_1_StartEx
 715              	.LVL71:
 244:main.c        ****     /* Place your initialization/startup code here (e.g. MyInst_Start()) */
 245:main.c        ****     Timer_1_Start();
 716              		.loc 1 245 0
 717 000a FFF7FEFF 		bl	Timer_1_Start
 718              	.LVL72:
ARM GAS  C:\Users\ASUS\AppData\Local\Temp\ccoKtpNE.s 			page 18


 246:main.c        ****     Timer_2_Start();
 719              		.loc 1 246 0
 720 000e FFF7FEFF 		bl	Timer_2_Start
 721              	.LVL73:
 247:main.c        ****     isr_2_StartEx(dist_front_detection);
 722              		.loc 1 247 0
 723 0012 2548     		ldr	r0, .L64+4
 724 0014 FFF7FEFF 		bl	isr_2_StartEx
 725              	.LVL74:
 248:main.c        ****     PWM_Master_Start();
 726              		.loc 1 248 0
 727 0018 FFF7FEFF 		bl	PWM_Master_Start
 728              	.LVL75:
 249:main.c        ****     PWM_Slave_Start();
 729              		.loc 1 249 0
 730 001c FFF7FEFF 		bl	PWM_Slave_Start
 731              	.LVL76:
 250:main.c        ****     QuadDec_1_Start();
 732              		.loc 1 250 0
 733 0020 FFF7FEFF 		bl	QuadDec_1_Start
 734              	.LVL77:
 251:main.c        ****     QuadDec_1_SetCounter(0);
 735              		.loc 1 251 0
 736 0024 0020     		movs	r0, #0
 737 0026 FFF7FEFF 		bl	QuadDec_1_SetCounter
 738              	.LVL78:
 252:main.c        ****     QuadDec_2_Start();
 739              		.loc 1 252 0
 740 002a FFF7FEFF 		bl	QuadDec_2_Start
 741              	.LVL79:
 253:main.c        ****     QuadDec_2_SetCounter(0);
 742              		.loc 1 253 0
 743 002e 0020     		movs	r0, #0
 744 0030 FFF7FEFF 		bl	QuadDec_2_SetCounter
 745              	.LVL80:
 254:main.c        ****     UART_1_Start();
 746              		.loc 1 254 0
 747 0034 FFF7FEFF 		bl	UART_1_Start
 748              	.LVL81:
 255:main.c        ****     
 256:main.c        ****     const double WHEEL_CIRCUMFERENCE = M_PI*WHEEL_DIAMETER;
 257:main.c        ****     const double COUNT_WHEEL = 3667; // Count per rotation
 258:main.c        ****     
 259:main.c        ****     const double CM_COUNT_CONV = COUNT_WHEEL/WHEEL_CIRCUMFERENCE;
 260:main.c        ****     const double DISTANCE_BETW_WHEEL = 22.30;
 261:main.c        ****     const double DISTANCE_PT_TURN = M_PI*DISTANCE_BETW_WHEEL/4;
 262:main.c        ****     const double PT_TURN_COUNT = COUNT_WHEEL * DISTANCE_PT_TURN/(M_PI*WHEEL_DIAMETER)-500;
 263:main.c        **** 
 264:main.c        ****     int flag_FR = 1;
 265:main.c        ****     int flag_CW = 1;
 266:main.c        ****     //Motor_1_IN_1_Write(1);
 267:main.c        ****     //Motor_1_IN_2_Write(0);
 268:main.c        ****     //Motor_2_IN_3_Write(1);
 269:main.c        ****     //Motor_2_IN_4_Write(0);
 270:main.c        ****     PWM_Master_WriteCompare(PWM_Master);
 749              		.loc 1 270 0
 750 0038 1C4C     		ldr	r4, .L64+8
ARM GAS  C:\Users\ASUS\AppData\Local\Temp\ccoKtpNE.s 			page 19


 751 003a A068     		ldr	r0, [r4, #8]	@ float
 752 003c FFF7FEFF 		bl	__aeabi_f2uiz
 753              	.LVL82:
 754 0040 80B2     		uxth	r0, r0
 755 0042 FFF7FEFF 		bl	PWM_Master_WriteCompare
 756              	.LVL83:
 271:main.c        ****     PWM_Slave_WriteCompare(PWM_Master);
 757              		.loc 1 271 0
 758 0046 A068     		ldr	r0, [r4, #8]	@ float
 759 0048 FFF7FEFF 		bl	__aeabi_f2uiz
 760              	.LVL84:
 761 004c 80B2     		uxth	r0, r0
 762 004e FFF7FEFF 		bl	PWM_Slave_WriteCompare
 763              	.LVL85:
 272:main.c        ****     double dist_trav = 0;
 273:main.c        ****     double dist_count = dist_trav*CM_COUNT_CONV;
 274:main.c        ****     CyDelay(2000);
 764              		.loc 1 274 0
 765 0052 4FF4FA60 		mov	r0, #2000
 766 0056 FFF7FEFF 		bl	CyDelay
 767              	.LVL86:
 275:main.c        ****     /*
 276:main.c        ****     while(1)
 277:main.c        ****     {
 278:main.c        ****         CyDelay(50);
 279:main.c        ****         while(Front_Echo_Read()==0)
 280:main.c        ****         {
 281:main.c        ****             Front_Trigger_Write(1);
 282:main.c        ****             CyDelayUs(10);
 283:main.c        ****             Front_Trigger_Write(0);
 284:main.c        ****         }
 285:main.c        ****     }
 286:main.c        ****     */
 287:main.c        ****     
 288:main.c        ****     while (step == 0)
 768              		.loc 1 288 0
 769 005a 04E0     		b	.L59
 770              	.LVL87:
 771              	.L60:
 289:main.c        ****     {
 290:main.c        ****         flag_FR = 1;
 291:main.c        ****         flag_CW = 1;
 292:main.c        ****         dist_trav = 20;
 293:main.c        ****         dist_count = dist_trav*CM_COUNT_CONV;
 294:main.c        ****         F_or_R(dist_count, flag_FR);
 772              		.loc 1 294 0
 773 005c 0121     		movs	r1, #1
 774 005e 41F2E300 		movw	r0, #4323
 775 0062 FFF7FEFF 		bl	F_or_R
 776              	.LVL88:
 777              	.L59:
 288:main.c        ****     {
 778              		.loc 1 288 0
 779 0066 124B     		ldr	r3, .L64+12
 780 0068 1B6C     		ldr	r3, [r3, #64]
 781 006a 002B     		cmp	r3, #0
 782 006c F6D0     		beq	.L60
ARM GAS  C:\Users\ASUS\AppData\Local\Temp\ccoKtpNE.s 			page 20


 295:main.c        ****         
 296:main.c        ****         //CW(PT_TURN_COUNT,flag_CW);
 297:main.c        ****         /*
 298:main.c        ****         CW(PT_TURN_COUNT, flag_CW);
 299:main.c        ****         dist_trav = 50;
 300:main.c        ****         dist_count = dist_trav*CM_COUNT_CONV;
 301:main.c        ****         flag_FR = 1;
 302:main.c        ****         F_or_R(dist_count, flag_FR);
 303:main.c        ****         step = step+1;*/
 304:main.c        ****     
 305:main.c        ****     }
 306:main.c        ****     CyDelay(500);
 783              		.loc 1 306 0
 784 006e 4FF4FA70 		mov	r0, #500
 785 0072 FFF7FEFF 		bl	CyDelay
 786              	.LVL89:
 307:main.c        ****     QuadDec_1_SetCounter(0);
 787              		.loc 1 307 0
 788 0076 0020     		movs	r0, #0
 789 0078 FFF7FEFF 		bl	QuadDec_1_SetCounter
 790              	.LVL90:
 308:main.c        ****     QuadDec_2_SetCounter(0);
 791              		.loc 1 308 0
 792 007c 0020     		movs	r0, #0
 793 007e FFF7FEFF 		bl	QuadDec_2_SetCounter
 794              	.LVL91:
 309:main.c        ****     Count_Master = 0;
 795              		.loc 1 309 0
 796 0082 0B4B     		ldr	r3, .L64+12
 797 0084 0022     		movs	r2, #0
 798 0086 5A60     		str	r2, [r3, #4]
 310:main.c        ****     Count_Slave = 0;
 799              		.loc 1 310 0
 800 0088 9A60     		str	r2, [r3, #8]
 311:main.c        ****         
 312:main.c        ****     while (step == 1)
 801              		.loc 1 312 0
 802 008a 04E0     		b	.L61
 803              	.L62:
 313:main.c        ****     {
 314:main.c        ****         flag_CW = 1;
 315:main.c        ****         CW(PT_TURN_COUNT,flag_CW);
 804              		.loc 1 315 0
 805 008c 0121     		movs	r1, #1
 806 008e 40F6D540 		movw	r0, #3285
 807 0092 FFF7FEFF 		bl	CW
 808              	.LVL92:
 809              	.L61:
 312:main.c        ****     {
 810              		.loc 1 312 0
 811 0096 064B     		ldr	r3, .L64+12
 812 0098 1B6C     		ldr	r3, [r3, #64]
 813 009a 012B     		cmp	r3, #1
 814 009c F6D0     		beq	.L62
 316:main.c        ****     }
 317:main.c        ****     
 318:main.c        ****     
ARM GAS  C:\Users\ASUS\AppData\Local\Temp\ccoKtpNE.s 			page 21


 319:main.c        ****     
 320:main.c        ****     //stop();
 321:main.c        **** }
 815              		.loc 1 321 0
 816 009e 0020     		movs	r0, #0
 817 00a0 10BD     		pop	{r4, pc}
 818              	.L65:
 819 00a2 00BF     		.align	2
 820              	.L64:
 821 00a4 00000000 		.word	Speed_Control
 822 00a8 00000000 		.word	dist_front_detection
 823 00ac 00000000 		.word	.LANCHOR1
 824 00b0 00000000 		.word	.LANCHOR0
 825              		.cfi_endproc
 826              	.LFE73:
 827              		.size	main, .-main
 828              		.global	step
 829              		.global	direction
 830              		.global	y_coord
 831              		.global	x_coord
 832              		.global	front_measured
 833              		.global	front_det_count
 834              		.global	is_moving
 835              		.global	PWM_Slave
 836              		.global	PWM_Master
 837              		.global	K_d
 838              		.global	K_i
 839              		.global	K_p
 840              		.global	timer_period
 841              		.global	derivative_error
 842              		.global	last_error
 843              		.global	accumulated_error
 844              		.global	error
 845              		.comm	string_3,20,4
 846              		.comm	string_2,20,4
 847              		.comm	string_1,20,4
 848              		.global	Count_Slave
 849              		.global	Count_Master
 850              		.global	WHEEL_DIAMETER
 851              		.section	.rodata
 852              		.align	3
 853              		.type	WHEEL_DIAMETER, %object
 854              		.size	WHEEL_DIAMETER, 8
 855              	WHEEL_DIAMETER:
 856 0000 9A999999 		.word	-1717986918
 857 0004 99991540 		.word	1075157401
 858              		.data
 859              		.align	3
 860              		.set	.LANCHOR1,. + 0
 861              		.type	K_p, %object
 862              		.size	K_p, 8
 863              	K_p:
 864 0000 00000000 		.word	0
 865 0004 00004940 		.word	1078525952
 866              		.type	PWM_Master, %object
 867              		.size	PWM_Master, 4
 868              	PWM_Master:
ARM GAS  C:\Users\ASUS\AppData\Local\Temp\ccoKtpNE.s 			page 22


 869 0008 00B0B346 		.word	1186181120
 870              		.type	PWM_Slave, %object
 871              		.size	PWM_Slave, 4
 872              	PWM_Slave:
 873 000c 00B0B346 		.word	1186181120
 874              		.type	timer_period, %object
 875              		.size	timer_period, 8
 876              	timer_period:
 877 0010 00000000 		.word	0
 878 0014 00001440 		.word	1075052544
 879              		.section	.rodata.str1.4,"aMS",%progbits,1
 880              		.align	2
 881              	.LC0:
 882 0000 66726F6E 		.ascii	"front dist: %lf\012\000"
 882      74206469 
 882      73743A20 
 882      256C660A 
 882      00
 883              		.bss
 884              		.align	3
 885              		.set	.LANCHOR0,. + 0
 886              		.type	is_moving, %object
 887              		.size	is_moving, 4
 888              	is_moving:
 889 0000 00000000 		.space	4
 890              		.type	Count_Master, %object
 891              		.size	Count_Master, 4
 892              	Count_Master:
 893 0004 00000000 		.space	4
 894              		.type	Count_Slave, %object
 895              		.size	Count_Slave, 4
 896              	Count_Slave:
 897 0008 00000000 		.space	4
 898 000c 00000000 		.space	4
 899              		.type	error, %object
 900              		.size	error, 8
 901              	error:
 902 0010 00000000 		.space	8
 902      00000000 
 903              		.type	last_error, %object
 904              		.size	last_error, 8
 905              	last_error:
 906 0018 00000000 		.space	8
 906      00000000 
 907              		.type	front_det_count, %object
 908              		.size	front_det_count, 2
 909              	front_det_count:
 910 0020 0000     		.space	2
 911 0022 0000     		.space	2
 912              		.type	front_measured, %object
 913              		.size	front_measured, 4
 914              	front_measured:
 915 0024 00000000 		.space	4
 916              		.type	direction, %object
 917              		.size	direction, 4
 918              	direction:
 919 0028 00000000 		.space	4
ARM GAS  C:\Users\ASUS\AppData\Local\Temp\ccoKtpNE.s 			page 23


 920 002c 00000000 		.space	4
 921              		.type	y_coord, %object
 922              		.size	y_coord, 8
 923              	y_coord:
 924 0030 00000000 		.space	8
 924      00000000 
 925              		.type	x_coord, %object
 926              		.size	x_coord, 8
 927              	x_coord:
 928 0038 00000000 		.space	8
 928      00000000 
 929              		.type	step, %object
 930              		.size	step, 4
 931              	step:
 932 0040 00000000 		.space	4
 933 0044 00000000 		.space	4
 934              		.type	K_d, %object
 935              		.size	K_d, 8
 936              	K_d:
 937 0048 00000000 		.space	8
 937      00000000 
 938              		.type	K_i, %object
 939              		.size	K_i, 8
 940              	K_i:
 941 0050 00000000 		.space	8
 941      00000000 
 942              		.type	derivative_error, %object
 943              		.size	derivative_error, 8
 944              	derivative_error:
 945 0058 00000000 		.space	8
 945      00000000 
 946              		.type	accumulated_error, %object
 947              		.size	accumulated_error, 8
 948              	accumulated_error:
 949 0060 00000000 		.space	8
 949      00000000 
 950              		.text
 951              	.Letext0:
 952              		.file 2 "c:\\program files (x86)\\cypress\\psoc creator\\4.4\\psoc creator\\import\\gnu\\arm\\5.4.
 953              		.file 3 "c:\\program files (x86)\\cypress\\psoc creator\\4.4\\psoc creator\\import\\gnu\\arm\\5.4.
 954              		.file 4 "Generated_Source\\PSoC5/cytypes.h"
 955              		.file 5 "Generated_Source\\PSoC5/core_cm3.h"
 956              		.file 6 "Generated_Source\\PSoC5/PWM_Slave.h"
 957              		.file 7 "Generated_Source\\PSoC5/Timer_2.h"
 958              		.file 8 "c:\\program files (x86)\\cypress\\psoc creator\\4.4\\psoc creator\\import\\gnu\\arm\\5.4.
 959              		.file 9 "Generated_Source\\PSoC5/UART_1.h"
 960              		.file 10 "Generated_Source\\PSoC5/Motor_1_IN_1.h"
 961              		.file 11 "Generated_Source\\PSoC5/Motor_1_IN_2.h"
 962              		.file 12 "Generated_Source\\PSoC5/Motor_2_IN_3.h"
 963              		.file 13 "Generated_Source\\PSoC5/Motor_2_IN_4.h"
 964              		.file 14 "Generated_Source\\PSoC5/QuadDec_1.h"
 965              		.file 15 "Generated_Source\\PSoC5/QuadDec_2.h"
 966              		.file 16 "Generated_Source\\PSoC5/CyLib.h"
 967              		.file 17 "Generated_Source\\PSoC5/Front_Trigger.h"
 968              		.file 18 "Generated_Source\\PSoC5/Front_Echo.h"
 969              		.file 19 "Generated_Source\\PSoC5/isr_1.h"
 970              		.file 20 "Generated_Source\\PSoC5/Timer_1.h"
ARM GAS  C:\Users\ASUS\AppData\Local\Temp\ccoKtpNE.s 			page 24


 971              		.file 21 "Generated_Source\\PSoC5/isr_2.h"
 972              		.file 22 "Generated_Source\\PSoC5/PWM_Master.h"