ARM GAS  C:\Users\ASUS\AppData\Local\Temp\ccdlTLAr.s 			page 1


   1              		.syntax unified
   2              		.cpu cortex-m3
   3              		.fpu softvfp
   4              		.eabi_attribute 20, 1
   5              		.eabi_attribute 21, 1
   6              		.eabi_attribute 23, 3
   7              		.eabi_attribute 24, 1
   8              		.eabi_attribute 25, 1
   9              		.eabi_attribute 26, 1
  10              		.eabi_attribute 30, 1
  11              		.eabi_attribute 34, 1
  12              		.eabi_attribute 18, 4
  13              		.thumb
  14              		.syntax unified
  15              		.file	"Counter_1.c"
  16              		.text
  17              	.Ltext0:
  18              		.cfi_sections	.debug_frame
  19              		.section	.text.Counter_1_Enable,"ax",%progbits
  20              		.align	2
  21              		.global	Counter_1_Enable
  22              		.thumb
  23              		.thumb_func
  24              		.type	Counter_1_Enable, %function
  25              	Counter_1_Enable:
  26              	.LFB1:
  27              		.file 1 "Generated_Source\\PSoC5\\Counter_1.c"
   1:Generated_Source\PSoC5/Counter_1.c **** /*******************************************************************************
   2:Generated_Source\PSoC5/Counter_1.c **** * File Name: Counter_1.c  
   3:Generated_Source\PSoC5/Counter_1.c **** * Version 3.0
   4:Generated_Source\PSoC5/Counter_1.c **** *
   5:Generated_Source\PSoC5/Counter_1.c **** *  Description:
   6:Generated_Source\PSoC5/Counter_1.c **** *     The Counter component consists of a 8, 16, 24 or 32-bit counter with
   7:Generated_Source\PSoC5/Counter_1.c **** *     a selectable period between 2 and 2^Width - 1.  
   8:Generated_Source\PSoC5/Counter_1.c **** *
   9:Generated_Source\PSoC5/Counter_1.c **** *   Note:
  10:Generated_Source\PSoC5/Counter_1.c **** *     None
  11:Generated_Source\PSoC5/Counter_1.c **** *
  12:Generated_Source\PSoC5/Counter_1.c **** ********************************************************************************
  13:Generated_Source\PSoC5/Counter_1.c **** * Copyright 2008-2012, Cypress Semiconductor Corporation.  All rights reserved.
  14:Generated_Source\PSoC5/Counter_1.c **** * You may use this file only in accordance with the license, terms, conditions, 
  15:Generated_Source\PSoC5/Counter_1.c **** * disclaimers, and limitations in the end user license agreement accompanying 
  16:Generated_Source\PSoC5/Counter_1.c **** * the software package with which this file was provided.
  17:Generated_Source\PSoC5/Counter_1.c **** *******************************************************************************/
  18:Generated_Source\PSoC5/Counter_1.c **** 
  19:Generated_Source\PSoC5/Counter_1.c **** #include "Counter_1.h"
  20:Generated_Source\PSoC5/Counter_1.c **** 
  21:Generated_Source\PSoC5/Counter_1.c **** uint8 Counter_1_initVar = 0u;
  22:Generated_Source\PSoC5/Counter_1.c **** 
  23:Generated_Source\PSoC5/Counter_1.c **** 
  24:Generated_Source\PSoC5/Counter_1.c **** /*******************************************************************************
  25:Generated_Source\PSoC5/Counter_1.c **** * Function Name: Counter_1_Init
  26:Generated_Source\PSoC5/Counter_1.c **** ********************************************************************************
  27:Generated_Source\PSoC5/Counter_1.c **** * Summary:
  28:Generated_Source\PSoC5/Counter_1.c **** *     Initialize to the schematic state
  29:Generated_Source\PSoC5/Counter_1.c **** * 
  30:Generated_Source\PSoC5/Counter_1.c **** * Parameters:  
ARM GAS  C:\Users\ASUS\AppData\Local\Temp\ccdlTLAr.s 			page 2


  31:Generated_Source\PSoC5/Counter_1.c **** *  void  
  32:Generated_Source\PSoC5/Counter_1.c **** *
  33:Generated_Source\PSoC5/Counter_1.c **** * Return: 
  34:Generated_Source\PSoC5/Counter_1.c **** *  void
  35:Generated_Source\PSoC5/Counter_1.c **** *
  36:Generated_Source\PSoC5/Counter_1.c **** *******************************************************************************/
  37:Generated_Source\PSoC5/Counter_1.c **** void Counter_1_Init(void) 
  38:Generated_Source\PSoC5/Counter_1.c **** {
  39:Generated_Source\PSoC5/Counter_1.c ****         #if (!Counter_1_UsingFixedFunction && !Counter_1_ControlRegRemoved)
  40:Generated_Source\PSoC5/Counter_1.c ****             uint8 ctrl;
  41:Generated_Source\PSoC5/Counter_1.c ****         #endif /* (!Counter_1_UsingFixedFunction && !Counter_1_ControlRegRemoved) */
  42:Generated_Source\PSoC5/Counter_1.c ****         
  43:Generated_Source\PSoC5/Counter_1.c ****         #if(!Counter_1_UsingFixedFunction) 
  44:Generated_Source\PSoC5/Counter_1.c ****             /* Interrupt State Backup for Critical Region*/
  45:Generated_Source\PSoC5/Counter_1.c ****             uint8 Counter_1_interruptState;
  46:Generated_Source\PSoC5/Counter_1.c ****         #endif /* (!Counter_1_UsingFixedFunction) */
  47:Generated_Source\PSoC5/Counter_1.c ****         
  48:Generated_Source\PSoC5/Counter_1.c ****         #if (Counter_1_UsingFixedFunction)
  49:Generated_Source\PSoC5/Counter_1.c ****             /* Clear all bits but the enable bit (if it's already set for Timer operation */
  50:Generated_Source\PSoC5/Counter_1.c ****             Counter_1_CONTROL &= Counter_1_CTRL_ENABLE;
  51:Generated_Source\PSoC5/Counter_1.c ****             
  52:Generated_Source\PSoC5/Counter_1.c ****             /* Clear the mode bits for continuous run mode */
  53:Generated_Source\PSoC5/Counter_1.c ****             #if (CY_PSOC5A)
  54:Generated_Source\PSoC5/Counter_1.c ****                 Counter_1_CONTROL2 &= ((uint8)(~Counter_1_CTRL_MODE_MASK));
  55:Generated_Source\PSoC5/Counter_1.c ****             #endif /* (CY_PSOC5A) */
  56:Generated_Source\PSoC5/Counter_1.c ****             #if (CY_PSOC3 || CY_PSOC5LP)
  57:Generated_Source\PSoC5/Counter_1.c ****                 Counter_1_CONTROL3 &= ((uint8)(~Counter_1_CTRL_MODE_MASK));                
  58:Generated_Source\PSoC5/Counter_1.c ****             #endif /* (CY_PSOC3 || CY_PSOC5LP) */
  59:Generated_Source\PSoC5/Counter_1.c ****             /* Check if One Shot mode is enabled i.e. RunMode !=0*/
  60:Generated_Source\PSoC5/Counter_1.c ****             #if (Counter_1_RunModeUsed != 0x0u)
  61:Generated_Source\PSoC5/Counter_1.c ****                 /* Set 3rd bit of Control register to enable one shot mode */
  62:Generated_Source\PSoC5/Counter_1.c ****                 Counter_1_CONTROL |= Counter_1_ONESHOT;
  63:Generated_Source\PSoC5/Counter_1.c ****             #endif /* (Counter_1_RunModeUsed != 0x0u) */
  64:Generated_Source\PSoC5/Counter_1.c ****             
  65:Generated_Source\PSoC5/Counter_1.c ****             /* Set the IRQ to use the status register interrupts */
  66:Generated_Source\PSoC5/Counter_1.c ****             Counter_1_CONTROL2 |= Counter_1_CTRL2_IRQ_SEL;
  67:Generated_Source\PSoC5/Counter_1.c ****             
  68:Generated_Source\PSoC5/Counter_1.c ****             /* Clear and Set SYNCTC and SYNCCMP bits of RT1 register */
  69:Generated_Source\PSoC5/Counter_1.c ****             Counter_1_RT1 &= ((uint8)(~Counter_1_RT1_MASK));
  70:Generated_Source\PSoC5/Counter_1.c ****             Counter_1_RT1 |= Counter_1_SYNC;     
  71:Generated_Source\PSoC5/Counter_1.c ****                     
  72:Generated_Source\PSoC5/Counter_1.c ****             /*Enable DSI Sync all all inputs of the Timer*/
  73:Generated_Source\PSoC5/Counter_1.c ****             Counter_1_RT1 &= ((uint8)(~Counter_1_SYNCDSI_MASK));
  74:Generated_Source\PSoC5/Counter_1.c ****             Counter_1_RT1 |= Counter_1_SYNCDSI_EN;
  75:Generated_Source\PSoC5/Counter_1.c **** 
  76:Generated_Source\PSoC5/Counter_1.c ****         #else
  77:Generated_Source\PSoC5/Counter_1.c ****             #if(!Counter_1_ControlRegRemoved)
  78:Generated_Source\PSoC5/Counter_1.c ****             /* Set the default compare mode defined in the parameter */
  79:Generated_Source\PSoC5/Counter_1.c ****             ctrl = Counter_1_CONTROL & ((uint8)(~Counter_1_CTRL_CMPMODE_MASK));
  80:Generated_Source\PSoC5/Counter_1.c ****             Counter_1_CONTROL = ctrl | Counter_1_DEFAULT_COMPARE_MODE;
  81:Generated_Source\PSoC5/Counter_1.c ****             
  82:Generated_Source\PSoC5/Counter_1.c ****             /* Set the default capture mode defined in the parameter */
  83:Generated_Source\PSoC5/Counter_1.c ****             ctrl = Counter_1_CONTROL & ((uint8)(~Counter_1_CTRL_CAPMODE_MASK));
  84:Generated_Source\PSoC5/Counter_1.c ****             
  85:Generated_Source\PSoC5/Counter_1.c ****             #if( 0 != Counter_1_CAPTURE_MODE_CONF)
  86:Generated_Source\PSoC5/Counter_1.c ****                 Counter_1_CONTROL = ctrl | Counter_1_DEFAULT_CAPTURE_MODE;
  87:Generated_Source\PSoC5/Counter_1.c ****             #else
ARM GAS  C:\Users\ASUS\AppData\Local\Temp\ccdlTLAr.s 			page 3


  88:Generated_Source\PSoC5/Counter_1.c ****                 Counter_1_CONTROL = ctrl;
  89:Generated_Source\PSoC5/Counter_1.c ****             #endif /* 0 != Counter_1_CAPTURE_MODE */ 
  90:Generated_Source\PSoC5/Counter_1.c ****             
  91:Generated_Source\PSoC5/Counter_1.c ****             #endif /* (!Counter_1_ControlRegRemoved) */
  92:Generated_Source\PSoC5/Counter_1.c ****         #endif /* (Counter_1_UsingFixedFunction) */
  93:Generated_Source\PSoC5/Counter_1.c ****         
  94:Generated_Source\PSoC5/Counter_1.c ****         /* Clear all data in the FIFO's */
  95:Generated_Source\PSoC5/Counter_1.c ****         #if (!Counter_1_UsingFixedFunction)
  96:Generated_Source\PSoC5/Counter_1.c ****             Counter_1_ClearFIFO();
  97:Generated_Source\PSoC5/Counter_1.c ****         #endif /* (!Counter_1_UsingFixedFunction) */
  98:Generated_Source\PSoC5/Counter_1.c ****         
  99:Generated_Source\PSoC5/Counter_1.c ****         /* Set Initial values from Configuration */
 100:Generated_Source\PSoC5/Counter_1.c ****         Counter_1_WritePeriod(Counter_1_INIT_PERIOD_VALUE);
 101:Generated_Source\PSoC5/Counter_1.c ****         #if (!(Counter_1_UsingFixedFunction && (CY_PSOC5A)))
 102:Generated_Source\PSoC5/Counter_1.c ****             Counter_1_WriteCounter(Counter_1_INIT_COUNTER_VALUE);
 103:Generated_Source\PSoC5/Counter_1.c ****         #endif /* (!(Counter_1_UsingFixedFunction && (CY_PSOC5A))) */
 104:Generated_Source\PSoC5/Counter_1.c ****         Counter_1_SetInterruptMode(Counter_1_INIT_INTERRUPTS_MASK);
 105:Generated_Source\PSoC5/Counter_1.c ****         
 106:Generated_Source\PSoC5/Counter_1.c ****         #if (!Counter_1_UsingFixedFunction)
 107:Generated_Source\PSoC5/Counter_1.c ****             /* Read the status register to clear the unwanted interrupts */
 108:Generated_Source\PSoC5/Counter_1.c ****             (void)Counter_1_ReadStatusRegister();
 109:Generated_Source\PSoC5/Counter_1.c ****             /* Set the compare value (only available to non-fixed function implementation */
 110:Generated_Source\PSoC5/Counter_1.c ****             Counter_1_WriteCompare(Counter_1_INIT_COMPARE_VALUE);
 111:Generated_Source\PSoC5/Counter_1.c ****             /* Use the interrupt output of the status register for IRQ output */
 112:Generated_Source\PSoC5/Counter_1.c ****             
 113:Generated_Source\PSoC5/Counter_1.c ****             /* CyEnterCriticalRegion and CyExitCriticalRegion are used to mark following region cri
 114:Generated_Source\PSoC5/Counter_1.c ****             /* Enter Critical Region*/
 115:Generated_Source\PSoC5/Counter_1.c ****             Counter_1_interruptState = CyEnterCriticalSection();
 116:Generated_Source\PSoC5/Counter_1.c ****             
 117:Generated_Source\PSoC5/Counter_1.c ****             Counter_1_STATUS_AUX_CTRL |= Counter_1_STATUS_ACTL_INT_EN_MASK;
 118:Generated_Source\PSoC5/Counter_1.c ****             
 119:Generated_Source\PSoC5/Counter_1.c ****             /* Exit Critical Region*/
 120:Generated_Source\PSoC5/Counter_1.c ****             CyExitCriticalSection(Counter_1_interruptState);
 121:Generated_Source\PSoC5/Counter_1.c ****             
 122:Generated_Source\PSoC5/Counter_1.c ****         #endif /* (!Counter_1_UsingFixedFunction) */
 123:Generated_Source\PSoC5/Counter_1.c **** }
 124:Generated_Source\PSoC5/Counter_1.c **** 
 125:Generated_Source\PSoC5/Counter_1.c **** 
 126:Generated_Source\PSoC5/Counter_1.c **** /*******************************************************************************
 127:Generated_Source\PSoC5/Counter_1.c **** * Function Name: Counter_1_Enable
 128:Generated_Source\PSoC5/Counter_1.c **** ********************************************************************************
 129:Generated_Source\PSoC5/Counter_1.c **** * Summary:
 130:Generated_Source\PSoC5/Counter_1.c **** *     Enable the Counter
 131:Generated_Source\PSoC5/Counter_1.c **** * 
 132:Generated_Source\PSoC5/Counter_1.c **** * Parameters:  
 133:Generated_Source\PSoC5/Counter_1.c **** *  void  
 134:Generated_Source\PSoC5/Counter_1.c **** *
 135:Generated_Source\PSoC5/Counter_1.c **** * Return: 
 136:Generated_Source\PSoC5/Counter_1.c **** *  void
 137:Generated_Source\PSoC5/Counter_1.c **** *
 138:Generated_Source\PSoC5/Counter_1.c **** * Side Effects: 
 139:Generated_Source\PSoC5/Counter_1.c **** *   If the Enable mode is set to Hardware only then this function has no effect 
 140:Generated_Source\PSoC5/Counter_1.c **** *   on the operation of the counter.
 141:Generated_Source\PSoC5/Counter_1.c **** *
 142:Generated_Source\PSoC5/Counter_1.c **** *******************************************************************************/
 143:Generated_Source\PSoC5/Counter_1.c **** void Counter_1_Enable(void) 
 144:Generated_Source\PSoC5/Counter_1.c **** {
ARM GAS  C:\Users\ASUS\AppData\Local\Temp\ccdlTLAr.s 			page 4


  28              		.loc 1 144 0
  29              		.cfi_startproc
  30              		@ args = 0, pretend = 0, frame = 0
  31              		@ frame_needed = 0, uses_anonymous_args = 0
  32              		@ link register save eliminated.
 145:Generated_Source\PSoC5/Counter_1.c ****     /* Globally Enable the Fixed Function Block chosen */
 146:Generated_Source\PSoC5/Counter_1.c ****     #if (Counter_1_UsingFixedFunction)
 147:Generated_Source\PSoC5/Counter_1.c ****         Counter_1_GLOBAL_ENABLE |= Counter_1_BLOCK_EN_MASK;
 148:Generated_Source\PSoC5/Counter_1.c ****         Counter_1_GLOBAL_STBY_ENABLE |= Counter_1_BLOCK_STBY_EN_MASK;
 149:Generated_Source\PSoC5/Counter_1.c ****     #endif /* (Counter_1_UsingFixedFunction) */  
 150:Generated_Source\PSoC5/Counter_1.c ****         
 151:Generated_Source\PSoC5/Counter_1.c ****     /* Enable the counter from the control register  */
 152:Generated_Source\PSoC5/Counter_1.c ****     /* If Fixed Function then make sure Mode is set correctly */
 153:Generated_Source\PSoC5/Counter_1.c ****     /* else make sure reset is clear */
 154:Generated_Source\PSoC5/Counter_1.c ****     #if(!Counter_1_ControlRegRemoved || Counter_1_UsingFixedFunction)
 155:Generated_Source\PSoC5/Counter_1.c ****         Counter_1_CONTROL |= Counter_1_CTRL_ENABLE;                
  33              		.loc 1 155 0
  34 0000 024A     		ldr	r2, .L2
  35 0002 1378     		ldrb	r3, [r2]	@ zero_extendqisi2
  36 0004 43F08003 		orr	r3, r3, #128
  37 0008 1370     		strb	r3, [r2]
  38 000a 7047     		bx	lr
  39              	.L3:
  40              		.align	2
  41              	.L2:
  42 000c 72640040 		.word	1073767538
  43              		.cfi_endproc
  44              	.LFE1:
  45              		.size	Counter_1_Enable, .-Counter_1_Enable
  46              		.section	.text.Counter_1_Stop,"ax",%progbits
  47              		.align	2
  48              		.global	Counter_1_Stop
  49              		.thumb
  50              		.thumb_func
  51              		.type	Counter_1_Stop, %function
  52              	Counter_1_Stop:
  53              	.LFB3:
 156:Generated_Source\PSoC5/Counter_1.c ****     #endif /* (!Counter_1_ControlRegRemoved || Counter_1_UsingFixedFunction) */
 157:Generated_Source\PSoC5/Counter_1.c ****     
 158:Generated_Source\PSoC5/Counter_1.c **** }
 159:Generated_Source\PSoC5/Counter_1.c **** 
 160:Generated_Source\PSoC5/Counter_1.c **** 
 161:Generated_Source\PSoC5/Counter_1.c **** /*******************************************************************************
 162:Generated_Source\PSoC5/Counter_1.c **** * Function Name: Counter_1_Start
 163:Generated_Source\PSoC5/Counter_1.c **** ********************************************************************************
 164:Generated_Source\PSoC5/Counter_1.c **** * Summary:
 165:Generated_Source\PSoC5/Counter_1.c **** *  Enables the counter for operation 
 166:Generated_Source\PSoC5/Counter_1.c **** *
 167:Generated_Source\PSoC5/Counter_1.c **** * Parameters:  
 168:Generated_Source\PSoC5/Counter_1.c **** *  void  
 169:Generated_Source\PSoC5/Counter_1.c **** *
 170:Generated_Source\PSoC5/Counter_1.c **** * Return: 
 171:Generated_Source\PSoC5/Counter_1.c **** *  void
 172:Generated_Source\PSoC5/Counter_1.c **** *
 173:Generated_Source\PSoC5/Counter_1.c **** * Global variables:
 174:Generated_Source\PSoC5/Counter_1.c **** *  Counter_1_initVar: Is modified when this function is called for the  
 175:Generated_Source\PSoC5/Counter_1.c **** *   first time. Is used to ensure that initialization happens only once.
ARM GAS  C:\Users\ASUS\AppData\Local\Temp\ccdlTLAr.s 			page 5


 176:Generated_Source\PSoC5/Counter_1.c **** *
 177:Generated_Source\PSoC5/Counter_1.c **** *******************************************************************************/
 178:Generated_Source\PSoC5/Counter_1.c **** void Counter_1_Start(void) 
 179:Generated_Source\PSoC5/Counter_1.c **** {
 180:Generated_Source\PSoC5/Counter_1.c ****     if(Counter_1_initVar == 0u)
 181:Generated_Source\PSoC5/Counter_1.c ****     {
 182:Generated_Source\PSoC5/Counter_1.c ****         Counter_1_Init();
 183:Generated_Source\PSoC5/Counter_1.c ****         
 184:Generated_Source\PSoC5/Counter_1.c ****         Counter_1_initVar = 1u; /* Clear this bit for Initialization */        
 185:Generated_Source\PSoC5/Counter_1.c ****     }
 186:Generated_Source\PSoC5/Counter_1.c ****     
 187:Generated_Source\PSoC5/Counter_1.c ****     /* Enable the Counter */
 188:Generated_Source\PSoC5/Counter_1.c ****     Counter_1_Enable();        
 189:Generated_Source\PSoC5/Counter_1.c **** }
 190:Generated_Source\PSoC5/Counter_1.c **** 
 191:Generated_Source\PSoC5/Counter_1.c **** 
 192:Generated_Source\PSoC5/Counter_1.c **** /*******************************************************************************
 193:Generated_Source\PSoC5/Counter_1.c **** * Function Name: Counter_1_Stop
 194:Generated_Source\PSoC5/Counter_1.c **** ********************************************************************************
 195:Generated_Source\PSoC5/Counter_1.c **** * Summary:
 196:Generated_Source\PSoC5/Counter_1.c **** * Halts the counter, but does not change any modes or disable interrupts.
 197:Generated_Source\PSoC5/Counter_1.c **** *
 198:Generated_Source\PSoC5/Counter_1.c **** * Parameters:  
 199:Generated_Source\PSoC5/Counter_1.c **** *  void  
 200:Generated_Source\PSoC5/Counter_1.c **** *
 201:Generated_Source\PSoC5/Counter_1.c **** * Return: 
 202:Generated_Source\PSoC5/Counter_1.c **** *  void
 203:Generated_Source\PSoC5/Counter_1.c **** *
 204:Generated_Source\PSoC5/Counter_1.c **** * Side Effects: If the Enable mode is set to Hardware only then this function
 205:Generated_Source\PSoC5/Counter_1.c **** *               has no effect on the operation of the counter.
 206:Generated_Source\PSoC5/Counter_1.c **** *
 207:Generated_Source\PSoC5/Counter_1.c **** *******************************************************************************/
 208:Generated_Source\PSoC5/Counter_1.c **** void Counter_1_Stop(void) 
 209:Generated_Source\PSoC5/Counter_1.c **** {
  54              		.loc 1 209 0
  55              		.cfi_startproc
  56              		@ args = 0, pretend = 0, frame = 0
  57              		@ frame_needed = 0, uses_anonymous_args = 0
  58              		@ link register save eliminated.
 210:Generated_Source\PSoC5/Counter_1.c ****     /* Disable Counter */
 211:Generated_Source\PSoC5/Counter_1.c ****     #if(!Counter_1_ControlRegRemoved || Counter_1_UsingFixedFunction)
 212:Generated_Source\PSoC5/Counter_1.c ****         Counter_1_CONTROL &= ((uint8)(~Counter_1_CTRL_ENABLE));        
  59              		.loc 1 212 0
  60 0000 024A     		ldr	r2, .L5
  61 0002 1378     		ldrb	r3, [r2]	@ zero_extendqisi2
  62 0004 03F07F03 		and	r3, r3, #127
  63 0008 1370     		strb	r3, [r2]
  64 000a 7047     		bx	lr
  65              	.L6:
  66              		.align	2
  67              	.L5:
  68 000c 72640040 		.word	1073767538
  69              		.cfi_endproc
  70              	.LFE3:
  71              		.size	Counter_1_Stop, .-Counter_1_Stop
  72              		.section	.text.Counter_1_SetInterruptMode,"ax",%progbits
  73              		.align	2
ARM GAS  C:\Users\ASUS\AppData\Local\Temp\ccdlTLAr.s 			page 6


  74              		.global	Counter_1_SetInterruptMode
  75              		.thumb
  76              		.thumb_func
  77              		.type	Counter_1_SetInterruptMode, %function
  78              	Counter_1_SetInterruptMode:
  79              	.LFB4:
 213:Generated_Source\PSoC5/Counter_1.c ****     #endif /* (!Counter_1_ControlRegRemoved || Counter_1_UsingFixedFunction) */
 214:Generated_Source\PSoC5/Counter_1.c ****     
 215:Generated_Source\PSoC5/Counter_1.c ****     /* Globally disable the Fixed Function Block chosen */
 216:Generated_Source\PSoC5/Counter_1.c ****     #if (Counter_1_UsingFixedFunction)
 217:Generated_Source\PSoC5/Counter_1.c ****         Counter_1_GLOBAL_ENABLE &= ((uint8)(~Counter_1_BLOCK_EN_MASK));
 218:Generated_Source\PSoC5/Counter_1.c ****         Counter_1_GLOBAL_STBY_ENABLE &= ((uint8)(~Counter_1_BLOCK_STBY_EN_MASK));
 219:Generated_Source\PSoC5/Counter_1.c ****     #endif /* (Counter_1_UsingFixedFunction) */
 220:Generated_Source\PSoC5/Counter_1.c **** }
 221:Generated_Source\PSoC5/Counter_1.c **** 
 222:Generated_Source\PSoC5/Counter_1.c **** 
 223:Generated_Source\PSoC5/Counter_1.c **** /*******************************************************************************
 224:Generated_Source\PSoC5/Counter_1.c **** * Function Name: Counter_1_SetInterruptMode
 225:Generated_Source\PSoC5/Counter_1.c **** ********************************************************************************
 226:Generated_Source\PSoC5/Counter_1.c **** * Summary:
 227:Generated_Source\PSoC5/Counter_1.c **** * Configures which interrupt sources are enabled to generate the final interrupt
 228:Generated_Source\PSoC5/Counter_1.c **** *
 229:Generated_Source\PSoC5/Counter_1.c **** * Parameters:  
 230:Generated_Source\PSoC5/Counter_1.c **** *  InterruptsMask: This parameter is an or'd collection of the status bits
 231:Generated_Source\PSoC5/Counter_1.c **** *                   which will be allowed to generate the counters interrupt.   
 232:Generated_Source\PSoC5/Counter_1.c **** *
 233:Generated_Source\PSoC5/Counter_1.c **** * Return: 
 234:Generated_Source\PSoC5/Counter_1.c **** *  void
 235:Generated_Source\PSoC5/Counter_1.c **** *
 236:Generated_Source\PSoC5/Counter_1.c **** *******************************************************************************/
 237:Generated_Source\PSoC5/Counter_1.c **** void Counter_1_SetInterruptMode(uint8 interruptsMask) 
 238:Generated_Source\PSoC5/Counter_1.c **** {
  80              		.loc 1 238 0
  81              		.cfi_startproc
  82              		@ args = 0, pretend = 0, frame = 0
  83              		@ frame_needed = 0, uses_anonymous_args = 0
  84              		@ link register save eliminated.
  85              	.LVL0:
 239:Generated_Source\PSoC5/Counter_1.c ****     Counter_1_STATUS_MASK = interruptsMask;
  86              		.loc 1 239 0
  87 0000 014B     		ldr	r3, .L8
  88 0002 1870     		strb	r0, [r3]
  89 0004 7047     		bx	lr
  90              	.L9:
  91 0006 00BF     		.align	2
  92              	.L8:
  93 0008 85640040 		.word	1073767557
  94              		.cfi_endproc
  95              	.LFE4:
  96              		.size	Counter_1_SetInterruptMode, .-Counter_1_SetInterruptMode
  97              		.section	.text.Counter_1_ReadStatusRegister,"ax",%progbits
  98              		.align	2
  99              		.global	Counter_1_ReadStatusRegister
 100              		.thumb
 101              		.thumb_func
 102              		.type	Counter_1_ReadStatusRegister, %function
 103              	Counter_1_ReadStatusRegister:
ARM GAS  C:\Users\ASUS\AppData\Local\Temp\ccdlTLAr.s 			page 7


 104              	.LFB5:
 240:Generated_Source\PSoC5/Counter_1.c **** }
 241:Generated_Source\PSoC5/Counter_1.c **** 
 242:Generated_Source\PSoC5/Counter_1.c **** 
 243:Generated_Source\PSoC5/Counter_1.c **** /*******************************************************************************
 244:Generated_Source\PSoC5/Counter_1.c **** * Function Name: Counter_1_ReadStatusRegister
 245:Generated_Source\PSoC5/Counter_1.c **** ********************************************************************************
 246:Generated_Source\PSoC5/Counter_1.c **** * Summary:
 247:Generated_Source\PSoC5/Counter_1.c **** *   Reads the status register and returns it's state. This function should use
 248:Generated_Source\PSoC5/Counter_1.c **** *       defined types for the bit-field information as the bits in this
 249:Generated_Source\PSoC5/Counter_1.c **** *       register may be permuteable.
 250:Generated_Source\PSoC5/Counter_1.c **** *
 251:Generated_Source\PSoC5/Counter_1.c **** * Parameters:  
 252:Generated_Source\PSoC5/Counter_1.c **** *  void
 253:Generated_Source\PSoC5/Counter_1.c **** *
 254:Generated_Source\PSoC5/Counter_1.c **** * Return: 
 255:Generated_Source\PSoC5/Counter_1.c **** *  (uint8) The contents of the status register
 256:Generated_Source\PSoC5/Counter_1.c **** *
 257:Generated_Source\PSoC5/Counter_1.c **** * Side Effects:
 258:Generated_Source\PSoC5/Counter_1.c **** *   Status register bits may be clear on read. 
 259:Generated_Source\PSoC5/Counter_1.c **** *
 260:Generated_Source\PSoC5/Counter_1.c **** *******************************************************************************/
 261:Generated_Source\PSoC5/Counter_1.c **** uint8   Counter_1_ReadStatusRegister(void) 
 262:Generated_Source\PSoC5/Counter_1.c **** {
 105              		.loc 1 262 0
 106              		.cfi_startproc
 107              		@ args = 0, pretend = 0, frame = 0
 108              		@ frame_needed = 0, uses_anonymous_args = 0
 109              		@ link register save eliminated.
 263:Generated_Source\PSoC5/Counter_1.c ****     return Counter_1_STATUS;
 110              		.loc 1 263 0
 111 0000 014B     		ldr	r3, .L11
 112 0002 1878     		ldrb	r0, [r3]	@ zero_extendqisi2
 264:Generated_Source\PSoC5/Counter_1.c **** }
 113              		.loc 1 264 0
 114 0004 7047     		bx	lr
 115              	.L12:
 116 0006 00BF     		.align	2
 117              	.L11:
 118 0008 65640040 		.word	1073767525
 119              		.cfi_endproc
 120              	.LFE5:
 121              		.size	Counter_1_ReadStatusRegister, .-Counter_1_ReadStatusRegister
 122              		.section	.text.Counter_1_ReadControlRegister,"ax",%progbits
 123              		.align	2
 124              		.global	Counter_1_ReadControlRegister
 125              		.thumb
 126              		.thumb_func
 127              		.type	Counter_1_ReadControlRegister, %function
 128              	Counter_1_ReadControlRegister:
 129              	.LFB6:
 265:Generated_Source\PSoC5/Counter_1.c **** 
 266:Generated_Source\PSoC5/Counter_1.c **** 
 267:Generated_Source\PSoC5/Counter_1.c **** #if(!Counter_1_ControlRegRemoved)
 268:Generated_Source\PSoC5/Counter_1.c **** /*******************************************************************************
 269:Generated_Source\PSoC5/Counter_1.c **** * Function Name: Counter_1_ReadControlRegister
 270:Generated_Source\PSoC5/Counter_1.c **** ********************************************************************************
ARM GAS  C:\Users\ASUS\AppData\Local\Temp\ccdlTLAr.s 			page 8


 271:Generated_Source\PSoC5/Counter_1.c **** * Summary:
 272:Generated_Source\PSoC5/Counter_1.c **** *   Reads the control register and returns it's state. This function should use
 273:Generated_Source\PSoC5/Counter_1.c **** *       defined types for the bit-field information as the bits in this
 274:Generated_Source\PSoC5/Counter_1.c **** *       register may be permuteable.
 275:Generated_Source\PSoC5/Counter_1.c **** *
 276:Generated_Source\PSoC5/Counter_1.c **** * Parameters:  
 277:Generated_Source\PSoC5/Counter_1.c **** *  void
 278:Generated_Source\PSoC5/Counter_1.c **** *
 279:Generated_Source\PSoC5/Counter_1.c **** * Return: 
 280:Generated_Source\PSoC5/Counter_1.c **** *  (uint8) The contents of the control register
 281:Generated_Source\PSoC5/Counter_1.c **** *
 282:Generated_Source\PSoC5/Counter_1.c **** *******************************************************************************/
 283:Generated_Source\PSoC5/Counter_1.c **** uint8   Counter_1_ReadControlRegister(void) 
 284:Generated_Source\PSoC5/Counter_1.c **** {
 130              		.loc 1 284 0
 131              		.cfi_startproc
 132              		@ args = 0, pretend = 0, frame = 0
 133              		@ frame_needed = 0, uses_anonymous_args = 0
 134              		@ link register save eliminated.
 285:Generated_Source\PSoC5/Counter_1.c ****     return Counter_1_CONTROL;
 135              		.loc 1 285 0
 136 0000 014B     		ldr	r3, .L14
 137 0002 1878     		ldrb	r0, [r3]	@ zero_extendqisi2
 286:Generated_Source\PSoC5/Counter_1.c **** }
 138              		.loc 1 286 0
 139 0004 7047     		bx	lr
 140              	.L15:
 141 0006 00BF     		.align	2
 142              	.L14:
 143 0008 72640040 		.word	1073767538
 144              		.cfi_endproc
 145              	.LFE6:
 146              		.size	Counter_1_ReadControlRegister, .-Counter_1_ReadControlRegister
 147              		.section	.text.Counter_1_WriteControlRegister,"ax",%progbits
 148              		.align	2
 149              		.global	Counter_1_WriteControlRegister
 150              		.thumb
 151              		.thumb_func
 152              		.type	Counter_1_WriteControlRegister, %function
 153              	Counter_1_WriteControlRegister:
 154              	.LFB7:
 287:Generated_Source\PSoC5/Counter_1.c **** 
 288:Generated_Source\PSoC5/Counter_1.c **** 
 289:Generated_Source\PSoC5/Counter_1.c **** /*******************************************************************************
 290:Generated_Source\PSoC5/Counter_1.c **** * Function Name: Counter_1_WriteControlRegister
 291:Generated_Source\PSoC5/Counter_1.c **** ********************************************************************************
 292:Generated_Source\PSoC5/Counter_1.c **** * Summary:
 293:Generated_Source\PSoC5/Counter_1.c **** *   Sets the bit-field of the control register.  This function should use
 294:Generated_Source\PSoC5/Counter_1.c **** *       defined types for the bit-field information as the bits in this
 295:Generated_Source\PSoC5/Counter_1.c **** *       register may be permuteable.
 296:Generated_Source\PSoC5/Counter_1.c **** *
 297:Generated_Source\PSoC5/Counter_1.c **** * Parameters:  
 298:Generated_Source\PSoC5/Counter_1.c **** *  void
 299:Generated_Source\PSoC5/Counter_1.c **** *
 300:Generated_Source\PSoC5/Counter_1.c **** * Return: 
 301:Generated_Source\PSoC5/Counter_1.c **** *  (uint8) The contents of the control register
 302:Generated_Source\PSoC5/Counter_1.c **** *
ARM GAS  C:\Users\ASUS\AppData\Local\Temp\ccdlTLAr.s 			page 9


 303:Generated_Source\PSoC5/Counter_1.c **** *******************************************************************************/
 304:Generated_Source\PSoC5/Counter_1.c **** void    Counter_1_WriteControlRegister(uint8 control) 
 305:Generated_Source\PSoC5/Counter_1.c **** {
 155              		.loc 1 305 0
 156              		.cfi_startproc
 157              		@ args = 0, pretend = 0, frame = 0
 158              		@ frame_needed = 0, uses_anonymous_args = 0
 159              		@ link register save eliminated.
 160              	.LVL1:
 306:Generated_Source\PSoC5/Counter_1.c ****     Counter_1_CONTROL = control;
 161              		.loc 1 306 0
 162 0000 014B     		ldr	r3, .L17
 163 0002 1870     		strb	r0, [r3]
 164 0004 7047     		bx	lr
 165              	.L18:
 166 0006 00BF     		.align	2
 167              	.L17:
 168 0008 72640040 		.word	1073767538
 169              		.cfi_endproc
 170              	.LFE7:
 171              		.size	Counter_1_WriteControlRegister, .-Counter_1_WriteControlRegister
 172              		.section	.text.Counter_1_WriteCounter,"ax",%progbits
 173              		.align	2
 174              		.global	Counter_1_WriteCounter
 175              		.thumb
 176              		.thumb_func
 177              		.type	Counter_1_WriteCounter, %function
 178              	Counter_1_WriteCounter:
 179              	.LFB8:
 307:Generated_Source\PSoC5/Counter_1.c **** }
 308:Generated_Source\PSoC5/Counter_1.c **** 
 309:Generated_Source\PSoC5/Counter_1.c **** #endif  /* (!Counter_1_ControlRegRemoved) */
 310:Generated_Source\PSoC5/Counter_1.c **** 
 311:Generated_Source\PSoC5/Counter_1.c **** 
 312:Generated_Source\PSoC5/Counter_1.c **** #if (!(Counter_1_UsingFixedFunction && (CY_PSOC5A)))
 313:Generated_Source\PSoC5/Counter_1.c **** /*******************************************************************************
 314:Generated_Source\PSoC5/Counter_1.c **** * Function Name: Counter_1_WriteCounter
 315:Generated_Source\PSoC5/Counter_1.c **** ********************************************************************************
 316:Generated_Source\PSoC5/Counter_1.c **** * Summary:
 317:Generated_Source\PSoC5/Counter_1.c **** *   This funtion is used to set the counter to a specific value
 318:Generated_Source\PSoC5/Counter_1.c **** *
 319:Generated_Source\PSoC5/Counter_1.c **** * Parameters:  
 320:Generated_Source\PSoC5/Counter_1.c **** *  counter:  New counter value. 
 321:Generated_Source\PSoC5/Counter_1.c **** *
 322:Generated_Source\PSoC5/Counter_1.c **** * Return: 
 323:Generated_Source\PSoC5/Counter_1.c **** *  void 
 324:Generated_Source\PSoC5/Counter_1.c **** *
 325:Generated_Source\PSoC5/Counter_1.c **** *******************************************************************************/
 326:Generated_Source\PSoC5/Counter_1.c **** void Counter_1_WriteCounter(uint32 counter) \
 327:Generated_Source\PSoC5/Counter_1.c ****                                    
 328:Generated_Source\PSoC5/Counter_1.c **** {
 180              		.loc 1 328 0
 181              		.cfi_startproc
 182              		@ args = 0, pretend = 0, frame = 0
 183              		@ frame_needed = 0, uses_anonymous_args = 0
 184              		@ link register save eliminated.
 185              	.LVL2:
ARM GAS  C:\Users\ASUS\AppData\Local\Temp\ccdlTLAr.s 			page 10


 329:Generated_Source\PSoC5/Counter_1.c ****     #if(Counter_1_UsingFixedFunction)
 330:Generated_Source\PSoC5/Counter_1.c ****         /* assert if block is already enabled */
 331:Generated_Source\PSoC5/Counter_1.c ****         CYASSERT (0u == (Counter_1_GLOBAL_ENABLE & Counter_1_BLOCK_EN_MASK));
 332:Generated_Source\PSoC5/Counter_1.c ****         /* If block is disabled, enable it and then write the counter */
 333:Generated_Source\PSoC5/Counter_1.c ****         Counter_1_GLOBAL_ENABLE |= Counter_1_BLOCK_EN_MASK;
 334:Generated_Source\PSoC5/Counter_1.c ****         CY_SET_REG16(Counter_1_COUNTER_LSB_PTR, (uint16)counter);
 335:Generated_Source\PSoC5/Counter_1.c ****         Counter_1_GLOBAL_ENABLE &= ((uint8)(~Counter_1_BLOCK_EN_MASK));
 336:Generated_Source\PSoC5/Counter_1.c ****     #else
 337:Generated_Source\PSoC5/Counter_1.c ****         CY_SET_REG32(Counter_1_COUNTER_LSB_PTR, counter);
 186              		.loc 1 337 0
 187 0000 014B     		ldr	r3, .L20
 188 0002 1860     		str	r0, [r3]	@ unaligned
 189 0004 7047     		bx	lr
 190              	.L21:
 191 0006 00BF     		.align	2
 192              	.L20:
 193 0008 02640040 		.word	1073767426
 194              		.cfi_endproc
 195              	.LFE8:
 196              		.size	Counter_1_WriteCounter, .-Counter_1_WriteCounter
 197              		.section	.text.Counter_1_ReadCounter,"ax",%progbits
 198              		.align	2
 199              		.global	Counter_1_ReadCounter
 200              		.thumb
 201              		.thumb_func
 202              		.type	Counter_1_ReadCounter, %function
 203              	Counter_1_ReadCounter:
 204              	.LFB9:
 338:Generated_Source\PSoC5/Counter_1.c ****     #endif /* (Counter_1_UsingFixedFunction) */
 339:Generated_Source\PSoC5/Counter_1.c **** }
 340:Generated_Source\PSoC5/Counter_1.c **** #endif /* (!(Counter_1_UsingFixedFunction && (CY_PSOC5A))) */
 341:Generated_Source\PSoC5/Counter_1.c **** 
 342:Generated_Source\PSoC5/Counter_1.c **** 
 343:Generated_Source\PSoC5/Counter_1.c **** /*******************************************************************************
 344:Generated_Source\PSoC5/Counter_1.c **** * Function Name: Counter_1_ReadCounter
 345:Generated_Source\PSoC5/Counter_1.c **** ********************************************************************************
 346:Generated_Source\PSoC5/Counter_1.c **** * Summary:
 347:Generated_Source\PSoC5/Counter_1.c **** * Returns the current value of the counter.  It doesn't matter
 348:Generated_Source\PSoC5/Counter_1.c **** * if the counter is enabled or running.
 349:Generated_Source\PSoC5/Counter_1.c **** *
 350:Generated_Source\PSoC5/Counter_1.c **** * Parameters:  
 351:Generated_Source\PSoC5/Counter_1.c **** *  void:  
 352:Generated_Source\PSoC5/Counter_1.c **** *
 353:Generated_Source\PSoC5/Counter_1.c **** * Return: 
 354:Generated_Source\PSoC5/Counter_1.c **** *  (uint32) The present value of the counter.
 355:Generated_Source\PSoC5/Counter_1.c **** *
 356:Generated_Source\PSoC5/Counter_1.c **** *******************************************************************************/
 357:Generated_Source\PSoC5/Counter_1.c **** uint32 Counter_1_ReadCounter(void) 
 358:Generated_Source\PSoC5/Counter_1.c **** {
 205              		.loc 1 358 0
 206              		.cfi_startproc
 207              		@ args = 0, pretend = 0, frame = 0
 208              		@ frame_needed = 0, uses_anonymous_args = 0
 209              		@ link register save eliminated.
 359:Generated_Source\PSoC5/Counter_1.c ****     /* Force capture by reading Accumulator */
 360:Generated_Source\PSoC5/Counter_1.c ****     /* Must first do a software capture to be able to read the counter */
 361:Generated_Source\PSoC5/Counter_1.c ****     /* It is up to the user code to make sure there isn't already captured data in the FIFO */
ARM GAS  C:\Users\ASUS\AppData\Local\Temp\ccdlTLAr.s 			page 11


 362:Generated_Source\PSoC5/Counter_1.c ****     #if(Counter_1_UsingFixedFunction)
 363:Generated_Source\PSoC5/Counter_1.c **** 		(void)CY_GET_REG16(Counter_1_COUNTER_LSB_PTR);
 364:Generated_Source\PSoC5/Counter_1.c **** 	#else
 365:Generated_Source\PSoC5/Counter_1.c **** 		(void)CY_GET_REG8(Counter_1_COUNTER_LSB_PTR_8BIT);
 210              		.loc 1 365 0
 211 0000 024B     		ldr	r3, .L23
 212 0002 1B78     		ldrb	r3, [r3]	@ zero_extendqisi2
 366:Generated_Source\PSoC5/Counter_1.c **** 	#endif/* (Counter_1_UsingFixedFunction) */
 367:Generated_Source\PSoC5/Counter_1.c ****     
 368:Generated_Source\PSoC5/Counter_1.c ****     /* Read the data from the FIFO (or capture register for Fixed Function)*/
 369:Generated_Source\PSoC5/Counter_1.c ****     #if(Counter_1_UsingFixedFunction)
 370:Generated_Source\PSoC5/Counter_1.c ****         return ((uint32)CY_GET_REG16(Counter_1_STATICCOUNT_LSB_PTR));
 371:Generated_Source\PSoC5/Counter_1.c ****     #else
 372:Generated_Source\PSoC5/Counter_1.c ****         return (CY_GET_REG32(Counter_1_STATICCOUNT_LSB_PTR));
 213              		.loc 1 372 0
 214 0004 024B     		ldr	r3, .L23+4
 215 0006 1868     		ldr	r0, [r3]	@ unaligned
 373:Generated_Source\PSoC5/Counter_1.c ****     #endif /* (Counter_1_UsingFixedFunction) */
 374:Generated_Source\PSoC5/Counter_1.c **** }
 216              		.loc 1 374 0
 217 0008 7047     		bx	lr
 218              	.L24:
 219 000a 00BF     		.align	2
 220              	.L23:
 221 000c 02640040 		.word	1073767426
 222 0010 42640040 		.word	1073767490
 223              		.cfi_endproc
 224              	.LFE9:
 225              		.size	Counter_1_ReadCounter, .-Counter_1_ReadCounter
 226              		.section	.text.Counter_1_ReadCapture,"ax",%progbits
 227              		.align	2
 228              		.global	Counter_1_ReadCapture
 229              		.thumb
 230              		.thumb_func
 231              		.type	Counter_1_ReadCapture, %function
 232              	Counter_1_ReadCapture:
 233              	.LFB10:
 375:Generated_Source\PSoC5/Counter_1.c **** 
 376:Generated_Source\PSoC5/Counter_1.c **** 
 377:Generated_Source\PSoC5/Counter_1.c **** /*******************************************************************************
 378:Generated_Source\PSoC5/Counter_1.c **** * Function Name: Counter_1_ReadCapture
 379:Generated_Source\PSoC5/Counter_1.c **** ********************************************************************************
 380:Generated_Source\PSoC5/Counter_1.c **** * Summary:
 381:Generated_Source\PSoC5/Counter_1.c **** *   This function returns the last value captured.
 382:Generated_Source\PSoC5/Counter_1.c **** *
 383:Generated_Source\PSoC5/Counter_1.c **** * Parameters:  
 384:Generated_Source\PSoC5/Counter_1.c **** *  void
 385:Generated_Source\PSoC5/Counter_1.c **** *
 386:Generated_Source\PSoC5/Counter_1.c **** * Return: 
 387:Generated_Source\PSoC5/Counter_1.c **** *  (uint32) Present Capture value.
 388:Generated_Source\PSoC5/Counter_1.c **** *
 389:Generated_Source\PSoC5/Counter_1.c **** *******************************************************************************/
 390:Generated_Source\PSoC5/Counter_1.c **** uint32 Counter_1_ReadCapture(void) 
 391:Generated_Source\PSoC5/Counter_1.c **** {
 234              		.loc 1 391 0
 235              		.cfi_startproc
 236              		@ args = 0, pretend = 0, frame = 0
ARM GAS  C:\Users\ASUS\AppData\Local\Temp\ccdlTLAr.s 			page 12


 237              		@ frame_needed = 0, uses_anonymous_args = 0
 238              		@ link register save eliminated.
 392:Generated_Source\PSoC5/Counter_1.c ****     #if(Counter_1_UsingFixedFunction)
 393:Generated_Source\PSoC5/Counter_1.c ****         return ((uint32)CY_GET_REG16(Counter_1_STATICCOUNT_LSB_PTR));
 394:Generated_Source\PSoC5/Counter_1.c ****     #else
 395:Generated_Source\PSoC5/Counter_1.c ****         return (CY_GET_REG32(Counter_1_STATICCOUNT_LSB_PTR));
 239              		.loc 1 395 0
 240 0000 014B     		ldr	r3, .L26
 241 0002 1868     		ldr	r0, [r3]	@ unaligned
 396:Generated_Source\PSoC5/Counter_1.c ****     #endif /* (Counter_1_UsingFixedFunction) */
 397:Generated_Source\PSoC5/Counter_1.c **** }
 242              		.loc 1 397 0
 243 0004 7047     		bx	lr
 244              	.L27:
 245 0006 00BF     		.align	2
 246              	.L26:
 247 0008 42640040 		.word	1073767490
 248              		.cfi_endproc
 249              	.LFE10:
 250              		.size	Counter_1_ReadCapture, .-Counter_1_ReadCapture
 251              		.section	.text.Counter_1_WritePeriod,"ax",%progbits
 252              		.align	2
 253              		.global	Counter_1_WritePeriod
 254              		.thumb
 255              		.thumb_func
 256              		.type	Counter_1_WritePeriod, %function
 257              	Counter_1_WritePeriod:
 258              	.LFB11:
 398:Generated_Source\PSoC5/Counter_1.c **** 
 399:Generated_Source\PSoC5/Counter_1.c **** 
 400:Generated_Source\PSoC5/Counter_1.c **** /*******************************************************************************
 401:Generated_Source\PSoC5/Counter_1.c **** * Function Name: Counter_1_WritePeriod
 402:Generated_Source\PSoC5/Counter_1.c **** ********************************************************************************
 403:Generated_Source\PSoC5/Counter_1.c **** * Summary:
 404:Generated_Source\PSoC5/Counter_1.c **** * Changes the period of the counter.  The new period 
 405:Generated_Source\PSoC5/Counter_1.c **** * will be loaded the next time terminal count is detected.
 406:Generated_Source\PSoC5/Counter_1.c **** *
 407:Generated_Source\PSoC5/Counter_1.c **** * Parameters:  
 408:Generated_Source\PSoC5/Counter_1.c **** *  period: (uint32) A value of 0 will result in
 409:Generated_Source\PSoC5/Counter_1.c **** *         the counter remaining at zero.  
 410:Generated_Source\PSoC5/Counter_1.c **** *
 411:Generated_Source\PSoC5/Counter_1.c **** * Return: 
 412:Generated_Source\PSoC5/Counter_1.c **** *  void
 413:Generated_Source\PSoC5/Counter_1.c **** *
 414:Generated_Source\PSoC5/Counter_1.c **** *******************************************************************************/
 415:Generated_Source\PSoC5/Counter_1.c **** void Counter_1_WritePeriod(uint32 period) 
 416:Generated_Source\PSoC5/Counter_1.c **** {
 259              		.loc 1 416 0
 260              		.cfi_startproc
 261              		@ args = 0, pretend = 0, frame = 0
 262              		@ frame_needed = 0, uses_anonymous_args = 0
 263              		@ link register save eliminated.
 264              	.LVL3:
 417:Generated_Source\PSoC5/Counter_1.c ****     #if(Counter_1_UsingFixedFunction)
 418:Generated_Source\PSoC5/Counter_1.c ****         CY_SET_REG16(Counter_1_PERIOD_LSB_PTR,(uint16)period);
 419:Generated_Source\PSoC5/Counter_1.c ****     #else
 420:Generated_Source\PSoC5/Counter_1.c ****         CY_SET_REG32(Counter_1_PERIOD_LSB_PTR, period);
ARM GAS  C:\Users\ASUS\AppData\Local\Temp\ccdlTLAr.s 			page 13


 265              		.loc 1 420 0
 266 0000 014B     		ldr	r3, .L29
 267 0002 1860     		str	r0, [r3]	@ unaligned
 268 0004 7047     		bx	lr
 269              	.L30:
 270 0006 00BF     		.align	2
 271              	.L29:
 272 0008 22640040 		.word	1073767458
 273              		.cfi_endproc
 274              	.LFE11:
 275              		.size	Counter_1_WritePeriod, .-Counter_1_WritePeriod
 276              		.section	.text.Counter_1_ReadPeriod,"ax",%progbits
 277              		.align	2
 278              		.global	Counter_1_ReadPeriod
 279              		.thumb
 280              		.thumb_func
 281              		.type	Counter_1_ReadPeriod, %function
 282              	Counter_1_ReadPeriod:
 283              	.LFB12:
 421:Generated_Source\PSoC5/Counter_1.c ****     #endif /* (Counter_1_UsingFixedFunction) */
 422:Generated_Source\PSoC5/Counter_1.c **** }
 423:Generated_Source\PSoC5/Counter_1.c **** 
 424:Generated_Source\PSoC5/Counter_1.c **** 
 425:Generated_Source\PSoC5/Counter_1.c **** /*******************************************************************************
 426:Generated_Source\PSoC5/Counter_1.c **** * Function Name: Counter_1_ReadPeriod
 427:Generated_Source\PSoC5/Counter_1.c **** ********************************************************************************
 428:Generated_Source\PSoC5/Counter_1.c **** * Summary:
 429:Generated_Source\PSoC5/Counter_1.c **** * Reads the current period value without affecting counter operation.
 430:Generated_Source\PSoC5/Counter_1.c **** *
 431:Generated_Source\PSoC5/Counter_1.c **** * Parameters:  
 432:Generated_Source\PSoC5/Counter_1.c **** *  void:  
 433:Generated_Source\PSoC5/Counter_1.c **** *
 434:Generated_Source\PSoC5/Counter_1.c **** * Return: 
 435:Generated_Source\PSoC5/Counter_1.c **** *  (uint32) Present period value.
 436:Generated_Source\PSoC5/Counter_1.c **** *
 437:Generated_Source\PSoC5/Counter_1.c **** *******************************************************************************/
 438:Generated_Source\PSoC5/Counter_1.c **** uint32 Counter_1_ReadPeriod(void) 
 439:Generated_Source\PSoC5/Counter_1.c **** {
 284              		.loc 1 439 0
 285              		.cfi_startproc
 286              		@ args = 0, pretend = 0, frame = 0
 287              		@ frame_needed = 0, uses_anonymous_args = 0
 288              		@ link register save eliminated.
 440:Generated_Source\PSoC5/Counter_1.c ****     #if(Counter_1_UsingFixedFunction)
 441:Generated_Source\PSoC5/Counter_1.c ****         return ((uint32)CY_GET_REG16(Counter_1_PERIOD_LSB_PTR));
 442:Generated_Source\PSoC5/Counter_1.c ****     #else
 443:Generated_Source\PSoC5/Counter_1.c ****         return (CY_GET_REG32(Counter_1_PERIOD_LSB_PTR));
 289              		.loc 1 443 0
 290 0000 014B     		ldr	r3, .L32
 291 0002 1868     		ldr	r0, [r3]	@ unaligned
 444:Generated_Source\PSoC5/Counter_1.c ****     #endif /* (Counter_1_UsingFixedFunction) */
 445:Generated_Source\PSoC5/Counter_1.c **** }
 292              		.loc 1 445 0
 293 0004 7047     		bx	lr
 294              	.L33:
 295 0006 00BF     		.align	2
 296              	.L32:
ARM GAS  C:\Users\ASUS\AppData\Local\Temp\ccdlTLAr.s 			page 14


 297 0008 22640040 		.word	1073767458
 298              		.cfi_endproc
 299              	.LFE12:
 300              		.size	Counter_1_ReadPeriod, .-Counter_1_ReadPeriod
 301              		.section	.text.Counter_1_WriteCompare,"ax",%progbits
 302              		.align	2
 303              		.global	Counter_1_WriteCompare
 304              		.thumb
 305              		.thumb_func
 306              		.type	Counter_1_WriteCompare, %function
 307              	Counter_1_WriteCompare:
 308              	.LFB13:
 446:Generated_Source\PSoC5/Counter_1.c **** 
 447:Generated_Source\PSoC5/Counter_1.c **** 
 448:Generated_Source\PSoC5/Counter_1.c **** #if (!Counter_1_UsingFixedFunction)
 449:Generated_Source\PSoC5/Counter_1.c **** /*******************************************************************************
 450:Generated_Source\PSoC5/Counter_1.c **** * Function Name: Counter_1_WriteCompare
 451:Generated_Source\PSoC5/Counter_1.c **** ********************************************************************************
 452:Generated_Source\PSoC5/Counter_1.c **** * Summary:
 453:Generated_Source\PSoC5/Counter_1.c **** * Changes the compare value.  The compare output will 
 454:Generated_Source\PSoC5/Counter_1.c **** * reflect the new value on the next UDB clock.  The compare output will be 
 455:Generated_Source\PSoC5/Counter_1.c **** * driven high when the present counter value compares true based on the 
 456:Generated_Source\PSoC5/Counter_1.c **** * configured compare mode setting. 
 457:Generated_Source\PSoC5/Counter_1.c **** *
 458:Generated_Source\PSoC5/Counter_1.c **** * Parameters:  
 459:Generated_Source\PSoC5/Counter_1.c **** *  Compare:  New compare value. 
 460:Generated_Source\PSoC5/Counter_1.c **** *
 461:Generated_Source\PSoC5/Counter_1.c **** * Return: 
 462:Generated_Source\PSoC5/Counter_1.c **** *  void
 463:Generated_Source\PSoC5/Counter_1.c **** *
 464:Generated_Source\PSoC5/Counter_1.c **** *******************************************************************************/
 465:Generated_Source\PSoC5/Counter_1.c **** void Counter_1_WriteCompare(uint32 compare) \
 466:Generated_Source\PSoC5/Counter_1.c ****                                    
 467:Generated_Source\PSoC5/Counter_1.c **** {
 309              		.loc 1 467 0
 310              		.cfi_startproc
 311              		@ args = 0, pretend = 0, frame = 0
 312              		@ frame_needed = 0, uses_anonymous_args = 0
 313              		@ link register save eliminated.
 314              	.LVL4:
 468:Generated_Source\PSoC5/Counter_1.c ****     #if(Counter_1_UsingFixedFunction)
 469:Generated_Source\PSoC5/Counter_1.c ****         CY_SET_REG16(Counter_1_COMPARE_LSB_PTR, (uint16)compare);
 470:Generated_Source\PSoC5/Counter_1.c ****     #else
 471:Generated_Source\PSoC5/Counter_1.c ****         CY_SET_REG32(Counter_1_COMPARE_LSB_PTR, compare);
 315              		.loc 1 471 0
 316 0000 014B     		ldr	r3, .L35
 317 0002 1860     		str	r0, [r3]	@ unaligned
 318 0004 7047     		bx	lr
 319              	.L36:
 320 0006 00BF     		.align	2
 321              	.L35:
 322 0008 32640040 		.word	1073767474
 323              		.cfi_endproc
 324              	.LFE13:
 325              		.size	Counter_1_WriteCompare, .-Counter_1_WriteCompare
 326              		.section	.text.Counter_1_ReadCompare,"ax",%progbits
 327              		.align	2
ARM GAS  C:\Users\ASUS\AppData\Local\Temp\ccdlTLAr.s 			page 15


 328              		.global	Counter_1_ReadCompare
 329              		.thumb
 330              		.thumb_func
 331              		.type	Counter_1_ReadCompare, %function
 332              	Counter_1_ReadCompare:
 333              	.LFB14:
 472:Generated_Source\PSoC5/Counter_1.c ****     #endif /* (Counter_1_UsingFixedFunction) */
 473:Generated_Source\PSoC5/Counter_1.c **** }
 474:Generated_Source\PSoC5/Counter_1.c **** 
 475:Generated_Source\PSoC5/Counter_1.c **** 
 476:Generated_Source\PSoC5/Counter_1.c **** /*******************************************************************************
 477:Generated_Source\PSoC5/Counter_1.c **** * Function Name: Counter_1_ReadCompare
 478:Generated_Source\PSoC5/Counter_1.c **** ********************************************************************************
 479:Generated_Source\PSoC5/Counter_1.c **** * Summary:
 480:Generated_Source\PSoC5/Counter_1.c **** * Returns the compare value.
 481:Generated_Source\PSoC5/Counter_1.c **** *
 482:Generated_Source\PSoC5/Counter_1.c **** * Parameters:  
 483:Generated_Source\PSoC5/Counter_1.c **** *  void:
 484:Generated_Source\PSoC5/Counter_1.c **** *
 485:Generated_Source\PSoC5/Counter_1.c **** * Return: 
 486:Generated_Source\PSoC5/Counter_1.c **** *  (uint32) Present compare value.
 487:Generated_Source\PSoC5/Counter_1.c **** *
 488:Generated_Source\PSoC5/Counter_1.c **** *******************************************************************************/
 489:Generated_Source\PSoC5/Counter_1.c **** uint32 Counter_1_ReadCompare(void) 
 490:Generated_Source\PSoC5/Counter_1.c **** {
 334              		.loc 1 490 0
 335              		.cfi_startproc
 336              		@ args = 0, pretend = 0, frame = 0
 337              		@ frame_needed = 0, uses_anonymous_args = 0
 338              		@ link register save eliminated.
 491:Generated_Source\PSoC5/Counter_1.c ****     return (CY_GET_REG32(Counter_1_COMPARE_LSB_PTR));
 339              		.loc 1 491 0
 340 0000 014B     		ldr	r3, .L38
 341 0002 1868     		ldr	r0, [r3]	@ unaligned
 492:Generated_Source\PSoC5/Counter_1.c **** }
 342              		.loc 1 492 0
 343 0004 7047     		bx	lr
 344              	.L39:
 345 0006 00BF     		.align	2
 346              	.L38:
 347 0008 32640040 		.word	1073767474
 348              		.cfi_endproc
 349              	.LFE14:
 350              		.size	Counter_1_ReadCompare, .-Counter_1_ReadCompare
 351              		.section	.text.Counter_1_SetCompareMode,"ax",%progbits
 352              		.align	2
 353              		.global	Counter_1_SetCompareMode
 354              		.thumb
 355              		.thumb_func
 356              		.type	Counter_1_SetCompareMode, %function
 357              	Counter_1_SetCompareMode:
 358              	.LFB15:
 493:Generated_Source\PSoC5/Counter_1.c **** 
 494:Generated_Source\PSoC5/Counter_1.c **** 
 495:Generated_Source\PSoC5/Counter_1.c **** #if (Counter_1_COMPARE_MODE_SOFTWARE)
 496:Generated_Source\PSoC5/Counter_1.c **** /*******************************************************************************
 497:Generated_Source\PSoC5/Counter_1.c **** * Function Name: Counter_1_SetCompareMode
ARM GAS  C:\Users\ASUS\AppData\Local\Temp\ccdlTLAr.s 			page 16


 498:Generated_Source\PSoC5/Counter_1.c **** ********************************************************************************
 499:Generated_Source\PSoC5/Counter_1.c **** * Summary:
 500:Generated_Source\PSoC5/Counter_1.c **** *  Sets the software controlled Compare Mode.
 501:Generated_Source\PSoC5/Counter_1.c **** *
 502:Generated_Source\PSoC5/Counter_1.c **** * Parameters:
 503:Generated_Source\PSoC5/Counter_1.c **** *  compareMode:  Compare Mode Enumerated Type.
 504:Generated_Source\PSoC5/Counter_1.c **** *
 505:Generated_Source\PSoC5/Counter_1.c **** * Return:
 506:Generated_Source\PSoC5/Counter_1.c **** *  void
 507:Generated_Source\PSoC5/Counter_1.c **** *
 508:Generated_Source\PSoC5/Counter_1.c **** *******************************************************************************/
 509:Generated_Source\PSoC5/Counter_1.c **** void Counter_1_SetCompareMode(uint8 compareMode) 
 510:Generated_Source\PSoC5/Counter_1.c **** {
 359              		.loc 1 510 0
 360              		.cfi_startproc
 361              		@ args = 0, pretend = 0, frame = 0
 362              		@ frame_needed = 0, uses_anonymous_args = 0
 363              		@ link register save eliminated.
 364              	.LVL5:
 511:Generated_Source\PSoC5/Counter_1.c ****     /* Clear the compare mode bits in the control register */
 512:Generated_Source\PSoC5/Counter_1.c ****     Counter_1_CONTROL &= ((uint8)(~Counter_1_CTRL_CMPMODE_MASK));
 365              		.loc 1 512 0
 366 0000 044B     		ldr	r3, .L41
 367 0002 1A78     		ldrb	r2, [r3]	@ zero_extendqisi2
 368 0004 02F0F802 		and	r2, r2, #248
 369 0008 1A70     		strb	r2, [r3]
 513:Generated_Source\PSoC5/Counter_1.c ****     
 514:Generated_Source\PSoC5/Counter_1.c ****     /* Write the new setting */
 515:Generated_Source\PSoC5/Counter_1.c ****     Counter_1_CONTROL |= compareMode;
 370              		.loc 1 515 0
 371 000a 1A78     		ldrb	r2, [r3]	@ zero_extendqisi2
 372 000c 1043     		orrs	r0, r0, r2
 373              	.LVL6:
 374 000e 1870     		strb	r0, [r3]
 375 0010 7047     		bx	lr
 376              	.L42:
 377 0012 00BF     		.align	2
 378              	.L41:
 379 0014 72640040 		.word	1073767538
 380              		.cfi_endproc
 381              	.LFE15:
 382              		.size	Counter_1_SetCompareMode, .-Counter_1_SetCompareMode
 383              		.section	.text.Counter_1_ClearFIFO,"ax",%progbits
 384              		.align	2
 385              		.global	Counter_1_ClearFIFO
 386              		.thumb
 387              		.thumb_func
 388              		.type	Counter_1_ClearFIFO, %function
 389              	Counter_1_ClearFIFO:
 390              	.LFB16:
 516:Generated_Source\PSoC5/Counter_1.c **** }
 517:Generated_Source\PSoC5/Counter_1.c **** #endif  /* (Counter_1_COMPARE_MODE_SOFTWARE) */
 518:Generated_Source\PSoC5/Counter_1.c **** 
 519:Generated_Source\PSoC5/Counter_1.c **** 
 520:Generated_Source\PSoC5/Counter_1.c **** #if (Counter_1_CAPTURE_MODE_SOFTWARE)
 521:Generated_Source\PSoC5/Counter_1.c **** /*******************************************************************************
 522:Generated_Source\PSoC5/Counter_1.c **** * Function Name: Counter_1_SetCaptureMode
ARM GAS  C:\Users\ASUS\AppData\Local\Temp\ccdlTLAr.s 			page 17


 523:Generated_Source\PSoC5/Counter_1.c **** ********************************************************************************
 524:Generated_Source\PSoC5/Counter_1.c **** * Summary:
 525:Generated_Source\PSoC5/Counter_1.c **** *  Sets the software controlled Capture Mode.
 526:Generated_Source\PSoC5/Counter_1.c **** *
 527:Generated_Source\PSoC5/Counter_1.c **** * Parameters:
 528:Generated_Source\PSoC5/Counter_1.c **** *  captureMode:  Capture Mode Enumerated Type.
 529:Generated_Source\PSoC5/Counter_1.c **** *
 530:Generated_Source\PSoC5/Counter_1.c **** * Return:
 531:Generated_Source\PSoC5/Counter_1.c **** *  void
 532:Generated_Source\PSoC5/Counter_1.c **** *
 533:Generated_Source\PSoC5/Counter_1.c **** *******************************************************************************/
 534:Generated_Source\PSoC5/Counter_1.c **** void Counter_1_SetCaptureMode(uint8 captureMode) 
 535:Generated_Source\PSoC5/Counter_1.c **** {
 536:Generated_Source\PSoC5/Counter_1.c ****     /* Clear the capture mode bits in the control register */
 537:Generated_Source\PSoC5/Counter_1.c ****     Counter_1_CONTROL &= ((uint8)(~Counter_1_CTRL_CAPMODE_MASK));
 538:Generated_Source\PSoC5/Counter_1.c ****     
 539:Generated_Source\PSoC5/Counter_1.c ****     /* Write the new setting */
 540:Generated_Source\PSoC5/Counter_1.c ****     Counter_1_CONTROL |= ((uint8)((uint8)captureMode << Counter_1_CTRL_CAPMODE0_SHIFT));
 541:Generated_Source\PSoC5/Counter_1.c **** }
 542:Generated_Source\PSoC5/Counter_1.c **** #endif  /* (Counter_1_CAPTURE_MODE_SOFTWARE) */
 543:Generated_Source\PSoC5/Counter_1.c **** 
 544:Generated_Source\PSoC5/Counter_1.c **** 
 545:Generated_Source\PSoC5/Counter_1.c **** /*******************************************************************************
 546:Generated_Source\PSoC5/Counter_1.c **** * Function Name: Counter_1_ClearFIFO
 547:Generated_Source\PSoC5/Counter_1.c **** ********************************************************************************
 548:Generated_Source\PSoC5/Counter_1.c **** * Summary:
 549:Generated_Source\PSoC5/Counter_1.c **** *   This function clears all capture data from the capture FIFO
 550:Generated_Source\PSoC5/Counter_1.c **** *
 551:Generated_Source\PSoC5/Counter_1.c **** * Parameters:  
 552:Generated_Source\PSoC5/Counter_1.c **** *  void:
 553:Generated_Source\PSoC5/Counter_1.c **** *
 554:Generated_Source\PSoC5/Counter_1.c **** * Return: 
 555:Generated_Source\PSoC5/Counter_1.c **** *  None
 556:Generated_Source\PSoC5/Counter_1.c **** *
 557:Generated_Source\PSoC5/Counter_1.c **** *******************************************************************************/
 558:Generated_Source\PSoC5/Counter_1.c **** void Counter_1_ClearFIFO(void) 
 559:Generated_Source\PSoC5/Counter_1.c **** {
 391              		.loc 1 559 0
 392              		.cfi_startproc
 393              		@ args = 0, pretend = 0, frame = 0
 394              		@ frame_needed = 0, uses_anonymous_args = 0
 395 0000 08B5     		push	{r3, lr}
 396              		.cfi_def_cfa_offset 8
 397              		.cfi_offset 3, -8
 398              		.cfi_offset 14, -4
 560:Generated_Source\PSoC5/Counter_1.c **** 
 561:Generated_Source\PSoC5/Counter_1.c ****     while(0u != (Counter_1_ReadStatusRegister() & Counter_1_STATUS_FIFONEMP))
 399              		.loc 1 561 0
 400 0002 01E0     		b	.L44
 401              	.L45:
 562:Generated_Source\PSoC5/Counter_1.c ****     {
 563:Generated_Source\PSoC5/Counter_1.c ****         (void)Counter_1_ReadCapture();
 402              		.loc 1 563 0
 403 0004 FFF7FEFF 		bl	Counter_1_ReadCapture
 404              	.LVL7:
 405              	.L44:
 561:Generated_Source\PSoC5/Counter_1.c ****     {
ARM GAS  C:\Users\ASUS\AppData\Local\Temp\ccdlTLAr.s 			page 18


 406              		.loc 1 561 0
 407 0008 FFF7FEFF 		bl	Counter_1_ReadStatusRegister
 408              	.LVL8:
 409 000c 10F0400F 		tst	r0, #64
 410 0010 F8D1     		bne	.L45
 564:Generated_Source\PSoC5/Counter_1.c ****     }
 565:Generated_Source\PSoC5/Counter_1.c **** 
 566:Generated_Source\PSoC5/Counter_1.c **** }
 411              		.loc 1 566 0
 412 0012 08BD     		pop	{r3, pc}
 413              		.cfi_endproc
 414              	.LFE16:
 415              		.size	Counter_1_ClearFIFO, .-Counter_1_ClearFIFO
 416              		.section	.text.Counter_1_Init,"ax",%progbits
 417              		.align	2
 418              		.global	Counter_1_Init
 419              		.thumb
 420              		.thumb_func
 421              		.type	Counter_1_Init, %function
 422              	Counter_1_Init:
 423              	.LFB0:
  38:Generated_Source\PSoC5/Counter_1.c ****         #if (!Counter_1_UsingFixedFunction && !Counter_1_ControlRegRemoved)
 424              		.loc 1 38 0
 425              		.cfi_startproc
 426              		@ args = 0, pretend = 0, frame = 0
 427              		@ frame_needed = 0, uses_anonymous_args = 0
 428 0000 08B5     		push	{r3, lr}
 429              		.cfi_def_cfa_offset 8
 430              		.cfi_offset 3, -8
 431              		.cfi_offset 14, -4
  79:Generated_Source\PSoC5/Counter_1.c ****             Counter_1_CONTROL = ctrl | Counter_1_DEFAULT_COMPARE_MODE;
 432              		.loc 1 79 0
 433 0002 144A     		ldr	r2, .L49
 434 0004 1378     		ldrb	r3, [r2]	@ zero_extendqisi2
 435 0006 03F0F803 		and	r3, r3, #248
 436              	.LVL9:
  80:Generated_Source\PSoC5/Counter_1.c ****             
 437              		.loc 1 80 0
 438 000a 43F00503 		orr	r3, r3, #5
 439              	.LVL10:
 440 000e 1370     		strb	r3, [r2]
  83:Generated_Source\PSoC5/Counter_1.c ****             
 441              		.loc 1 83 0
 442 0010 1378     		ldrb	r3, [r2]	@ zero_extendqisi2
 443 0012 03F0FC03 		and	r3, r3, #252
 444              	.LVL11:
  86:Generated_Source\PSoC5/Counter_1.c ****             #else
 445              		.loc 1 86 0
 446 0016 43F00803 		orr	r3, r3, #8
 447              	.LVL12:
 448 001a 1370     		strb	r3, [r2]
  96:Generated_Source\PSoC5/Counter_1.c ****         #endif /* (!Counter_1_UsingFixedFunction) */
 449              		.loc 1 96 0
 450 001c FFF7FEFF 		bl	Counter_1_ClearFIFO
 451              	.LVL13:
 100:Generated_Source\PSoC5/Counter_1.c ****         #if (!(Counter_1_UsingFixedFunction && (CY_PSOC5A)))
 452              		.loc 1 100 0
ARM GAS  C:\Users\ASUS\AppData\Local\Temp\ccdlTLAr.s 			page 19


 453 0020 6FF00100 		mvn	r0, #1
 454 0024 FFF7FEFF 		bl	Counter_1_WritePeriod
 455              	.LVL14:
 102:Generated_Source\PSoC5/Counter_1.c ****         #endif /* (!(Counter_1_UsingFixedFunction && (CY_PSOC5A))) */
 456              		.loc 1 102 0
 457 0028 0020     		movs	r0, #0
 458 002a FFF7FEFF 		bl	Counter_1_WriteCounter
 459              	.LVL15:
 104:Generated_Source\PSoC5/Counter_1.c ****         
 460              		.loc 1 104 0
 461 002e 0020     		movs	r0, #0
 462 0030 FFF7FEFF 		bl	Counter_1_SetInterruptMode
 463              	.LVL16:
 108:Generated_Source\PSoC5/Counter_1.c ****             /* Set the compare value (only available to non-fixed function implementation */
 464              		.loc 1 108 0
 465 0034 FFF7FEFF 		bl	Counter_1_ReadStatusRegister
 466              	.LVL17:
 110:Generated_Source\PSoC5/Counter_1.c ****             /* Use the interrupt output of the status register for IRQ output */
 467              		.loc 1 110 0
 468 0038 FF20     		movs	r0, #255
 469 003a FFF7FEFF 		bl	Counter_1_WriteCompare
 470              	.LVL18:
 115:Generated_Source\PSoC5/Counter_1.c ****             
 471              		.loc 1 115 0
 472 003e FFF7FEFF 		bl	CyEnterCriticalSection
 473              	.LVL19:
 117:Generated_Source\PSoC5/Counter_1.c ****             
 474              		.loc 1 117 0
 475 0042 054A     		ldr	r2, .L49+4
 476 0044 1378     		ldrb	r3, [r2]	@ zero_extendqisi2
 477 0046 43F01003 		orr	r3, r3, #16
 478 004a 1370     		strb	r3, [r2]
 120:Generated_Source\PSoC5/Counter_1.c ****             
 479              		.loc 1 120 0
 480 004c FFF7FEFF 		bl	CyExitCriticalSection
 481              	.LVL20:
 482 0050 08BD     		pop	{r3, pc}
 483              	.L50:
 484 0052 00BF     		.align	2
 485              	.L49:
 486 0054 72640040 		.word	1073767538
 487 0058 95640040 		.word	1073767573
 488              		.cfi_endproc
 489              	.LFE0:
 490              		.size	Counter_1_Init, .-Counter_1_Init
 491              		.section	.text.Counter_1_Start,"ax",%progbits
 492              		.align	2
 493              		.global	Counter_1_Start
 494              		.thumb
 495              		.thumb_func
 496              		.type	Counter_1_Start, %function
 497              	Counter_1_Start:
 498              	.LFB2:
 179:Generated_Source\PSoC5/Counter_1.c ****     if(Counter_1_initVar == 0u)
 499              		.loc 1 179 0
 500              		.cfi_startproc
 501              		@ args = 0, pretend = 0, frame = 0
ARM GAS  C:\Users\ASUS\AppData\Local\Temp\ccdlTLAr.s 			page 20


 502              		@ frame_needed = 0, uses_anonymous_args = 0
 503 0000 08B5     		push	{r3, lr}
 504              		.cfi_def_cfa_offset 8
 505              		.cfi_offset 3, -8
 506              		.cfi_offset 14, -4
 180:Generated_Source\PSoC5/Counter_1.c ****     {
 507              		.loc 1 180 0
 508 0002 054B     		ldr	r3, .L54
 509 0004 1B78     		ldrb	r3, [r3]	@ zero_extendqisi2
 510 0006 23B9     		cbnz	r3, .L52
 182:Generated_Source\PSoC5/Counter_1.c ****         
 511              		.loc 1 182 0
 512 0008 FFF7FEFF 		bl	Counter_1_Init
 513              	.LVL21:
 184:Generated_Source\PSoC5/Counter_1.c ****     }
 514              		.loc 1 184 0
 515 000c 0122     		movs	r2, #1
 516 000e 024B     		ldr	r3, .L54
 517 0010 1A70     		strb	r2, [r3]
 518              	.L52:
 188:Generated_Source\PSoC5/Counter_1.c **** }
 519              		.loc 1 188 0
 520 0012 FFF7FEFF 		bl	Counter_1_Enable
 521              	.LVL22:
 522 0016 08BD     		pop	{r3, pc}
 523              	.L55:
 524              		.align	2
 525              	.L54:
 526 0018 00000000 		.word	.LANCHOR0
 527              		.cfi_endproc
 528              	.LFE2:
 529              		.size	Counter_1_Start, .-Counter_1_Start
 530              		.global	Counter_1_initVar
 531              		.bss
 532              		.set	.LANCHOR0,. + 0
 533              		.type	Counter_1_initVar, %object
 534              		.size	Counter_1_initVar, 1
 535              	Counter_1_initVar:
 536 0000 00       		.space	1
 537              		.text
 538              	.Letext0:
 539              		.file 2 "Generated_Source\\PSoC5\\cytypes.h"
 540              		.file 3 "Generated_Source\\PSoC5\\CyLib.h"