ARM GAS  C:\Users\weiro\AppData\Local\Temp\ccS229OV.s 			page 1


   1              		.syntax unified
   2              		.cpu cortex-m3
   3              		.fpu softvfp
   4              		.eabi_attribute 20, 1
   5              		.eabi_attribute 21, 1
   6              		.eabi_attribute 23, 3
   7              		.eabi_attribute 24, 1
   8              		.eabi_attribute 25, 1
   9              		.eabi_attribute 26, 1
  10              		.eabi_attribute 30, 1
  11              		.eabi_attribute 34, 1
  12              		.eabi_attribute 18, 4
  13              		.thumb
  14              		.syntax unified
  15              		.file	"main.c"
  16              		.text
  17              	.Ltext0:
  18              		.cfi_sections	.debug_frame
  19              		.section	.text.Color_sensing,"ax",%progbits
  20              		.align	2
  21              		.global	Color_sensing
  22              		.thumb
  23              		.thumb_func
  24              		.type	Color_sensing, %function
  25              	Color_sensing:
  26              	.LFB64:
  27              		.file 1 "main.c"
   1:main.c        **** /* ========================================
   2:main.c        ****  *
   3:main.c        ****  * Copyright YOUR COMPANY, THE YEAR
   4:main.c        ****  * All Rights Reserved
   5:main.c        ****  * UNPUBLISHED, LICENSED SOFTWARE.
   6:main.c        ****  *
   7:main.c        ****  * CONFIDENTIAL AND PROPRIETARY INFORMATION
   8:main.c        ****  * WHICH IS THE PROPERTY OF your company.
   9:main.c        ****  *
  10:main.c        ****  * ========================================
  11:main.c        **** */
  12:main.c        **** // ECE4191 Group 3
  13:main.c        **** 
  14:main.c        **** #include "project.h"
  15:main.c        **** #include <stdio.h>
  16:main.c        **** #include <stdlib.h>
  17:main.c        **** #include <math.h> 
  18:main.c        **** 
  19:main.c        **** double WHEEL_DIAMETER = 5.4; //cm
  20:main.c        **** double WHEEL_CIRCUMFERENCE = 0;
  21:main.c        **** 
  22:main.c        **** double COUNT_WHEEL = 3667; // Count per rotation
  23:main.c        **** double CM_COUNT_CONV = 0;
  24:main.c        **** double DISTANCE_BETW_WHEEL = 22.30;
  25:main.c        **** double DISTANCE_PT_TURN = 0;
  26:main.c        **** double PT_TURN_COUNT = 0;
  27:main.c        **** int Count_Master = 0;
  28:main.c        **** int Count_Slave = 0;
  29:main.c        **** char string_1[20];
  30:main.c        **** char string_2[20];
ARM GAS  C:\Users\weiro\AppData\Local\Temp\ccS229OV.s 			page 2


  31:main.c        **** char string_3[20];
  32:main.c        **** double error = 0;
  33:main.c        **** double accumulated_error = 0;
  34:main.c        **** double last_error = 0;
  35:main.c        **** double derivative_error = 0;
  36:main.c        **** double timer_period = 5;
  37:main.c        **** double K_p = 50;
  38:main.c        **** double K_i = 0;
  39:main.c        **** double K_d = 0;
  40:main.c        **** float PWM_Master = 23000;
  41:main.c        **** float PWM_Slave = 23000;
  42:main.c        **** int is_moving = 0;
  43:main.c        **** uint16 front_det_count_1, front_det_count_2, right_det_count, left_det_count = 0;
  44:main.c        **** float front_measured_1, front_measured_2, right_measured, left_measured = 0;
  45:main.c        **** double x_coord = 0;
  46:main.c        **** double y_coord = 0;
  47:main.c        **** int direction = 0;
  48:main.c        **** int step = 0;
  49:main.c        **** int compare_ready = 0;
  50:main.c        **** int color_detected = 0; // 1-red, 2-green, 3-blue
  51:main.c        **** int wall_detected_10 = 0;
  52:main.c        **** int slit_detected = 0;
  53:main.c        **** int down_big = 615;
  54:main.c        **** int up_big = 525;
  55:main.c        **** int open_small = 980;
  56:main.c        **** int close_small  = 940;
  57:main.c        **** 
  58:main.c        **** CY_ISR(Color_sensing)
  59:main.c        **** {
  28              		.loc 1 59 0
  29              		.cfi_startproc
  30              		@ args = 0, pretend = 0, frame = 0
  31              		@ frame_needed = 0, uses_anonymous_args = 0
  32 0000 08B5     		push	{r3, lr}
  33              		.cfi_def_cfa_offset 8
  34              		.cfi_offset 3, -8
  35              		.cfi_offset 14, -4
  60:main.c        ****     // Ready to do the capture --> to count the pulse
  61:main.c        ****     PWM_ColorSensor_ReadStatusRegister();
  36              		.loc 1 61 0
  37 0002 FFF7FEFF 		bl	PWM_ColorSensor_ReadStatusRegister
  38              	.LVL0:
  62:main.c        ****     compare_ready = 1;
  39              		.loc 1 62 0
  40 0006 0122     		movs	r2, #1
  41 0008 014B     		ldr	r3, .L3
  42 000a 1A60     		str	r2, [r3]
  43 000c 08BD     		pop	{r3, pc}
  44              	.L4:
  45 000e 00BF     		.align	2
  46              	.L3:
  47 0010 00000000 		.word	.LANCHOR0
  48              		.cfi_endproc
  49              	.LFE64:
  50              		.size	Color_sensing, .-Color_sensing
  51              		.global	__aeabi_i2d
  52              		.global	__aeabi_dmul
ARM GAS  C:\Users\weiro\AppData\Local\Temp\ccS229OV.s 			page 3


  53              		.global	__aeabi_f2d
  54              		.global	__aeabi_dadd
  55              		.global	__aeabi_d2f
  56              		.global	__aeabi_f2uiz
  57              		.section	.text.Speed_Control,"ax",%progbits
  58              		.align	2
  59              		.global	Speed_Control
  60              		.thumb
  61              		.thumb_func
  62              		.type	Speed_Control, %function
  63              	Speed_Control:
  64              	.LFB65:
  63:main.c        **** }
  64:main.c        **** 
  65:main.c        **** CY_ISR (Speed_Control)
  66:main.c        **** {
  65              		.loc 1 66 0
  66              		.cfi_startproc
  67              		@ args = 0, pretend = 0, frame = 0
  68              		@ frame_needed = 0, uses_anonymous_args = 0
  69 0000 F8B5     		push	{r3, r4, r5, r6, r7, lr}
  70              		.cfi_def_cfa_offset 24
  71              		.cfi_offset 3, -24
  72              		.cfi_offset 4, -20
  73              		.cfi_offset 5, -16
  74              		.cfi_offset 6, -12
  75              		.cfi_offset 7, -8
  76              		.cfi_offset 14, -4
  67:main.c        ****     if(is_moving == 1)
  77              		.loc 1 67 0
  78 0002 164B     		ldr	r3, .L8
  79 0004 5B68     		ldr	r3, [r3, #4]
  80 0006 012B     		cmp	r3, #1
  81 0008 27D1     		bne	.L5
  68:main.c        ****     {
  69:main.c        ****         error = abs(Count_Master) - abs(Count_Slave);
  82              		.loc 1 69 0
  83 000a 144C     		ldr	r4, .L8
  84 000c A068     		ldr	r0, [r4, #8]
  85 000e 0028     		cmp	r0, #0
  86 0010 B8BF     		it	lt
  87 0012 4042     		rsblt	r0, r0, #0
  88 0014 E368     		ldr	r3, [r4, #12]
  89 0016 002B     		cmp	r3, #0
  90 0018 B8BF     		it	lt
  91 001a 5B42     		rsblt	r3, r3, #0
  92 001c C01A     		subs	r0, r0, r3
  93 001e FFF7FEFF 		bl	__aeabi_i2d
  94              	.LVL1:
  95 0022 C4E90401 		strd	r0, [r4, #16]
  70:main.c        ****     	//accumulated_error = accumulated_error + (error*timer_period);
  71:main.c        ****         //derivative_error = (error - last_error)/timer_period;
  72:main.c        ****         //K_i = 1.2 * K_p / timer_period;
  73:main.c        ****         //K_d = 0.075 * K_p * timer_period;
  74:main.c        ****         //PWM_Slave = 25000 - (K_p*error + K_i*accumulated_error + K_d*derivative_error);
  75:main.c        ****         PWM_Slave = PWM_Master + K_p*error;
  96              		.loc 1 75 0
ARM GAS  C:\Users\weiro\AppData\Local\Temp\ccS229OV.s 			page 4


  97 0026 0E4D     		ldr	r5, .L8+4
  98 0028 D5E90023 		ldrd	r2, [r5]
  99 002c FFF7FEFF 		bl	__aeabi_dmul
 100              	.LVL2:
 101 0030 0646     		mov	r6, r0
 102 0032 0F46     		mov	r7, r1
 103 0034 A868     		ldr	r0, [r5, #8]	@ float
 104 0036 FFF7FEFF 		bl	__aeabi_f2d
 105              	.LVL3:
 106 003a 3246     		mov	r2, r6
 107 003c 3B46     		mov	r3, r7
 108 003e FFF7FEFF 		bl	__aeabi_dadd
 109              	.LVL4:
 110 0042 FFF7FEFF 		bl	__aeabi_d2f
 111              	.LVL5:
 112 0046 E860     		str	r0, [r5, #12]	@ float
  76:main.c        ****         //if (PWM_Slave>25000)
  77:main.c        ****         //{
  78:main.c        ****         //    PWM_Slave = 23000;
  79:main.c        ****         //}
  80:main.c        ****     
  81:main.c        ****         PWM_Slave_WriteCompare(PWM_Slave);
 113              		.loc 1 81 0
 114 0048 FFF7FEFF 		bl	__aeabi_f2uiz
 115              	.LVL6:
 116 004c 80B2     		uxth	r0, r0
 117 004e FFF7FEFF 		bl	PWM_Slave_WriteCompare
 118              	.LVL7:
  82:main.c        ****         last_error = error;
 119              		.loc 1 82 0
 120 0052 D4E90423 		ldrd	r2, [r4, #16]
 121 0056 C4E90623 		strd	r2, [r4, #24]
 122              	.L5:
 123 005a F8BD     		pop	{r3, r4, r5, r6, r7, pc}
 124              	.L9:
 125              		.align	2
 126              	.L8:
 127 005c 00000000 		.word	.LANCHOR0
 128 0060 00000000 		.word	.LANCHOR1
 129              		.cfi_endproc
 130              	.LFE65:
 131              		.size	Speed_Control, .-Speed_Control
 132              		.global	__aeabi_i2f
 133              		.global	__aeabi_fcmple
 134              		.section	.text.dist_front_detection_1,"ax",%progbits
 135              		.align	2
 136              		.global	dist_front_detection_1
 137              		.thumb
 138              		.thumb_func
 139              		.type	dist_front_detection_1, %function
 140              	dist_front_detection_1:
 141              	.LFB66:
  83:main.c        ****     }
  84:main.c        **** 
  85:main.c        ****     //sprintf(string_3, "PWM_Slave: %f\n", PWM_Slave);
  86:main.c        ****     //UART_1_PutString(string_3);
  87:main.c        **** }
ARM GAS  C:\Users\weiro\AppData\Local\Temp\ccS229OV.s 			page 5


  88:main.c        **** 
  89:main.c        **** CY_ISR(dist_front_detection_1)
  90:main.c        **** {
 142              		.loc 1 90 0
 143              		.cfi_startproc
 144              		@ args = 0, pretend = 0, frame = 0
 145              		@ frame_needed = 0, uses_anonymous_args = 0
 146 0000 38B5     		push	{r3, r4, r5, lr}
 147              		.cfi_def_cfa_offset 16
 148              		.cfi_offset 3, -16
 149              		.cfi_offset 4, -12
 150              		.cfi_offset 5, -8
 151              		.cfi_offset 14, -4
  91:main.c        ****     Timer_2_ReadStatusRegister();
 152              		.loc 1 91 0
 153 0002 FFF7FEFF 		bl	Timer_2_ReadStatusRegister
 154              	.LVL8:
  92:main.c        ****     front_det_count_1 = Timer_2_ReadCounter();
 155              		.loc 1 92 0
 156 0006 FFF7FEFF 		bl	Timer_2_ReadCounter
 157              	.LVL9:
 158 000a 144B     		ldr	r3, .L17
 159 000c 1880     		strh	r0, [r3]	@ movhi
  93:main.c        ****     front_measured_1 = (65535-front_det_count_1)/58;
 160              		.loc 1 93 0
 161 000e C0F57F43 		rsb	r3, r0, #65280
 162 0012 FF33     		adds	r3, r3, #255
 163 0014 1248     		ldr	r0, .L17+4
 164 0016 80FB0320 		smull	r2, r0, r0, r3
 165 001a 1844     		add	r0, r0, r3
 166 001c DB17     		asrs	r3, r3, #31
 167 001e C3EB6010 		rsb	r0, r3, r0, asr #5
 168 0022 FFF7FEFF 		bl	__aeabi_i2f
 169              	.LVL10:
 170 0026 0F4C     		ldr	r4, .L17+8
 171 0028 2060     		str	r0, [r4]	@ float
  94:main.c        ****     sprintf(string_1, "Front dist 1: %lf\n", front_measured_1);
 172              		.loc 1 94 0
 173 002a FFF7FEFF 		bl	__aeabi_f2d
 174              	.LVL11:
 175 002e 0E4D     		ldr	r5, .L17+12
 176 0030 0246     		mov	r2, r0
 177 0032 0B46     		mov	r3, r1
 178 0034 0D49     		ldr	r1, .L17+16
 179 0036 2846     		mov	r0, r5
 180 0038 FFF7FEFF 		bl	sprintf
 181              	.LVL12:
  95:main.c        ****     UART_1_PutString(string_1);
 182              		.loc 1 95 0
 183 003c 2846     		mov	r0, r5
 184 003e FFF7FEFF 		bl	UART_1_PutString
 185              	.LVL13:
  96:main.c        ****     if(front_measured_1 <= 10)
 186              		.loc 1 96 0
 187 0042 0B49     		ldr	r1, .L17+20
 188 0044 2068     		ldr	r0, [r4]	@ float
 189 0046 FFF7FEFF 		bl	__aeabi_fcmple
ARM GAS  C:\Users\weiro\AppData\Local\Temp\ccS229OV.s 			page 6


 190              	.LVL14:
 191 004a 18B1     		cbz	r0, .L15
  97:main.c        ****     {
  98:main.c        ****         wall_detected_10 = 1;
 192              		.loc 1 98 0
 193 004c 0122     		movs	r2, #1
 194 004e 094B     		ldr	r3, .L17+24
 195 0050 1A62     		str	r2, [r3, #32]
 196 0052 38BD     		pop	{r3, r4, r5, pc}
 197              	.L15:
  99:main.c        ****     }
 100:main.c        ****     else
 101:main.c        ****     {
 102:main.c        ****         wall_detected_10 = 0;
 198              		.loc 1 102 0
 199 0054 0022     		movs	r2, #0
 200 0056 074B     		ldr	r3, .L17+24
 201 0058 1A62     		str	r2, [r3, #32]
 202 005a 38BD     		pop	{r3, r4, r5, pc}
 203              	.L18:
 204              		.align	2
 205              	.L17:
 206 005c 00000000 		.word	front_det_count_1
 207 0060 09CB3D8D 		.word	-1925330167
 208 0064 00000000 		.word	front_measured_1
 209 0068 00000000 		.word	string_1
 210 006c 00000000 		.word	.LC0
 211 0070 00002041 		.word	1092616192
 212 0074 00000000 		.word	.LANCHOR0
 213              		.cfi_endproc
 214              	.LFE66:
 215              		.size	dist_front_detection_1, .-dist_front_detection_1
 216              		.section	.text.dist_left_detection,"ax",%progbits
 217              		.align	2
 218              		.global	dist_left_detection
 219              		.thumb
 220              		.thumb_func
 221              		.type	dist_left_detection, %function
 222              	dist_left_detection:
 223              	.LFB67:
 103:main.c        ****     }
 104:main.c        **** }
 105:main.c        **** /*
 106:main.c        **** CY_ISR(dist_front_detection_2)
 107:main.c        **** {
 108:main.c        ****     Timer_2_ReadStatusRegister();
 109:main.c        ****     front_det_count_2 = Timer_2_ReadCounter();
 110:main.c        ****     front_measured_2 = (65535-front_det_count_2)/58;
 111:main.c        ****     sprintf(string_1, "Front dist 2: %lf\n", front_measured_2);
 112:main.c        ****     UART_1_PutString(string_1);
 113:main.c        **** }
 114:main.c        **** 
 115:main.c        **** CY_ISR(dist_right_detection)
 116:main.c        **** {
 117:main.c        ****     Timer_2_ReadStatusRegister();
 118:main.c        ****     right_det_count = Timer_2_ReadCounter();
 119:main.c        ****     front_measured_1 = (65535-right_det_count)/58;
ARM GAS  C:\Users\weiro\AppData\Local\Temp\ccS229OV.s 			page 7


 120:main.c        ****     //sprintf(string_1, "front dist: %lf\n", front_measured_1);
 121:main.c        ****     //UART_1_PutString(string_1);
 122:main.c        **** }
 123:main.c        **** */
 124:main.c        **** CY_ISR(dist_left_detection)
 125:main.c        **** {
 224              		.loc 1 125 0
 225              		.cfi_startproc
 226              		@ args = 0, pretend = 0, frame = 0
 227              		@ frame_needed = 0, uses_anonymous_args = 0
 228 0000 38B5     		push	{r3, r4, r5, lr}
 229              		.cfi_def_cfa_offset 16
 230              		.cfi_offset 3, -16
 231              		.cfi_offset 4, -12
 232              		.cfi_offset 5, -8
 233              		.cfi_offset 14, -4
 126:main.c        ****     Timer_4_ReadStatusRegister();
 234              		.loc 1 126 0
 235 0002 FFF7FEFF 		bl	Timer_4_ReadStatusRegister
 236              	.LVL15:
 127:main.c        ****     left_det_count = Timer_4_ReadCounter();
 237              		.loc 1 127 0
 238 0006 FFF7FEFF 		bl	Timer_4_ReadCounter
 239              	.LVL16:
 240 000a 134C     		ldr	r4, .L26
 241 000c A084     		strh	r0, [r4, #36]	@ movhi
 128:main.c        ****     left_measured = (65535-left_det_count)/58;
 242              		.loc 1 128 0
 243 000e C0F57F43 		rsb	r3, r0, #65280
 244 0012 FF33     		adds	r3, r3, #255
 245 0014 1148     		ldr	r0, .L26+4
 246 0016 80FB0320 		smull	r2, r0, r0, r3
 247 001a 1844     		add	r0, r0, r3
 248 001c DB17     		asrs	r3, r3, #31
 249 001e C3EB6010 		rsb	r0, r3, r0, asr #5
 250 0022 FFF7FEFF 		bl	__aeabi_i2f
 251              	.LVL17:
 252 0026 A062     		str	r0, [r4, #40]	@ float
 129:main.c        ****     sprintf(string_1, "Left dist 1: %lf\n", left_measured);
 253              		.loc 1 129 0
 254 0028 FFF7FEFF 		bl	__aeabi_f2d
 255              	.LVL18:
 256 002c 0C4D     		ldr	r5, .L26+8
 257 002e 0246     		mov	r2, r0
 258 0030 0B46     		mov	r3, r1
 259 0032 0C49     		ldr	r1, .L26+12
 260 0034 2846     		mov	r0, r5
 261 0036 FFF7FEFF 		bl	sprintf
 262              	.LVL19:
 130:main.c        ****     UART_1_PutString(string_1);
 263              		.loc 1 130 0
 264 003a 2846     		mov	r0, r5
 265 003c FFF7FEFF 		bl	UART_1_PutString
 266              	.LVL20:
 131:main.c        ****     if(left_measured <= 10)
 267              		.loc 1 131 0
 268 0040 0949     		ldr	r1, .L26+16
ARM GAS  C:\Users\weiro\AppData\Local\Temp\ccS229OV.s 			page 8


 269 0042 A06A     		ldr	r0, [r4, #40]	@ float
 270 0044 FFF7FEFF 		bl	__aeabi_fcmple
 271              	.LVL21:
 272 0048 10B1     		cbz	r0, .L24
 132:main.c        ****     {
 133:main.c        ****         slit_detected = 0;
 273              		.loc 1 133 0
 274 004a 0022     		movs	r2, #0
 275 004c E262     		str	r2, [r4, #44]
 276 004e 38BD     		pop	{r3, r4, r5, pc}
 277              	.L24:
 134:main.c        ****     }
 135:main.c        ****     else
 136:main.c        ****     {
 137:main.c        ****         slit_detected = 1;
 278              		.loc 1 137 0
 279 0050 0122     		movs	r2, #1
 280 0052 014B     		ldr	r3, .L26
 281 0054 DA62     		str	r2, [r3, #44]
 282 0056 38BD     		pop	{r3, r4, r5, pc}
 283              	.L27:
 284              		.align	2
 285              	.L26:
 286 0058 00000000 		.word	.LANCHOR0
 287 005c 09CB3D8D 		.word	-1925330167
 288 0060 00000000 		.word	string_1
 289 0064 14000000 		.word	.LC1
 290 0068 00002041 		.word	1092616192
 291              		.cfi_endproc
 292              	.LFE67:
 293              		.size	dist_left_detection, .-dist_left_detection
 294              		.section	.text.stop,"ax",%progbits
 295              		.align	2
 296              		.global	stop
 297              		.thumb
 298              		.thumb_func
 299              		.type	stop, %function
 300              	stop:
 301              	.LFB68:
 138:main.c        ****     }
 139:main.c        **** }
 140:main.c        **** 
 141:main.c        **** void stop()
 142:main.c        **** {
 302              		.loc 1 142 0
 303              		.cfi_startproc
 304              		@ args = 0, pretend = 0, frame = 0
 305              		@ frame_needed = 0, uses_anonymous_args = 0
 306 0000 10B5     		push	{r4, lr}
 307              		.cfi_def_cfa_offset 8
 308              		.cfi_offset 4, -8
 309              		.cfi_offset 14, -4
 143:main.c        ****     is_moving = 0;
 310              		.loc 1 143 0
 311 0002 0024     		movs	r4, #0
 312 0004 074B     		ldr	r3, .L30
 313 0006 5C60     		str	r4, [r3, #4]
ARM GAS  C:\Users\weiro\AppData\Local\Temp\ccS229OV.s 			page 9


 144:main.c        ****     Motor_1_IN_1_Write(0);
 314              		.loc 1 144 0
 315 0008 2046     		mov	r0, r4
 316 000a FFF7FEFF 		bl	Motor_1_IN_1_Write
 317              	.LVL22:
 145:main.c        ****     Motor_1_IN_2_Write(0);
 318              		.loc 1 145 0
 319 000e 2046     		mov	r0, r4
 320 0010 FFF7FEFF 		bl	Motor_1_IN_2_Write
 321              	.LVL23:
 146:main.c        ****     Motor_2_IN_3_Write(0);
 322              		.loc 1 146 0
 323 0014 2046     		mov	r0, r4
 324 0016 FFF7FEFF 		bl	Motor_2_IN_3_Write
 325              	.LVL24:
 147:main.c        ****     Motor_2_IN_4_Write(0);
 326              		.loc 1 147 0
 327 001a 2046     		mov	r0, r4
 328 001c FFF7FEFF 		bl	Motor_2_IN_4_Write
 329              	.LVL25:
 330 0020 10BD     		pop	{r4, pc}
 331              	.L31:
 332 0022 00BF     		.align	2
 333              	.L30:
 334 0024 00000000 		.word	.LANCHOR0
 335              		.cfi_endproc
 336              	.LFE68:
 337              		.size	stop, .-stop
 338              		.section	.text.forward,"ax",%progbits
 339              		.align	2
 340              		.global	forward
 341              		.thumb
 342              		.thumb_func
 343              		.type	forward, %function
 344              	forward:
 345              	.LFB69:
 148:main.c        **** }
 149:main.c        **** 
 150:main.c        **** void forward()
 151:main.c        **** {
 346              		.loc 1 151 0
 347              		.cfi_startproc
 348              		@ args = 0, pretend = 0, frame = 0
 349              		@ frame_needed = 0, uses_anonymous_args = 0
 350 0000 10B5     		push	{r4, lr}
 351              		.cfi_def_cfa_offset 8
 352              		.cfi_offset 4, -8
 353              		.cfi_offset 14, -4
 152:main.c        ****     is_moving = 1;
 354              		.loc 1 152 0
 355 0002 0124     		movs	r4, #1
 356 0004 074B     		ldr	r3, .L34
 357 0006 5C60     		str	r4, [r3, #4]
 153:main.c        ****     Motor_1_IN_1_Write(0);
 358              		.loc 1 153 0
 359 0008 0020     		movs	r0, #0
 360 000a FFF7FEFF 		bl	Motor_1_IN_1_Write
ARM GAS  C:\Users\weiro\AppData\Local\Temp\ccS229OV.s 			page 10


 361              	.LVL26:
 154:main.c        ****     Motor_1_IN_2_Write(1);
 362              		.loc 1 154 0
 363 000e 2046     		mov	r0, r4
 364 0010 FFF7FEFF 		bl	Motor_1_IN_2_Write
 365              	.LVL27:
 155:main.c        ****     Motor_2_IN_3_Write(0);
 366              		.loc 1 155 0
 367 0014 0020     		movs	r0, #0
 368 0016 FFF7FEFF 		bl	Motor_2_IN_3_Write
 369              	.LVL28:
 156:main.c        ****     Motor_2_IN_4_Write(1);
 370              		.loc 1 156 0
 371 001a 2046     		mov	r0, r4
 372 001c FFF7FEFF 		bl	Motor_2_IN_4_Write
 373              	.LVL29:
 374 0020 10BD     		pop	{r4, pc}
 375              	.L35:
 376 0022 00BF     		.align	2
 377              	.L34:
 378 0024 00000000 		.word	.LANCHOR0
 379              		.cfi_endproc
 380              	.LFE69:
 381              		.size	forward, .-forward
 382              		.section	.text.reverse,"ax",%progbits
 383              		.align	2
 384              		.global	reverse
 385              		.thumb
 386              		.thumb_func
 387              		.type	reverse, %function
 388              	reverse:
 389              	.LFB70:
 157:main.c        **** }
 158:main.c        **** 
 159:main.c        **** void reverse()
 160:main.c        **** {
 390              		.loc 1 160 0
 391              		.cfi_startproc
 392              		@ args = 0, pretend = 0, frame = 0
 393              		@ frame_needed = 0, uses_anonymous_args = 0
 394 0000 10B5     		push	{r4, lr}
 395              		.cfi_def_cfa_offset 8
 396              		.cfi_offset 4, -8
 397              		.cfi_offset 14, -4
 161:main.c        ****     is_moving = 1;
 398              		.loc 1 161 0
 399 0002 0124     		movs	r4, #1
 400 0004 074B     		ldr	r3, .L38
 401 0006 5C60     		str	r4, [r3, #4]
 162:main.c        ****     Motor_1_IN_1_Write(1);
 402              		.loc 1 162 0
 403 0008 2046     		mov	r0, r4
 404 000a FFF7FEFF 		bl	Motor_1_IN_1_Write
 405              	.LVL30:
 163:main.c        ****     Motor_1_IN_2_Write(0);
 406              		.loc 1 163 0
 407 000e 0020     		movs	r0, #0
ARM GAS  C:\Users\weiro\AppData\Local\Temp\ccS229OV.s 			page 11


 408 0010 FFF7FEFF 		bl	Motor_1_IN_2_Write
 409              	.LVL31:
 164:main.c        ****     Motor_2_IN_3_Write(1);
 410              		.loc 1 164 0
 411 0014 2046     		mov	r0, r4
 412 0016 FFF7FEFF 		bl	Motor_2_IN_3_Write
 413              	.LVL32:
 165:main.c        ****     Motor_2_IN_4_Write(0);
 414              		.loc 1 165 0
 415 001a 0020     		movs	r0, #0
 416 001c FFF7FEFF 		bl	Motor_2_IN_4_Write
 417              	.LVL33:
 418 0020 10BD     		pop	{r4, pc}
 419              	.L39:
 420 0022 00BF     		.align	2
 421              	.L38:
 422 0024 00000000 		.word	.LANCHOR0
 423              		.cfi_endproc
 424              	.LFE70:
 425              		.size	reverse, .-reverse
 426              		.section	.text.turn_anticlockwise,"ax",%progbits
 427              		.align	2
 428              		.global	turn_anticlockwise
 429              		.thumb
 430              		.thumb_func
 431              		.type	turn_anticlockwise, %function
 432              	turn_anticlockwise:
 433              	.LFB71:
 166:main.c        **** }
 167:main.c        **** 
 168:main.c        **** void turn_anticlockwise()
 169:main.c        **** {
 434              		.loc 1 169 0
 435              		.cfi_startproc
 436              		@ args = 0, pretend = 0, frame = 0
 437              		@ frame_needed = 0, uses_anonymous_args = 0
 438 0000 10B5     		push	{r4, lr}
 439              		.cfi_def_cfa_offset 8
 440              		.cfi_offset 4, -8
 441              		.cfi_offset 14, -4
 170:main.c        ****     is_moving = 1;
 442              		.loc 1 170 0
 443 0002 0124     		movs	r4, #1
 444 0004 074B     		ldr	r3, .L42
 445 0006 5C60     		str	r4, [r3, #4]
 171:main.c        ****     Motor_1_IN_1_Write(0);
 446              		.loc 1 171 0
 447 0008 0020     		movs	r0, #0
 448 000a FFF7FEFF 		bl	Motor_1_IN_1_Write
 449              	.LVL34:
 172:main.c        ****     Motor_1_IN_2_Write(1);
 450              		.loc 1 172 0
 451 000e 2046     		mov	r0, r4
 452 0010 FFF7FEFF 		bl	Motor_1_IN_2_Write
 453              	.LVL35:
 173:main.c        ****     Motor_2_IN_3_Write(1);
 454              		.loc 1 173 0
ARM GAS  C:\Users\weiro\AppData\Local\Temp\ccS229OV.s 			page 12


 455 0014 2046     		mov	r0, r4
 456 0016 FFF7FEFF 		bl	Motor_2_IN_3_Write
 457              	.LVL36:
 174:main.c        ****     Motor_2_IN_4_Write(0);
 458              		.loc 1 174 0
 459 001a 0020     		movs	r0, #0
 460 001c FFF7FEFF 		bl	Motor_2_IN_4_Write
 461              	.LVL37:
 462 0020 10BD     		pop	{r4, pc}
 463              	.L43:
 464 0022 00BF     		.align	2
 465              	.L42:
 466 0024 00000000 		.word	.LANCHOR0
 467              		.cfi_endproc
 468              	.LFE71:
 469              		.size	turn_anticlockwise, .-turn_anticlockwise
 470              		.section	.text.turn_clockwise,"ax",%progbits
 471              		.align	2
 472              		.global	turn_clockwise
 473              		.thumb
 474              		.thumb_func
 475              		.type	turn_clockwise, %function
 476              	turn_clockwise:
 477              	.LFB72:
 175:main.c        **** }
 176:main.c        **** 
 177:main.c        **** void turn_clockwise()
 178:main.c        **** {
 478              		.loc 1 178 0
 479              		.cfi_startproc
 480              		@ args = 0, pretend = 0, frame = 0
 481              		@ frame_needed = 0, uses_anonymous_args = 0
 482 0000 10B5     		push	{r4, lr}
 483              		.cfi_def_cfa_offset 8
 484              		.cfi_offset 4, -8
 485              		.cfi_offset 14, -4
 179:main.c        ****     is_moving = 1;
 486              		.loc 1 179 0
 487 0002 0124     		movs	r4, #1
 488 0004 074B     		ldr	r3, .L46
 489 0006 5C60     		str	r4, [r3, #4]
 180:main.c        ****     Motor_1_IN_1_Write(1);
 490              		.loc 1 180 0
 491 0008 2046     		mov	r0, r4
 492 000a FFF7FEFF 		bl	Motor_1_IN_1_Write
 493              	.LVL38:
 181:main.c        ****     Motor_1_IN_2_Write(0);
 494              		.loc 1 181 0
 495 000e 0020     		movs	r0, #0
 496 0010 FFF7FEFF 		bl	Motor_1_IN_2_Write
 497              	.LVL39:
 182:main.c        ****     Motor_2_IN_3_Write(0);
 498              		.loc 1 182 0
 499 0014 0020     		movs	r0, #0
 500 0016 FFF7FEFF 		bl	Motor_2_IN_3_Write
 501              	.LVL40:
 183:main.c        ****     Motor_2_IN_4_Write(1);
ARM GAS  C:\Users\weiro\AppData\Local\Temp\ccS229OV.s 			page 13


 502              		.loc 1 183 0
 503 001a 2046     		mov	r0, r4
 504 001c FFF7FEFF 		bl	Motor_2_IN_4_Write
 505              	.LVL41:
 506 0020 10BD     		pop	{r4, pc}
 507              	.L47:
 508 0022 00BF     		.align	2
 509              	.L46:
 510 0024 00000000 		.word	.LANCHOR0
 511              		.cfi_endproc
 512              	.LFE72:
 513              		.size	turn_clockwise, .-turn_clockwise
 514              		.section	.text.reset_count,"ax",%progbits
 515              		.align	2
 516              		.global	reset_count
 517              		.thumb
 518              		.thumb_func
 519              		.type	reset_count, %function
 520              	reset_count:
 521              	.LFB73:
 184:main.c        **** }
 185:main.c        **** /*
 186:main.c        **** void F_or_R(int dist_count, int flag_FR, int direction, int min_distance, int max_distance)
 187:main.c        **** {
 188:main.c        ****     double avg_count, avg_dist;
 189:main.c        ****     int flag_stop = 0;
 190:main.c        ****     //while(abs(Count_Master) <= dist_count && abs(Count_Slave) <= dist_count && front_measured>10)
 191:main.c        ****     if direction == 1
 192:main.c        ****     {
 193:main.c        ****         US_measured = front_measured;
 194:main.c        ****     }
 195:main.c        ****     else if direction == 2
 196:main.c        ****     {
 197:main.c        ****         US_measured = left
 198:main.c        ****     
 199:main.c        ****     while(abs(Count_Master) <= dist_count && abs(Count_Slave) <= dist_count && US_measured > min_di
 200:main.c        ****     {
 201:main.c        ****         // Place your application code here. 
 202:main.c        ****         Count_Master = QuadDec_1_GetCounter();
 203:main.c        ****         Count_Slave = QuadDec_2_GetCounter();
 204:main.c        ****         
 205:main.c        ****         sprintf(string_1, "Right (Master): %d\n", Count_Master);
 206:main.c        ****         UART_1_PutString(string_1);
 207:main.c        ****         sprintf(string_2, "Left (Slave): %d\n", Count_Slave);
 208:main.c        ****         UART_1_PutString(string_2);
 209:main.c        ****         sprintf(string_3, "PWM_Slave: %f\n", PWM_Slave);
 210:main.c        ****         UART_1_PutString(string_3);
 211:main.c        **** 
 212:main.c        ****         CyDelay(100);
 213:main.c        ****         
 214:main.c        ****         if (flag_FR==1)
 215:main.c        ****         {
 216:main.c        ****             forward();
 217:main.c        ****         }
 218:main.c        ****         else
 219:main.c        ****         {
 220:main.c        ****             reverse();
ARM GAS  C:\Users\weiro\AppData\Local\Temp\ccS229OV.s 			page 14


 221:main.c        ****         }
 222:main.c        ****         CyDelay(50);
 223:main.c        ****         while(Front_Echo_Read()==0)
 224:main.c        ****         {
 225:main.c        ****             Front_Trigger_Write(1);
 226:main.c        ****             CyDelayUs(10);
 227:main.c        ****             Front_Trigger_Write(0);
 228:main.c        ****         }
 229:main.c        ****     }
 230:main.c        ****     stop();
 231:main.c        ****     avg_count = (QuadDec_1_GetCounter()+QuadDec_2_GetCounter())/2;
 232:main.c        ****     avg_dist = avg_count*(M_PI*WHEEL_DIAMETER/3667);
 233:main.c        ****     if (direction ==0)
 234:main.c        ****     {
 235:main.c        ****         y_coord = y_coord + avg_dist;
 236:main.c        ****     }
 237:main.c        ****     else if (direction ==1)
 238:main.c        ****     {
 239:main.c        ****         
 240:main.c        ****         x_coord = x_coord + avg_dist;
 241:main.c        ****     }
 242:main.c        ****     else if (direction ==2)
 243:main.c        ****     {
 244:main.c        ****         
 245:main.c        ****         y_coord = y_coord - avg_dist;
 246:main.c        ****     }
 247:main.c        ****     else if (direction ==3)
 248:main.c        ****     {
 249:main.c        ****         
 250:main.c        ****         x_coord = x_coord - avg_dist;
 251:main.c        ****     }
 252:main.c        ****     step = step +1;
 253:main.c        ****     //
 254:main.c        ****     //QuadDec_2_SetCounter(0);
 255:main.c        **** }
 256:main.c        **** */
 257:main.c        **** 
 258:main.c        **** void reset_count()
 259:main.c        **** {
 522              		.loc 1 259 0
 523              		.cfi_startproc
 524              		@ args = 0, pretend = 0, frame = 0
 525              		@ frame_needed = 0, uses_anonymous_args = 0
 526 0000 08B5     		push	{r3, lr}
 527              		.cfi_def_cfa_offset 8
 528              		.cfi_offset 3, -8
 529              		.cfi_offset 14, -4
 260:main.c        ****     QuadDec_1_SetCounter(0);
 530              		.loc 1 260 0
 531 0002 0020     		movs	r0, #0
 532 0004 FFF7FEFF 		bl	QuadDec_1_SetCounter
 533              	.LVL42:
 261:main.c        ****     QuadDec_2_SetCounter(0);
 534              		.loc 1 261 0
 535 0008 0020     		movs	r0, #0
 536 000a FFF7FEFF 		bl	QuadDec_2_SetCounter
 537              	.LVL43:
ARM GAS  C:\Users\weiro\AppData\Local\Temp\ccS229OV.s 			page 15


 262:main.c        ****     Count_Master = 0;
 538              		.loc 1 262 0
 539 000e 024B     		ldr	r3, .L50
 540 0010 0022     		movs	r2, #0
 541 0012 9A60     		str	r2, [r3, #8]
 263:main.c        ****     Count_Slave = 0;
 542              		.loc 1 263 0
 543 0014 DA60     		str	r2, [r3, #12]
 544 0016 08BD     		pop	{r3, pc}
 545              	.L51:
 546              		.align	2
 547              	.L50:
 548 0018 00000000 		.word	.LANCHOR0
 549              		.cfi_endproc
 550              	.LFE73:
 551              		.size	reset_count, .-reset_count
 552              		.global	__aeabi_d2iz
 553              		.global	__aeabi_ddiv
 554              		.global	__aeabi_dsub
 555              		.section	.text.move_fixed_dist,"ax",%progbits
 556              		.align	2
 557              		.global	move_fixed_dist
 558              		.thumb
 559              		.thumb_func
 560              		.type	move_fixed_dist, %function
 561              	move_fixed_dist:
 562              	.LFB74:
 264:main.c        **** }
 265:main.c        **** 
 266:main.c        **** void move_fixed_dist(int dist, int flag_FR)
 267:main.c        **** {
 563              		.loc 1 267 0
 564              		.cfi_startproc
 565              		@ args = 0, pretend = 0, frame = 0
 566              		@ frame_needed = 0, uses_anonymous_args = 0
 567              	.LVL44:
 568 0000 70B5     		push	{r4, r5, r6, lr}
 569              		.cfi_def_cfa_offset 16
 570              		.cfi_offset 4, -16
 571              		.cfi_offset 5, -12
 572              		.cfi_offset 6, -8
 573              		.cfi_offset 14, -4
 574 0002 0E46     		mov	r6, r1
 268:main.c        ****     double avg_count, avg_dist;
 269:main.c        ****     int dist_count = dist * CM_COUNT_CONV; // convert dist to count
 575              		.loc 1 269 0
 576 0004 FFF7FEFF 		bl	__aeabi_i2d
 577              	.LVL45:
 578 0008 3F4B     		ldr	r3, .L63+16
 579 000a D3E90C23 		ldrd	r2, [r3, #48]
 580 000e FFF7FEFF 		bl	__aeabi_dmul
 581              	.LVL46:
 582 0012 FFF7FEFF 		bl	__aeabi_d2iz
 583              	.LVL47:
 584 0016 0546     		mov	r5, r0
 585              	.LVL48:
 270:main.c        ****     while(abs(Count_Master) <= dist_count && abs(Count_Slave) <= dist_count)
ARM GAS  C:\Users\weiro\AppData\Local\Temp\ccS229OV.s 			page 16


 586              		.loc 1 270 0
 587 0018 0DE0     		b	.L53
 588              	.LVL49:
 589              	.L57:
 271:main.c        ****     {
 272:main.c        ****         Count_Master = QuadDec_1_GetCounter();
 590              		.loc 1 272 0
 591 001a FFF7FEFF 		bl	QuadDec_1_GetCounter
 592              	.LVL50:
 593 001e 3A4C     		ldr	r4, .L63+16
 594 0020 A060     		str	r0, [r4, #8]
 273:main.c        ****         Count_Slave = QuadDec_2_GetCounter();
 595              		.loc 1 273 0
 596 0022 FFF7FEFF 		bl	QuadDec_2_GetCounter
 597              	.LVL51:
 598 0026 E060     		str	r0, [r4, #12]
 274:main.c        ****         if (flag_FR==1)
 599              		.loc 1 274 0
 600 0028 012E     		cmp	r6, #1
 601 002a 02D1     		bne	.L54
 275:main.c        ****         {
 276:main.c        ****             forward();
 602              		.loc 1 276 0
 603 002c FFF7FEFF 		bl	forward
 604              	.LVL52:
 605 0030 01E0     		b	.L53
 606              	.L54:
 277:main.c        ****         }
 278:main.c        ****         else
 279:main.c        ****         {
 280:main.c        ****             reverse();
 607              		.loc 1 280 0
 608 0032 FFF7FEFF 		bl	reverse
 609              	.LVL53:
 610              	.L53:
 270:main.c        ****     {
 611              		.loc 1 270 0
 612 0036 344B     		ldr	r3, .L63+16
 613 0038 9B68     		ldr	r3, [r3, #8]
 614 003a 002B     		cmp	r3, #0
 615 003c B8BF     		it	lt
 616 003e 5B42     		rsblt	r3, r3, #0
 617 0040 9D42     		cmp	r5, r3
 618 0042 06DB     		blt	.L56
 270:main.c        ****     {
 619              		.loc 1 270 0 is_stmt 0 discriminator 1
 620 0044 304B     		ldr	r3, .L63+16
 621 0046 DB68     		ldr	r3, [r3, #12]
 622 0048 002B     		cmp	r3, #0
 623 004a B8BF     		it	lt
 624 004c 5B42     		rsblt	r3, r3, #0
 625 004e 9D42     		cmp	r5, r3
 626 0050 E3DA     		bge	.L57
 627              	.L56:
 281:main.c        ****         }
 282:main.c        ****     }
 283:main.c        ****     stop();
ARM GAS  C:\Users\weiro\AppData\Local\Temp\ccS229OV.s 			page 17


 628              		.loc 1 283 0 is_stmt 1
 629 0052 FFF7FEFF 		bl	stop
 630              	.LVL54:
 284:main.c        ****     avg_count = (QuadDec_1_GetCounter()+QuadDec_2_GetCounter())/2;
 631              		.loc 1 284 0
 632 0056 FFF7FEFF 		bl	QuadDec_1_GetCounter
 633              	.LVL55:
 634 005a 0446     		mov	r4, r0
 635 005c FFF7FEFF 		bl	QuadDec_2_GetCounter
 636              	.LVL56:
 637 0060 2044     		add	r0, r0, r4
 638 0062 00EBD070 		add	r0, r0, r0, lsr #31
 639 0066 4010     		asrs	r0, r0, #1
 640 0068 FFF7FEFF 		bl	__aeabi_i2d
 641              	.LVL57:
 642 006c 0446     		mov	r4, r0
 643 006e 0D46     		mov	r5, r1
 644              	.LVL58:
 285:main.c        ****     avg_dist = avg_count*(M_PI*WHEEL_DIAMETER/3667);
 645              		.loc 1 285 0
 646 0070 21A3     		adr	r3, .L63
 647 0072 D3E90023 		ldrd	r2, [r3]
 648 0076 2549     		ldr	r1, .L63+20
 649 0078 D1E90401 		ldrd	r0, [r1, #16]
 650 007c FFF7FEFF 		bl	__aeabi_dmul
 651              	.LVL59:
 652 0080 1FA3     		adr	r3, .L63+8
 653 0082 D3E90023 		ldrd	r2, [r3]
 654 0086 FFF7FEFF 		bl	__aeabi_ddiv
 655              	.LVL60:
 656 008a 0246     		mov	r2, r0
 657 008c 0B46     		mov	r3, r1
 658 008e 2046     		mov	r0, r4
 659 0090 2946     		mov	r1, r5
 660 0092 FFF7FEFF 		bl	__aeabi_dmul
 661              	.LVL61:
 286:main.c        ****     if (direction ==0)
 662              		.loc 1 286 0
 663 0096 1C4B     		ldr	r3, .L63+16
 664 0098 9B6B     		ldr	r3, [r3, #56]
 665 009a 3BB9     		cbnz	r3, .L58
 287:main.c        ****     {
 288:main.c        ****         y_coord = y_coord + avg_dist;
 666              		.loc 1 288 0
 667 009c 1A4C     		ldr	r4, .L63+16
 668              	.LVL62:
 669 009e D4E91023 		ldrd	r2, [r4, #64]
 670 00a2 FFF7FEFF 		bl	__aeabi_dadd
 671              	.LVL63:
 672 00a6 C4E91001 		strd	r0, [r4, #64]
 673 00aa 20E0     		b	.L59
 674              	.LVL64:
 675              	.L58:
 289:main.c        ****     }
 290:main.c        ****     else if (direction ==1)
 676              		.loc 1 290 0
 677 00ac 012B     		cmp	r3, #1
ARM GAS  C:\Users\weiro\AppData\Local\Temp\ccS229OV.s 			page 18


 678 00ae 07D1     		bne	.L60
 291:main.c        ****     {
 292:main.c        ****         
 293:main.c        ****         x_coord = x_coord + avg_dist;
 679              		.loc 1 293 0
 680 00b0 154C     		ldr	r4, .L63+16
 681              	.LVL65:
 682 00b2 D4E91223 		ldrd	r2, [r4, #72]
 683 00b6 FFF7FEFF 		bl	__aeabi_dadd
 684              	.LVL66:
 685 00ba C4E91201 		strd	r0, [r4, #72]
 686 00be 16E0     		b	.L59
 687              	.LVL67:
 688              	.L60:
 294:main.c        ****     }
 295:main.c        ****     else if (direction ==2)
 689              		.loc 1 295 0
 690 00c0 022B     		cmp	r3, #2
 691 00c2 09D1     		bne	.L61
 296:main.c        ****     {
 297:main.c        ****         
 298:main.c        ****         y_coord = y_coord - avg_dist;
 692              		.loc 1 298 0
 693 00c4 104C     		ldr	r4, .L63+16
 694              	.LVL68:
 695 00c6 0246     		mov	r2, r0
 696 00c8 0B46     		mov	r3, r1
 697 00ca D4E91001 		ldrd	r0, [r4, #64]
 698              	.LVL69:
 699 00ce FFF7FEFF 		bl	__aeabi_dsub
 700              	.LVL70:
 701 00d2 C4E91001 		strd	r0, [r4, #64]
 702 00d6 0AE0     		b	.L59
 703              	.LVL71:
 704              	.L61:
 299:main.c        ****     }
 300:main.c        ****     else if (direction ==3)
 705              		.loc 1 300 0
 706 00d8 032B     		cmp	r3, #3
 707 00da 08D1     		bne	.L59
 301:main.c        ****     {
 302:main.c        ****         
 303:main.c        ****         x_coord = x_coord - avg_dist;
 708              		.loc 1 303 0
 709 00dc 0A4C     		ldr	r4, .L63+16
 710              	.LVL72:
 711 00de 0246     		mov	r2, r0
 712 00e0 0B46     		mov	r3, r1
 713 00e2 D4E91201 		ldrd	r0, [r4, #72]
 714              	.LVL73:
 715 00e6 FFF7FEFF 		bl	__aeabi_dsub
 716              	.LVL74:
 717 00ea C4E91201 		strd	r0, [r4, #72]
 718              	.L59:
 304:main.c        ****     }
 305:main.c        ****     reset_count();
 719              		.loc 1 305 0
ARM GAS  C:\Users\weiro\AppData\Local\Temp\ccS229OV.s 			page 19


 720 00ee FFF7FEFF 		bl	reset_count
 721              	.LVL75:
 722 00f2 70BD     		pop	{r4, r5, r6, pc}
 723              	.LVL76:
 724              	.L64:
 725 00f4 AFF30080 		.align	3
 726              	.L63:
 727 00f8 182D4454 		.word	1413754136
 728 00fc FB210940 		.word	1074340347
 729 0100 00000000 		.word	0
 730 0104 00A6AC40 		.word	1085056512
 731 0108 00000000 		.word	.LANCHOR0
 732 010c 00000000 		.word	.LANCHOR1
 733              		.cfi_endproc
 734              	.LFE74:
 735              		.size	move_fixed_dist, .-move_fixed_dist
 736              		.section	.text.forward2wall,"ax",%progbits
 737              		.align	2
 738              		.global	forward2wall
 739              		.thumb
 740              		.thumb_func
 741              		.type	forward2wall, %function
 742              	forward2wall:
 743              	.LFB75:
 306:main.c        **** }
 307:main.c        **** 
 308:main.c        **** void forward2wall()
 309:main.c        **** {
 744              		.loc 1 309 0
 745              		.cfi_startproc
 746              		@ args = 0, pretend = 0, frame = 0
 747              		@ frame_needed = 0, uses_anonymous_args = 0
 748 0000 38B5     		push	{r3, r4, r5, lr}
 749              		.cfi_def_cfa_offset 16
 750              		.cfi_offset 3, -16
 751              		.cfi_offset 4, -12
 752              		.cfi_offset 5, -8
 753              		.cfi_offset 14, -4
 310:main.c        ****     double avg_count, avg_dist;
 311:main.c        ****     while (wall_detected_10 == 0)
 754              		.loc 1 311 0
 755 0002 12E0     		b	.L66
 756              	.L69:
 312:main.c        ****     {
 313:main.c        ****         forward();
 757              		.loc 1 313 0
 758 0004 FFF7FEFF 		bl	forward
 759              	.LVL77:
 314:main.c        ****         CyDelay(50);
 760              		.loc 1 314 0
 761 0008 3220     		movs	r0, #50
 762 000a FFF7FEFF 		bl	CyDelay
 763              	.LVL78:
 315:main.c        ****         while(Front_Echo_1_Read()==0)
 764              		.loc 1 315 0
 765 000e 08E0     		b	.L67
 766              	.L68:
ARM GAS  C:\Users\weiro\AppData\Local\Temp\ccS229OV.s 			page 20


 316:main.c        ****         {
 317:main.c        ****             Front_Trigger_1_Write(1);
 767              		.loc 1 317 0
 768 0010 0120     		movs	r0, #1
 769 0012 FFF7FEFF 		bl	Front_Trigger_1_Write
 770              	.LVL79:
 318:main.c        ****             CyDelayUs(10);
 771              		.loc 1 318 0
 772 0016 0A20     		movs	r0, #10
 773 0018 FFF7FEFF 		bl	CyDelayUs
 774              	.LVL80:
 319:main.c        ****             Front_Trigger_1_Write(0);
 775              		.loc 1 319 0
 776 001c 0020     		movs	r0, #0
 777 001e FFF7FEFF 		bl	Front_Trigger_1_Write
 778              	.LVL81:
 779              	.L67:
 315:main.c        ****         {
 780              		.loc 1 315 0
 781 0022 FFF7FEFF 		bl	Front_Echo_1_Read
 782              	.LVL82:
 783 0026 0028     		cmp	r0, #0
 784 0028 F2D0     		beq	.L68
 785              	.L66:
 311:main.c        ****     {
 786              		.loc 1 311 0
 787 002a 2F4B     		ldr	r3, .L75+16
 788 002c 1B6A     		ldr	r3, [r3, #32]
 789 002e 002B     		cmp	r3, #0
 790 0030 E8D0     		beq	.L69
 320:main.c        ****         }
 321:main.c        ****     }
 322:main.c        ****     stop();
 791              		.loc 1 322 0
 792 0032 FFF7FEFF 		bl	stop
 793              	.LVL83:
 323:main.c        ****     avg_count = (QuadDec_1_GetCounter()+QuadDec_2_GetCounter())/2;
 794              		.loc 1 323 0
 795 0036 FFF7FEFF 		bl	QuadDec_1_GetCounter
 796              	.LVL84:
 797 003a 0446     		mov	r4, r0
 798 003c FFF7FEFF 		bl	QuadDec_2_GetCounter
 799              	.LVL85:
 800 0040 2044     		add	r0, r0, r4
 801 0042 00EBD070 		add	r0, r0, r0, lsr #31
 802 0046 4010     		asrs	r0, r0, #1
 803 0048 FFF7FEFF 		bl	__aeabi_i2d
 804              	.LVL86:
 805 004c 0446     		mov	r4, r0
 806 004e 0D46     		mov	r5, r1
 807              	.LVL87:
 324:main.c        ****     avg_dist = avg_count*(M_PI*WHEEL_DIAMETER/3667);
 808              		.loc 1 324 0
 809 0050 21A3     		adr	r3, .L75
 810 0052 D3E90023 		ldrd	r2, [r3]
 811 0056 2549     		ldr	r1, .L75+20
 812 0058 D1E90401 		ldrd	r0, [r1, #16]
ARM GAS  C:\Users\weiro\AppData\Local\Temp\ccS229OV.s 			page 21


 813 005c FFF7FEFF 		bl	__aeabi_dmul
 814              	.LVL88:
 815 0060 1FA3     		adr	r3, .L75+8
 816 0062 D3E90023 		ldrd	r2, [r3]
 817 0066 FFF7FEFF 		bl	__aeabi_ddiv
 818              	.LVL89:
 819 006a 0246     		mov	r2, r0
 820 006c 0B46     		mov	r3, r1
 821 006e 2046     		mov	r0, r4
 822 0070 2946     		mov	r1, r5
 823 0072 FFF7FEFF 		bl	__aeabi_dmul
 824              	.LVL90:
 325:main.c        ****     if (direction ==0)
 825              		.loc 1 325 0
 826 0076 1C4B     		ldr	r3, .L75+16
 827 0078 9B6B     		ldr	r3, [r3, #56]
 828 007a 3BB9     		cbnz	r3, .L70
 326:main.c        ****     {
 327:main.c        ****         y_coord = y_coord + avg_dist;
 829              		.loc 1 327 0
 830 007c 1A4C     		ldr	r4, .L75+16
 831              	.LVL91:
 832 007e D4E91023 		ldrd	r2, [r4, #64]
 833 0082 FFF7FEFF 		bl	__aeabi_dadd
 834              	.LVL92:
 835 0086 C4E91001 		strd	r0, [r4, #64]
 836 008a 20E0     		b	.L71
 837              	.LVL93:
 838              	.L70:
 328:main.c        ****     }
 329:main.c        ****     else if (direction ==1)
 839              		.loc 1 329 0
 840 008c 012B     		cmp	r3, #1
 841 008e 07D1     		bne	.L72
 330:main.c        ****     {
 331:main.c        ****         
 332:main.c        ****         x_coord = x_coord + avg_dist;
 842              		.loc 1 332 0
 843 0090 154C     		ldr	r4, .L75+16
 844              	.LVL94:
 845 0092 D4E91223 		ldrd	r2, [r4, #72]
 846 0096 FFF7FEFF 		bl	__aeabi_dadd
 847              	.LVL95:
 848 009a C4E91201 		strd	r0, [r4, #72]
 849 009e 16E0     		b	.L71
 850              	.LVL96:
 851              	.L72:
 333:main.c        ****     }
 334:main.c        ****     else if (direction ==2)
 852              		.loc 1 334 0
 853 00a0 022B     		cmp	r3, #2
 854 00a2 09D1     		bne	.L73
 335:main.c        ****     {
 336:main.c        ****         
 337:main.c        ****         y_coord = y_coord - avg_dist;
 855              		.loc 1 337 0
 856 00a4 104C     		ldr	r4, .L75+16
ARM GAS  C:\Users\weiro\AppData\Local\Temp\ccS229OV.s 			page 22


 857              	.LVL97:
 858 00a6 0246     		mov	r2, r0
 859 00a8 0B46     		mov	r3, r1
 860 00aa D4E91001 		ldrd	r0, [r4, #64]
 861              	.LVL98:
 862 00ae FFF7FEFF 		bl	__aeabi_dsub
 863              	.LVL99:
 864 00b2 C4E91001 		strd	r0, [r4, #64]
 865 00b6 0AE0     		b	.L71
 866              	.LVL100:
 867              	.L73:
 338:main.c        ****     }
 339:main.c        ****     else if (direction ==3)
 868              		.loc 1 339 0
 869 00b8 032B     		cmp	r3, #3
 870 00ba 08D1     		bne	.L71
 340:main.c        ****     {
 341:main.c        ****         
 342:main.c        ****         x_coord = x_coord - avg_dist;
 871              		.loc 1 342 0
 872 00bc 0A4C     		ldr	r4, .L75+16
 873              	.LVL101:
 874 00be 0246     		mov	r2, r0
 875 00c0 0B46     		mov	r3, r1
 876 00c2 D4E91201 		ldrd	r0, [r4, #72]
 877              	.LVL102:
 878 00c6 FFF7FEFF 		bl	__aeabi_dsub
 879              	.LVL103:
 880 00ca C4E91201 		strd	r0, [r4, #72]
 881              	.L71:
 343:main.c        ****     }
 344:main.c        ****     reset_count();
 882              		.loc 1 344 0
 883 00ce FFF7FEFF 		bl	reset_count
 884              	.LVL104:
 885 00d2 38BD     		pop	{r3, r4, r5, pc}
 886              	.L76:
 887 00d4 AFF30080 		.align	3
 888              	.L75:
 889 00d8 182D4454 		.word	1413754136
 890 00dc FB210940 		.word	1074340347
 891 00e0 00000000 		.word	0
 892 00e4 00A6AC40 		.word	1085056512
 893 00e8 00000000 		.word	.LANCHOR0
 894 00ec 00000000 		.word	.LANCHOR1
 895              		.cfi_endproc
 896              	.LFE75:
 897              		.size	forward2wall, .-forward2wall
 898              		.section	.text.move2slit,"ax",%progbits
 899              		.align	2
 900              		.global	move2slit
 901              		.thumb
 902              		.thumb_func
 903              		.type	move2slit, %function
 904              	move2slit:
 905              	.LFB76:
 345:main.c        **** }
ARM GAS  C:\Users\weiro\AppData\Local\Temp\ccS229OV.s 			page 23


 346:main.c        **** 
 347:main.c        **** void move2slit()
 348:main.c        **** {
 906              		.loc 1 348 0
 907              		.cfi_startproc
 908              		@ args = 0, pretend = 0, frame = 0
 909              		@ frame_needed = 0, uses_anonymous_args = 0
 910 0000 38B5     		push	{r3, r4, r5, lr}
 911              		.cfi_def_cfa_offset 16
 912              		.cfi_offset 3, -16
 913              		.cfi_offset 4, -12
 914              		.cfi_offset 5, -8
 915              		.cfi_offset 14, -4
 349:main.c        ****     double avg_count, avg_dist;
 350:main.c        ****     while (slit_detected == 0)
 916              		.loc 1 350 0
 917 0002 12E0     		b	.L78
 918              	.L81:
 351:main.c        ****     {
 352:main.c        ****         forward();
 919              		.loc 1 352 0
 920 0004 FFF7FEFF 		bl	forward
 921              	.LVL105:
 353:main.c        ****         CyDelay(50);
 922              		.loc 1 353 0
 923 0008 3220     		movs	r0, #50
 924 000a FFF7FEFF 		bl	CyDelay
 925              	.LVL106:
 354:main.c        ****         while(Left_Echo_Read()==0)
 926              		.loc 1 354 0
 927 000e 08E0     		b	.L79
 928              	.L80:
 355:main.c        ****         {
 356:main.c        ****             Left_Trigger_Write(1);
 929              		.loc 1 356 0
 930 0010 0120     		movs	r0, #1
 931 0012 FFF7FEFF 		bl	Left_Trigger_Write
 932              	.LVL107:
 357:main.c        ****             CyDelayUs(10);
 933              		.loc 1 357 0
 934 0016 0A20     		movs	r0, #10
 935 0018 FFF7FEFF 		bl	CyDelayUs
 936              	.LVL108:
 358:main.c        ****             Left_Trigger_Write(0);
 937              		.loc 1 358 0
 938 001c 0020     		movs	r0, #0
 939 001e FFF7FEFF 		bl	Left_Trigger_Write
 940              	.LVL109:
 941              	.L79:
 354:main.c        ****         {
 942              		.loc 1 354 0
 943 0022 FFF7FEFF 		bl	Left_Echo_Read
 944              	.LVL110:
 945 0026 0028     		cmp	r0, #0
 946 0028 F2D0     		beq	.L80
 947              	.L78:
 350:main.c        ****     {
ARM GAS  C:\Users\weiro\AppData\Local\Temp\ccS229OV.s 			page 24


 948              		.loc 1 350 0
 949 002a 2F4B     		ldr	r3, .L87+16
 950 002c DB6A     		ldr	r3, [r3, #44]
 951 002e 002B     		cmp	r3, #0
 952 0030 E8D0     		beq	.L81
 359:main.c        ****         }
 360:main.c        ****     }
 361:main.c        ****     stop();
 953              		.loc 1 361 0
 954 0032 FFF7FEFF 		bl	stop
 955              	.LVL111:
 362:main.c        ****     avg_count = (QuadDec_1_GetCounter()+QuadDec_2_GetCounter())/2;
 956              		.loc 1 362 0
 957 0036 FFF7FEFF 		bl	QuadDec_1_GetCounter
 958              	.LVL112:
 959 003a 0446     		mov	r4, r0
 960 003c FFF7FEFF 		bl	QuadDec_2_GetCounter
 961              	.LVL113:
 962 0040 2044     		add	r0, r0, r4
 963 0042 00EBD070 		add	r0, r0, r0, lsr #31
 964 0046 4010     		asrs	r0, r0, #1
 965 0048 FFF7FEFF 		bl	__aeabi_i2d
 966              	.LVL114:
 967 004c 0446     		mov	r4, r0
 968 004e 0D46     		mov	r5, r1
 969              	.LVL115:
 363:main.c        ****     avg_dist = avg_count*(M_PI*WHEEL_DIAMETER/3667);
 970              		.loc 1 363 0
 971 0050 21A3     		adr	r3, .L87
 972 0052 D3E90023 		ldrd	r2, [r3]
 973 0056 2549     		ldr	r1, .L87+20
 974 0058 D1E90401 		ldrd	r0, [r1, #16]
 975 005c FFF7FEFF 		bl	__aeabi_dmul
 976              	.LVL116:
 977 0060 1FA3     		adr	r3, .L87+8
 978 0062 D3E90023 		ldrd	r2, [r3]
 979 0066 FFF7FEFF 		bl	__aeabi_ddiv
 980              	.LVL117:
 981 006a 0246     		mov	r2, r0
 982 006c 0B46     		mov	r3, r1
 983 006e 2046     		mov	r0, r4
 984 0070 2946     		mov	r1, r5
 985 0072 FFF7FEFF 		bl	__aeabi_dmul
 986              	.LVL118:
 364:main.c        ****     if (direction ==0)
 987              		.loc 1 364 0
 988 0076 1C4B     		ldr	r3, .L87+16
 989 0078 9B6B     		ldr	r3, [r3, #56]
 990 007a 3BB9     		cbnz	r3, .L82
 365:main.c        ****     {
 366:main.c        ****         y_coord = y_coord + avg_dist;
 991              		.loc 1 366 0
 992 007c 1A4C     		ldr	r4, .L87+16
 993              	.LVL119:
 994 007e D4E91023 		ldrd	r2, [r4, #64]
 995 0082 FFF7FEFF 		bl	__aeabi_dadd
 996              	.LVL120:
ARM GAS  C:\Users\weiro\AppData\Local\Temp\ccS229OV.s 			page 25


 997 0086 C4E91001 		strd	r0, [r4, #64]
 998 008a 20E0     		b	.L83
 999              	.LVL121:
 1000              	.L82:
 367:main.c        ****     }
 368:main.c        ****     else if (direction ==1)
 1001              		.loc 1 368 0
 1002 008c 012B     		cmp	r3, #1
 1003 008e 07D1     		bne	.L84
 369:main.c        ****     {
 370:main.c        ****         
 371:main.c        ****         x_coord = x_coord + avg_dist;
 1004              		.loc 1 371 0
 1005 0090 154C     		ldr	r4, .L87+16
 1006              	.LVL122:
 1007 0092 D4E91223 		ldrd	r2, [r4, #72]
 1008 0096 FFF7FEFF 		bl	__aeabi_dadd
 1009              	.LVL123:
 1010 009a C4E91201 		strd	r0, [r4, #72]
 1011 009e 16E0     		b	.L83
 1012              	.LVL124:
 1013              	.L84:
 372:main.c        ****     }
 373:main.c        ****     else if (direction ==2)
 1014              		.loc 1 373 0
 1015 00a0 022B     		cmp	r3, #2
 1016 00a2 09D1     		bne	.L85
 374:main.c        ****     {
 375:main.c        ****         
 376:main.c        ****         y_coord = y_coord - avg_dist;
 1017              		.loc 1 376 0
 1018 00a4 104C     		ldr	r4, .L87+16
 1019              	.LVL125:
 1020 00a6 0246     		mov	r2, r0
 1021 00a8 0B46     		mov	r3, r1
 1022 00aa D4E91001 		ldrd	r0, [r4, #64]
 1023              	.LVL126:
 1024 00ae FFF7FEFF 		bl	__aeabi_dsub
 1025              	.LVL127:
 1026 00b2 C4E91001 		strd	r0, [r4, #64]
 1027 00b6 0AE0     		b	.L83
 1028              	.LVL128:
 1029              	.L85:
 377:main.c        ****     }
 378:main.c        ****     else if (direction ==3)
 1030              		.loc 1 378 0
 1031 00b8 032B     		cmp	r3, #3
 1032 00ba 08D1     		bne	.L83
 379:main.c        ****     {
 380:main.c        ****         
 381:main.c        ****         x_coord = x_coord - avg_dist;
 1033              		.loc 1 381 0
 1034 00bc 0A4C     		ldr	r4, .L87+16
 1035              	.LVL129:
 1036 00be 0246     		mov	r2, r0
 1037 00c0 0B46     		mov	r3, r1
 1038 00c2 D4E91201 		ldrd	r0, [r4, #72]
ARM GAS  C:\Users\weiro\AppData\Local\Temp\ccS229OV.s 			page 26


 1039              	.LVL130:
 1040 00c6 FFF7FEFF 		bl	__aeabi_dsub
 1041              	.LVL131:
 1042 00ca C4E91201 		strd	r0, [r4, #72]
 1043              	.L83:
 382:main.c        ****     }
 383:main.c        ****     reset_count();
 1044              		.loc 1 383 0
 1045 00ce FFF7FEFF 		bl	reset_count
 1046              	.LVL132:
 1047 00d2 38BD     		pop	{r3, r4, r5, pc}
 1048              	.L88:
 1049 00d4 AFF30080 		.align	3
 1050              	.L87:
 1051 00d8 182D4454 		.word	1413754136
 1052 00dc FB210940 		.word	1074340347
 1053 00e0 00000000 		.word	0
 1054 00e4 00A6AC40 		.word	1085056512
 1055 00e8 00000000 		.word	.LANCHOR0
 1056 00ec 00000000 		.word	.LANCHOR1
 1057              		.cfi_endproc
 1058              	.LFE76:
 1059              		.size	move2slit, .-move2slit
 1060              		.section	.text.move2puck,"ax",%progbits
 1061              		.align	2
 1062              		.global	move2puck
 1063              		.thumb
 1064              		.thumb_func
 1065              		.type	move2puck, %function
 1066              	move2puck:
 1067              	.LFB77:
 384:main.c        **** }
 385:main.c        **** 
 386:main.c        **** void move2puck()
 387:main.c        **** {
 1068              		.loc 1 387 0
 1069              		.cfi_startproc
 1070              		@ args = 0, pretend = 0, frame = 0
 1071              		@ frame_needed = 0, uses_anonymous_args = 0
 1072 0000 38B5     		push	{r3, r4, r5, lr}
 1073              		.cfi_def_cfa_offset 16
 1074              		.cfi_offset 3, -16
 1075              		.cfi_offset 4, -12
 1076              		.cfi_offset 5, -8
 1077              		.cfi_offset 14, -4
 388:main.c        ****     double avg_count, avg_dist;
 389:main.c        ****     while (IR_input_Read() == 0)
 1078              		.loc 1 389 0
 1079 0002 01E0     		b	.L90
 1080              	.L91:
 390:main.c        ****     {
 391:main.c        ****         forward();
 1081              		.loc 1 391 0
 1082 0004 FFF7FEFF 		bl	forward
 1083              	.LVL133:
 1084              	.L90:
 389:main.c        ****     {
ARM GAS  C:\Users\weiro\AppData\Local\Temp\ccS229OV.s 			page 27


 1085              		.loc 1 389 0
 1086 0008 FFF7FEFF 		bl	IR_input_Read
 1087              	.LVL134:
 1088 000c 0028     		cmp	r0, #0
 1089 000e F9D0     		beq	.L91
 392:main.c        ****     }
 393:main.c        ****     stop();
 1090              		.loc 1 393 0
 1091 0010 FFF7FEFF 		bl	stop
 1092              	.LVL135:
 394:main.c        ****     avg_count = (QuadDec_1_GetCounter()+QuadDec_2_GetCounter())/2;
 1093              		.loc 1 394 0
 1094 0014 FFF7FEFF 		bl	QuadDec_1_GetCounter
 1095              	.LVL136:
 1096 0018 0446     		mov	r4, r0
 1097 001a FFF7FEFF 		bl	QuadDec_2_GetCounter
 1098              	.LVL137:
 1099 001e 2044     		add	r0, r0, r4
 1100 0020 00EBD070 		add	r0, r0, r0, lsr #31
 1101 0024 4010     		asrs	r0, r0, #1
 1102 0026 FFF7FEFF 		bl	__aeabi_i2d
 1103              	.LVL138:
 1104 002a 0446     		mov	r4, r0
 1105 002c 0D46     		mov	r5, r1
 1106              	.LVL139:
 395:main.c        ****     avg_dist = avg_count*(M_PI*WHEEL_DIAMETER/3667);
 1107              		.loc 1 395 0
 1108 002e 22A3     		adr	r3, .L97
 1109 0030 D3E90023 		ldrd	r2, [r3]
 1110 0034 2449     		ldr	r1, .L97+16
 1111 0036 D1E90401 		ldrd	r0, [r1, #16]
 1112 003a FFF7FEFF 		bl	__aeabi_dmul
 1113              	.LVL140:
 1114 003e 20A3     		adr	r3, .L97+8
 1115 0040 D3E90023 		ldrd	r2, [r3]
 1116 0044 FFF7FEFF 		bl	__aeabi_ddiv
 1117              	.LVL141:
 1118 0048 0246     		mov	r2, r0
 1119 004a 0B46     		mov	r3, r1
 1120 004c 2046     		mov	r0, r4
 1121 004e 2946     		mov	r1, r5
 1122 0050 FFF7FEFF 		bl	__aeabi_dmul
 1123              	.LVL142:
 396:main.c        ****     if (direction ==0)
 1124              		.loc 1 396 0
 1125 0054 1D4B     		ldr	r3, .L97+20
 1126 0056 9B6B     		ldr	r3, [r3, #56]
 1127 0058 3BB9     		cbnz	r3, .L92
 397:main.c        ****     {
 398:main.c        ****         y_coord = y_coord + avg_dist;
 1128              		.loc 1 398 0
 1129 005a 1C4C     		ldr	r4, .L97+20
 1130              	.LVL143:
 1131 005c D4E91023 		ldrd	r2, [r4, #64]
 1132 0060 FFF7FEFF 		bl	__aeabi_dadd
 1133              	.LVL144:
 1134 0064 C4E91001 		strd	r0, [r4, #64]
ARM GAS  C:\Users\weiro\AppData\Local\Temp\ccS229OV.s 			page 28


 1135 0068 20E0     		b	.L93
 1136              	.LVL145:
 1137              	.L92:
 399:main.c        ****     }
 400:main.c        ****     else if (direction ==1)
 1138              		.loc 1 400 0
 1139 006a 012B     		cmp	r3, #1
 1140 006c 07D1     		bne	.L94
 401:main.c        ****     {
 402:main.c        ****         
 403:main.c        ****         x_coord = x_coord + avg_dist;
 1141              		.loc 1 403 0
 1142 006e 174C     		ldr	r4, .L97+20
 1143              	.LVL146:
 1144 0070 D4E91223 		ldrd	r2, [r4, #72]
 1145 0074 FFF7FEFF 		bl	__aeabi_dadd
 1146              	.LVL147:
 1147 0078 C4E91201 		strd	r0, [r4, #72]
 1148 007c 16E0     		b	.L93
 1149              	.LVL148:
 1150              	.L94:
 404:main.c        ****     }
 405:main.c        ****     else if (direction ==2)
 1151              		.loc 1 405 0
 1152 007e 022B     		cmp	r3, #2
 1153 0080 09D1     		bne	.L95
 406:main.c        ****     {
 407:main.c        ****         
 408:main.c        ****         y_coord = y_coord - avg_dist;
 1154              		.loc 1 408 0
 1155 0082 124C     		ldr	r4, .L97+20
 1156              	.LVL149:
 1157 0084 0246     		mov	r2, r0
 1158 0086 0B46     		mov	r3, r1
 1159 0088 D4E91001 		ldrd	r0, [r4, #64]
 1160              	.LVL150:
 1161 008c FFF7FEFF 		bl	__aeabi_dsub
 1162              	.LVL151:
 1163 0090 C4E91001 		strd	r0, [r4, #64]
 1164 0094 0AE0     		b	.L93
 1165              	.LVL152:
 1166              	.L95:
 409:main.c        ****     }
 410:main.c        ****     else if (direction ==3)
 1167              		.loc 1 410 0
 1168 0096 032B     		cmp	r3, #3
 1169 0098 08D1     		bne	.L93
 411:main.c        ****     {
 412:main.c        ****         
 413:main.c        ****         x_coord = x_coord - avg_dist;
 1170              		.loc 1 413 0
 1171 009a 0C4C     		ldr	r4, .L97+20
 1172              	.LVL153:
 1173 009c 0246     		mov	r2, r0
 1174 009e 0B46     		mov	r3, r1
 1175 00a0 D4E91201 		ldrd	r0, [r4, #72]
 1176              	.LVL154:
ARM GAS  C:\Users\weiro\AppData\Local\Temp\ccS229OV.s 			page 29


 1177 00a4 FFF7FEFF 		bl	__aeabi_dsub
 1178              	.LVL155:
 1179 00a8 C4E91201 		strd	r0, [r4, #72]
 1180              	.L93:
 414:main.c        ****     }
 415:main.c        ****     reset_count();
 1181              		.loc 1 415 0
 1182 00ac FFF7FEFF 		bl	reset_count
 1183              	.LVL156:
 1184 00b0 38BD     		pop	{r3, r4, r5, pc}
 1185              	.L98:
 1186 00b2 00BFAFF3 		.align	3
 1186      0080
 1187              	.L97:
 1188 00b8 182D4454 		.word	1413754136
 1189 00bc FB210940 		.word	1074340347
 1190 00c0 00000000 		.word	0
 1191 00c4 00A6AC40 		.word	1085056512
 1192 00c8 00000000 		.word	.LANCHOR1
 1193 00cc 00000000 		.word	.LANCHOR0
 1194              		.cfi_endproc
 1195              	.LFE77:
 1196              		.size	move2puck, .-move2puck
 1197              		.section	.text.F_or_R_1,"ax",%progbits
 1198              		.align	2
 1199              		.global	F_or_R_1
 1200              		.thumb
 1201              		.thumb_func
 1202              		.type	F_or_R_1, %function
 1203              	F_or_R_1:
 1204              	.LFB78:
 416:main.c        **** }
 417:main.c        **** 
 418:main.c        **** void F_or_R_1(int dist_count, int flag_FR)
 419:main.c        **** {
 1205              		.loc 1 419 0
 1206              		.cfi_startproc
 1207              		@ args = 0, pretend = 0, frame = 0
 1208              		@ frame_needed = 0, uses_anonymous_args = 0
 1209              	.LVL157:
 1210 0000 F8B5     		push	{r3, r4, r5, r6, r7, lr}
 1211              		.cfi_def_cfa_offset 24
 1212              		.cfi_offset 3, -24
 1213              		.cfi_offset 4, -20
 1214              		.cfi_offset 5, -16
 1215              		.cfi_offset 6, -12
 1216              		.cfi_offset 7, -8
 1217              		.cfi_offset 14, -4
 1218 0002 0546     		mov	r5, r0
 1219 0004 0E46     		mov	r6, r1
 420:main.c        ****     double avg_count, avg_dist;
 421:main.c        ****     //int flag_stop = 0;
 422:main.c        ****     front_measured_1 = 50;
 1220              		.loc 1 422 0
 1221 0006 4E4A     		ldr	r2, .L112+16
 1222 0008 4E4B     		ldr	r3, .L112+20
 1223 000a 1A60     		str	r2, [r3]	@ float
ARM GAS  C:\Users\weiro\AppData\Local\Temp\ccS229OV.s 			page 30


 423:main.c        ****     //while(abs(Count_Master) <= dist_count && abs(Count_Slave) <= dist_count && front_measured>10)
 424:main.c        ****     
 425:main.c        ****     //while(abs(Count_Master) <= dist_count && abs(Count_Slave) <= dist_count && US_measured > min_
 426:main.c        ****     sprintf(string_1,"Running F_or_R_1...\n");
 1224              		.loc 1 426 0
 1225 000c 4E4F     		ldr	r7, .L112+24
 1226 000e 4F4C     		ldr	r4, .L112+28
 1227 0010 0FCC     		ldmia	r4!, {r0, r1, r2, r3}
 1228              	.LVL158:
 1229 0012 3860     		str	r0, [r7]	@ unaligned
 1230 0014 7960     		str	r1, [r7, #4]	@ unaligned
 1231 0016 BA60     		str	r2, [r7, #8]	@ unaligned
 1232 0018 FB60     		str	r3, [r7, #12]	@ unaligned
 1233 001a 2068     		ldr	r0, [r4]	@ unaligned
 1234 001c 3861     		str	r0, [r7, #16]	@ unaligned
 1235 001e 2379     		ldrb	r3, [r4, #4]	@ zero_extendqisi2
 1236 0020 3B75     		strb	r3, [r7, #20]
 427:main.c        ****     UART_1_PutString(string_1);
 1237              		.loc 1 427 0
 1238 0022 3846     		mov	r0, r7
 1239 0024 FFF7FEFF 		bl	UART_1_PutString
 1240              	.LVL159:
 428:main.c        ****     
 429:main.c        ****     while(abs(Count_Master) <= dist_count && abs(Count_Slave) <= dist_count && wall_detected_10 == 
 1241              		.loc 1 429 0
 1242 0028 1EE0     		b	.L100
 1243              	.L106:
 430:main.c        ****     {
 431:main.c        ****         // Place your application code here.
 432:main.c        ****         Count_Master = QuadDec_1_GetCounter();
 1244              		.loc 1 432 0
 1245 002a FFF7FEFF 		bl	QuadDec_1_GetCounter
 1246              	.LVL160:
 1247 002e 484C     		ldr	r4, .L112+32
 1248 0030 A060     		str	r0, [r4, #8]
 433:main.c        ****         Count_Slave = QuadDec_2_GetCounter();
 1249              		.loc 1 433 0
 1250 0032 FFF7FEFF 		bl	QuadDec_2_GetCounter
 1251              	.LVL161:
 1252 0036 E060     		str	r0, [r4, #12]
 434:main.c        ****         if (flag_FR==1)
 1253              		.loc 1 434 0
 1254 0038 012E     		cmp	r6, #1
 1255 003a 02D1     		bne	.L101
 435:main.c        ****         {
 436:main.c        ****             forward();
 1256              		.loc 1 436 0
 1257 003c FFF7FEFF 		bl	forward
 1258              	.LVL162:
 1259 0040 01E0     		b	.L102
 1260              	.L101:
 437:main.c        ****         }
 438:main.c        ****         else
 439:main.c        ****         {
 440:main.c        ****             reverse();
 1261              		.loc 1 440 0
 1262 0042 FFF7FEFF 		bl	reverse
ARM GAS  C:\Users\weiro\AppData\Local\Temp\ccS229OV.s 			page 31


 1263              	.LVL163:
 1264              	.L102:
 441:main.c        ****         }
 442:main.c        ****         CyDelay(50);
 1265              		.loc 1 442 0
 1266 0046 3220     		movs	r0, #50
 1267 0048 FFF7FEFF 		bl	CyDelay
 1268              	.LVL164:
 443:main.c        ****         
 444:main.c        ****         while(Front_Echo_1_Read()==0)
 1269              		.loc 1 444 0
 1270 004c 08E0     		b	.L103
 1271              	.L104:
 445:main.c        ****         {
 446:main.c        ****             Front_Trigger_1_Write(1);
 1272              		.loc 1 446 0
 1273 004e 0120     		movs	r0, #1
 1274 0050 FFF7FEFF 		bl	Front_Trigger_1_Write
 1275              	.LVL165:
 447:main.c        ****             CyDelayUs(10);
 1276              		.loc 1 447 0
 1277 0054 0A20     		movs	r0, #10
 1278 0056 FFF7FEFF 		bl	CyDelayUs
 1279              	.LVL166:
 448:main.c        ****             Front_Trigger_1_Write(0);
 1280              		.loc 1 448 0
 1281 005a 0020     		movs	r0, #0
 1282 005c FFF7FEFF 		bl	Front_Trigger_1_Write
 1283              	.LVL167:
 1284              	.L103:
 444:main.c        ****         {
 1285              		.loc 1 444 0
 1286 0060 FFF7FEFF 		bl	Front_Echo_1_Read
 1287              	.LVL168:
 1288 0064 0028     		cmp	r0, #0
 1289 0066 F2D0     		beq	.L104
 1290              	.L100:
 429:main.c        ****     {
 1291              		.loc 1 429 0
 1292 0068 394B     		ldr	r3, .L112+32
 1293 006a 9B68     		ldr	r3, [r3, #8]
 1294 006c 002B     		cmp	r3, #0
 1295 006e B8BF     		it	lt
 1296 0070 5B42     		rsblt	r3, r3, #0
 1297 0072 AB42     		cmp	r3, r5
 1298 0074 0ADC     		bgt	.L105
 429:main.c        ****     {
 1299              		.loc 1 429 0 is_stmt 0 discriminator 1
 1300 0076 364B     		ldr	r3, .L112+32
 1301 0078 DB68     		ldr	r3, [r3, #12]
 1302 007a 002B     		cmp	r3, #0
 1303 007c B8BF     		it	lt
 1304 007e 5B42     		rsblt	r3, r3, #0
 1305 0080 9D42     		cmp	r5, r3
 1306 0082 03DB     		blt	.L105
 429:main.c        ****     {
 1307              		.loc 1 429 0 discriminator 2
ARM GAS  C:\Users\weiro\AppData\Local\Temp\ccS229OV.s 			page 32


 1308 0084 324B     		ldr	r3, .L112+32
 1309 0086 1B6A     		ldr	r3, [r3, #32]
 1310 0088 002B     		cmp	r3, #0
 1311 008a CED0     		beq	.L106
 1312              	.L105:
 449:main.c        ****         }
 450:main.c        ****     }
 451:main.c        ****     stop();
 1313              		.loc 1 451 0 is_stmt 1
 1314 008c FFF7FEFF 		bl	stop
 1315              	.LVL169:
 452:main.c        ****     avg_count = (QuadDec_1_GetCounter()+QuadDec_2_GetCounter())/2;
 1316              		.loc 1 452 0
 1317 0090 FFF7FEFF 		bl	QuadDec_1_GetCounter
 1318              	.LVL170:
 1319 0094 0446     		mov	r4, r0
 1320 0096 FFF7FEFF 		bl	QuadDec_2_GetCounter
 1321              	.LVL171:
 1322 009a 2044     		add	r0, r0, r4
 1323 009c 00EBD070 		add	r0, r0, r0, lsr #31
 1324 00a0 4010     		asrs	r0, r0, #1
 1325 00a2 FFF7FEFF 		bl	__aeabi_i2d
 1326              	.LVL172:
 1327 00a6 0446     		mov	r4, r0
 1328 00a8 0D46     		mov	r5, r1
 1329              	.LVL173:
 453:main.c        ****     avg_dist = avg_count*(M_PI*WHEEL_DIAMETER/3667);
 1330              		.loc 1 453 0
 1331 00aa 21A3     		adr	r3, .L112
 1332 00ac D3E90023 		ldrd	r2, [r3]
 1333 00b0 2849     		ldr	r1, .L112+36
 1334 00b2 D1E90401 		ldrd	r0, [r1, #16]
 1335 00b6 FFF7FEFF 		bl	__aeabi_dmul
 1336              	.LVL174:
 1337 00ba 1FA3     		adr	r3, .L112+8
 1338 00bc D3E90023 		ldrd	r2, [r3]
 1339 00c0 FFF7FEFF 		bl	__aeabi_ddiv
 1340              	.LVL175:
 1341 00c4 0246     		mov	r2, r0
 1342 00c6 0B46     		mov	r3, r1
 1343 00c8 2046     		mov	r0, r4
 1344 00ca 2946     		mov	r1, r5
 1345 00cc FFF7FEFF 		bl	__aeabi_dmul
 1346              	.LVL176:
 454:main.c        ****     if (direction ==0)
 1347              		.loc 1 454 0
 1348 00d0 1F4B     		ldr	r3, .L112+32
 1349 00d2 9B6B     		ldr	r3, [r3, #56]
 1350 00d4 3BB9     		cbnz	r3, .L107
 455:main.c        ****     {
 456:main.c        ****         y_coord = y_coord + avg_dist;
 1351              		.loc 1 456 0
 1352 00d6 1E4C     		ldr	r4, .L112+32
 1353              	.LVL177:
 1354 00d8 D4E91023 		ldrd	r2, [r4, #64]
 1355 00dc FFF7FEFF 		bl	__aeabi_dadd
 1356              	.LVL178:
ARM GAS  C:\Users\weiro\AppData\Local\Temp\ccS229OV.s 			page 33


 1357 00e0 C4E91001 		strd	r0, [r4, #64]
 1358 00e4 F8BD     		pop	{r3, r4, r5, r6, r7, pc}
 1359              	.LVL179:
 1360              	.L107:
 457:main.c        ****     }
 458:main.c        ****     else if (direction ==1)
 1361              		.loc 1 458 0
 1362 00e6 012B     		cmp	r3, #1
 1363 00e8 07D1     		bne	.L109
 459:main.c        ****     {
 460:main.c        ****         
 461:main.c        ****         x_coord = x_coord + avg_dist;
 1364              		.loc 1 461 0
 1365 00ea 194C     		ldr	r4, .L112+32
 1366              	.LVL180:
 1367 00ec D4E91223 		ldrd	r2, [r4, #72]
 1368 00f0 FFF7FEFF 		bl	__aeabi_dadd
 1369              	.LVL181:
 1370 00f4 C4E91201 		strd	r0, [r4, #72]
 1371 00f8 F8BD     		pop	{r3, r4, r5, r6, r7, pc}
 1372              	.LVL182:
 1373              	.L109:
 462:main.c        ****     }
 463:main.c        ****     else if (direction ==2)
 1374              		.loc 1 463 0
 1375 00fa 022B     		cmp	r3, #2
 1376 00fc 09D1     		bne	.L110
 464:main.c        ****     {
 465:main.c        ****         
 466:main.c        ****         y_coord = y_coord - avg_dist;
 1377              		.loc 1 466 0
 1378 00fe 144C     		ldr	r4, .L112+32
 1379              	.LVL183:
 1380 0100 0246     		mov	r2, r0
 1381 0102 0B46     		mov	r3, r1
 1382 0104 D4E91001 		ldrd	r0, [r4, #64]
 1383              	.LVL184:
 1384 0108 FFF7FEFF 		bl	__aeabi_dsub
 1385              	.LVL185:
 1386 010c C4E91001 		strd	r0, [r4, #64]
 1387 0110 F8BD     		pop	{r3, r4, r5, r6, r7, pc}
 1388              	.LVL186:
 1389              	.L110:
 467:main.c        ****     }
 468:main.c        ****     else if (direction ==3)
 1390              		.loc 1 468 0
 1391 0112 032B     		cmp	r3, #3
 1392 0114 08D1     		bne	.L99
 469:main.c        ****     {
 470:main.c        ****         
 471:main.c        ****         x_coord = x_coord - avg_dist;
 1393              		.loc 1 471 0
 1394 0116 0E4C     		ldr	r4, .L112+32
 1395              	.LVL187:
 1396 0118 0246     		mov	r2, r0
 1397 011a 0B46     		mov	r3, r1
 1398 011c D4E91201 		ldrd	r0, [r4, #72]
ARM GAS  C:\Users\weiro\AppData\Local\Temp\ccS229OV.s 			page 34


 1399              	.LVL188:
 1400 0120 FFF7FEFF 		bl	__aeabi_dsub
 1401              	.LVL189:
 1402 0124 C4E91201 		strd	r0, [r4, #72]
 1403              	.L99:
 1404 0128 F8BD     		pop	{r3, r4, r5, r6, r7, pc}
 1405              	.LVL190:
 1406              	.L113:
 1407 012a 00BFAFF3 		.align	3
 1407      0080
 1408              	.L112:
 1409 0130 182D4454 		.word	1413754136
 1410 0134 FB210940 		.word	1074340347
 1411 0138 00000000 		.word	0
 1412 013c 00A6AC40 		.word	1085056512
 1413 0140 00004842 		.word	1112014848
 1414 0144 00000000 		.word	front_measured_1
 1415 0148 00000000 		.word	string_1
 1416 014c 28000000 		.word	.LC2
 1417 0150 00000000 		.word	.LANCHOR0
 1418 0154 00000000 		.word	.LANCHOR1
 1419              		.cfi_endproc
 1420              	.LFE78:
 1421              		.size	F_or_R_1, .-F_or_R_1
 1422              		.global	__aeabi_fcmplt
 1423              		.section	.text.F_or_R_2,"ax",%progbits
 1424              		.align	2
 1425              		.global	F_or_R_2
 1426              		.thumb
 1427              		.thumb_func
 1428              		.type	F_or_R_2, %function
 1429              	F_or_R_2:
 1430              	.LFB79:
 472:main.c        ****     }
 473:main.c        ****     //step = step +1;
 474:main.c        ****     //
 475:main.c        ****     //QuadDec_2_SetCounter(0);
 476:main.c        **** }
 477:main.c        **** 
 478:main.c        **** void F_or_R_2(int dist_count, int flag_FR)
 479:main.c        **** {
 1431              		.loc 1 479 0
 1432              		.cfi_startproc
 1433              		@ args = 0, pretend = 0, frame = 0
 1434              		@ frame_needed = 0, uses_anonymous_args = 0
 1435              	.LVL191:
 1436 0000 70B5     		push	{r4, r5, r6, lr}
 1437              		.cfi_def_cfa_offset 16
 1438              		.cfi_offset 4, -16
 1439              		.cfi_offset 5, -12
 1440              		.cfi_offset 6, -8
 1441              		.cfi_offset 14, -4
 1442 0002 0546     		mov	r5, r0
 1443 0004 0E46     		mov	r6, r1
 1444              	.LVL192:
 480:main.c        ****     double avg_count, avg_dist;
 481:main.c        ****     int flag_stop = 0;
ARM GAS  C:\Users\weiro\AppData\Local\Temp\ccS229OV.s 			page 35


 482:main.c        ****     //while(abs(Count_Master) <= dist_count && abs(Count_Slave) <= dist_count && front_measured>10)
 483:main.c        ****     
 484:main.c        ****     //while(abs(Count_Master) <= dist_count && abs(Count_Slave) <= dist_count && US_measured > min_
 485:main.c        ****     while(abs(Count_Master) <= dist_count && abs(Count_Slave) <= dist_count && right_measured<30)
 1445              		.loc 1 485 0
 1446 0006 1EE0     		b	.L115
 1447              	.LVL193:
 1448              	.L121:
 486:main.c        ****     {
 487:main.c        ****         // Place your application code here.
 488:main.c        ****         Count_Master = QuadDec_1_GetCounter();
 1449              		.loc 1 488 0
 1450 0008 FFF7FEFF 		bl	QuadDec_1_GetCounter
 1451              	.LVL194:
 1452 000c 444C     		ldr	r4, .L127+16
 1453 000e A060     		str	r0, [r4, #8]
 489:main.c        ****         Count_Slave = QuadDec_2_GetCounter();
 1454              		.loc 1 489 0
 1455 0010 FFF7FEFF 		bl	QuadDec_2_GetCounter
 1456              	.LVL195:
 1457 0014 E060     		str	r0, [r4, #12]
 490:main.c        ****         if (flag_FR==1)
 1458              		.loc 1 490 0
 1459 0016 012E     		cmp	r6, #1
 1460 0018 02D1     		bne	.L116
 491:main.c        ****         {
 492:main.c        ****             forward();
 1461              		.loc 1 492 0
 1462 001a FFF7FEFF 		bl	forward
 1463              	.LVL196:
 1464 001e 01E0     		b	.L117
 1465              	.L116:
 493:main.c        ****         }
 494:main.c        ****         else
 495:main.c        ****         {
 496:main.c        ****             reverse();
 1466              		.loc 1 496 0
 1467 0020 FFF7FEFF 		bl	reverse
 1468              	.LVL197:
 1469              	.L117:
 497:main.c        ****         }
 498:main.c        ****         CyDelay(50);
 1470              		.loc 1 498 0
 1471 0024 3220     		movs	r0, #50
 1472 0026 FFF7FEFF 		bl	CyDelay
 1473              	.LVL198:
 499:main.c        ****         while(Right_Echo_Read()==0)
 1474              		.loc 1 499 0
 1475 002a 08E0     		b	.L118
 1476              	.L119:
 500:main.c        ****         {
 501:main.c        ****             Right_Trigger_Write(1);
 1477              		.loc 1 501 0
 1478 002c 0120     		movs	r0, #1
 1479 002e FFF7FEFF 		bl	Right_Trigger_Write
 1480              	.LVL199:
 502:main.c        ****             CyDelayUs(10);
ARM GAS  C:\Users\weiro\AppData\Local\Temp\ccS229OV.s 			page 36


 1481              		.loc 1 502 0
 1482 0032 0A20     		movs	r0, #10
 1483 0034 FFF7FEFF 		bl	CyDelayUs
 1484              	.LVL200:
 503:main.c        ****             Right_Trigger_Write(0);
 1485              		.loc 1 503 0
 1486 0038 0020     		movs	r0, #0
 1487 003a FFF7FEFF 		bl	Right_Trigger_Write
 1488              	.LVL201:
 1489              	.L118:
 499:main.c        ****         {
 1490              		.loc 1 499 0
 1491 003e FFF7FEFF 		bl	Right_Echo_Read
 1492              	.LVL202:
 1493 0042 0028     		cmp	r0, #0
 1494 0044 F2D0     		beq	.L119
 1495              	.L115:
 485:main.c        ****     {
 1496              		.loc 1 485 0
 1497 0046 364B     		ldr	r3, .L127+16
 1498 0048 9B68     		ldr	r3, [r3, #8]
 1499 004a 002B     		cmp	r3, #0
 1500 004c B8BF     		it	lt
 1501 004e 5B42     		rsblt	r3, r3, #0
 1502 0050 AB42     		cmp	r3, r5
 1503 0052 0DDC     		bgt	.L120
 485:main.c        ****     {
 1504              		.loc 1 485 0 is_stmt 0 discriminator 1
 1505 0054 324B     		ldr	r3, .L127+16
 1506 0056 DB68     		ldr	r3, [r3, #12]
 1507 0058 002B     		cmp	r3, #0
 1508 005a B8BF     		it	lt
 1509 005c 5B42     		rsblt	r3, r3, #0
 1510 005e 9D42     		cmp	r5, r3
 1511 0060 06DB     		blt	.L120
 485:main.c        ****     {
 1512              		.loc 1 485 0 discriminator 2
 1513 0062 3049     		ldr	r1, .L127+20
 1514 0064 304B     		ldr	r3, .L127+24
 1515 0066 1868     		ldr	r0, [r3]	@ float
 1516 0068 FFF7FEFF 		bl	__aeabi_fcmplt
 1517              	.LVL203:
 1518 006c 0028     		cmp	r0, #0
 1519 006e CBD1     		bne	.L121
 1520              	.L120:
 504:main.c        ****         }
 505:main.c        ****     }
 506:main.c        ****     stop();
 1521              		.loc 1 506 0 is_stmt 1
 1522 0070 FFF7FEFF 		bl	stop
 1523              	.LVL204:
 507:main.c        ****     avg_count = (QuadDec_1_GetCounter()+QuadDec_2_GetCounter())/2;
 1524              		.loc 1 507 0
 1525 0074 FFF7FEFF 		bl	QuadDec_1_GetCounter
 1526              	.LVL205:
 1527 0078 0446     		mov	r4, r0
 1528 007a FFF7FEFF 		bl	QuadDec_2_GetCounter
ARM GAS  C:\Users\weiro\AppData\Local\Temp\ccS229OV.s 			page 37


 1529              	.LVL206:
 1530 007e 2044     		add	r0, r0, r4
 1531 0080 00EBD070 		add	r0, r0, r0, lsr #31
 1532 0084 4010     		asrs	r0, r0, #1
 1533 0086 FFF7FEFF 		bl	__aeabi_i2d
 1534              	.LVL207:
 1535 008a 0446     		mov	r4, r0
 1536 008c 0D46     		mov	r5, r1
 1537              	.LVL208:
 508:main.c        ****     avg_dist = avg_count*(M_PI*WHEEL_DIAMETER/3667);
 1538              		.loc 1 508 0
 1539 008e 20A3     		adr	r3, .L127
 1540 0090 D3E90023 		ldrd	r2, [r3]
 1541 0094 2549     		ldr	r1, .L127+28
 1542 0096 D1E90401 		ldrd	r0, [r1, #16]
 1543 009a FFF7FEFF 		bl	__aeabi_dmul
 1544              	.LVL209:
 1545 009e 1EA3     		adr	r3, .L127+8
 1546 00a0 D3E90023 		ldrd	r2, [r3]
 1547 00a4 FFF7FEFF 		bl	__aeabi_ddiv
 1548              	.LVL210:
 1549 00a8 0246     		mov	r2, r0
 1550 00aa 0B46     		mov	r3, r1
 1551 00ac 2046     		mov	r0, r4
 1552 00ae 2946     		mov	r1, r5
 1553 00b0 FFF7FEFF 		bl	__aeabi_dmul
 1554              	.LVL211:
 509:main.c        ****     if (direction ==0)
 1555              		.loc 1 509 0
 1556 00b4 1A4B     		ldr	r3, .L127+16
 1557 00b6 9B6B     		ldr	r3, [r3, #56]
 1558 00b8 3BB9     		cbnz	r3, .L122
 510:main.c        ****     {
 511:main.c        ****         y_coord = y_coord + avg_dist;
 1559              		.loc 1 511 0
 1560 00ba 194C     		ldr	r4, .L127+16
 1561              	.LVL212:
 1562 00bc D4E91023 		ldrd	r2, [r4, #64]
 1563 00c0 FFF7FEFF 		bl	__aeabi_dadd
 1564              	.LVL213:
 1565 00c4 C4E91001 		strd	r0, [r4, #64]
 1566 00c8 70BD     		pop	{r4, r5, r6, pc}
 1567              	.LVL214:
 1568              	.L122:
 512:main.c        ****     }
 513:main.c        ****     else if (direction ==1)
 1569              		.loc 1 513 0
 1570 00ca 012B     		cmp	r3, #1
 1571 00cc 07D1     		bne	.L124
 514:main.c        ****     {
 515:main.c        ****         
 516:main.c        ****         x_coord = x_coord + avg_dist;
 1572              		.loc 1 516 0
 1573 00ce 144C     		ldr	r4, .L127+16
 1574              	.LVL215:
 1575 00d0 D4E91223 		ldrd	r2, [r4, #72]
 1576 00d4 FFF7FEFF 		bl	__aeabi_dadd
ARM GAS  C:\Users\weiro\AppData\Local\Temp\ccS229OV.s 			page 38


 1577              	.LVL216:
 1578 00d8 C4E91201 		strd	r0, [r4, #72]
 1579 00dc 70BD     		pop	{r4, r5, r6, pc}
 1580              	.LVL217:
 1581              	.L124:
 517:main.c        ****     }
 518:main.c        ****     else if (direction ==2)
 1582              		.loc 1 518 0
 1583 00de 022B     		cmp	r3, #2
 1584 00e0 09D1     		bne	.L125
 519:main.c        ****     {
 520:main.c        ****         
 521:main.c        ****         y_coord = y_coord - avg_dist;
 1585              		.loc 1 521 0
 1586 00e2 0F4C     		ldr	r4, .L127+16
 1587              	.LVL218:
 1588 00e4 0246     		mov	r2, r0
 1589 00e6 0B46     		mov	r3, r1
 1590 00e8 D4E91001 		ldrd	r0, [r4, #64]
 1591              	.LVL219:
 1592 00ec FFF7FEFF 		bl	__aeabi_dsub
 1593              	.LVL220:
 1594 00f0 C4E91001 		strd	r0, [r4, #64]
 1595 00f4 70BD     		pop	{r4, r5, r6, pc}
 1596              	.LVL221:
 1597              	.L125:
 522:main.c        ****     }
 523:main.c        ****     else if (direction ==3)
 1598              		.loc 1 523 0
 1599 00f6 032B     		cmp	r3, #3
 1600 00f8 08D1     		bne	.L114
 524:main.c        ****     {
 525:main.c        ****         
 526:main.c        ****         x_coord = x_coord - avg_dist;
 1601              		.loc 1 526 0
 1602 00fa 094C     		ldr	r4, .L127+16
 1603              	.LVL222:
 1604 00fc 0246     		mov	r2, r0
 1605 00fe 0B46     		mov	r3, r1
 1606 0100 D4E91201 		ldrd	r0, [r4, #72]
 1607              	.LVL223:
 1608 0104 FFF7FEFF 		bl	__aeabi_dsub
 1609              	.LVL224:
 1610 0108 C4E91201 		strd	r0, [r4, #72]
 1611              	.L114:
 1612 010c 70BD     		pop	{r4, r5, r6, pc}
 1613              	.LVL225:
 1614              	.L128:
 1615 010e 00BF     		.align	3
 1616              	.L127:
 1617 0110 182D4454 		.word	1413754136
 1618 0114 FB210940 		.word	1074340347
 1619 0118 00000000 		.word	0
 1620 011c 00A6AC40 		.word	1085056512
 1621 0120 00000000 		.word	.LANCHOR0
 1622 0124 0000F041 		.word	1106247680
 1623 0128 00000000 		.word	right_measured
ARM GAS  C:\Users\weiro\AppData\Local\Temp\ccS229OV.s 			page 39


 1624 012c 00000000 		.word	.LANCHOR1
 1625              		.cfi_endproc
 1626              	.LFE79:
 1627              		.size	F_or_R_2, .-F_or_R_2
 1628              		.section	.text.F_or_R_3,"ax",%progbits
 1629              		.align	2
 1630              		.global	F_or_R_3
 1631              		.thumb
 1632              		.thumb_func
 1633              		.type	F_or_R_3, %function
 1634              	F_or_R_3:
 1635              	.LFB80:
 527:main.c        ****     }
 528:main.c        ****     //step = step +1;
 529:main.c        ****     //
 530:main.c        ****     //QuadDec_2_SetCounter(0);
 531:main.c        **** }
 532:main.c        **** 
 533:main.c        **** void F_or_R_3(int dist_count, int flag_FR)
 534:main.c        **** {
 1636              		.loc 1 534 0
 1637              		.cfi_startproc
 1638              		@ args = 0, pretend = 0, frame = 0
 1639              		@ frame_needed = 0, uses_anonymous_args = 0
 1640              	.LVL226:
 1641 0000 70B5     		push	{r4, r5, r6, lr}
 1642              		.cfi_def_cfa_offset 16
 1643              		.cfi_offset 4, -16
 1644              		.cfi_offset 5, -12
 1645              		.cfi_offset 6, -8
 1646              		.cfi_offset 14, -4
 1647 0002 0546     		mov	r5, r0
 1648 0004 0E46     		mov	r6, r1
 1649              	.LVL227:
 535:main.c        ****     double avg_count, avg_dist;
 536:main.c        ****     int flag_stop = 0;
 537:main.c        ****     //while(abs(Count_Master) <= dist_count && abs(Count_Slave) <= dist_count && front_measured>10)
 538:main.c        ****     
 539:main.c        ****     //while(abs(Count_Master) <= dist_count && abs(Count_Slave) <= dist_count && US_measured > min_
 540:main.c        ****     while(abs(Count_Master) <= dist_count && abs(Count_Slave) <= dist_count && IR_input_Read()==0)
 1650              		.loc 1 540 0
 1651 0006 0DE0     		b	.L130
 1652              	.LVL228:
 1653              	.L134:
 541:main.c        ****     {
 542:main.c        ****         // Place your application code here.
 543:main.c        ****         Count_Master = QuadDec_1_GetCounter();
 1654              		.loc 1 543 0
 1655 0008 FFF7FEFF 		bl	QuadDec_1_GetCounter
 1656              	.LVL229:
 1657 000c 3A4C     		ldr	r4, .L140+16
 1658 000e A060     		str	r0, [r4, #8]
 544:main.c        ****         Count_Slave = QuadDec_2_GetCounter();
 1659              		.loc 1 544 0
 1660 0010 FFF7FEFF 		bl	QuadDec_2_GetCounter
 1661              	.LVL230:
 1662 0014 E060     		str	r0, [r4, #12]
ARM GAS  C:\Users\weiro\AppData\Local\Temp\ccS229OV.s 			page 40


 545:main.c        ****         if (flag_FR==1)
 1663              		.loc 1 545 0
 1664 0016 012E     		cmp	r6, #1
 1665 0018 02D1     		bne	.L131
 546:main.c        ****         {
 547:main.c        ****             forward();
 1666              		.loc 1 547 0
 1667 001a FFF7FEFF 		bl	forward
 1668              	.LVL231:
 1669 001e 01E0     		b	.L130
 1670              	.L131:
 548:main.c        ****         }
 549:main.c        ****         else
 550:main.c        ****         {
 551:main.c        ****             reverse();
 1671              		.loc 1 551 0
 1672 0020 FFF7FEFF 		bl	reverse
 1673              	.LVL232:
 1674              	.L130:
 540:main.c        ****     {
 1675              		.loc 1 540 0
 1676 0024 344B     		ldr	r3, .L140+16
 1677 0026 9B68     		ldr	r3, [r3, #8]
 1678 0028 002B     		cmp	r3, #0
 1679 002a B8BF     		it	lt
 1680 002c 5B42     		rsblt	r3, r3, #0
 1681 002e AB42     		cmp	r3, r5
 1682 0030 0ADC     		bgt	.L133
 540:main.c        ****     {
 1683              		.loc 1 540 0 is_stmt 0 discriminator 1
 1684 0032 314B     		ldr	r3, .L140+16
 1685 0034 DB68     		ldr	r3, [r3, #12]
 1686 0036 002B     		cmp	r3, #0
 1687 0038 B8BF     		it	lt
 1688 003a 5B42     		rsblt	r3, r3, #0
 1689 003c 9D42     		cmp	r5, r3
 1690 003e 03DB     		blt	.L133
 540:main.c        ****     {
 1691              		.loc 1 540 0 discriminator 2
 1692 0040 FFF7FEFF 		bl	IR_input_Read
 1693              	.LVL233:
 1694 0044 0028     		cmp	r0, #0
 1695 0046 DFD0     		beq	.L134
 1696              	.L133:
 552:main.c        ****         }
 553:main.c        ****     }
 554:main.c        ****     stop();
 1697              		.loc 1 554 0 is_stmt 1
 1698 0048 FFF7FEFF 		bl	stop
 1699              	.LVL234:
 555:main.c        ****     avg_count = (QuadDec_1_GetCounter()+QuadDec_2_GetCounter())/2;
 1700              		.loc 1 555 0
 1701 004c FFF7FEFF 		bl	QuadDec_1_GetCounter
 1702              	.LVL235:
 1703 0050 0446     		mov	r4, r0
 1704 0052 FFF7FEFF 		bl	QuadDec_2_GetCounter
 1705              	.LVL236:
ARM GAS  C:\Users\weiro\AppData\Local\Temp\ccS229OV.s 			page 41


 1706 0056 2044     		add	r0, r0, r4
 1707 0058 00EBD070 		add	r0, r0, r0, lsr #31
 1708 005c 4010     		asrs	r0, r0, #1
 1709 005e FFF7FEFF 		bl	__aeabi_i2d
 1710              	.LVL237:
 1711 0062 0446     		mov	r4, r0
 1712 0064 0D46     		mov	r5, r1
 1713              	.LVL238:
 556:main.c        ****     avg_dist = avg_count*(M_PI*WHEEL_DIAMETER/3667);
 1714              		.loc 1 556 0
 1715 0066 20A3     		adr	r3, .L140
 1716 0068 D3E90023 		ldrd	r2, [r3]
 1717 006c 2349     		ldr	r1, .L140+20
 1718 006e D1E90401 		ldrd	r0, [r1, #16]
 1719 0072 FFF7FEFF 		bl	__aeabi_dmul
 1720              	.LVL239:
 1721 0076 1EA3     		adr	r3, .L140+8
 1722 0078 D3E90023 		ldrd	r2, [r3]
 1723 007c FFF7FEFF 		bl	__aeabi_ddiv
 1724              	.LVL240:
 1725 0080 0246     		mov	r2, r0
 1726 0082 0B46     		mov	r3, r1
 1727 0084 2046     		mov	r0, r4
 1728 0086 2946     		mov	r1, r5
 1729 0088 FFF7FEFF 		bl	__aeabi_dmul
 1730              	.LVL241:
 557:main.c        ****     if (direction ==0)
 1731              		.loc 1 557 0
 1732 008c 1A4B     		ldr	r3, .L140+16
 1733 008e 9B6B     		ldr	r3, [r3, #56]
 1734 0090 3BB9     		cbnz	r3, .L135
 558:main.c        ****     {
 559:main.c        ****         y_coord = y_coord + avg_dist;
 1735              		.loc 1 559 0
 1736 0092 194C     		ldr	r4, .L140+16
 1737              	.LVL242:
 1738 0094 D4E91023 		ldrd	r2, [r4, #64]
 1739 0098 FFF7FEFF 		bl	__aeabi_dadd
 1740              	.LVL243:
 1741 009c C4E91001 		strd	r0, [r4, #64]
 1742 00a0 70BD     		pop	{r4, r5, r6, pc}
 1743              	.LVL244:
 1744              	.L135:
 560:main.c        ****     }
 561:main.c        ****     else if (direction ==1)
 1745              		.loc 1 561 0
 1746 00a2 012B     		cmp	r3, #1
 1747 00a4 07D1     		bne	.L137
 562:main.c        ****     {
 563:main.c        ****         
 564:main.c        ****         x_coord = x_coord + avg_dist;
 1748              		.loc 1 564 0
 1749 00a6 144C     		ldr	r4, .L140+16
 1750              	.LVL245:
 1751 00a8 D4E91223 		ldrd	r2, [r4, #72]
 1752 00ac FFF7FEFF 		bl	__aeabi_dadd
 1753              	.LVL246:
ARM GAS  C:\Users\weiro\AppData\Local\Temp\ccS229OV.s 			page 42


 1754 00b0 C4E91201 		strd	r0, [r4, #72]
 1755 00b4 70BD     		pop	{r4, r5, r6, pc}
 1756              	.LVL247:
 1757              	.L137:
 565:main.c        ****     }
 566:main.c        ****     else if (direction ==2)
 1758              		.loc 1 566 0
 1759 00b6 022B     		cmp	r3, #2
 1760 00b8 09D1     		bne	.L138
 567:main.c        ****     {
 568:main.c        ****         
 569:main.c        ****         y_coord = y_coord - avg_dist;
 1761              		.loc 1 569 0
 1762 00ba 0F4C     		ldr	r4, .L140+16
 1763              	.LVL248:
 1764 00bc 0246     		mov	r2, r0
 1765 00be 0B46     		mov	r3, r1
 1766 00c0 D4E91001 		ldrd	r0, [r4, #64]
 1767              	.LVL249:
 1768 00c4 FFF7FEFF 		bl	__aeabi_dsub
 1769              	.LVL250:
 1770 00c8 C4E91001 		strd	r0, [r4, #64]
 1771 00cc 70BD     		pop	{r4, r5, r6, pc}
 1772              	.LVL251:
 1773              	.L138:
 570:main.c        ****     }
 571:main.c        ****     else if (direction ==3)
 1774              		.loc 1 571 0
 1775 00ce 032B     		cmp	r3, #3
 1776 00d0 08D1     		bne	.L129
 572:main.c        ****     {
 573:main.c        ****         
 574:main.c        ****         x_coord = x_coord - avg_dist;
 1777              		.loc 1 574 0
 1778 00d2 094C     		ldr	r4, .L140+16
 1779              	.LVL252:
 1780 00d4 0246     		mov	r2, r0
 1781 00d6 0B46     		mov	r3, r1
 1782 00d8 D4E91201 		ldrd	r0, [r4, #72]
 1783              	.LVL253:
 1784 00dc FFF7FEFF 		bl	__aeabi_dsub
 1785              	.LVL254:
 1786 00e0 C4E91201 		strd	r0, [r4, #72]
 1787              	.L129:
 1788 00e4 70BD     		pop	{r4, r5, r6, pc}
 1789              	.LVL255:
 1790              	.L141:
 1791 00e6 00BF     		.align	3
 1792              	.L140:
 1793 00e8 182D4454 		.word	1413754136
 1794 00ec FB210940 		.word	1074340347
 1795 00f0 00000000 		.word	0
 1796 00f4 00A6AC40 		.word	1085056512
 1797 00f8 00000000 		.word	.LANCHOR0
 1798 00fc 00000000 		.word	.LANCHOR1
 1799              		.cfi_endproc
 1800              	.LFE80:
ARM GAS  C:\Users\weiro\AppData\Local\Temp\ccS229OV.s 			page 43


 1801              		.size	F_or_R_3, .-F_or_R_3
 1802              		.section	.text.CW,"ax",%progbits
 1803              		.align	2
 1804              		.global	CW
 1805              		.thumb
 1806              		.thumb_func
 1807              		.type	CW, %function
 1808              	CW:
 1809              	.LFB81:
 575:main.c        ****     }
 576:main.c        ****     //step = step +1;
 577:main.c        ****     //
 578:main.c        ****     //QuadDec_2_SetCounter(0);
 579:main.c        **** }
 580:main.c        **** 
 581:main.c        **** void CW(int PT_TURN_COUNT, int flag_CW)
 582:main.c        **** {
 1810              		.loc 1 582 0
 1811              		.cfi_startproc
 1812              		@ args = 0, pretend = 0, frame = 0
 1813              		@ frame_needed = 0, uses_anonymous_args = 0
 1814              	.LVL256:
 1815 0000 70B5     		push	{r4, r5, r6, lr}
 1816              		.cfi_def_cfa_offset 16
 1817              		.cfi_offset 4, -16
 1818              		.cfi_offset 5, -12
 1819              		.cfi_offset 6, -8
 1820              		.cfi_offset 14, -4
 1821 0002 0546     		mov	r5, r0
 1822 0004 0E46     		mov	r6, r1
 583:main.c        ****     while(abs(Count_Master) <= PT_TURN_COUNT && abs(Count_Slave) <= PT_TURN_COUNT)
 1823              		.loc 1 583 0
 1824 0006 0DE0     		b	.L143
 1825              	.LVL257:
 1826              	.L147:
 584:main.c        ****     {
 585:main.c        ****         //Place your application code here.
 586:main.c        ****         Count_Master = QuadDec_1_GetCounter();
 1827              		.loc 1 586 0
 1828 0008 FFF7FEFF 		bl	QuadDec_1_GetCounter
 1829              	.LVL258:
 1830 000c 1B4C     		ldr	r4, .L153
 1831 000e A060     		str	r0, [r4, #8]
 587:main.c        ****         Count_Slave = QuadDec_2_GetCounter();
 1832              		.loc 1 587 0
 1833 0010 FFF7FEFF 		bl	QuadDec_2_GetCounter
 1834              	.LVL259:
 1835 0014 E060     		str	r0, [r4, #12]
 588:main.c        ****         if (flag_CW == 1)
 1836              		.loc 1 588 0
 1837 0016 012E     		cmp	r6, #1
 1838 0018 02D1     		bne	.L144
 589:main.c        ****         {
 590:main.c        ****             turn_clockwise();
 1839              		.loc 1 590 0
 1840 001a FFF7FEFF 		bl	turn_clockwise
 1841              	.LVL260:
ARM GAS  C:\Users\weiro\AppData\Local\Temp\ccS229OV.s 			page 44


 1842 001e 01E0     		b	.L143
 1843              	.L144:
 591:main.c        ****         }
 592:main.c        ****         else 
 593:main.c        ****         {
 594:main.c        ****             turn_anticlockwise();
 1844              		.loc 1 594 0
 1845 0020 FFF7FEFF 		bl	turn_anticlockwise
 1846              	.LVL261:
 1847              	.L143:
 583:main.c        ****     {
 1848              		.loc 1 583 0
 1849 0024 154B     		ldr	r3, .L153
 1850 0026 9B68     		ldr	r3, [r3, #8]
 1851 0028 002B     		cmp	r3, #0
 1852 002a B8BF     		it	lt
 1853 002c 5B42     		rsblt	r3, r3, #0
 1854 002e AB42     		cmp	r3, r5
 1855 0030 06DC     		bgt	.L146
 583:main.c        ****     {
 1856              		.loc 1 583 0 is_stmt 0 discriminator 1
 1857 0032 124B     		ldr	r3, .L153
 1858 0034 DB68     		ldr	r3, [r3, #12]
 1859 0036 002B     		cmp	r3, #0
 1860 0038 B8BF     		it	lt
 1861 003a 5B42     		rsblt	r3, r3, #0
 1862 003c 9D42     		cmp	r5, r3
 1863 003e E3DA     		bge	.L147
 1864              	.L146:
 595:main.c        ****         }
 596:main.c        ****     }
 597:main.c        ****     stop();
 1865              		.loc 1 597 0 is_stmt 1
 1866 0040 FFF7FEFF 		bl	stop
 1867              	.LVL262:
 598:main.c        ****     if (flag_CW == 1)
 1868              		.loc 1 598 0
 1869 0044 012E     		cmp	r6, #1
 1870 0046 0BD1     		bne	.L148
 599:main.c        ****     {
 600:main.c        ****         if (direction == 3)
 1871              		.loc 1 600 0
 1872 0048 0C4B     		ldr	r3, .L153
 1873 004a 9B6B     		ldr	r3, [r3, #56]
 1874 004c 032B     		cmp	r3, #3
 1875 004e 03D1     		bne	.L149
 601:main.c        ****         {
 602:main.c        ****             direction = 0;
 1876              		.loc 1 602 0
 1877 0050 0022     		movs	r2, #0
 1878 0052 0A4B     		ldr	r3, .L153
 1879 0054 9A63     		str	r2, [r3, #56]
 1880 0056 0DE0     		b	.L150
 1881              	.L149:
 603:main.c        ****         }
 604:main.c        ****         else
 605:main.c        ****         {
ARM GAS  C:\Users\weiro\AppData\Local\Temp\ccS229OV.s 			page 45


 606:main.c        ****             direction = direction +1;
 1882              		.loc 1 606 0
 1883 0058 0133     		adds	r3, r3, #1
 1884 005a 084A     		ldr	r2, .L153
 1885 005c 9363     		str	r3, [r2, #56]
 1886 005e 09E0     		b	.L150
 1887              	.L148:
 607:main.c        ****         }
 608:main.c        ****     }
 609:main.c        ****     else
 610:main.c        ****     {
 611:main.c        ****         if (direction ==0)
 1888              		.loc 1 611 0
 1889 0060 064B     		ldr	r3, .L153
 1890 0062 9B6B     		ldr	r3, [r3, #56]
 1891 0064 1BB9     		cbnz	r3, .L151
 612:main.c        ****         {
 613:main.c        ****             direction = 3;
 1892              		.loc 1 613 0
 1893 0066 0322     		movs	r2, #3
 1894 0068 044B     		ldr	r3, .L153
 1895 006a 9A63     		str	r2, [r3, #56]
 1896 006c 02E0     		b	.L150
 1897              	.L151:
 614:main.c        ****         }
 615:main.c        ****         else
 616:main.c        ****         {
 617:main.c        ****             direction = direction -1;
 1898              		.loc 1 617 0
 1899 006e 013B     		subs	r3, r3, #1
 1900 0070 024A     		ldr	r2, .L153
 1901 0072 9363     		str	r3, [r2, #56]
 1902              	.L150:
 618:main.c        ****         }
 619:main.c        ****     }
 620:main.c        ****     reset_count();
 1903              		.loc 1 620 0
 1904 0074 FFF7FEFF 		bl	reset_count
 1905              	.LVL263:
 1906 0078 70BD     		pop	{r4, r5, r6, pc}
 1907              	.LVL264:
 1908              	.L154:
 1909 007a 00BF     		.align	2
 1910              	.L153:
 1911 007c 00000000 		.word	.LANCHOR0
 1912              		.cfi_endproc
 1913              	.LFE81:
 1914              		.size	CW, .-CW
 1915              		.section	.text.Color_Sensing_Function,"ax",%progbits
 1916              		.align	2
 1917              		.global	Color_Sensing_Function
 1918              		.thumb
 1919              		.thumb_func
 1920              		.type	Color_Sensing_Function, %function
 1921              	Color_Sensing_Function:
 1922              	.LFB82:
 621:main.c        **** }
ARM GAS  C:\Users\weiro\AppData\Local\Temp\ccS229OV.s 			page 46


 622:main.c        **** 
 623:main.c        **** void Color_Sensing_Function()
 624:main.c        **** {
 1923              		.loc 1 624 0
 1924              		.cfi_startproc
 1925              		@ args = 0, pretend = 0, frame = 0
 1926              		@ frame_needed = 0, uses_anonymous_args = 0
 1927 0000 F8B5     		push	{r3, r4, r5, r6, r7, lr}
 1928              		.cfi_def_cfa_offset 24
 1929              		.cfi_offset 3, -24
 1930              		.cfi_offset 4, -20
 1931              		.cfi_offset 5, -16
 1932              		.cfi_offset 6, -12
 1933              		.cfi_offset 7, -8
 1934              		.cfi_offset 14, -4
 1935              	.LVL265:
 625:main.c        ****     int mode = 1;
 626:main.c        ****     int CS_count_Red = 0;
 627:main.c        ****     int CS_count_Blue = 0;
 628:main.c        ****     int CS_count_Green = 0;
 629:main.c        ****     CS_LED_Write(1);
 1936              		.loc 1 629 0
 1937 0002 0120     		movs	r0, #1
 1938 0004 FFF7FEFF 		bl	CS_LED_Write
 1939              	.LVL266:
 630:main.c        ****     if (mode == 1) // red mode --> red filter
 631:main.c        ****     {
 632:main.c        ****         compare_ready = 0;
 1940              		.loc 1 632 0
 1941 0008 0024     		movs	r4, #0
 1942 000a 464B     		ldr	r3, .L163
 1943 000c 1C60     		str	r4, [r3]
 633:main.c        ****         S2_Write(0);
 1944              		.loc 1 633 0
 1945 000e 2046     		mov	r0, r4
 1946 0010 FFF7FEFF 		bl	S2_Write
 1947              	.LVL267:
 634:main.c        ****         S3_Write(0);
 1948              		.loc 1 634 0
 1949 0014 2046     		mov	r0, r4
 1950 0016 FFF7FEFF 		bl	S3_Write
 1951              	.LVL268:
 635:main.c        ****         CyDelay(20);
 1952              		.loc 1 635 0
 1953 001a 1420     		movs	r0, #20
 1954 001c FFF7FEFF 		bl	CyDelay
 1955              	.LVL269:
 636:main.c        ****         Control_Reg_1_Write(1);
 1956              		.loc 1 636 0
 1957 0020 0120     		movs	r0, #1
 1958 0022 FFF7FEFF 		bl	Control_Reg_1_Write
 1959              	.LVL270:
 637:main.c        ****         CyDelay(1);
 1960              		.loc 1 637 0
 1961 0026 0120     		movs	r0, #1
 1962 0028 FFF7FEFF 		bl	CyDelay
 1963              	.LVL271:
ARM GAS  C:\Users\weiro\AppData\Local\Temp\ccS229OV.s 			page 47


 638:main.c        ****         Control_Reg_1_Write(0);
 1964              		.loc 1 638 0
 1965 002c 2046     		mov	r0, r4
 1966 002e FFF7FEFF 		bl	Control_Reg_1_Write
 1967              	.LVL272:
 1968              	.L156:
 639:main.c        ****         while(compare_ready==0)
 1969              		.loc 1 639 0 discriminator 1
 1970 0032 3C4B     		ldr	r3, .L163
 1971 0034 1B68     		ldr	r3, [r3]
 1972 0036 002B     		cmp	r3, #0
 1973 0038 FBD0     		beq	.L156
 640:main.c        ****         {
 641:main.c        ****             // waiting period (until compare ready = 1
 642:main.c        ****         }
 643:main.c        ****         CS_count_Red = Counter_ColorSensor_ReadCapture();
 1974              		.loc 1 643 0
 1975 003a FFF7FEFF 		bl	Counter_ColorSensor_ReadCapture
 1976              	.LVL273:
 1977 003e 0446     		mov	r4, r0
 1978              	.LVL274:
 644:main.c        ****         sprintf(string_1,"red: %d\n", CS_count_Red);
 1979              		.loc 1 644 0
 1980 0040 394D     		ldr	r5, .L163+4
 1981 0042 0246     		mov	r2, r0
 1982 0044 3949     		ldr	r1, .L163+8
 1983 0046 2846     		mov	r0, r5
 1984              	.LVL275:
 1985 0048 FFF7FEFF 		bl	sprintf
 1986              	.LVL276:
 645:main.c        ****         UART_1_PutString(string_1);
 1987              		.loc 1 645 0
 1988 004c 2846     		mov	r0, r5
 1989 004e FFF7FEFF 		bl	UART_1_PutString
 1990              	.LVL277:
 646:main.c        ****         mode = 2;
 647:main.c        ****     }
 648:main.c        ****     
 649:main.c        ****     if (mode == 2) // blue mode --> blue filter
 650:main.c        ****     {
 651:main.c        ****         compare_ready = 0;
 1991              		.loc 1 651 0
 1992 0052 0025     		movs	r5, #0
 1993 0054 334B     		ldr	r3, .L163
 1994 0056 1D60     		str	r5, [r3]
 652:main.c        ****         S2_Write(0);
 1995              		.loc 1 652 0
 1996 0058 2846     		mov	r0, r5
 1997 005a FFF7FEFF 		bl	S2_Write
 1998              	.LVL278:
 653:main.c        ****         S3_Write(1);
 1999              		.loc 1 653 0
 2000 005e 0120     		movs	r0, #1
 2001 0060 FFF7FEFF 		bl	S3_Write
 2002              	.LVL279:
 654:main.c        ****         CyDelay(20);
 2003              		.loc 1 654 0
ARM GAS  C:\Users\weiro\AppData\Local\Temp\ccS229OV.s 			page 48


 2004 0064 1420     		movs	r0, #20
 2005 0066 FFF7FEFF 		bl	CyDelay
 2006              	.LVL280:
 655:main.c        ****         Control_Reg_1_Write(1);
 2007              		.loc 1 655 0
 2008 006a 0120     		movs	r0, #1
 2009 006c FFF7FEFF 		bl	Control_Reg_1_Write
 2010              	.LVL281:
 656:main.c        ****         CyDelay(1);
 2011              		.loc 1 656 0
 2012 0070 0120     		movs	r0, #1
 2013 0072 FFF7FEFF 		bl	CyDelay
 2014              	.LVL282:
 657:main.c        ****         Control_Reg_1_Write(0);
 2015              		.loc 1 657 0
 2016 0076 2846     		mov	r0, r5
 2017 0078 FFF7FEFF 		bl	Control_Reg_1_Write
 2018              	.LVL283:
 2019              	.L157:
 658:main.c        ****         while(compare_ready==0)
 2020              		.loc 1 658 0 discriminator 1
 2021 007c 294B     		ldr	r3, .L163
 2022 007e 1B68     		ldr	r3, [r3]
 2023 0080 002B     		cmp	r3, #0
 2024 0082 FBD0     		beq	.L157
 659:main.c        ****         {
 660:main.c        ****             // waiting period (until compare ready = 1
 661:main.c        ****         }
 662:main.c        ****         CS_count_Blue = Counter_ColorSensor_ReadCapture();
 2025              		.loc 1 662 0
 2026 0084 FFF7FEFF 		bl	Counter_ColorSensor_ReadCapture
 2027              	.LVL284:
 2028 0088 0646     		mov	r6, r0
 2029              	.LVL285:
 663:main.c        ****         sprintf(string_1,"blue: %d\n", CS_count_Blue);
 2030              		.loc 1 663 0
 2031 008a 274D     		ldr	r5, .L163+4
 2032 008c 0246     		mov	r2, r0
 2033 008e 2849     		ldr	r1, .L163+12
 2034 0090 2846     		mov	r0, r5
 2035              	.LVL286:
 2036 0092 FFF7FEFF 		bl	sprintf
 2037              	.LVL287:
 664:main.c        ****         UART_1_PutString(string_1);
 2038              		.loc 1 664 0
 2039 0096 2846     		mov	r0, r5
 2040 0098 FFF7FEFF 		bl	UART_1_PutString
 2041              	.LVL288:
 665:main.c        ****         mode = 3;
 666:main.c        ****     }
 667:main.c        ****     if (mode == 3) // green mode --> green filter
 668:main.c        ****     {
 669:main.c        ****         compare_ready = 0;
 2042              		.loc 1 669 0
 2043 009c 0025     		movs	r5, #0
 2044 009e 214B     		ldr	r3, .L163
 2045 00a0 1D60     		str	r5, [r3]
ARM GAS  C:\Users\weiro\AppData\Local\Temp\ccS229OV.s 			page 49


 670:main.c        ****         S2_Write(1);
 2046              		.loc 1 670 0
 2047 00a2 0120     		movs	r0, #1
 2048 00a4 FFF7FEFF 		bl	S2_Write
 2049              	.LVL289:
 671:main.c        ****         S3_Write(1);
 2050              		.loc 1 671 0
 2051 00a8 0120     		movs	r0, #1
 2052 00aa FFF7FEFF 		bl	S3_Write
 2053              	.LVL290:
 672:main.c        ****         CyDelay(20);
 2054              		.loc 1 672 0
 2055 00ae 1420     		movs	r0, #20
 2056 00b0 FFF7FEFF 		bl	CyDelay
 2057              	.LVL291:
 673:main.c        ****         Control_Reg_1_Write(1);
 2058              		.loc 1 673 0
 2059 00b4 0120     		movs	r0, #1
 2060 00b6 FFF7FEFF 		bl	Control_Reg_1_Write
 2061              	.LVL292:
 674:main.c        ****         CyDelay(1);
 2062              		.loc 1 674 0
 2063 00ba 0120     		movs	r0, #1
 2064 00bc FFF7FEFF 		bl	CyDelay
 2065              	.LVL293:
 675:main.c        ****         Control_Reg_1_Write(0);
 2066              		.loc 1 675 0
 2067 00c0 2846     		mov	r0, r5
 2068 00c2 FFF7FEFF 		bl	Control_Reg_1_Write
 2069              	.LVL294:
 2070              	.L158:
 676:main.c        ****         while(compare_ready==0)
 2071              		.loc 1 676 0 discriminator 1
 2072 00c6 174B     		ldr	r3, .L163
 2073 00c8 1B68     		ldr	r3, [r3]
 2074 00ca 002B     		cmp	r3, #0
 2075 00cc FBD0     		beq	.L158
 677:main.c        ****         {
 678:main.c        ****             // waiting period (until compare ready = 1
 679:main.c        ****         }
 680:main.c        ****         CS_count_Green = Counter_ColorSensor_ReadCapture();
 2076              		.loc 1 680 0
 2077 00ce FFF7FEFF 		bl	Counter_ColorSensor_ReadCapture
 2078              	.LVL295:
 2079 00d2 0546     		mov	r5, r0
 2080              	.LVL296:
 681:main.c        ****         sprintf(string_1,"green: %d\n", CS_count_Green);
 2081              		.loc 1 681 0
 2082 00d4 144F     		ldr	r7, .L163+4
 2083 00d6 0246     		mov	r2, r0
 2084 00d8 1649     		ldr	r1, .L163+16
 2085 00da 3846     		mov	r0, r7
 2086              	.LVL297:
 2087 00dc FFF7FEFF 		bl	sprintf
 2088              	.LVL298:
 682:main.c        ****         UART_1_PutString(string_1);
 2089              		.loc 1 682 0
ARM GAS  C:\Users\weiro\AppData\Local\Temp\ccS229OV.s 			page 50


 2090 00e0 3846     		mov	r0, r7
 2091 00e2 FFF7FEFF 		bl	UART_1_PutString
 2092              	.LVL299:
 683:main.c        ****         mode = 0;
 684:main.c        ****     }
 685:main.c        ****     if (CS_count_Red > CS_count_Green && CS_count_Red > CS_count_Blue)
 2093              		.loc 1 685 0
 2094 00e6 AC42     		cmp	r4, r5
 2095 00e8 06DD     		ble	.L159
 2096              		.loc 1 685 0 is_stmt 0 discriminator 1
 2097 00ea B442     		cmp	r4, r6
 2098 00ec 04DD     		ble	.L159
 686:main.c        ****     {
 687:main.c        ****         color_detected = 1; //red
 2099              		.loc 1 687 0 is_stmt 1
 2100 00ee 0120     		movs	r0, #1
 2101 00f0 0C4B     		ldr	r3, .L163
 2102 00f2 1865     		str	r0, [r3, #80]
 688:main.c        ****         led_red_Write(1);
 2103              		.loc 1 688 0
 2104 00f4 FFF7FEFF 		bl	led_red_Write
 2105              	.LVL300:
 2106              	.L159:
 689:main.c        ****     }
 690:main.c        ****     if (CS_count_Green > CS_count_Red && CS_count_Green > CS_count_Blue)
 2107              		.loc 1 690 0
 2108 00f8 AC42     		cmp	r4, r5
 2109 00fa 07DA     		bge	.L160
 2110              		.loc 1 690 0 is_stmt 0 discriminator 1
 2111 00fc AE42     		cmp	r6, r5
 2112 00fe 05DA     		bge	.L160
 691:main.c        ****     {
 692:main.c        ****         color_detected = 2; //green
 2113              		.loc 1 692 0 is_stmt 1
 2114 0100 0222     		movs	r2, #2
 2115 0102 084B     		ldr	r3, .L163
 2116 0104 1A65     		str	r2, [r3, #80]
 693:main.c        ****         led_green_Write(1);
 2117              		.loc 1 693 0
 2118 0106 0120     		movs	r0, #1
 2119 0108 FFF7FEFF 		bl	led_green_Write
 2120              	.LVL301:
 2121              	.L160:
 694:main.c        ****     }
 695:main.c        ****     if (CS_count_Blue > CS_count_Red && CS_count_Blue > CS_count_Green)
 2122              		.loc 1 695 0
 2123 010c B442     		cmp	r4, r6
 2124 010e 07DA     		bge	.L155
 2125              		.loc 1 695 0 is_stmt 0 discriminator 1
 2126 0110 AE42     		cmp	r6, r5
 2127 0112 05DD     		ble	.L155
 696:main.c        ****     {
 697:main.c        ****         color_detected = 3; //blue
 2128              		.loc 1 697 0 is_stmt 1
 2129 0114 0322     		movs	r2, #3
 2130 0116 034B     		ldr	r3, .L163
 2131 0118 1A65     		str	r2, [r3, #80]
ARM GAS  C:\Users\weiro\AppData\Local\Temp\ccS229OV.s 			page 51


 698:main.c        ****         led_blue_Write(1);
 2132              		.loc 1 698 0
 2133 011a 0120     		movs	r0, #1
 2134 011c FFF7FEFF 		bl	led_blue_Write
 2135              	.LVL302:
 2136              	.L155:
 2137 0120 F8BD     		pop	{r3, r4, r5, r6, r7, pc}
 2138              	.LVL303:
 2139              	.L164:
 2140 0122 00BF     		.align	2
 2141              	.L163:
 2142 0124 00000000 		.word	.LANCHOR0
 2143 0128 00000000 		.word	string_1
 2144 012c 40000000 		.word	.LC3
 2145 0130 4C000000 		.word	.LC4
 2146 0134 58000000 		.word	.LC5
 2147              		.cfi_endproc
 2148              	.LFE82:
 2149              		.size	Color_Sensing_Function, .-Color_Sensing_Function
 2150              		.section	.text.main,"ax",%progbits
 2151              		.align	2
 2152              		.global	main
 2153              		.thumb
 2154              		.thumb_func
 2155              		.type	main, %function
 2156              	main:
 2157              	.LFB83:
 699:main.c        ****     }
 700:main.c        ****     //step = step +1;
 701:main.c        **** }
 702:main.c        ****             
 703:main.c        **** int main(void)
 704:main.c        **** {
 2158              		.loc 1 704 0
 2159              		.cfi_startproc
 2160              		@ args = 0, pretend = 0, frame = 0
 2161              		@ frame_needed = 0, uses_anonymous_args = 0
 2162 0000 2DE9F84F 		push	{r3, r4, r5, r6, r7, r8, r9, r10, fp, lr}
 2163              		.cfi_def_cfa_offset 40
 2164              		.cfi_offset 3, -40
 2165              		.cfi_offset 4, -36
 2166              		.cfi_offset 5, -32
 2167              		.cfi_offset 6, -28
 2168              		.cfi_offset 7, -24
 2169              		.cfi_offset 8, -20
 2170              		.cfi_offset 9, -16
 2171              		.cfi_offset 10, -12
 2172              		.cfi_offset 11, -8
 2173              		.cfi_offset 14, -4
 705:main.c        ****     CyGlobalIntEnable; /* Enable global interrupts. */
 2174              		.loc 1 705 0
 2175              		.syntax unified
 2176              	@ 705 "main.c" 1
 2177 0004 62B6     		CPSIE   i
 2178              	@ 0 "" 2
 706:main.c        ****     WHEEL_CIRCUMFERENCE = M_PI*WHEEL_DIAMETER;
 2179              		.loc 1 706 0
ARM GAS  C:\Users\weiro\AppData\Local\Temp\ccS229OV.s 			page 52


 2180              		.thumb
 2181              		.syntax unified
 2182 0006 DFF874A2 		ldr	r10, .L182+36
 2183 000a 93A3     		adr	r3, .L182
 2184 000c D3E90023 		ldrd	r2, [r3]
 2185 0010 DAE90401 		ldrd	r0, [r10, #16]
 2186 0014 FFF7FEFF 		bl	__aeabi_dmul
 2187              	.LVL304:
 2188 0018 0446     		mov	r4, r0
 2189 001a 0D46     		mov	r5, r1
 2190 001c DFF858B2 		ldr	fp, .L182+32
 2191 0020 CBE91645 		strd	r4, [fp, #88]
 707:main.c        ****     DISTANCE_PT_TURN = M_PI*DISTANCE_BETW_WHEEL/4;
 2192              		.loc 1 707 0
 2193 0024 8CA3     		adr	r3, .L182
 2194 0026 D3E90023 		ldrd	r2, [r3]
 2195 002a DAE90601 		ldrd	r0, [r10, #24]
 2196 002e FFF7FEFF 		bl	__aeabi_dmul
 2197              	.LVL305:
 2198 0032 0022     		movs	r2, #0
 2199 0034 8A4B     		ldr	r3, .L182+8
 2200 0036 FFF7FEFF 		bl	__aeabi_dmul
 2201              	.LVL306:
 2202 003a 0646     		mov	r6, r0
 2203 003c 0F46     		mov	r7, r1
 2204 003e CBE91867 		strd	r6, [fp, #96]
 708:main.c        ****     CM_COUNT_CONV = COUNT_WHEEL/WHEEL_CIRCUMFERENCE;
 2205              		.loc 1 708 0
 2206 0042 DAE90889 		ldrd	r8, [r10, #32]
 2207 0046 2246     		mov	r2, r4
 2208 0048 2B46     		mov	r3, r5
 2209 004a 4046     		mov	r0, r8
 2210 004c 4946     		mov	r1, r9
 2211 004e FFF7FEFF 		bl	__aeabi_ddiv
 2212              	.LVL307:
 2213 0052 CBE90C01 		strd	r0, [fp, #48]
 709:main.c        ****     PT_TURN_COUNT = COUNT_WHEEL * DISTANCE_PT_TURN/(M_PI*WHEEL_DIAMETER)-500;
 2214              		.loc 1 709 0
 2215 0056 4246     		mov	r2, r8
 2216 0058 4B46     		mov	r3, r9
 2217 005a 3046     		mov	r0, r6
 2218 005c 3946     		mov	r1, r7
 2219 005e FFF7FEFF 		bl	__aeabi_dmul
 2220              	.LVL308:
 2221 0062 2246     		mov	r2, r4
 2222 0064 2B46     		mov	r3, r5
 2223 0066 FFF7FEFF 		bl	__aeabi_ddiv
 2224              	.LVL309:
 2225 006a 0022     		movs	r2, #0
 2226 006c 7D4B     		ldr	r3, .L182+12
 2227 006e FFF7FEFF 		bl	__aeabi_dsub
 2228              	.LVL310:
 2229 0072 CBE91A01 		strd	r0, [fp, #104]
 710:main.c        ****     isr_1_StartEx(Speed_Control);
 2230              		.loc 1 710 0
 2231 0076 7C48     		ldr	r0, .L182+16
 2232 0078 FFF7FEFF 		bl	isr_1_StartEx
ARM GAS  C:\Users\weiro\AppData\Local\Temp\ccS229OV.s 			page 53


 2233              	.LVL311:
 711:main.c        ****     isr_6_StartEx(Color_sensing);
 2234              		.loc 1 711 0
 2235 007c 7B48     		ldr	r0, .L182+20
 2236 007e FFF7FEFF 		bl	isr_6_StartEx
 2237              	.LVL312:
 712:main.c        ****     Timer_1_Start();
 2238              		.loc 1 712 0
 2239 0082 FFF7FEFF 		bl	Timer_1_Start
 2240              	.LVL313:
 713:main.c        ****     Timer_2_Start();
 2241              		.loc 1 713 0
 2242 0086 FFF7FEFF 		bl	Timer_2_Start
 2243              	.LVL314:
 714:main.c        ****     Timer_3_Start();
 2244              		.loc 1 714 0
 2245 008a FFF7FEFF 		bl	Timer_3_Start
 2246              	.LVL315:
 715:main.c        ****     Timer_4_Start();
 2247              		.loc 1 715 0
 2248 008e FFF7FEFF 		bl	Timer_4_Start
 2249              	.LVL316:
 716:main.c        ****     Timer_5_Start();
 2250              		.loc 1 716 0
 2251 0092 FFF7FEFF 		bl	Timer_5_Start
 2252              	.LVL317:
 717:main.c        ****     isr_2_StartEx(dist_front_detection_1);
 2253              		.loc 1 717 0
 2254 0096 7648     		ldr	r0, .L182+24
 2255 0098 FFF7FEFF 		bl	isr_2_StartEx
 2256              	.LVL318:
 718:main.c        ****     //isr_3_StartEx(dist_right_detection);
 719:main.c        ****     isr_4_StartEx(dist_left_detection);
 2257              		.loc 1 719 0
 2258 009c 7548     		ldr	r0, .L182+28
 2259 009e FFF7FEFF 		bl	isr_4_StartEx
 2260              	.LVL319:
 720:main.c        ****     //isr_5_StartEx(dist_front_detection_2);
 721:main.c        ****     PWM_ColorSensor_Start();
 2261              		.loc 1 721 0
 2262 00a2 FFF7FEFF 		bl	PWM_ColorSensor_Start
 2263              	.LVL320:
 722:main.c        ****     Counter_ColorSensor_Start();
 2264              		.loc 1 722 0
 2265 00a6 FFF7FEFF 		bl	Counter_ColorSensor_Start
 2266              	.LVL321:
 723:main.c        ****     PWM_Master_Start();
 2267              		.loc 1 723 0
 2268 00aa FFF7FEFF 		bl	PWM_Master_Start
 2269              	.LVL322:
 724:main.c        ****     PWM_Slave_Start();
 2270              		.loc 1 724 0
 2271 00ae FFF7FEFF 		bl	PWM_Slave_Start
 2272              	.LVL323:
 725:main.c        ****     PWM_SmallServo_Start();
 2273              		.loc 1 725 0
 2274 00b2 FFF7FEFF 		bl	PWM_SmallServo_Start
ARM GAS  C:\Users\weiro\AppData\Local\Temp\ccS229OV.s 			page 54


 2275              	.LVL324:
 726:main.c        ****     PWM_BigServo_Start();
 2276              		.loc 1 726 0
 2277 00b6 FFF7FEFF 		bl	PWM_BigServo_Start
 2278              	.LVL325:
 727:main.c        ****     QuadDec_1_Start();
 2279              		.loc 1 727 0
 2280 00ba FFF7FEFF 		bl	QuadDec_1_Start
 2281              	.LVL326:
 728:main.c        ****     QuadDec_1_SetCounter(0);
 2282              		.loc 1 728 0
 2283 00be 0020     		movs	r0, #0
 2284 00c0 FFF7FEFF 		bl	QuadDec_1_SetCounter
 2285              	.LVL327:
 729:main.c        ****     QuadDec_2_Start();
 2286              		.loc 1 729 0
 2287 00c4 FFF7FEFF 		bl	QuadDec_2_Start
 2288              	.LVL328:
 730:main.c        ****     QuadDec_2_SetCounter(0);
 2289              		.loc 1 730 0
 2290 00c8 0020     		movs	r0, #0
 2291 00ca FFF7FEFF 		bl	QuadDec_2_SetCounter
 2292              	.LVL329:
 731:main.c        ****     UART_1_Start();
 2293              		.loc 1 731 0
 2294 00ce FFF7FEFF 		bl	UART_1_Start
 2295              	.LVL330:
 732:main.c        ****     S0_Write(1);
 2296              		.loc 1 732 0
 2297 00d2 0120     		movs	r0, #1
 2298 00d4 FFF7FEFF 		bl	S0_Write
 2299              	.LVL331:
 733:main.c        ****     S1_Write(1);
 2300              		.loc 1 733 0
 2301 00d8 0120     		movs	r0, #1
 2302 00da FFF7FEFF 		bl	S1_Write
 2303              	.LVL332:
 734:main.c        ****     CS_LED_Write(0);
 2304              		.loc 1 734 0
 2305 00de 0020     		movs	r0, #0
 2306 00e0 FFF7FEFF 		bl	CS_LED_Write
 2307              	.LVL333:
 735:main.c        **** 
 736:main.c        ****     int flag_FR = 1;
 737:main.c        ****     int flag_CW = 1;
 738:main.c        ****     PWM_Master_WriteCompare(PWM_Master);
 2308              		.loc 1 738 0
 2309 00e4 DAF80800 		ldr	r0, [r10, #8]	@ float
 2310 00e8 FFF7FEFF 		bl	__aeabi_f2uiz
 2311              	.LVL334:
 2312 00ec 80B2     		uxth	r0, r0
 2313 00ee FFF7FEFF 		bl	PWM_Master_WriteCompare
 2314              	.LVL335:
 739:main.c        ****     PWM_Slave_WriteCompare(PWM_Master);
 2315              		.loc 1 739 0
 2316 00f2 DAF80800 		ldr	r0, [r10, #8]	@ float
 2317 00f6 FFF7FEFF 		bl	__aeabi_f2uiz
ARM GAS  C:\Users\weiro\AppData\Local\Temp\ccS229OV.s 			page 55


 2318              	.LVL336:
 2319 00fa 80B2     		uxth	r0, r0
 2320 00fc FFF7FEFF 		bl	PWM_Slave_WriteCompare
 2321              	.LVL337:
 740:main.c        ****     double dist_trav = 0;
 741:main.c        ****     double dist_count = dist_trav*CM_COUNT_CONV;
 742:main.c        ****     CyDelay(2000);
 2322              		.loc 1 742 0
 2323 0100 4FF4FA60 		mov	r0, #2000
 2324 0104 FFF7FEFF 		bl	CyDelay
 2325              	.LVL338:
 743:main.c        ****     /*
 744:main.c        ****     while(1)
 745:main.c        ****     {
 746:main.c        ****         CyDelay(50);
 747:main.c        ****         while(Front_Echo_Read()==0)
 748:main.c        ****         {
 749:main.c        ****             Front_Trigger_Write(1);
 750:main.c        ****             CyDelayUs(10);
 751:main.c        ****             Front_Trigger_Write(0);
 752:main.c        ****         }
 753:main.c        ****     }
 754:main.c        ****     */
 755:main.c        ****     
 756:main.c        ****     // move to hug left wall
 757:main.c        ****     while (step == 0)
 2326              		.loc 1 757 0
 2327 0108 17E0     		b	.L166
 2328              	.LVL339:
 2329              	.L167:
 758:main.c        ****     {
 759:main.c        ****         flag_FR = 1;
 760:main.c        ****         dist_trav = 30;
 761:main.c        ****         move_fixed_dist(dist_trav, flag_FR); // move forward
 2330              		.loc 1 761 0
 2331 010a 0121     		movs	r1, #1
 2332 010c 1E20     		movs	r0, #30
 2333 010e FFF7FEFF 		bl	move_fixed_dist
 2334              	.LVL340:
 762:main.c        ****         flag_CW = 0;
 763:main.c        ****         CW(PT_TURN_COUNT, flag_CW); // turn CCW facing left wall
 2335              		.loc 1 763 0
 2336 0112 594C     		ldr	r4, .L182+32
 2337 0114 D4E91A01 		ldrd	r0, [r4, #104]
 2338 0118 FFF7FEFF 		bl	__aeabi_d2iz
 2339              	.LVL341:
 2340 011c 0021     		movs	r1, #0
 2341 011e FFF7FEFF 		bl	CW
 2342              	.LVL342:
 764:main.c        ****         forward2wall(); // move to left wall
 2343              		.loc 1 764 0
 2344 0122 FFF7FEFF 		bl	forward2wall
 2345              	.LVL343:
 765:main.c        ****         flag_CW = 1;
 766:main.c        ****         CW(PT_TURN_COUNT, flag_CW); // turn CW facing front wall
 2346              		.loc 1 766 0
 2347 0126 D4E91A01 		ldrd	r0, [r4, #104]
ARM GAS  C:\Users\weiro\AppData\Local\Temp\ccS229OV.s 			page 56


 2348 012a FFF7FEFF 		bl	__aeabi_d2iz
 2349              	.LVL344:
 2350 012e 0121     		movs	r1, #1
 2351 0130 FFF7FEFF 		bl	CW
 2352              	.LVL345:
 767:main.c        ****         step++;     
 2353              		.loc 1 767 0
 2354 0134 236F     		ldr	r3, [r4, #112]
 2355 0136 0133     		adds	r3, r3, #1
 2356 0138 2367     		str	r3, [r4, #112]
 2357              	.LVL346:
 2358              	.L166:
 757:main.c        ****     {
 2359              		.loc 1 757 0
 2360 013a 4F4B     		ldr	r3, .L182+32
 2361 013c 1B6F     		ldr	r3, [r3, #112]
 2362 013e 002B     		cmp	r3, #0
 2363 0140 E3D0     		beq	.L167
 768:main.c        ****     }
 769:main.c        ****     CyDelay(500);
 2364              		.loc 1 769 0
 2365 0142 4FF4FA70 		mov	r0, #500
 2366 0146 FFF7FEFF 		bl	CyDelay
 2367              	.LVL347:
 770:main.c        ****     
 771:main.c        ****     // move forward to front wall & turn 90 deg CW facing right wall
 772:main.c        ****     while (step == 1)
 2368              		.loc 1 772 0
 2369 014a 0CE0     		b	.L168
 2370              	.L169:
 773:main.c        ****     {
 774:main.c        ****         /*flag_FR = 1;
 775:main.c        ****         dist_trav = 150;
 776:main.c        ****         dist_count = dist_trav*CM_COUNT_CONV;
 777:main.c        ****         F_or_R_1(dist_count, flag_FR);*/
 778:main.c        ****         forward2wall(); // move to front wall
 2371              		.loc 1 778 0
 2372 014c FFF7FEFF 		bl	forward2wall
 2373              	.LVL348:
 779:main.c        ****         flag_CW = 1;
 780:main.c        ****         CW(PT_TURN_COUNT, flag_CW); // turn CW facing right wall
 2374              		.loc 1 780 0
 2375 0150 494C     		ldr	r4, .L182+32
 2376 0152 D4E91A01 		ldrd	r0, [r4, #104]
 2377 0156 FFF7FEFF 		bl	__aeabi_d2iz
 2378              	.LVL349:
 2379 015a 0121     		movs	r1, #1
 2380 015c FFF7FEFF 		bl	CW
 2381              	.LVL350:
 781:main.c        ****         step++;
 2382              		.loc 1 781 0
 2383 0160 236F     		ldr	r3, [r4, #112]
 2384 0162 0133     		adds	r3, r3, #1
 2385 0164 2367     		str	r3, [r4, #112]
 2386              	.L168:
 772:main.c        ****     {
 2387              		.loc 1 772 0
ARM GAS  C:\Users\weiro\AppData\Local\Temp\ccS229OV.s 			page 57


 2388 0166 444B     		ldr	r3, .L182+32
 2389 0168 1B6F     		ldr	r3, [r3, #112]
 2390 016a 012B     		cmp	r3, #1
 2391 016c EED0     		beq	.L169
 782:main.c        ****     }
 783:main.c        ****     CyDelay(500);
 2392              		.loc 1 783 0
 2393 016e 4FF4FA70 		mov	r0, #500
 2394 0172 FFF7FEFF 		bl	CyDelay
 2395              	.LVL351:
 784:main.c        ****     
 785:main.c        ****     // look for slit & adjust so that robot can fit through slit
 786:main.c        ****     while (step == 2)
 2396              		.loc 1 786 0
 2397 0176 10E0     		b	.L170
 2398              	.LVL352:
 2399              	.L171:
 787:main.c        ****     {
 788:main.c        ****         /*flag_FR = 1;
 789:main.c        ****         dist_trav = 200;
 790:main.c        ****         dist_count = dist_trav*CM_COUNT_CONV;
 791:main.c        ****         F_or_R_2(dist_count, flag_FR);*/
 792:main.c        ****         move2slit();
 2400              		.loc 1 792 0
 2401 0178 FFF7FEFF 		bl	move2slit
 2402              	.LVL353:
 793:main.c        ****         dist_trav = 8.5;
 794:main.c        ****         flag_FR = 1;
 795:main.c        ****         move_fixed_dist(dist_trav, flag_FR);
 2403              		.loc 1 795 0
 2404 017c 0121     		movs	r1, #1
 2405 017e 0820     		movs	r0, #8
 2406 0180 FFF7FEFF 		bl	move_fixed_dist
 2407              	.LVL354:
 796:main.c        ****         flag_CW = 0;
 797:main.c        ****         CW(PT_TURN_COUNT, flag_CW); 
 2408              		.loc 1 797 0
 2409 0184 3C4C     		ldr	r4, .L182+32
 2410 0186 D4E91A01 		ldrd	r0, [r4, #104]
 2411 018a FFF7FEFF 		bl	__aeabi_d2iz
 2412              	.LVL355:
 2413 018e 0021     		movs	r1, #0
 2414 0190 FFF7FEFF 		bl	CW
 2415              	.LVL356:
 798:main.c        ****         step++;
 2416              		.loc 1 798 0
 2417 0194 236F     		ldr	r3, [r4, #112]
 2418 0196 0133     		adds	r3, r3, #1
 2419 0198 2367     		str	r3, [r4, #112]
 2420              	.LVL357:
 2421              	.L170:
 786:main.c        ****     {
 2422              		.loc 1 786 0
 2423 019a 374B     		ldr	r3, .L182+32
 2424 019c 1B6F     		ldr	r3, [r3, #112]
 2425 019e 022B     		cmp	r3, #2
 2426 01a0 EAD0     		beq	.L171
ARM GAS  C:\Users\weiro\AppData\Local\Temp\ccS229OV.s 			page 58


 799:main.c        ****     }
 800:main.c        ****     CyDelay(500);
 2427              		.loc 1 800 0
 2428 01a2 4FF4FA70 		mov	r0, #500
 2429 01a6 FFF7FEFF 		bl	CyDelay
 2430              	.LVL358:
 801:main.c        ****     
 802:main.c        ****     // move forward until puck is detected
 803:main.c        ****     while (step == 3)
 2431              		.loc 1 803 0
 2432 01aa 05E0     		b	.L172
 2433              	.L173:
 804:main.c        ****     {
 805:main.c        ****         /*flag_FR = 1;
 806:main.c        ****         dist_trav = 10;
 807:main.c        ****         dist_count = dist_trav*CM_COUNT_CONV;
 808:main.c        ****         F_or_R_2(dist_count, flag_FR);*/
 809:main.c        ****         move2puck();
 2434              		.loc 1 809 0
 2435 01ac FFF7FEFF 		bl	move2puck
 2436              	.LVL359:
 810:main.c        ****         step++;
 2437              		.loc 1 810 0
 2438 01b0 314A     		ldr	r2, .L182+32
 2439 01b2 136F     		ldr	r3, [r2, #112]
 2440 01b4 0133     		adds	r3, r3, #1
 2441 01b6 1367     		str	r3, [r2, #112]
 2442              	.L172:
 803:main.c        ****     {
 2443              		.loc 1 803 0
 2444 01b8 2F4B     		ldr	r3, .L182+32
 2445 01ba 1B6F     		ldr	r3, [r3, #112]
 2446 01bc 032B     		cmp	r3, #3
 2447 01be F5D0     		beq	.L173
 811:main.c        ****     }
 812:main.c        ****     CyDelay(500);
 2448              		.loc 1 812 0
 2449 01c0 4FF4FA70 		mov	r0, #500
 2450 01c4 FFF7FEFF 		bl	CyDelay
 2451              	.LVL360:
 813:main.c        ****     
 814:main.c        ****     // color sensing & light up LED
 815:main.c        ****     while (step == 4)
 2452              		.loc 1 815 0
 2453 01c8 18E0     		b	.L174
 2454              	.L178:
 816:main.c        ****     {
 817:main.c        ****         Color_Sensing_Function();
 2455              		.loc 1 817 0
 2456 01ca FFF7FEFF 		bl	Color_Sensing_Function
 2457              	.LVL361:
 818:main.c        ****         if (color_detected == 1) // red
 2458              		.loc 1 818 0
 2459 01ce 2A4B     		ldr	r3, .L182+32
 2460 01d0 1B6D     		ldr	r3, [r3, #80]
 2461 01d2 012B     		cmp	r3, #1
 2462 01d4 03D1     		bne	.L175
ARM GAS  C:\Users\weiro\AppData\Local\Temp\ccS229OV.s 			page 59


 819:main.c        ****         {
 820:main.c        ****             led_red_Write(1);
 2463              		.loc 1 820 0
 2464 01d6 0120     		movs	r0, #1
 2465 01d8 FFF7FEFF 		bl	led_red_Write
 2466              	.LVL362:
 2467 01dc 0AE0     		b	.L176
 2468              	.L175:
 821:main.c        ****         }
 822:main.c        ****         else if (color_detected == 2) // green
 2469              		.loc 1 822 0
 2470 01de 022B     		cmp	r3, #2
 2471 01e0 03D1     		bne	.L177
 823:main.c        ****         {
 824:main.c        ****             led_green_Write(1);
 2472              		.loc 1 824 0
 2473 01e2 0120     		movs	r0, #1
 2474 01e4 FFF7FEFF 		bl	led_green_Write
 2475              	.LVL363:
 2476 01e8 04E0     		b	.L176
 2477              	.L177:
 825:main.c        ****         }
 826:main.c        ****         else if (color_detected == 3) // blue
 2478              		.loc 1 826 0
 2479 01ea 032B     		cmp	r3, #3
 2480 01ec 02D1     		bne	.L176
 827:main.c        ****         {
 828:main.c        ****             led_blue_Write(1);   
 2481              		.loc 1 828 0
 2482 01ee 0120     		movs	r0, #1
 2483 01f0 FFF7FEFF 		bl	led_blue_Write
 2484              	.LVL364:
 2485              	.L176:
 829:main.c        ****         }
 830:main.c        ****         step++;
 2486              		.loc 1 830 0
 2487 01f4 204A     		ldr	r2, .L182+32
 2488 01f6 136F     		ldr	r3, [r2, #112]
 2489 01f8 0133     		adds	r3, r3, #1
 2490 01fa 1367     		str	r3, [r2, #112]
 2491              	.L174:
 815:main.c        ****     {
 2492              		.loc 1 815 0
 2493 01fc 1E4B     		ldr	r3, .L182+32
 2494 01fe 1B6F     		ldr	r3, [r3, #112]
 2495 0200 042B     		cmp	r3, #4
 2496 0202 E2D0     		beq	.L178
 831:main.c        ****     }
 832:main.c        ****     CyDelay(500);
 2497              		.loc 1 832 0
 2498 0204 4FF4FA70 		mov	r0, #500
 2499 0208 FFF7FEFF 		bl	CyDelay
 2500              	.LVL365:
 833:main.c        ****     
 834:main.c        ****     // move forward & pick up puck
 835:main.c        ****     while (step == 5)
 2501              		.loc 1 835 0
ARM GAS  C:\Users\weiro\AppData\Local\Temp\ccS229OV.s 			page 60


 2502 020c 19E0     		b	.L179
 2503              	.L180:
 2504              	.LVL366:
 836:main.c        ****     {
 837:main.c        ****         flag_FR = 1;
 838:main.c        ****         dist_trav = 17.5; // distance from color sensor to gripper center
 839:main.c        ****         move_fixed_dist(dist_trav, flag_FR);
 2505              		.loc 1 839 0
 2506 020e 0121     		movs	r1, #1
 2507 0210 1120     		movs	r0, #17
 2508 0212 FFF7FEFF 		bl	move_fixed_dist
 2509              	.LVL367:
 840:main.c        ****         PWM_BigServo_WriteCompare(down_big);
 2510              		.loc 1 840 0
 2511 0216 194C     		ldr	r4, .L182+36
 2512 0218 208D     		ldrh	r0, [r4, #40]
 2513 021a FFF7FEFF 		bl	PWM_BigServo_WriteCompare
 2514              	.LVL368:
 841:main.c        ****         CyDelay(500);
 2515              		.loc 1 841 0
 2516 021e 4FF4FA70 		mov	r0, #500
 2517 0222 FFF7FEFF 		bl	CyDelay
 2518              	.LVL369:
 842:main.c        ****         PWM_SmallServo_WriteCompare(close_small);
 2519              		.loc 1 842 0
 2520 0226 A08D     		ldrh	r0, [r4, #44]
 2521 0228 FFF7FEFF 		bl	PWM_SmallServo_WriteCompare
 2522              	.LVL370:
 843:main.c        ****         CyDelay(500);
 2523              		.loc 1 843 0
 2524 022c 4FF4FA70 		mov	r0, #500
 2525 0230 FFF7FEFF 		bl	CyDelay
 2526              	.LVL371:
 844:main.c        ****         PWM_BigServo_WriteCompare(up_big);
 2527              		.loc 1 844 0
 2528 0234 208E     		ldrh	r0, [r4, #48]
 2529 0236 FFF7FEFF 		bl	PWM_BigServo_WriteCompare
 2530              	.LVL372:
 845:main.c        ****         step++;
 2531              		.loc 1 845 0
 2532 023a 0F4A     		ldr	r2, .L182+32
 2533 023c 136F     		ldr	r3, [r2, #112]
 2534 023e 0133     		adds	r3, r3, #1
 2535 0240 1367     		str	r3, [r2, #112]
 2536              	.LVL373:
 2537              	.L179:
 835:main.c        ****     {
 2538              		.loc 1 835 0
 2539 0242 0D4B     		ldr	r3, .L182+32
 2540 0244 1B6F     		ldr	r3, [r3, #112]
 2541 0246 052B     		cmp	r3, #5
 2542 0248 E1D0     		beq	.L180
 846:main.c        ****     }
 847:main.c        ****     CyDelay(500);
 2543              		.loc 1 847 0
 2544 024a 4FF4FA70 		mov	r0, #500
 2545 024e FFF7FEFF 		bl	CyDelay
ARM GAS  C:\Users\weiro\AppData\Local\Temp\ccS229OV.s 			page 61


 2546              	.LVL374:
 848:main.c        ****     
 849:main.c        ****     // go home?
 850:main.c        **** }
 2547              		.loc 1 850 0
 2548 0252 0020     		movs	r0, #0
 2549 0254 BDE8F88F 		pop	{r3, r4, r5, r6, r7, r8, r9, r10, fp, pc}
 2550              	.L183:
 2551              		.align	3
 2552              	.L182:
 2553 0258 182D4454 		.word	1413754136
 2554 025c FB210940 		.word	1074340347
 2555 0260 0000D03F 		.word	1070596096
 2556 0264 00407F40 		.word	1082081280
 2557 0268 00000000 		.word	Speed_Control
 2558 026c 00000000 		.word	Color_sensing
 2559 0270 00000000 		.word	dist_front_detection_1
 2560 0274 00000000 		.word	dist_left_detection
 2561 0278 00000000 		.word	.LANCHOR0
 2562 027c 00000000 		.word	.LANCHOR1
 2563              		.cfi_endproc
 2564              	.LFE83:
 2565              		.size	main, .-main
 2566              		.global	close_small
 2567              		.global	open_small
 2568              		.global	up_big
 2569              		.global	down_big
 2570              		.global	slit_detected
 2571              		.global	wall_detected_10
 2572              		.global	color_detected
 2573              		.global	compare_ready
 2574              		.global	step
 2575              		.global	direction
 2576              		.global	y_coord
 2577              		.global	x_coord
 2578              		.global	left_measured
 2579              		.comm	right_measured,4,4
 2580              		.comm	front_measured_2,4,4
 2581              		.comm	front_measured_1,4,4
 2582              		.global	left_det_count
 2583              		.comm	right_det_count,2,2
 2584              		.comm	front_det_count_2,2,2
 2585              		.comm	front_det_count_1,2,2
 2586              		.global	is_moving
 2587              		.global	PWM_Slave
 2588              		.global	PWM_Master
 2589              		.global	K_d
 2590              		.global	K_i
 2591              		.global	K_p
 2592              		.global	timer_period
 2593              		.global	derivative_error
 2594              		.global	last_error
 2595              		.global	accumulated_error
 2596              		.global	error
 2597              		.comm	string_3,20,4
 2598              		.comm	string_2,20,4
 2599              		.comm	string_1,20,4
ARM GAS  C:\Users\weiro\AppData\Local\Temp\ccS229OV.s 			page 62


 2600              		.global	Count_Slave
 2601              		.global	Count_Master
 2602              		.global	PT_TURN_COUNT
 2603              		.global	DISTANCE_PT_TURN
 2604              		.global	DISTANCE_BETW_WHEEL
 2605              		.global	CM_COUNT_CONV
 2606              		.global	COUNT_WHEEL
 2607              		.global	WHEEL_CIRCUMFERENCE
 2608              		.global	WHEEL_DIAMETER
 2609              		.data
 2610              		.align	3
 2611              		.set	.LANCHOR1,. + 0
 2612              		.type	K_p, %object
 2613              		.size	K_p, 8
 2614              	K_p:
 2615 0000 00000000 		.word	0
 2616 0004 00004940 		.word	1078525952
 2617              		.type	PWM_Master, %object
 2618              		.size	PWM_Master, 4
 2619              	PWM_Master:
 2620 0008 00B0B346 		.word	1186181120
 2621              		.type	PWM_Slave, %object
 2622              		.size	PWM_Slave, 4
 2623              	PWM_Slave:
 2624 000c 00B0B346 		.word	1186181120
 2625              		.type	WHEEL_DIAMETER, %object
 2626              		.size	WHEEL_DIAMETER, 8
 2627              	WHEEL_DIAMETER:
 2628 0010 9A999999 		.word	-1717986918
 2629 0014 99991540 		.word	1075157401
 2630              		.type	DISTANCE_BETW_WHEEL, %object
 2631              		.size	DISTANCE_BETW_WHEEL, 8
 2632              	DISTANCE_BETW_WHEEL:
 2633 0018 CDCCCCCC 		.word	-858993459
 2634 001c CC4C3640 		.word	1077300428
 2635              		.type	COUNT_WHEEL, %object
 2636              		.size	COUNT_WHEEL, 8
 2637              	COUNT_WHEEL:
 2638 0020 00000000 		.word	0
 2639 0024 00A6AC40 		.word	1085056512
 2640              		.type	down_big, %object
 2641              		.size	down_big, 4
 2642              	down_big:
 2643 0028 67020000 		.word	615
 2644              		.type	close_small, %object
 2645              		.size	close_small, 4
 2646              	close_small:
 2647 002c AC030000 		.word	940
 2648              		.type	up_big, %object
 2649              		.size	up_big, 4
 2650              	up_big:
 2651 0030 0D020000 		.word	525
 2652              		.type	open_small, %object
 2653              		.size	open_small, 4
 2654              	open_small:
 2655 0034 D4030000 		.word	980
 2656              		.type	timer_period, %object
ARM GAS  C:\Users\weiro\AppData\Local\Temp\ccS229OV.s 			page 63


 2657              		.size	timer_period, 8
 2658              	timer_period:
 2659 0038 00000000 		.word	0
 2660 003c 00001440 		.word	1075052544
 2661              		.section	.rodata.str1.4,"aMS",%progbits,1
 2662              		.align	2
 2663              	.LC0:
 2664 0000 46726F6E 		.ascii	"Front dist 1: %lf\012\000"
 2664      74206469 
 2664      73742031 
 2664      3A20256C 
 2664      660A00
 2665 0013 00       		.space	1
 2666              	.LC1:
 2667 0014 4C656674 		.ascii	"Left dist 1: %lf\012\000"
 2667      20646973 
 2667      7420313A 
 2667      20256C66 
 2667      0A00
 2668 0026 0000     		.space	2
 2669              	.LC2:
 2670 0028 52756E6E 		.ascii	"Running F_or_R_1...\012\000"
 2670      696E6720 
 2670      465F6F72 
 2670      5F525F31 
 2670      2E2E2E0A 
 2671 003d 000000   		.space	3
 2672              	.LC3:
 2673 0040 7265643A 		.ascii	"red: %d\012\000"
 2673      2025640A 
 2673      00
 2674 0049 000000   		.space	3
 2675              	.LC4:
 2676 004c 626C7565 		.ascii	"blue: %d\012\000"
 2676      3A202564 
 2676      0A00
 2677 0056 0000     		.space	2
 2678              	.LC5:
 2679 0058 67726565 		.ascii	"green: %d\012\000"
 2679      6E3A2025 
 2679      640A00
 2680              		.bss
 2681              		.align	3
 2682              		.set	.LANCHOR0,. + 0
 2683              		.type	compare_ready, %object
 2684              		.size	compare_ready, 4
 2685              	compare_ready:
 2686 0000 00000000 		.space	4
 2687              		.type	is_moving, %object
 2688              		.size	is_moving, 4
 2689              	is_moving:
 2690 0004 00000000 		.space	4
 2691              		.type	Count_Master, %object
 2692              		.size	Count_Master, 4
 2693              	Count_Master:
 2694 0008 00000000 		.space	4
 2695              		.type	Count_Slave, %object
ARM GAS  C:\Users\weiro\AppData\Local\Temp\ccS229OV.s 			page 64


 2696              		.size	Count_Slave, 4
 2697              	Count_Slave:
 2698 000c 00000000 		.space	4
 2699              		.type	error, %object
 2700              		.size	error, 8
 2701              	error:
 2702 0010 00000000 		.space	8
 2702      00000000 
 2703              		.type	last_error, %object
 2704              		.size	last_error, 8
 2705              	last_error:
 2706 0018 00000000 		.space	8
 2706      00000000 
 2707              		.type	wall_detected_10, %object
 2708              		.size	wall_detected_10, 4
 2709              	wall_detected_10:
 2710 0020 00000000 		.space	4
 2711              		.type	left_det_count, %object
 2712              		.size	left_det_count, 2
 2713              	left_det_count:
 2714 0024 0000     		.space	2
 2715 0026 0000     		.space	2
 2716              		.type	left_measured, %object
 2717              		.size	left_measured, 4
 2718              	left_measured:
 2719 0028 00000000 		.space	4
 2720              		.type	slit_detected, %object
 2721              		.size	slit_detected, 4
 2722              	slit_detected:
 2723 002c 00000000 		.space	4
 2724              		.type	CM_COUNT_CONV, %object
 2725              		.size	CM_COUNT_CONV, 8
 2726              	CM_COUNT_CONV:
 2727 0030 00000000 		.space	8
 2727      00000000 
 2728              		.type	direction, %object
 2729              		.size	direction, 4
 2730              	direction:
 2731 0038 00000000 		.space	4
 2732 003c 00000000 		.space	4
 2733              		.type	y_coord, %object
 2734              		.size	y_coord, 8
 2735              	y_coord:
 2736 0040 00000000 		.space	8
 2736      00000000 
 2737              		.type	x_coord, %object
 2738              		.size	x_coord, 8
 2739              	x_coord:
 2740 0048 00000000 		.space	8
 2740      00000000 
 2741              		.type	color_detected, %object
 2742              		.size	color_detected, 4
 2743              	color_detected:
 2744 0050 00000000 		.space	4
 2745 0054 00000000 		.space	4
 2746              		.type	WHEEL_CIRCUMFERENCE, %object
 2747              		.size	WHEEL_CIRCUMFERENCE, 8
ARM GAS  C:\Users\weiro\AppData\Local\Temp\ccS229OV.s 			page 65


 2748              	WHEEL_CIRCUMFERENCE:
 2749 0058 00000000 		.space	8
 2749      00000000 
 2750              		.type	DISTANCE_PT_TURN, %object
 2751              		.size	DISTANCE_PT_TURN, 8
 2752              	DISTANCE_PT_TURN:
 2753 0060 00000000 		.space	8
 2753      00000000 
 2754              		.type	PT_TURN_COUNT, %object
 2755              		.size	PT_TURN_COUNT, 8
 2756              	PT_TURN_COUNT:
 2757 0068 00000000 		.space	8
 2757      00000000 
 2758              		.type	step, %object
 2759              		.size	step, 4
 2760              	step:
 2761 0070 00000000 		.space	4
 2762 0074 00000000 		.space	4
 2763              		.type	K_d, %object
 2764              		.size	K_d, 8
 2765              	K_d:
 2766 0078 00000000 		.space	8
 2766      00000000 
 2767              		.type	K_i, %object
 2768              		.size	K_i, 8
 2769              	K_i:
 2770 0080 00000000 		.space	8
 2770      00000000 
 2771              		.type	derivative_error, %object
 2772              		.size	derivative_error, 8
 2773              	derivative_error:
 2774 0088 00000000 		.space	8
 2774      00000000 
 2775              		.type	accumulated_error, %object
 2776              		.size	accumulated_error, 8
 2777              	accumulated_error:
 2778 0090 00000000 		.space	8
 2778      00000000 
 2779              		.text
 2780              	.Letext0:
 2781              		.file 2 "c:\\program files (x86)\\cypress\\psoc creator\\4.4\\psoc creator\\import\\gnu\\arm\\5.4.
 2782              		.file 3 "c:\\program files (x86)\\cypress\\psoc creator\\4.4\\psoc creator\\import\\gnu\\arm\\5.4.
 2783              		.file 4 "Generated_Source\\PSoC5/cytypes.h"
 2784              		.file 5 "Generated_Source\\PSoC5/core_cm3.h"
 2785              		.file 6 "Generated_Source\\PSoC5/PWM_ColorSensor.h"
 2786              		.file 7 "Generated_Source\\PSoC5/PWM_Slave.h"
 2787              		.file 8 "Generated_Source\\PSoC5/Timer_2.h"
 2788              		.file 9 "c:\\program files (x86)\\cypress\\psoc creator\\4.4\\psoc creator\\import\\gnu\\arm\\5.4.
 2789              		.file 10 "Generated_Source\\PSoC5/UART_1.h"
 2790              		.file 11 "Generated_Source\\PSoC5/Timer_4.h"
 2791              		.file 12 "Generated_Source\\PSoC5/Motor_1_IN_1.h"
 2792              		.file 13 "Generated_Source\\PSoC5/Motor_1_IN_2.h"
 2793              		.file 14 "Generated_Source\\PSoC5/Motor_2_IN_3.h"
 2794              		.file 15 "Generated_Source\\PSoC5/Motor_2_IN_4.h"
 2795              		.file 16 "Generated_Source\\PSoC5/QuadDec_1.h"
 2796              		.file 17 "Generated_Source\\PSoC5/QuadDec_2.h"
 2797              		.file 18 "Generated_Source\\PSoC5/CyLib.h"
ARM GAS  C:\Users\weiro\AppData\Local\Temp\ccS229OV.s 			page 66


 2798              		.file 19 "Generated_Source\\PSoC5/Front_Trigger_1.h"
 2799              		.file 20 "Generated_Source\\PSoC5/Front_Echo_1.h"
 2800              		.file 21 "Generated_Source\\PSoC5/Left_Trigger.h"
 2801              		.file 22 "Generated_Source\\PSoC5/Left_Echo.h"
 2802              		.file 23 "Generated_Source\\PSoC5/IR_input.h"
 2803              		.file 24 "Generated_Source\\PSoC5/Right_Trigger.h"
 2804              		.file 25 "Generated_Source\\PSoC5/Right_Echo.h"
 2805              		.file 26 "Generated_Source\\PSoC5/CS_LED.h"
 2806              		.file 27 "Generated_Source\\PSoC5/S2.h"
 2807              		.file 28 "Generated_Source\\PSoC5/S3.h"
 2808              		.file 29 "Generated_Source\\PSoC5/Control_Reg_1.h"
 2809              		.file 30 "Generated_Source\\PSoC5/Counter_ColorSensor.h"
 2810              		.file 31 "Generated_Source\\PSoC5/led_red.h"
 2811              		.file 32 "Generated_Source\\PSoC5/led_green.h"
 2812              		.file 33 "Generated_Source\\PSoC5/led_blue.h"
 2813              		.file 34 "Generated_Source\\PSoC5/isr_1.h"
 2814              		.file 35 "Generated_Source\\PSoC5/isr_6.h"
 2815              		.file 36 "Generated_Source\\PSoC5/Timer_1.h"
 2816              		.file 37 "Generated_Source\\PSoC5/Timer_3.h"
 2817              		.file 38 "Generated_Source\\PSoC5/Timer_5.h"
 2818              		.file 39 "Generated_Source\\PSoC5/isr_2.h"
 2819              		.file 40 "Generated_Source\\PSoC5/isr_4.h"
 2820              		.file 41 "Generated_Source\\PSoC5/PWM_Master.h"
 2821              		.file 42 "Generated_Source\\PSoC5/PWM_SmallServo.h"
 2822              		.file 43 "Generated_Source\\PSoC5/PWM_BigServo.h"
 2823              		.file 44 "Generated_Source\\PSoC5/S0.h"
 2824              		.file 45 "Generated_Source\\PSoC5/S1.h"
 2825              		.section	.debug_info,"",%progbits
 2826              	.Ldebug_info0:
 2827 0000 E1140000 		.4byte	0x14e1
 2828 0004 0400     		.2byte	0x4
 2829 0006 00000000 		.4byte	.Ldebug_abbrev0
 2830 000a 04       		.byte	0x4
 2831 000b 01       		.uleb128 0x1
 2832 000c 91020000 		.4byte	.LASF144
 2833 0010 0C       		.byte	0xc
 2834 0011 34000000 		.4byte	.LASF145
 2835 0015 FE070000 		.4byte	.LASF146
 2836 0019 00000000 		.4byte	.Ldebug_ranges0+0
 2837 001d 00000000 		.4byte	0
 2838 0021 00000000 		.4byte	.Ldebug_line0
 2839 0025 02       		.uleb128 0x2
 2840 0026 08       		.byte	0x8
 2841 0027 04       		.byte	0x4
 2842 0028 CB080000 		.4byte	.LASF0
 2843 002c 02       		.uleb128 0x2
 2844 002d 01       		.byte	0x1
 2845 002e 06       		.byte	0x6
 2846 002f 66080000 		.4byte	.LASF1
 2847 0033 02       		.uleb128 0x2
 2848 0034 01       		.byte	0x1
 2849 0035 08       		.byte	0x8
 2850 0036 7B070000 		.4byte	.LASF2
 2851 003a 02       		.uleb128 0x2
 2852 003b 02       		.byte	0x2
 2853 003c 05       		.byte	0x5
 2854 003d 04060000 		.4byte	.LASF3
ARM GAS  C:\Users\weiro\AppData\Local\Temp\ccS229OV.s 			page 67


 2855 0041 02       		.uleb128 0x2
 2856 0042 02       		.byte	0x2
 2857 0043 07       		.byte	0x7
 2858 0044 91080000 		.4byte	.LASF4
 2859 0048 03       		.uleb128 0x3
 2860 0049 D9000000 		.4byte	.LASF10
 2861 004d 02       		.byte	0x2
 2862 004e 3F       		.byte	0x3f
 2863 004f 53000000 		.4byte	0x53
 2864 0053 02       		.uleb128 0x2
 2865 0054 04       		.byte	0x4
 2866 0055 05       		.byte	0x5
 2867 0056 25060000 		.4byte	.LASF5
 2868 005a 02       		.uleb128 0x2
 2869 005b 04       		.byte	0x4
 2870 005c 07       		.byte	0x7
 2871 005d 3A070000 		.4byte	.LASF6
 2872 0061 02       		.uleb128 0x2
 2873 0062 08       		.byte	0x8
 2874 0063 05       		.byte	0x5
 2875 0064 A8040000 		.4byte	.LASF7
 2876 0068 02       		.uleb128 0x2
 2877 0069 08       		.byte	0x8
 2878 006a 07       		.byte	0x7
 2879 006b 2A020000 		.4byte	.LASF8
 2880 006f 04       		.uleb128 0x4
 2881 0070 04       		.byte	0x4
 2882 0071 05       		.byte	0x5
 2883 0072 696E7400 		.ascii	"int\000"
 2884 0076 02       		.uleb128 0x2
 2885 0077 04       		.byte	0x4
 2886 0078 07       		.byte	0x7
 2887 0079 BE000000 		.4byte	.LASF9
 2888 007d 03       		.uleb128 0x3
 2889 007e 4C070000 		.4byte	.LASF11
 2890 0082 03       		.byte	0x3
 2891 0083 2C       		.byte	0x2c
 2892 0084 48000000 		.4byte	0x48
 2893 0088 05       		.uleb128 0x5
 2894 0089 42040000 		.4byte	.LASF12
 2895 008d 04       		.byte	0x4
 2896 008e E901     		.2byte	0x1e9
 2897 0090 41000000 		.4byte	0x41
 2898 0094 02       		.uleb128 0x2
 2899 0095 04       		.byte	0x4
 2900 0096 04       		.byte	0x4
 2901 0097 E9010000 		.4byte	.LASF13
 2902 009b 02       		.uleb128 0x2
 2903 009c 01       		.byte	0x1
 2904 009d 08       		.byte	0x8
 2905 009e F6030000 		.4byte	.LASF14
 2906 00a2 02       		.uleb128 0x2
 2907 00a3 08       		.byte	0x8
 2908 00a4 04       		.byte	0x4
 2909 00a5 64050000 		.4byte	.LASF15
 2910 00a9 02       		.uleb128 0x2
 2911 00aa 04       		.byte	0x4
ARM GAS  C:\Users\weiro\AppData\Local\Temp\ccS229OV.s 			page 68


 2912 00ab 07       		.byte	0x7
 2913 00ac 31070000 		.4byte	.LASF16
 2914 00b0 06       		.uleb128 0x6
 2915 00b1 1E050000 		.4byte	.LASF17
 2916 00b5 01       		.byte	0x1
 2917 00b6 3A       		.byte	0x3a
 2918 00b7 00000000 		.4byte	.LFB64
 2919 00bb 14000000 		.4byte	.LFE64-.LFB64
 2920 00bf 01       		.uleb128 0x1
 2921 00c0 9C       		.byte	0x9c
 2922 00c1 CF000000 		.4byte	0xcf
 2923 00c5 07       		.uleb128 0x7
 2924 00c6 06000000 		.4byte	.LVL0
 2925 00ca 7C120000 		.4byte	0x127c
 2926 00ce 00       		.byte	0
 2927 00cf 08       		.uleb128 0x8
 2928 00d0 CB000000 		.4byte	.LASF18
 2929 00d4 01       		.byte	0x1
 2930 00d5 41       		.byte	0x41
 2931 00d6 00000000 		.4byte	.LFB65
 2932 00da 64000000 		.4byte	.LFE65-.LFB65
 2933 00de 01       		.uleb128 0x1
 2934 00df 9C       		.byte	0x9c
 2935 00e0 EE000000 		.4byte	0xee
 2936 00e4 07       		.uleb128 0x7
 2937 00e5 52000000 		.4byte	.LVL7
 2938 00e9 87120000 		.4byte	0x1287
 2939 00ed 00       		.byte	0
 2940 00ee 08       		.uleb128 0x8
 2941 00ef EF010000 		.4byte	.LASF19
 2942 00f3 01       		.byte	0x1
 2943 00f4 59       		.byte	0x59
 2944 00f5 00000000 		.4byte	.LFB66
 2945 00f9 78000000 		.4byte	.LFE66-.LFB66
 2946 00fd 01       		.uleb128 0x1
 2947 00fe 9C       		.byte	0x9c
 2948 00ff 43010000 		.4byte	0x143
 2949 0103 07       		.uleb128 0x7
 2950 0104 06000000 		.4byte	.LVL8
 2951 0108 92120000 		.4byte	0x1292
 2952 010c 07       		.uleb128 0x7
 2953 010d 0A000000 		.4byte	.LVL9
 2954 0111 9D120000 		.4byte	0x129d
 2955 0115 09       		.uleb128 0x9
 2956 0116 3C000000 		.4byte	.LVL12
 2957 011a A8120000 		.4byte	0x12a8
 2958 011e 32010000 		.4byte	0x132
 2959 0122 0A       		.uleb128 0xa
 2960 0123 01       		.uleb128 0x1
 2961 0124 50       		.byte	0x50
 2962 0125 02       		.uleb128 0x2
 2963 0126 75       		.byte	0x75
 2964 0127 00       		.sleb128 0
 2965 0128 0A       		.uleb128 0xa
 2966 0129 01       		.uleb128 0x1
 2967 012a 51       		.byte	0x51
 2968 012b 05       		.uleb128 0x5
ARM GAS  C:\Users\weiro\AppData\Local\Temp\ccS229OV.s 			page 69


 2969 012c 03       		.byte	0x3
 2970 012d 00000000 		.4byte	.LC0
 2971 0131 00       		.byte	0
 2972 0132 0B       		.uleb128 0xb
 2973 0133 42000000 		.4byte	.LVL13
 2974 0137 B3120000 		.4byte	0x12b3
 2975 013b 0A       		.uleb128 0xa
 2976 013c 01       		.uleb128 0x1
 2977 013d 50       		.byte	0x50
 2978 013e 02       		.uleb128 0x2
 2979 013f 75       		.byte	0x75
 2980 0140 00       		.sleb128 0
 2981 0141 00       		.byte	0
 2982 0142 00       		.byte	0
 2983 0143 08       		.uleb128 0x8
 2984 0144 E0070000 		.4byte	.LASF20
 2985 0148 01       		.byte	0x1
 2986 0149 7C       		.byte	0x7c
 2987 014a 00000000 		.4byte	.LFB67
 2988 014e 6C000000 		.4byte	.LFE67-.LFB67
 2989 0152 01       		.uleb128 0x1
 2990 0153 9C       		.byte	0x9c
 2991 0154 98010000 		.4byte	0x198
 2992 0158 07       		.uleb128 0x7
 2993 0159 06000000 		.4byte	.LVL15
 2994 015d BE120000 		.4byte	0x12be
 2995 0161 07       		.uleb128 0x7
 2996 0162 0A000000 		.4byte	.LVL16
 2997 0166 C9120000 		.4byte	0x12c9
 2998 016a 09       		.uleb128 0x9
 2999 016b 3A000000 		.4byte	.LVL19
 3000 016f A8120000 		.4byte	0x12a8
 3001 0173 87010000 		.4byte	0x187
 3002 0177 0A       		.uleb128 0xa
 3003 0178 01       		.uleb128 0x1
 3004 0179 50       		.byte	0x50
 3005 017a 02       		.uleb128 0x2
 3006 017b 75       		.byte	0x75
 3007 017c 00       		.sleb128 0
 3008 017d 0A       		.uleb128 0xa
 3009 017e 01       		.uleb128 0x1
 3010 017f 51       		.byte	0x51
 3011 0180 05       		.uleb128 0x5
 3012 0181 03       		.byte	0x3
 3013 0182 14000000 		.4byte	.LC1
 3014 0186 00       		.byte	0
 3015 0187 0B       		.uleb128 0xb
 3016 0188 40000000 		.4byte	.LVL20
 3017 018c B3120000 		.4byte	0x12b3
 3018 0190 0A       		.uleb128 0xa
 3019 0191 01       		.uleb128 0x1
 3020 0192 50       		.byte	0x50
 3021 0193 02       		.uleb128 0x2
 3022 0194 75       		.byte	0x75
 3023 0195 00       		.sleb128 0
 3024 0196 00       		.byte	0
 3025 0197 00       		.byte	0
ARM GAS  C:\Users\weiro\AppData\Local\Temp\ccS229OV.s 			page 70


 3026 0198 0C       		.uleb128 0xc
 3027 0199 D3010000 		.4byte	.LASF21
 3028 019d 01       		.byte	0x1
 3029 019e 8D       		.byte	0x8d
 3030 019f 00000000 		.4byte	.LFB68
 3031 01a3 28000000 		.4byte	.LFE68-.LFB68
 3032 01a7 01       		.uleb128 0x1
 3033 01a8 9C       		.byte	0x9c
 3034 01a9 FA010000 		.4byte	0x1fa
 3035 01ad 09       		.uleb128 0x9
 3036 01ae 0E000000 		.4byte	.LVL22
 3037 01b2 D4120000 		.4byte	0x12d4
 3038 01b6 C1010000 		.4byte	0x1c1
 3039 01ba 0A       		.uleb128 0xa
 3040 01bb 01       		.uleb128 0x1
 3041 01bc 50       		.byte	0x50
 3042 01bd 02       		.uleb128 0x2
 3043 01be 74       		.byte	0x74
 3044 01bf 00       		.sleb128 0
 3045 01c0 00       		.byte	0
 3046 01c1 09       		.uleb128 0x9
 3047 01c2 14000000 		.4byte	.LVL23
 3048 01c6 DF120000 		.4byte	0x12df
 3049 01ca D5010000 		.4byte	0x1d5
 3050 01ce 0A       		.uleb128 0xa
 3051 01cf 01       		.uleb128 0x1
 3052 01d0 50       		.byte	0x50
 3053 01d1 02       		.uleb128 0x2
 3054 01d2 74       		.byte	0x74
 3055 01d3 00       		.sleb128 0
 3056 01d4 00       		.byte	0
 3057 01d5 09       		.uleb128 0x9
 3058 01d6 1A000000 		.4byte	.LVL24
 3059 01da EA120000 		.4byte	0x12ea
 3060 01de E9010000 		.4byte	0x1e9
 3061 01e2 0A       		.uleb128 0xa
 3062 01e3 01       		.uleb128 0x1
 3063 01e4 50       		.byte	0x50
 3064 01e5 02       		.uleb128 0x2
 3065 01e6 74       		.byte	0x74
 3066 01e7 00       		.sleb128 0
 3067 01e8 00       		.byte	0
 3068 01e9 0B       		.uleb128 0xb
 3069 01ea 20000000 		.4byte	.LVL25
 3070 01ee F5120000 		.4byte	0x12f5
 3071 01f2 0A       		.uleb128 0xa
 3072 01f3 01       		.uleb128 0x1
 3073 01f4 50       		.byte	0x50
 3074 01f5 02       		.uleb128 0x2
 3075 01f6 74       		.byte	0x74
 3076 01f7 00       		.sleb128 0
 3077 01f8 00       		.byte	0
 3078 01f9 00       		.byte	0
 3079 01fa 0C       		.uleb128 0xc
 3080 01fb 02050000 		.4byte	.LASF22
 3081 01ff 01       		.byte	0x1
 3082 0200 96       		.byte	0x96
ARM GAS  C:\Users\weiro\AppData\Local\Temp\ccS229OV.s 			page 71


 3083 0201 00000000 		.4byte	.LFB69
 3084 0205 28000000 		.4byte	.LFE69-.LFB69
 3085 0209 01       		.uleb128 0x1
 3086 020a 9C       		.byte	0x9c
 3087 020b 5A020000 		.4byte	0x25a
 3088 020f 09       		.uleb128 0x9
 3089 0210 0E000000 		.4byte	.LVL26
 3090 0214 D4120000 		.4byte	0x12d4
 3091 0218 22020000 		.4byte	0x222
 3092 021c 0A       		.uleb128 0xa
 3093 021d 01       		.uleb128 0x1
 3094 021e 50       		.byte	0x50
 3095 021f 01       		.uleb128 0x1
 3096 0220 30       		.byte	0x30
 3097 0221 00       		.byte	0
 3098 0222 09       		.uleb128 0x9
 3099 0223 14000000 		.4byte	.LVL27
 3100 0227 DF120000 		.4byte	0x12df
 3101 022b 36020000 		.4byte	0x236
 3102 022f 0A       		.uleb128 0xa
 3103 0230 01       		.uleb128 0x1
 3104 0231 50       		.byte	0x50
 3105 0232 02       		.uleb128 0x2
 3106 0233 74       		.byte	0x74
 3107 0234 00       		.sleb128 0
 3108 0235 00       		.byte	0
 3109 0236 09       		.uleb128 0x9
 3110 0237 1A000000 		.4byte	.LVL28
 3111 023b EA120000 		.4byte	0x12ea
 3112 023f 49020000 		.4byte	0x249
 3113 0243 0A       		.uleb128 0xa
 3114 0244 01       		.uleb128 0x1
 3115 0245 50       		.byte	0x50
 3116 0246 01       		.uleb128 0x1
 3117 0247 30       		.byte	0x30
 3118 0248 00       		.byte	0
 3119 0249 0B       		.uleb128 0xb
 3120 024a 20000000 		.4byte	.LVL29
 3121 024e F5120000 		.4byte	0x12f5
 3122 0252 0A       		.uleb128 0xa
 3123 0253 01       		.uleb128 0x1
 3124 0254 50       		.byte	0x50
 3125 0255 02       		.uleb128 0x2
 3126 0256 74       		.byte	0x74
 3127 0257 00       		.sleb128 0
 3128 0258 00       		.byte	0
 3129 0259 00       		.byte	0
 3130 025a 0C       		.uleb128 0xc
 3131 025b 9A010000 		.4byte	.LASF23
 3132 025f 01       		.byte	0x1
 3133 0260 9F       		.byte	0x9f
 3134 0261 00000000 		.4byte	.LFB70
 3135 0265 28000000 		.4byte	.LFE70-.LFB70
 3136 0269 01       		.uleb128 0x1
 3137 026a 9C       		.byte	0x9c
 3138 026b BA020000 		.4byte	0x2ba
 3139 026f 09       		.uleb128 0x9
ARM GAS  C:\Users\weiro\AppData\Local\Temp\ccS229OV.s 			page 72


 3140 0270 0E000000 		.4byte	.LVL30
 3141 0274 D4120000 		.4byte	0x12d4
 3142 0278 83020000 		.4byte	0x283
 3143 027c 0A       		.uleb128 0xa
 3144 027d 01       		.uleb128 0x1
 3145 027e 50       		.byte	0x50
 3146 027f 02       		.uleb128 0x2
 3147 0280 74       		.byte	0x74
 3148 0281 00       		.sleb128 0
 3149 0282 00       		.byte	0
 3150 0283 09       		.uleb128 0x9
 3151 0284 14000000 		.4byte	.LVL31
 3152 0288 DF120000 		.4byte	0x12df
 3153 028c 96020000 		.4byte	0x296
 3154 0290 0A       		.uleb128 0xa
 3155 0291 01       		.uleb128 0x1
 3156 0292 50       		.byte	0x50
 3157 0293 01       		.uleb128 0x1
 3158 0294 30       		.byte	0x30
 3159 0295 00       		.byte	0
 3160 0296 09       		.uleb128 0x9
 3161 0297 1A000000 		.4byte	.LVL32
 3162 029b EA120000 		.4byte	0x12ea
 3163 029f AA020000 		.4byte	0x2aa
 3164 02a3 0A       		.uleb128 0xa
 3165 02a4 01       		.uleb128 0x1
 3166 02a5 50       		.byte	0x50
 3167 02a6 02       		.uleb128 0x2
 3168 02a7 74       		.byte	0x74
 3169 02a8 00       		.sleb128 0
 3170 02a9 00       		.byte	0
 3171 02aa 0B       		.uleb128 0xb
 3172 02ab 20000000 		.4byte	.LVL33
 3173 02af F5120000 		.4byte	0x12f5
 3174 02b3 0A       		.uleb128 0xa
 3175 02b4 01       		.uleb128 0x1
 3176 02b5 50       		.byte	0x50
 3177 02b6 01       		.uleb128 0x1
 3178 02b7 30       		.byte	0x30
 3179 02b8 00       		.byte	0
 3180 02b9 00       		.byte	0
 3181 02ba 0C       		.uleb128 0xc
 3182 02bb CD070000 		.4byte	.LASF24
 3183 02bf 01       		.byte	0x1
 3184 02c0 A8       		.byte	0xa8
 3185 02c1 00000000 		.4byte	.LFB71
 3186 02c5 28000000 		.4byte	.LFE71-.LFB71
 3187 02c9 01       		.uleb128 0x1
 3188 02ca 9C       		.byte	0x9c
 3189 02cb 1A030000 		.4byte	0x31a
 3190 02cf 09       		.uleb128 0x9
 3191 02d0 0E000000 		.4byte	.LVL34
 3192 02d4 D4120000 		.4byte	0x12d4
 3193 02d8 E2020000 		.4byte	0x2e2
 3194 02dc 0A       		.uleb128 0xa
 3195 02dd 01       		.uleb128 0x1
 3196 02de 50       		.byte	0x50
ARM GAS  C:\Users\weiro\AppData\Local\Temp\ccS229OV.s 			page 73


 3197 02df 01       		.uleb128 0x1
 3198 02e0 30       		.byte	0x30
 3199 02e1 00       		.byte	0
 3200 02e2 09       		.uleb128 0x9
 3201 02e3 14000000 		.4byte	.LVL35
 3202 02e7 DF120000 		.4byte	0x12df
 3203 02eb F6020000 		.4byte	0x2f6
 3204 02ef 0A       		.uleb128 0xa
 3205 02f0 01       		.uleb128 0x1
 3206 02f1 50       		.byte	0x50
 3207 02f2 02       		.uleb128 0x2
 3208 02f3 74       		.byte	0x74
 3209 02f4 00       		.sleb128 0
 3210 02f5 00       		.byte	0
 3211 02f6 09       		.uleb128 0x9
 3212 02f7 1A000000 		.4byte	.LVL36
 3213 02fb EA120000 		.4byte	0x12ea
 3214 02ff 0A030000 		.4byte	0x30a
 3215 0303 0A       		.uleb128 0xa
 3216 0304 01       		.uleb128 0x1
 3217 0305 50       		.byte	0x50
 3218 0306 02       		.uleb128 0x2
 3219 0307 74       		.byte	0x74
 3220 0308 00       		.sleb128 0
 3221 0309 00       		.byte	0
 3222 030a 0B       		.uleb128 0xb
 3223 030b 20000000 		.4byte	.LVL37
 3224 030f F5120000 		.4byte	0x12f5
 3225 0313 0A       		.uleb128 0xa
 3226 0314 01       		.uleb128 0x1
 3227 0315 50       		.byte	0x50
 3228 0316 01       		.uleb128 0x1
 3229 0317 30       		.byte	0x30
 3230 0318 00       		.byte	0
 3231 0319 00       		.byte	0
 3232 031a 0C       		.uleb128 0xc
 3233 031b 78050000 		.4byte	.LASF25
 3234 031f 01       		.byte	0x1
 3235 0320 B1       		.byte	0xb1
 3236 0321 00000000 		.4byte	.LFB72
 3237 0325 28000000 		.4byte	.LFE72-.LFB72
 3238 0329 01       		.uleb128 0x1
 3239 032a 9C       		.byte	0x9c
 3240 032b 7A030000 		.4byte	0x37a
 3241 032f 09       		.uleb128 0x9
 3242 0330 0E000000 		.4byte	.LVL38
 3243 0334 D4120000 		.4byte	0x12d4
 3244 0338 43030000 		.4byte	0x343
 3245 033c 0A       		.uleb128 0xa
 3246 033d 01       		.uleb128 0x1
 3247 033e 50       		.byte	0x50
 3248 033f 02       		.uleb128 0x2
 3249 0340 74       		.byte	0x74
 3250 0341 00       		.sleb128 0
 3251 0342 00       		.byte	0
 3252 0343 09       		.uleb128 0x9
 3253 0344 14000000 		.4byte	.LVL39
ARM GAS  C:\Users\weiro\AppData\Local\Temp\ccS229OV.s 			page 74


 3254 0348 DF120000 		.4byte	0x12df
 3255 034c 56030000 		.4byte	0x356
 3256 0350 0A       		.uleb128 0xa
 3257 0351 01       		.uleb128 0x1
 3258 0352 50       		.byte	0x50
 3259 0353 01       		.uleb128 0x1
 3260 0354 30       		.byte	0x30
 3261 0355 00       		.byte	0
 3262 0356 09       		.uleb128 0x9
 3263 0357 1A000000 		.4byte	.LVL40
 3264 035b EA120000 		.4byte	0x12ea
 3265 035f 69030000 		.4byte	0x369
 3266 0363 0A       		.uleb128 0xa
 3267 0364 01       		.uleb128 0x1
 3268 0365 50       		.byte	0x50
 3269 0366 01       		.uleb128 0x1
 3270 0367 30       		.byte	0x30
 3271 0368 00       		.byte	0
 3272 0369 0B       		.uleb128 0xb
 3273 036a 20000000 		.4byte	.LVL41
 3274 036e F5120000 		.4byte	0x12f5
 3275 0372 0A       		.uleb128 0xa
 3276 0373 01       		.uleb128 0x1
 3277 0374 50       		.byte	0x50
 3278 0375 02       		.uleb128 0x2
 3279 0376 74       		.byte	0x74
 3280 0377 00       		.sleb128 0
 3281 0378 00       		.byte	0
 3282 0379 00       		.byte	0
 3283 037a 0D       		.uleb128 0xd
 3284 037b 72010000 		.4byte	.LASF26
 3285 037f 01       		.byte	0x1
 3286 0380 0201     		.2byte	0x102
 3287 0382 00000000 		.4byte	.LFB73
 3288 0386 1C000000 		.4byte	.LFE73-.LFB73
 3289 038a 01       		.uleb128 0x1
 3290 038b 9C       		.byte	0x9c
 3291 038c B3030000 		.4byte	0x3b3
 3292 0390 09       		.uleb128 0x9
 3293 0391 08000000 		.4byte	.LVL42
 3294 0395 00130000 		.4byte	0x1300
 3295 0399 A3030000 		.4byte	0x3a3
 3296 039d 0A       		.uleb128 0xa
 3297 039e 01       		.uleb128 0x1
 3298 039f 50       		.byte	0x50
 3299 03a0 01       		.uleb128 0x1
 3300 03a1 30       		.byte	0x30
 3301 03a2 00       		.byte	0
 3302 03a3 0B       		.uleb128 0xb
 3303 03a4 0E000000 		.4byte	.LVL43
 3304 03a8 0B130000 		.4byte	0x130b
 3305 03ac 0A       		.uleb128 0xa
 3306 03ad 01       		.uleb128 0x1
 3307 03ae 50       		.byte	0x50
 3308 03af 01       		.uleb128 0x1
 3309 03b0 30       		.byte	0x30
 3310 03b1 00       		.byte	0
ARM GAS  C:\Users\weiro\AppData\Local\Temp\ccS229OV.s 			page 75


 3311 03b2 00       		.byte	0
 3312 03b3 0E       		.uleb128 0xe
 3313 03b4 B6040000 		.4byte	.LASF27
 3314 03b8 01       		.byte	0x1
 3315 03b9 0A01     		.2byte	0x10a
 3316 03bb 00000000 		.4byte	.LFB74
 3317 03bf 10010000 		.4byte	.LFE74-.LFB74
 3318 03c3 01       		.uleb128 0x1
 3319 03c4 9C       		.byte	0x9c
 3320 03c5 62040000 		.4byte	0x462
 3321 03c9 0F       		.uleb128 0xf
 3322 03ca 0F050000 		.4byte	.LASF28
 3323 03ce 01       		.byte	0x1
 3324 03cf 0A01     		.2byte	0x10a
 3325 03d1 6F000000 		.4byte	0x6f
 3326 03d5 00000000 		.4byte	.LLST0
 3327 03d9 0F       		.uleb128 0xf
 3328 03da CE060000 		.4byte	.LASF29
 3329 03de 01       		.byte	0x1
 3330 03df 0A01     		.2byte	0x10a
 3331 03e1 6F000000 		.4byte	0x6f
 3332 03e5 21000000 		.4byte	.LLST1
 3333 03e9 10       		.uleb128 0x10
 3334 03ea F4070000 		.4byte	.LASF30
 3335 03ee 01       		.byte	0x1
 3336 03ef 0C01     		.2byte	0x10c
 3337 03f1 25000000 		.4byte	0x25
 3338 03f5 4D000000 		.4byte	.LLST2
 3339 03f9 10       		.uleb128 0x10
 3340 03fa 64060000 		.4byte	.LASF31
 3341 03fe 01       		.byte	0x1
 3342 03ff 0C01     		.2byte	0x10c
 3343 0401 25000000 		.4byte	0x25
 3344 0405 95000000 		.4byte	.LLST3
 3345 0409 10       		.uleb128 0x10
 3346 040a 76030000 		.4byte	.LASF32
 3347 040e 01       		.byte	0x1
 3348 040f 0D01     		.2byte	0x10d
 3349 0411 6F000000 		.4byte	0x6f
 3350 0415 DD000000 		.4byte	.LLST4
 3351 0419 07       		.uleb128 0x7
 3352 041a 1E000000 		.4byte	.LVL50
 3353 041e 16130000 		.4byte	0x1316
 3354 0422 07       		.uleb128 0x7
 3355 0423 26000000 		.4byte	.LVL51
 3356 0427 21130000 		.4byte	0x1321
 3357 042b 07       		.uleb128 0x7
 3358 042c 30000000 		.4byte	.LVL52
 3359 0430 FA010000 		.4byte	0x1fa
 3360 0434 07       		.uleb128 0x7
 3361 0435 36000000 		.4byte	.LVL53
 3362 0439 5A020000 		.4byte	0x25a
 3363 043d 07       		.uleb128 0x7
 3364 043e 56000000 		.4byte	.LVL54
 3365 0442 98010000 		.4byte	0x198
 3366 0446 07       		.uleb128 0x7
 3367 0447 5A000000 		.4byte	.LVL55
ARM GAS  C:\Users\weiro\AppData\Local\Temp\ccS229OV.s 			page 76


 3368 044b 16130000 		.4byte	0x1316
 3369 044f 07       		.uleb128 0x7
 3370 0450 60000000 		.4byte	.LVL56
 3371 0454 21130000 		.4byte	0x1321
 3372 0458 07       		.uleb128 0x7
 3373 0459 F2000000 		.4byte	.LVL75
 3374 045d 7A030000 		.4byte	0x37a
 3375 0461 00       		.byte	0
 3376 0462 11       		.uleb128 0x11
 3377 0463 56010000 		.4byte	.LASF33
 3378 0467 01       		.byte	0x1
 3379 0468 3401     		.2byte	0x134
 3380 046a 00000000 		.4byte	.LFB75
 3381 046e F0000000 		.4byte	.LFE75-.LFB75
 3382 0472 01       		.uleb128 0x1
 3383 0473 9C       		.byte	0x9c
 3384 0474 1C050000 		.4byte	0x51c
 3385 0478 10       		.uleb128 0x10
 3386 0479 F4070000 		.4byte	.LASF30
 3387 047d 01       		.byte	0x1
 3388 047e 3601     		.2byte	0x136
 3389 0480 25000000 		.4byte	0x25
 3390 0484 FB000000 		.4byte	.LLST5
 3391 0488 10       		.uleb128 0x10
 3392 0489 64060000 		.4byte	.LASF31
 3393 048d 01       		.byte	0x1
 3394 048e 3601     		.2byte	0x136
 3395 0490 25000000 		.4byte	0x25
 3396 0494 43010000 		.4byte	.LLST6
 3397 0498 07       		.uleb128 0x7
 3398 0499 08000000 		.4byte	.LVL77
 3399 049d FA010000 		.4byte	0x1fa
 3400 04a1 09       		.uleb128 0x9
 3401 04a2 0E000000 		.4byte	.LVL78
 3402 04a6 2C130000 		.4byte	0x132c
 3403 04aa B5040000 		.4byte	0x4b5
 3404 04ae 0A       		.uleb128 0xa
 3405 04af 01       		.uleb128 0x1
 3406 04b0 50       		.byte	0x50
 3407 04b1 02       		.uleb128 0x2
 3408 04b2 08       		.byte	0x8
 3409 04b3 32       		.byte	0x32
 3410 04b4 00       		.byte	0
 3411 04b5 09       		.uleb128 0x9
 3412 04b6 16000000 		.4byte	.LVL79
 3413 04ba 37130000 		.4byte	0x1337
 3414 04be C8040000 		.4byte	0x4c8
 3415 04c2 0A       		.uleb128 0xa
 3416 04c3 01       		.uleb128 0x1
 3417 04c4 50       		.byte	0x50
 3418 04c5 01       		.uleb128 0x1
 3419 04c6 31       		.byte	0x31
 3420 04c7 00       		.byte	0
 3421 04c8 09       		.uleb128 0x9
 3422 04c9 1C000000 		.4byte	.LVL80
 3423 04cd 42130000 		.4byte	0x1342
 3424 04d1 DB040000 		.4byte	0x4db
ARM GAS  C:\Users\weiro\AppData\Local\Temp\ccS229OV.s 			page 77


 3425 04d5 0A       		.uleb128 0xa
 3426 04d6 01       		.uleb128 0x1
 3427 04d7 50       		.byte	0x50
 3428 04d8 01       		.uleb128 0x1
 3429 04d9 3A       		.byte	0x3a
 3430 04da 00       		.byte	0
 3431 04db 09       		.uleb128 0x9
 3432 04dc 22000000 		.4byte	.LVL81
 3433 04e0 37130000 		.4byte	0x1337
 3434 04e4 EE040000 		.4byte	0x4ee
 3435 04e8 0A       		.uleb128 0xa
 3436 04e9 01       		.uleb128 0x1
 3437 04ea 50       		.byte	0x50
 3438 04eb 01       		.uleb128 0x1
 3439 04ec 30       		.byte	0x30
 3440 04ed 00       		.byte	0
 3441 04ee 07       		.uleb128 0x7
 3442 04ef 26000000 		.4byte	.LVL82
 3443 04f3 4D130000 		.4byte	0x134d
 3444 04f7 07       		.uleb128 0x7
 3445 04f8 36000000 		.4byte	.LVL83
 3446 04fc 98010000 		.4byte	0x198
 3447 0500 07       		.uleb128 0x7
 3448 0501 3A000000 		.4byte	.LVL84
 3449 0505 16130000 		.4byte	0x1316
 3450 0509 07       		.uleb128 0x7
 3451 050a 40000000 		.4byte	.LVL85
 3452 050e 21130000 		.4byte	0x1321
 3453 0512 07       		.uleb128 0x7
 3454 0513 D2000000 		.4byte	.LVL104
 3455 0517 7A030000 		.4byte	0x37a
 3456 051b 00       		.byte	0
 3457 051c 11       		.uleb128 0x11
 3458 051d 78020000 		.4byte	.LASF34
 3459 0521 01       		.byte	0x1
 3460 0522 5B01     		.2byte	0x15b
 3461 0524 00000000 		.4byte	.LFB76
 3462 0528 F0000000 		.4byte	.LFE76-.LFB76
 3463 052c 01       		.uleb128 0x1
 3464 052d 9C       		.byte	0x9c
 3465 052e D6050000 		.4byte	0x5d6
 3466 0532 10       		.uleb128 0x10
 3467 0533 F4070000 		.4byte	.LASF30
 3468 0537 01       		.byte	0x1
 3469 0538 5D01     		.2byte	0x15d
 3470 053a 25000000 		.4byte	0x25
 3471 053e 8B010000 		.4byte	.LLST7
 3472 0542 10       		.uleb128 0x10
 3473 0543 64060000 		.4byte	.LASF31
 3474 0547 01       		.byte	0x1
 3475 0548 5D01     		.2byte	0x15d
 3476 054a 25000000 		.4byte	0x25
 3477 054e D3010000 		.4byte	.LLST8
 3478 0552 07       		.uleb128 0x7
 3479 0553 08000000 		.4byte	.LVL105
 3480 0557 FA010000 		.4byte	0x1fa
 3481 055b 09       		.uleb128 0x9
ARM GAS  C:\Users\weiro\AppData\Local\Temp\ccS229OV.s 			page 78


 3482 055c 0E000000 		.4byte	.LVL106
 3483 0560 2C130000 		.4byte	0x132c
 3484 0564 6F050000 		.4byte	0x56f
 3485 0568 0A       		.uleb128 0xa
 3486 0569 01       		.uleb128 0x1
 3487 056a 50       		.byte	0x50
 3488 056b 02       		.uleb128 0x2
 3489 056c 08       		.byte	0x8
 3490 056d 32       		.byte	0x32
 3491 056e 00       		.byte	0
 3492 056f 09       		.uleb128 0x9
 3493 0570 16000000 		.4byte	.LVL107
 3494 0574 58130000 		.4byte	0x1358
 3495 0578 82050000 		.4byte	0x582
 3496 057c 0A       		.uleb128 0xa
 3497 057d 01       		.uleb128 0x1
 3498 057e 50       		.byte	0x50
 3499 057f 01       		.uleb128 0x1
 3500 0580 31       		.byte	0x31
 3501 0581 00       		.byte	0
 3502 0582 09       		.uleb128 0x9
 3503 0583 1C000000 		.4byte	.LVL108
 3504 0587 42130000 		.4byte	0x1342
 3505 058b 95050000 		.4byte	0x595
 3506 058f 0A       		.uleb128 0xa
 3507 0590 01       		.uleb128 0x1
 3508 0591 50       		.byte	0x50
 3509 0592 01       		.uleb128 0x1
 3510 0593 3A       		.byte	0x3a
 3511 0594 00       		.byte	0
 3512 0595 09       		.uleb128 0x9
 3513 0596 22000000 		.4byte	.LVL109
 3514 059a 58130000 		.4byte	0x1358
 3515 059e A8050000 		.4byte	0x5a8
 3516 05a2 0A       		.uleb128 0xa
 3517 05a3 01       		.uleb128 0x1
 3518 05a4 50       		.byte	0x50
 3519 05a5 01       		.uleb128 0x1
 3520 05a6 30       		.byte	0x30
 3521 05a7 00       		.byte	0
 3522 05a8 07       		.uleb128 0x7
 3523 05a9 26000000 		.4byte	.LVL110
 3524 05ad 63130000 		.4byte	0x1363
 3525 05b1 07       		.uleb128 0x7
 3526 05b2 36000000 		.4byte	.LVL111
 3527 05b6 98010000 		.4byte	0x198
 3528 05ba 07       		.uleb128 0x7
 3529 05bb 3A000000 		.4byte	.LVL112
 3530 05bf 16130000 		.4byte	0x1316
 3531 05c3 07       		.uleb128 0x7
 3532 05c4 40000000 		.4byte	.LVL113
 3533 05c8 21130000 		.4byte	0x1321
 3534 05cc 07       		.uleb128 0x7
 3535 05cd D2000000 		.4byte	.LVL132
 3536 05d1 7A030000 		.4byte	0x37a
 3537 05d5 00       		.byte	0
 3538 05d6 11       		.uleb128 0x11
ARM GAS  C:\Users\weiro\AppData\Local\Temp\ccS229OV.s 			page 79


 3539 05d7 C4060000 		.4byte	.LASF35
 3540 05db 01       		.byte	0x1
 3541 05dc 8201     		.2byte	0x182
 3542 05de 00000000 		.4byte	.LFB77
 3543 05e2 D0000000 		.4byte	.LFE77-.LFB77
 3544 05e6 01       		.uleb128 0x1
 3545 05e7 9C       		.byte	0x9c
 3546 05e8 43060000 		.4byte	0x643
 3547 05ec 10       		.uleb128 0x10
 3548 05ed F4070000 		.4byte	.LASF30
 3549 05f1 01       		.byte	0x1
 3550 05f2 8401     		.2byte	0x184
 3551 05f4 25000000 		.4byte	0x25
 3552 05f8 1B020000 		.4byte	.LLST9
 3553 05fc 10       		.uleb128 0x10
 3554 05fd 64060000 		.4byte	.LASF31
 3555 0601 01       		.byte	0x1
 3556 0602 8401     		.2byte	0x184
 3557 0604 25000000 		.4byte	0x25
 3558 0608 63020000 		.4byte	.LLST10
 3559 060c 07       		.uleb128 0x7
 3560 060d 08000000 		.4byte	.LVL133
 3561 0611 FA010000 		.4byte	0x1fa
 3562 0615 07       		.uleb128 0x7
 3563 0616 0C000000 		.4byte	.LVL134
 3564 061a 6E130000 		.4byte	0x136e
 3565 061e 07       		.uleb128 0x7
 3566 061f 14000000 		.4byte	.LVL135
 3567 0623 98010000 		.4byte	0x198
 3568 0627 07       		.uleb128 0x7
 3569 0628 18000000 		.4byte	.LVL136
 3570 062c 16130000 		.4byte	0x1316
 3571 0630 07       		.uleb128 0x7
 3572 0631 1E000000 		.4byte	.LVL137
 3573 0635 21130000 		.4byte	0x1321
 3574 0639 07       		.uleb128 0x7
 3575 063a B0000000 		.4byte	.LVL156
 3576 063e 7A030000 		.4byte	0x37a
 3577 0642 00       		.byte	0
 3578 0643 0E       		.uleb128 0xe
 3579 0644 4B080000 		.4byte	.LASF36
 3580 0648 01       		.byte	0x1
 3581 0649 A201     		.2byte	0x1a2
 3582 064b 00000000 		.4byte	.LFB78
 3583 064f 58010000 		.4byte	.LFE78-.LFB78
 3584 0653 01       		.uleb128 0x1
 3585 0654 9C       		.byte	0x9c
 3586 0655 43070000 		.4byte	0x743
 3587 0659 0F       		.uleb128 0xf
 3588 065a 76030000 		.4byte	.LASF32
 3589 065e 01       		.byte	0x1
 3590 065f A201     		.2byte	0x1a2
 3591 0661 6F000000 		.4byte	0x6f
 3592 0665 AB020000 		.4byte	.LLST11
 3593 0669 0F       		.uleb128 0xf
 3594 066a CE060000 		.4byte	.LASF29
 3595 066e 01       		.byte	0x1
ARM GAS  C:\Users\weiro\AppData\Local\Temp\ccS229OV.s 			page 80


 3596 066f A201     		.2byte	0x1a2
 3597 0671 6F000000 		.4byte	0x6f
 3598 0675 D7020000 		.4byte	.LLST12
 3599 0679 10       		.uleb128 0x10
 3600 067a F4070000 		.4byte	.LASF30
 3601 067e 01       		.byte	0x1
 3602 067f A401     		.2byte	0x1a4
 3603 0681 25000000 		.4byte	0x25
 3604 0685 03030000 		.4byte	.LLST13
 3605 0689 10       		.uleb128 0x10
 3606 068a 64060000 		.4byte	.LASF31
 3607 068e 01       		.byte	0x1
 3608 068f A401     		.2byte	0x1a4
 3609 0691 25000000 		.4byte	0x25
 3610 0695 4B030000 		.4byte	.LLST14
 3611 0699 09       		.uleb128 0x9
 3612 069a 28000000 		.4byte	.LVL159
 3613 069e B3120000 		.4byte	0x12b3
 3614 06a2 AD060000 		.4byte	0x6ad
 3615 06a6 0A       		.uleb128 0xa
 3616 06a7 01       		.uleb128 0x1
 3617 06a8 50       		.byte	0x50
 3618 06a9 02       		.uleb128 0x2
 3619 06aa 77       		.byte	0x77
 3620 06ab 00       		.sleb128 0
 3621 06ac 00       		.byte	0
 3622 06ad 07       		.uleb128 0x7
 3623 06ae 2E000000 		.4byte	.LVL160
 3624 06b2 16130000 		.4byte	0x1316
 3625 06b6 07       		.uleb128 0x7
 3626 06b7 36000000 		.4byte	.LVL161
 3627 06bb 21130000 		.4byte	0x1321
 3628 06bf 07       		.uleb128 0x7
 3629 06c0 40000000 		.4byte	.LVL162
 3630 06c4 FA010000 		.4byte	0x1fa
 3631 06c8 07       		.uleb128 0x7
 3632 06c9 46000000 		.4byte	.LVL163
 3633 06cd 5A020000 		.4byte	0x25a
 3634 06d1 09       		.uleb128 0x9
 3635 06d2 4C000000 		.4byte	.LVL164
 3636 06d6 2C130000 		.4byte	0x132c
 3637 06da E5060000 		.4byte	0x6e5
 3638 06de 0A       		.uleb128 0xa
 3639 06df 01       		.uleb128 0x1
 3640 06e0 50       		.byte	0x50
 3641 06e1 02       		.uleb128 0x2
 3642 06e2 08       		.byte	0x8
 3643 06e3 32       		.byte	0x32
 3644 06e4 00       		.byte	0
 3645 06e5 09       		.uleb128 0x9
 3646 06e6 54000000 		.4byte	.LVL165
 3647 06ea 37130000 		.4byte	0x1337
 3648 06ee F8060000 		.4byte	0x6f8
 3649 06f2 0A       		.uleb128 0xa
 3650 06f3 01       		.uleb128 0x1
 3651 06f4 50       		.byte	0x50
 3652 06f5 01       		.uleb128 0x1
ARM GAS  C:\Users\weiro\AppData\Local\Temp\ccS229OV.s 			page 81


 3653 06f6 31       		.byte	0x31
 3654 06f7 00       		.byte	0
 3655 06f8 09       		.uleb128 0x9
 3656 06f9 5A000000 		.4byte	.LVL166
 3657 06fd 42130000 		.4byte	0x1342
 3658 0701 0B070000 		.4byte	0x70b
 3659 0705 0A       		.uleb128 0xa
 3660 0706 01       		.uleb128 0x1
 3661 0707 50       		.byte	0x50
 3662 0708 01       		.uleb128 0x1
 3663 0709 3A       		.byte	0x3a
 3664 070a 00       		.byte	0
 3665 070b 09       		.uleb128 0x9
 3666 070c 60000000 		.4byte	.LVL167
 3667 0710 37130000 		.4byte	0x1337
 3668 0714 1E070000 		.4byte	0x71e
 3669 0718 0A       		.uleb128 0xa
 3670 0719 01       		.uleb128 0x1
 3671 071a 50       		.byte	0x50
 3672 071b 01       		.uleb128 0x1
 3673 071c 30       		.byte	0x30
 3674 071d 00       		.byte	0
 3675 071e 07       		.uleb128 0x7
 3676 071f 64000000 		.4byte	.LVL168
 3677 0723 4D130000 		.4byte	0x134d
 3678 0727 07       		.uleb128 0x7
 3679 0728 90000000 		.4byte	.LVL169
 3680 072c 98010000 		.4byte	0x198
 3681 0730 07       		.uleb128 0x7
 3682 0731 94000000 		.4byte	.LVL170
 3683 0735 16130000 		.4byte	0x1316
 3684 0739 07       		.uleb128 0x7
 3685 073a 9A000000 		.4byte	.LVL171
 3686 073e 21130000 		.4byte	0x1321
 3687 0742 00       		.byte	0
 3688 0743 0E       		.uleb128 0xe
 3689 0744 54080000 		.4byte	.LASF37
 3690 0748 01       		.byte	0x1
 3691 0749 DE01     		.2byte	0x1de
 3692 074b 00000000 		.4byte	.LFB79
 3693 074f 30010000 		.4byte	.LFE79-.LFB79
 3694 0753 01       		.uleb128 0x1
 3695 0754 9C       		.byte	0x9c
 3696 0755 3C080000 		.4byte	0x83c
 3697 0759 0F       		.uleb128 0xf
 3698 075a 76030000 		.4byte	.LASF32
 3699 075e 01       		.byte	0x1
 3700 075f DE01     		.2byte	0x1de
 3701 0761 6F000000 		.4byte	0x6f
 3702 0765 93030000 		.4byte	.LLST15
 3703 0769 0F       		.uleb128 0xf
 3704 076a CE060000 		.4byte	.LASF29
 3705 076e 01       		.byte	0x1
 3706 076f DE01     		.2byte	0x1de
 3707 0771 6F000000 		.4byte	0x6f
 3708 0775 BF030000 		.4byte	.LLST16
 3709 0779 10       		.uleb128 0x10
ARM GAS  C:\Users\weiro\AppData\Local\Temp\ccS229OV.s 			page 82


 3710 077a F4070000 		.4byte	.LASF30
 3711 077e 01       		.byte	0x1
 3712 077f E001     		.2byte	0x1e0
 3713 0781 25000000 		.4byte	0x25
 3714 0785 EB030000 		.4byte	.LLST17
 3715 0789 10       		.uleb128 0x10
 3716 078a 64060000 		.4byte	.LASF31
 3717 078e 01       		.byte	0x1
 3718 078f E001     		.2byte	0x1e0
 3719 0791 25000000 		.4byte	0x25
 3720 0795 33040000 		.4byte	.LLST18
 3721 0799 12       		.uleb128 0x12
 3722 079a 14050000 		.4byte	.LASF38
 3723 079e 01       		.byte	0x1
 3724 079f E101     		.2byte	0x1e1
 3725 07a1 6F000000 		.4byte	0x6f
 3726 07a5 00       		.byte	0
 3727 07a6 07       		.uleb128 0x7
 3728 07a7 0C000000 		.4byte	.LVL194
 3729 07ab 16130000 		.4byte	0x1316
 3730 07af 07       		.uleb128 0x7
 3731 07b0 14000000 		.4byte	.LVL195
 3732 07b4 21130000 		.4byte	0x1321
 3733 07b8 07       		.uleb128 0x7
 3734 07b9 1E000000 		.4byte	.LVL196
 3735 07bd FA010000 		.4byte	0x1fa
 3736 07c1 07       		.uleb128 0x7
 3737 07c2 24000000 		.4byte	.LVL197
 3738 07c6 5A020000 		.4byte	0x25a
 3739 07ca 09       		.uleb128 0x9
 3740 07cb 2A000000 		.4byte	.LVL198
 3741 07cf 2C130000 		.4byte	0x132c
 3742 07d3 DE070000 		.4byte	0x7de
 3743 07d7 0A       		.uleb128 0xa
 3744 07d8 01       		.uleb128 0x1
 3745 07d9 50       		.byte	0x50
 3746 07da 02       		.uleb128 0x2
 3747 07db 08       		.byte	0x8
 3748 07dc 32       		.byte	0x32
 3749 07dd 00       		.byte	0
 3750 07de 09       		.uleb128 0x9
 3751 07df 32000000 		.4byte	.LVL199
 3752 07e3 79130000 		.4byte	0x1379
 3753 07e7 F1070000 		.4byte	0x7f1
 3754 07eb 0A       		.uleb128 0xa
 3755 07ec 01       		.uleb128 0x1
 3756 07ed 50       		.byte	0x50
 3757 07ee 01       		.uleb128 0x1
 3758 07ef 31       		.byte	0x31
 3759 07f0 00       		.byte	0
 3760 07f1 09       		.uleb128 0x9
 3761 07f2 38000000 		.4byte	.LVL200
 3762 07f6 42130000 		.4byte	0x1342
 3763 07fa 04080000 		.4byte	0x804
 3764 07fe 0A       		.uleb128 0xa
 3765 07ff 01       		.uleb128 0x1
 3766 0800 50       		.byte	0x50
ARM GAS  C:\Users\weiro\AppData\Local\Temp\ccS229OV.s 			page 83


 3767 0801 01       		.uleb128 0x1
 3768 0802 3A       		.byte	0x3a
 3769 0803 00       		.byte	0
 3770 0804 09       		.uleb128 0x9
 3771 0805 3E000000 		.4byte	.LVL201
 3772 0809 79130000 		.4byte	0x1379
 3773 080d 17080000 		.4byte	0x817
 3774 0811 0A       		.uleb128 0xa
 3775 0812 01       		.uleb128 0x1
 3776 0813 50       		.byte	0x50
 3777 0814 01       		.uleb128 0x1
 3778 0815 30       		.byte	0x30
 3779 0816 00       		.byte	0
 3780 0817 07       		.uleb128 0x7
 3781 0818 42000000 		.4byte	.LVL202
 3782 081c 84130000 		.4byte	0x1384
 3783 0820 07       		.uleb128 0x7
 3784 0821 74000000 		.4byte	.LVL204
 3785 0825 98010000 		.4byte	0x198
 3786 0829 07       		.uleb128 0x7
 3787 082a 78000000 		.4byte	.LVL205
 3788 082e 16130000 		.4byte	0x1316
 3789 0832 07       		.uleb128 0x7
 3790 0833 7E000000 		.4byte	.LVL206
 3791 0837 21130000 		.4byte	0x1321
 3792 083b 00       		.byte	0
 3793 083c 0E       		.uleb128 0xe
 3794 083d 5D080000 		.4byte	.LASF39
 3795 0841 01       		.byte	0x1
 3796 0842 1502     		.2byte	0x215
 3797 0844 00000000 		.4byte	.LFB80
 3798 0848 00010000 		.4byte	.LFE80-.LFB80
 3799 084c 01       		.uleb128 0x1
 3800 084d 9C       		.byte	0x9c
 3801 084e E8080000 		.4byte	0x8e8
 3802 0852 0F       		.uleb128 0xf
 3803 0853 76030000 		.4byte	.LASF32
 3804 0857 01       		.byte	0x1
 3805 0858 1502     		.2byte	0x215
 3806 085a 6F000000 		.4byte	0x6f
 3807 085e 7B040000 		.4byte	.LLST19
 3808 0862 0F       		.uleb128 0xf
 3809 0863 CE060000 		.4byte	.LASF29
 3810 0867 01       		.byte	0x1
 3811 0868 1502     		.2byte	0x215
 3812 086a 6F000000 		.4byte	0x6f
 3813 086e A7040000 		.4byte	.LLST20
 3814 0872 10       		.uleb128 0x10
 3815 0873 F4070000 		.4byte	.LASF30
 3816 0877 01       		.byte	0x1
 3817 0878 1702     		.2byte	0x217
 3818 087a 25000000 		.4byte	0x25
 3819 087e D3040000 		.4byte	.LLST21
 3820 0882 10       		.uleb128 0x10
 3821 0883 64060000 		.4byte	.LASF31
 3822 0887 01       		.byte	0x1
 3823 0888 1702     		.2byte	0x217
ARM GAS  C:\Users\weiro\AppData\Local\Temp\ccS229OV.s 			page 84


 3824 088a 25000000 		.4byte	0x25
 3825 088e 1B050000 		.4byte	.LLST22
 3826 0892 12       		.uleb128 0x12
 3827 0893 14050000 		.4byte	.LASF38
 3828 0897 01       		.byte	0x1
 3829 0898 1802     		.2byte	0x218
 3830 089a 6F000000 		.4byte	0x6f
 3831 089e 00       		.byte	0
 3832 089f 07       		.uleb128 0x7
 3833 08a0 0C000000 		.4byte	.LVL229
 3834 08a4 16130000 		.4byte	0x1316
 3835 08a8 07       		.uleb128 0x7
 3836 08a9 14000000 		.4byte	.LVL230
 3837 08ad 21130000 		.4byte	0x1321
 3838 08b1 07       		.uleb128 0x7
 3839 08b2 1E000000 		.4byte	.LVL231
 3840 08b6 FA010000 		.4byte	0x1fa
 3841 08ba 07       		.uleb128 0x7
 3842 08bb 24000000 		.4byte	.LVL232
 3843 08bf 5A020000 		.4byte	0x25a
 3844 08c3 07       		.uleb128 0x7
 3845 08c4 44000000 		.4byte	.LVL233
 3846 08c8 6E130000 		.4byte	0x136e
 3847 08cc 07       		.uleb128 0x7
 3848 08cd 4C000000 		.4byte	.LVL234
 3849 08d1 98010000 		.4byte	0x198
 3850 08d5 07       		.uleb128 0x7
 3851 08d6 50000000 		.4byte	.LVL235
 3852 08da 16130000 		.4byte	0x1316
 3853 08de 07       		.uleb128 0x7
 3854 08df 56000000 		.4byte	.LVL236
 3855 08e3 21130000 		.4byte	0x1321
 3856 08e7 00       		.byte	0
 3857 08e8 13       		.uleb128 0x13
 3858 08e9 435700   		.ascii	"CW\000"
 3859 08ec 01       		.byte	0x1
 3860 08ed 4502     		.2byte	0x245
 3861 08ef 00000000 		.4byte	.LFB81
 3862 08f3 80000000 		.4byte	.LFE81-.LFB81
 3863 08f7 01       		.uleb128 0x1
 3864 08f8 9C       		.byte	0x9c
 3865 08f9 54090000 		.4byte	0x954
 3866 08fd 0F       		.uleb128 0xf
 3867 08fe 12020000 		.4byte	.LASF40
 3868 0902 01       		.byte	0x1
 3869 0903 4502     		.2byte	0x245
 3870 0905 6F000000 		.4byte	0x6f
 3871 0909 63050000 		.4byte	.LLST23
 3872 090d 0F       		.uleb128 0xf
 3873 090e FA040000 		.4byte	.LASF41
 3874 0912 01       		.byte	0x1
 3875 0913 4502     		.2byte	0x245
 3876 0915 6F000000 		.4byte	0x6f
 3877 0919 8F050000 		.4byte	.LLST24
 3878 091d 07       		.uleb128 0x7
 3879 091e 0C000000 		.4byte	.LVL258
 3880 0922 16130000 		.4byte	0x1316
ARM GAS  C:\Users\weiro\AppData\Local\Temp\ccS229OV.s 			page 85


 3881 0926 07       		.uleb128 0x7
 3882 0927 14000000 		.4byte	.LVL259
 3883 092b 21130000 		.4byte	0x1321
 3884 092f 07       		.uleb128 0x7
 3885 0930 1E000000 		.4byte	.LVL260
 3886 0934 1A030000 		.4byte	0x31a
 3887 0938 07       		.uleb128 0x7
 3888 0939 24000000 		.4byte	.LVL261
 3889 093d BA020000 		.4byte	0x2ba
 3890 0941 07       		.uleb128 0x7
 3891 0942 44000000 		.4byte	.LVL262
 3892 0946 98010000 		.4byte	0x198
 3893 094a 07       		.uleb128 0x7
 3894 094b 78000000 		.4byte	.LVL263
 3895 094f 7A030000 		.4byte	0x37a
 3896 0953 00       		.byte	0
 3897 0954 0D       		.uleb128 0xd
 3898 0955 0F070000 		.4byte	.LASF42
 3899 0959 01       		.byte	0x1
 3900 095a 6F02     		.2byte	0x26f
 3901 095c 00000000 		.4byte	.LFB82
 3902 0960 38010000 		.4byte	.LFE82-.LFB82
 3903 0964 01       		.uleb128 0x1
 3904 0965 9C       		.byte	0x9c
 3905 0966 0F0C0000 		.4byte	0xc0f
 3906 096a 10       		.uleb128 0x10
 3907 096b 43010000 		.4byte	.LASF43
 3908 096f 01       		.byte	0x1
 3909 0970 7102     		.2byte	0x271
 3910 0972 6F000000 		.4byte	0x6f
 3911 0976 BB050000 		.4byte	.LLST25
 3912 097a 10       		.uleb128 0x10
 3913 097b A3000000 		.4byte	.LASF44
 3914 097f 01       		.byte	0x1
 3915 0980 7202     		.2byte	0x272
 3916 0982 6F000000 		.4byte	0x6f
 3917 0986 F3050000 		.4byte	.LLST26
 3918 098a 10       		.uleb128 0x10
 3919 098b 8C010000 		.4byte	.LASF45
 3920 098f 01       		.byte	0x1
 3921 0990 7302     		.2byte	0x273
 3922 0992 6F000000 		.4byte	0x6f
 3923 0996 28060000 		.4byte	.LLST27
 3924 099a 10       		.uleb128 0x10
 3925 099b 63010000 		.4byte	.LASF46
 3926 099f 01       		.byte	0x1
 3927 09a0 7402     		.2byte	0x274
 3928 09a2 6F000000 		.4byte	0x6f
 3929 09a6 5D060000 		.4byte	.LLST28
 3930 09aa 09       		.uleb128 0x9
 3931 09ab 08000000 		.4byte	.LVL266
 3932 09af 8F130000 		.4byte	0x138f
 3933 09b3 BD090000 		.4byte	0x9bd
 3934 09b7 0A       		.uleb128 0xa
 3935 09b8 01       		.uleb128 0x1
 3936 09b9 50       		.byte	0x50
 3937 09ba 01       		.uleb128 0x1
ARM GAS  C:\Users\weiro\AppData\Local\Temp\ccS229OV.s 			page 86


 3938 09bb 31       		.byte	0x31
 3939 09bc 00       		.byte	0
 3940 09bd 09       		.uleb128 0x9
 3941 09be 14000000 		.4byte	.LVL267
 3942 09c2 9A130000 		.4byte	0x139a
 3943 09c6 D1090000 		.4byte	0x9d1
 3944 09ca 0A       		.uleb128 0xa
 3945 09cb 01       		.uleb128 0x1
 3946 09cc 50       		.byte	0x50
 3947 09cd 02       		.uleb128 0x2
 3948 09ce 74       		.byte	0x74
 3949 09cf 00       		.sleb128 0
 3950 09d0 00       		.byte	0
 3951 09d1 09       		.uleb128 0x9
 3952 09d2 1A000000 		.4byte	.LVL268
 3953 09d6 A5130000 		.4byte	0x13a5
 3954 09da E5090000 		.4byte	0x9e5
 3955 09de 0A       		.uleb128 0xa
 3956 09df 01       		.uleb128 0x1
 3957 09e0 50       		.byte	0x50
 3958 09e1 02       		.uleb128 0x2
 3959 09e2 74       		.byte	0x74
 3960 09e3 00       		.sleb128 0
 3961 09e4 00       		.byte	0
 3962 09e5 09       		.uleb128 0x9
 3963 09e6 20000000 		.4byte	.LVL269
 3964 09ea 2C130000 		.4byte	0x132c
 3965 09ee F8090000 		.4byte	0x9f8
 3966 09f2 0A       		.uleb128 0xa
 3967 09f3 01       		.uleb128 0x1
 3968 09f4 50       		.byte	0x50
 3969 09f5 01       		.uleb128 0x1
 3970 09f6 44       		.byte	0x44
 3971 09f7 00       		.byte	0
 3972 09f8 09       		.uleb128 0x9
 3973 09f9 26000000 		.4byte	.LVL270
 3974 09fd B0130000 		.4byte	0x13b0
 3975 0a01 0B0A0000 		.4byte	0xa0b
 3976 0a05 0A       		.uleb128 0xa
 3977 0a06 01       		.uleb128 0x1
 3978 0a07 50       		.byte	0x50
 3979 0a08 01       		.uleb128 0x1
 3980 0a09 31       		.byte	0x31
 3981 0a0a 00       		.byte	0
 3982 0a0b 09       		.uleb128 0x9
 3983 0a0c 2C000000 		.4byte	.LVL271
 3984 0a10 2C130000 		.4byte	0x132c
 3985 0a14 1E0A0000 		.4byte	0xa1e
 3986 0a18 0A       		.uleb128 0xa
 3987 0a19 01       		.uleb128 0x1
 3988 0a1a 50       		.byte	0x50
 3989 0a1b 01       		.uleb128 0x1
 3990 0a1c 31       		.byte	0x31
 3991 0a1d 00       		.byte	0
 3992 0a1e 09       		.uleb128 0x9
 3993 0a1f 32000000 		.4byte	.LVL272
 3994 0a23 B0130000 		.4byte	0x13b0
ARM GAS  C:\Users\weiro\AppData\Local\Temp\ccS229OV.s 			page 87


 3995 0a27 320A0000 		.4byte	0xa32
 3996 0a2b 0A       		.uleb128 0xa
 3997 0a2c 01       		.uleb128 0x1
 3998 0a2d 50       		.byte	0x50
 3999 0a2e 02       		.uleb128 0x2
 4000 0a2f 74       		.byte	0x74
 4001 0a30 00       		.sleb128 0
 4002 0a31 00       		.byte	0
 4003 0a32 07       		.uleb128 0x7
 4004 0a33 3E000000 		.4byte	.LVL273
 4005 0a37 BB130000 		.4byte	0x13bb
 4006 0a3b 09       		.uleb128 0x9
 4007 0a3c 4C000000 		.4byte	.LVL276
 4008 0a40 A8120000 		.4byte	0x12a8
 4009 0a44 5E0A0000 		.4byte	0xa5e
 4010 0a48 0A       		.uleb128 0xa
 4011 0a49 01       		.uleb128 0x1
 4012 0a4a 50       		.byte	0x50
 4013 0a4b 02       		.uleb128 0x2
 4014 0a4c 75       		.byte	0x75
 4015 0a4d 00       		.sleb128 0
 4016 0a4e 0A       		.uleb128 0xa
 4017 0a4f 01       		.uleb128 0x1
 4018 0a50 51       		.byte	0x51
 4019 0a51 05       		.uleb128 0x5
 4020 0a52 03       		.byte	0x3
 4021 0a53 40000000 		.4byte	.LC3
 4022 0a57 0A       		.uleb128 0xa
 4023 0a58 01       		.uleb128 0x1
 4024 0a59 52       		.byte	0x52
 4025 0a5a 02       		.uleb128 0x2
 4026 0a5b 74       		.byte	0x74
 4027 0a5c 00       		.sleb128 0
 4028 0a5d 00       		.byte	0
 4029 0a5e 09       		.uleb128 0x9
 4030 0a5f 52000000 		.4byte	.LVL277
 4031 0a63 B3120000 		.4byte	0x12b3
 4032 0a67 720A0000 		.4byte	0xa72
 4033 0a6b 0A       		.uleb128 0xa
 4034 0a6c 01       		.uleb128 0x1
 4035 0a6d 50       		.byte	0x50
 4036 0a6e 02       		.uleb128 0x2
 4037 0a6f 75       		.byte	0x75
 4038 0a70 00       		.sleb128 0
 4039 0a71 00       		.byte	0
 4040 0a72 09       		.uleb128 0x9
 4041 0a73 5E000000 		.4byte	.LVL278
 4042 0a77 9A130000 		.4byte	0x139a
 4043 0a7b 860A0000 		.4byte	0xa86
 4044 0a7f 0A       		.uleb128 0xa
 4045 0a80 01       		.uleb128 0x1
 4046 0a81 50       		.byte	0x50
 4047 0a82 02       		.uleb128 0x2
 4048 0a83 75       		.byte	0x75
 4049 0a84 00       		.sleb128 0
 4050 0a85 00       		.byte	0
 4051 0a86 09       		.uleb128 0x9
ARM GAS  C:\Users\weiro\AppData\Local\Temp\ccS229OV.s 			page 88


 4052 0a87 64000000 		.4byte	.LVL279
 4053 0a8b A5130000 		.4byte	0x13a5
 4054 0a8f 990A0000 		.4byte	0xa99
 4055 0a93 0A       		.uleb128 0xa
 4056 0a94 01       		.uleb128 0x1
 4057 0a95 50       		.byte	0x50
 4058 0a96 01       		.uleb128 0x1
 4059 0a97 31       		.byte	0x31
 4060 0a98 00       		.byte	0
 4061 0a99 09       		.uleb128 0x9
 4062 0a9a 6A000000 		.4byte	.LVL280
 4063 0a9e 2C130000 		.4byte	0x132c
 4064 0aa2 AC0A0000 		.4byte	0xaac
 4065 0aa6 0A       		.uleb128 0xa
 4066 0aa7 01       		.uleb128 0x1
 4067 0aa8 50       		.byte	0x50
 4068 0aa9 01       		.uleb128 0x1
 4069 0aaa 44       		.byte	0x44
 4070 0aab 00       		.byte	0
 4071 0aac 09       		.uleb128 0x9
 4072 0aad 70000000 		.4byte	.LVL281
 4073 0ab1 B0130000 		.4byte	0x13b0
 4074 0ab5 BF0A0000 		.4byte	0xabf
 4075 0ab9 0A       		.uleb128 0xa
 4076 0aba 01       		.uleb128 0x1
 4077 0abb 50       		.byte	0x50
 4078 0abc 01       		.uleb128 0x1
 4079 0abd 31       		.byte	0x31
 4080 0abe 00       		.byte	0
 4081 0abf 09       		.uleb128 0x9
 4082 0ac0 76000000 		.4byte	.LVL282
 4083 0ac4 2C130000 		.4byte	0x132c
 4084 0ac8 D20A0000 		.4byte	0xad2
 4085 0acc 0A       		.uleb128 0xa
 4086 0acd 01       		.uleb128 0x1
 4087 0ace 50       		.byte	0x50
 4088 0acf 01       		.uleb128 0x1
 4089 0ad0 31       		.byte	0x31
 4090 0ad1 00       		.byte	0
 4091 0ad2 09       		.uleb128 0x9
 4092 0ad3 7C000000 		.4byte	.LVL283
 4093 0ad7 B0130000 		.4byte	0x13b0
 4094 0adb E60A0000 		.4byte	0xae6
 4095 0adf 0A       		.uleb128 0xa
 4096 0ae0 01       		.uleb128 0x1
 4097 0ae1 50       		.byte	0x50
 4098 0ae2 02       		.uleb128 0x2
 4099 0ae3 75       		.byte	0x75
 4100 0ae4 00       		.sleb128 0
 4101 0ae5 00       		.byte	0
 4102 0ae6 07       		.uleb128 0x7
 4103 0ae7 88000000 		.4byte	.LVL284
 4104 0aeb BB130000 		.4byte	0x13bb
 4105 0aef 09       		.uleb128 0x9
 4106 0af0 96000000 		.4byte	.LVL287
 4107 0af4 A8120000 		.4byte	0x12a8
 4108 0af8 120B0000 		.4byte	0xb12
ARM GAS  C:\Users\weiro\AppData\Local\Temp\ccS229OV.s 			page 89


 4109 0afc 0A       		.uleb128 0xa
 4110 0afd 01       		.uleb128 0x1
 4111 0afe 50       		.byte	0x50
 4112 0aff 02       		.uleb128 0x2
 4113 0b00 75       		.byte	0x75
 4114 0b01 00       		.sleb128 0
 4115 0b02 0A       		.uleb128 0xa
 4116 0b03 01       		.uleb128 0x1
 4117 0b04 51       		.byte	0x51
 4118 0b05 05       		.uleb128 0x5
 4119 0b06 03       		.byte	0x3
 4120 0b07 4C000000 		.4byte	.LC4
 4121 0b0b 0A       		.uleb128 0xa
 4122 0b0c 01       		.uleb128 0x1
 4123 0b0d 52       		.byte	0x52
 4124 0b0e 02       		.uleb128 0x2
 4125 0b0f 76       		.byte	0x76
 4126 0b10 00       		.sleb128 0
 4127 0b11 00       		.byte	0
 4128 0b12 09       		.uleb128 0x9
 4129 0b13 9C000000 		.4byte	.LVL288
 4130 0b17 B3120000 		.4byte	0x12b3
 4131 0b1b 260B0000 		.4byte	0xb26
 4132 0b1f 0A       		.uleb128 0xa
 4133 0b20 01       		.uleb128 0x1
 4134 0b21 50       		.byte	0x50
 4135 0b22 02       		.uleb128 0x2
 4136 0b23 75       		.byte	0x75
 4137 0b24 00       		.sleb128 0
 4138 0b25 00       		.byte	0
 4139 0b26 09       		.uleb128 0x9
 4140 0b27 A8000000 		.4byte	.LVL289
 4141 0b2b 9A130000 		.4byte	0x139a
 4142 0b2f 390B0000 		.4byte	0xb39
 4143 0b33 0A       		.uleb128 0xa
 4144 0b34 01       		.uleb128 0x1
 4145 0b35 50       		.byte	0x50
 4146 0b36 01       		.uleb128 0x1
 4147 0b37 31       		.byte	0x31
 4148 0b38 00       		.byte	0
 4149 0b39 09       		.uleb128 0x9
 4150 0b3a AE000000 		.4byte	.LVL290
 4151 0b3e A5130000 		.4byte	0x13a5
 4152 0b42 4C0B0000 		.4byte	0xb4c
 4153 0b46 0A       		.uleb128 0xa
 4154 0b47 01       		.uleb128 0x1
 4155 0b48 50       		.byte	0x50
 4156 0b49 01       		.uleb128 0x1
 4157 0b4a 31       		.byte	0x31
 4158 0b4b 00       		.byte	0
 4159 0b4c 09       		.uleb128 0x9
 4160 0b4d B4000000 		.4byte	.LVL291
 4161 0b51 2C130000 		.4byte	0x132c
 4162 0b55 5F0B0000 		.4byte	0xb5f
 4163 0b59 0A       		.uleb128 0xa
 4164 0b5a 01       		.uleb128 0x1
 4165 0b5b 50       		.byte	0x50
ARM GAS  C:\Users\weiro\AppData\Local\Temp\ccS229OV.s 			page 90


 4166 0b5c 01       		.uleb128 0x1
 4167 0b5d 44       		.byte	0x44
 4168 0b5e 00       		.byte	0
 4169 0b5f 09       		.uleb128 0x9
 4170 0b60 BA000000 		.4byte	.LVL292
 4171 0b64 B0130000 		.4byte	0x13b0
 4172 0b68 720B0000 		.4byte	0xb72
 4173 0b6c 0A       		.uleb128 0xa
 4174 0b6d 01       		.uleb128 0x1
 4175 0b6e 50       		.byte	0x50
 4176 0b6f 01       		.uleb128 0x1
 4177 0b70 31       		.byte	0x31
 4178 0b71 00       		.byte	0
 4179 0b72 09       		.uleb128 0x9
 4180 0b73 C0000000 		.4byte	.LVL293
 4181 0b77 2C130000 		.4byte	0x132c
 4182 0b7b 850B0000 		.4byte	0xb85
 4183 0b7f 0A       		.uleb128 0xa
 4184 0b80 01       		.uleb128 0x1
 4185 0b81 50       		.byte	0x50
 4186 0b82 01       		.uleb128 0x1
 4187 0b83 31       		.byte	0x31
 4188 0b84 00       		.byte	0
 4189 0b85 09       		.uleb128 0x9
 4190 0b86 C6000000 		.4byte	.LVL294
 4191 0b8a B0130000 		.4byte	0x13b0
 4192 0b8e 990B0000 		.4byte	0xb99
 4193 0b92 0A       		.uleb128 0xa
 4194 0b93 01       		.uleb128 0x1
 4195 0b94 50       		.byte	0x50
 4196 0b95 02       		.uleb128 0x2
 4197 0b96 75       		.byte	0x75
 4198 0b97 00       		.sleb128 0
 4199 0b98 00       		.byte	0
 4200 0b99 07       		.uleb128 0x7
 4201 0b9a D2000000 		.4byte	.LVL295
 4202 0b9e BB130000 		.4byte	0x13bb
 4203 0ba2 09       		.uleb128 0x9
 4204 0ba3 E0000000 		.4byte	.LVL298
 4205 0ba7 A8120000 		.4byte	0x12a8
 4206 0bab C50B0000 		.4byte	0xbc5
 4207 0baf 0A       		.uleb128 0xa
 4208 0bb0 01       		.uleb128 0x1
 4209 0bb1 50       		.byte	0x50
 4210 0bb2 02       		.uleb128 0x2
 4211 0bb3 77       		.byte	0x77
 4212 0bb4 00       		.sleb128 0
 4213 0bb5 0A       		.uleb128 0xa
 4214 0bb6 01       		.uleb128 0x1
 4215 0bb7 51       		.byte	0x51
 4216 0bb8 05       		.uleb128 0x5
 4217 0bb9 03       		.byte	0x3
 4218 0bba 58000000 		.4byte	.LC5
 4219 0bbe 0A       		.uleb128 0xa
 4220 0bbf 01       		.uleb128 0x1
 4221 0bc0 52       		.byte	0x52
 4222 0bc1 02       		.uleb128 0x2
ARM GAS  C:\Users\weiro\AppData\Local\Temp\ccS229OV.s 			page 91


 4223 0bc2 75       		.byte	0x75
 4224 0bc3 00       		.sleb128 0
 4225 0bc4 00       		.byte	0
 4226 0bc5 09       		.uleb128 0x9
 4227 0bc6 E6000000 		.4byte	.LVL299
 4228 0bca B3120000 		.4byte	0x12b3
 4229 0bce D90B0000 		.4byte	0xbd9
 4230 0bd2 0A       		.uleb128 0xa
 4231 0bd3 01       		.uleb128 0x1
 4232 0bd4 50       		.byte	0x50
 4233 0bd5 02       		.uleb128 0x2
 4234 0bd6 77       		.byte	0x77
 4235 0bd7 00       		.sleb128 0
 4236 0bd8 00       		.byte	0
 4237 0bd9 09       		.uleb128 0x9
 4238 0bda F8000000 		.4byte	.LVL300
 4239 0bde C6130000 		.4byte	0x13c6
 4240 0be2 EC0B0000 		.4byte	0xbec
 4241 0be6 0A       		.uleb128 0xa
 4242 0be7 01       		.uleb128 0x1
 4243 0be8 50       		.byte	0x50
 4244 0be9 01       		.uleb128 0x1
 4245 0bea 31       		.byte	0x31
 4246 0beb 00       		.byte	0
 4247 0bec 09       		.uleb128 0x9
 4248 0bed 0C010000 		.4byte	.LVL301
 4249 0bf1 D1130000 		.4byte	0x13d1
 4250 0bf5 FF0B0000 		.4byte	0xbff
 4251 0bf9 0A       		.uleb128 0xa
 4252 0bfa 01       		.uleb128 0x1
 4253 0bfb 50       		.byte	0x50
 4254 0bfc 01       		.uleb128 0x1
 4255 0bfd 31       		.byte	0x31
 4256 0bfe 00       		.byte	0
 4257 0bff 0B       		.uleb128 0xb
 4258 0c00 20010000 		.4byte	.LVL302
 4259 0c04 DC130000 		.4byte	0x13dc
 4260 0c08 0A       		.uleb128 0xa
 4261 0c09 01       		.uleb128 0x1
 4262 0c0a 50       		.byte	0x50
 4263 0c0b 01       		.uleb128 0x1
 4264 0c0c 31       		.byte	0x31
 4265 0c0d 00       		.byte	0
 4266 0c0e 00       		.byte	0
 4267 0c0f 14       		.uleb128 0x14
 4268 0c10 A4080000 		.4byte	.LASF147
 4269 0c14 01       		.byte	0x1
 4270 0c15 BF02     		.2byte	0x2bf
 4271 0c17 6F000000 		.4byte	0x6f
 4272 0c1b 00000000 		.4byte	.LFB83
 4273 0c1f 80020000 		.4byte	.LFE83-.LFB83
 4274 0c23 01       		.uleb128 0x1
 4275 0c24 9C       		.byte	0x9c
 4276 0c25 800F0000 		.4byte	0xf80
 4277 0c29 12       		.uleb128 0x12
 4278 0c2a CE060000 		.4byte	.LASF29
 4279 0c2e 01       		.byte	0x1
ARM GAS  C:\Users\weiro\AppData\Local\Temp\ccS229OV.s 			page 92


 4280 0c2f E002     		.2byte	0x2e0
 4281 0c31 6F000000 		.4byte	0x6f
 4282 0c35 01       		.byte	0x1
 4283 0c36 10       		.uleb128 0x10
 4284 0c37 FA040000 		.4byte	.LASF41
 4285 0c3b 01       		.byte	0x1
 4286 0c3c E102     		.2byte	0x2e1
 4287 0c3e 6F000000 		.4byte	0x6f
 4288 0c42 92060000 		.4byte	.LLST29
 4289 0c46 10       		.uleb128 0x10
 4290 0c47 EA050000 		.4byte	.LASF47
 4291 0c4b 01       		.byte	0x1
 4292 0c4c E402     		.2byte	0x2e4
 4293 0c4e 25000000 		.4byte	0x25
 4294 0c52 CA060000 		.4byte	.LLST30
 4295 0c56 10       		.uleb128 0x10
 4296 0c57 76030000 		.4byte	.LASF32
 4297 0c5b 01       		.byte	0x1
 4298 0c5c E502     		.2byte	0x2e5
 4299 0c5e 25000000 		.4byte	0x25
 4300 0c62 22070000 		.4byte	.LLST31
 4301 0c66 09       		.uleb128 0x9
 4302 0c67 7C000000 		.4byte	.LVL311
 4303 0c6b E7130000 		.4byte	0x13e7
 4304 0c6f 7D0C0000 		.4byte	0xc7d
 4305 0c73 0A       		.uleb128 0xa
 4306 0c74 01       		.uleb128 0x1
 4307 0c75 50       		.byte	0x50
 4308 0c76 05       		.uleb128 0x5
 4309 0c77 03       		.byte	0x3
 4310 0c78 00000000 		.4byte	Speed_Control
 4311 0c7c 00       		.byte	0
 4312 0c7d 09       		.uleb128 0x9
 4313 0c7e 82000000 		.4byte	.LVL312
 4314 0c82 F2130000 		.4byte	0x13f2
 4315 0c86 940C0000 		.4byte	0xc94
 4316 0c8a 0A       		.uleb128 0xa
 4317 0c8b 01       		.uleb128 0x1
 4318 0c8c 50       		.byte	0x50
 4319 0c8d 05       		.uleb128 0x5
 4320 0c8e 03       		.byte	0x3
 4321 0c8f 00000000 		.4byte	Color_sensing
 4322 0c93 00       		.byte	0
 4323 0c94 07       		.uleb128 0x7
 4324 0c95 86000000 		.4byte	.LVL313
 4325 0c99 FD130000 		.4byte	0x13fd
 4326 0c9d 07       		.uleb128 0x7
 4327 0c9e 8A000000 		.4byte	.LVL314
 4328 0ca2 08140000 		.4byte	0x1408
 4329 0ca6 07       		.uleb128 0x7
 4330 0ca7 8E000000 		.4byte	.LVL315
 4331 0cab 13140000 		.4byte	0x1413
 4332 0caf 07       		.uleb128 0x7
 4333 0cb0 92000000 		.4byte	.LVL316
 4334 0cb4 1E140000 		.4byte	0x141e
 4335 0cb8 07       		.uleb128 0x7
 4336 0cb9 96000000 		.4byte	.LVL317
ARM GAS  C:\Users\weiro\AppData\Local\Temp\ccS229OV.s 			page 93


 4337 0cbd 29140000 		.4byte	0x1429
 4338 0cc1 09       		.uleb128 0x9
 4339 0cc2 9C000000 		.4byte	.LVL318
 4340 0cc6 34140000 		.4byte	0x1434
 4341 0cca D80C0000 		.4byte	0xcd8
 4342 0cce 0A       		.uleb128 0xa
 4343 0ccf 01       		.uleb128 0x1
 4344 0cd0 50       		.byte	0x50
 4345 0cd1 05       		.uleb128 0x5
 4346 0cd2 03       		.byte	0x3
 4347 0cd3 00000000 		.4byte	dist_front_detection_1
 4348 0cd7 00       		.byte	0
 4349 0cd8 09       		.uleb128 0x9
 4350 0cd9 A2000000 		.4byte	.LVL319
 4351 0cdd 3F140000 		.4byte	0x143f
 4352 0ce1 EF0C0000 		.4byte	0xcef
 4353 0ce5 0A       		.uleb128 0xa
 4354 0ce6 01       		.uleb128 0x1
 4355 0ce7 50       		.byte	0x50
 4356 0ce8 05       		.uleb128 0x5
 4357 0ce9 03       		.byte	0x3
 4358 0cea 00000000 		.4byte	dist_left_detection
 4359 0cee 00       		.byte	0
 4360 0cef 07       		.uleb128 0x7
 4361 0cf0 A6000000 		.4byte	.LVL320
 4362 0cf4 4A140000 		.4byte	0x144a
 4363 0cf8 07       		.uleb128 0x7
 4364 0cf9 AA000000 		.4byte	.LVL321
 4365 0cfd 55140000 		.4byte	0x1455
 4366 0d01 07       		.uleb128 0x7
 4367 0d02 AE000000 		.4byte	.LVL322
 4368 0d06 60140000 		.4byte	0x1460
 4369 0d0a 07       		.uleb128 0x7
 4370 0d0b B2000000 		.4byte	.LVL323
 4371 0d0f 6B140000 		.4byte	0x146b
 4372 0d13 07       		.uleb128 0x7
 4373 0d14 B6000000 		.4byte	.LVL324
 4374 0d18 76140000 		.4byte	0x1476
 4375 0d1c 07       		.uleb128 0x7
 4376 0d1d BA000000 		.4byte	.LVL325
 4377 0d21 81140000 		.4byte	0x1481
 4378 0d25 07       		.uleb128 0x7
 4379 0d26 BE000000 		.4byte	.LVL326
 4380 0d2a 8C140000 		.4byte	0x148c
 4381 0d2e 09       		.uleb128 0x9
 4382 0d2f C4000000 		.4byte	.LVL327
 4383 0d33 00130000 		.4byte	0x1300
 4384 0d37 410D0000 		.4byte	0xd41
 4385 0d3b 0A       		.uleb128 0xa
 4386 0d3c 01       		.uleb128 0x1
 4387 0d3d 50       		.byte	0x50
 4388 0d3e 01       		.uleb128 0x1
 4389 0d3f 30       		.byte	0x30
 4390 0d40 00       		.byte	0
 4391 0d41 07       		.uleb128 0x7
 4392 0d42 C8000000 		.4byte	.LVL328
 4393 0d46 97140000 		.4byte	0x1497
ARM GAS  C:\Users\weiro\AppData\Local\Temp\ccS229OV.s 			page 94


 4394 0d4a 09       		.uleb128 0x9
 4395 0d4b CE000000 		.4byte	.LVL329
 4396 0d4f 0B130000 		.4byte	0x130b
 4397 0d53 5D0D0000 		.4byte	0xd5d
 4398 0d57 0A       		.uleb128 0xa
 4399 0d58 01       		.uleb128 0x1
 4400 0d59 50       		.byte	0x50
 4401 0d5a 01       		.uleb128 0x1
 4402 0d5b 30       		.byte	0x30
 4403 0d5c 00       		.byte	0
 4404 0d5d 07       		.uleb128 0x7
 4405 0d5e D2000000 		.4byte	.LVL330
 4406 0d62 A2140000 		.4byte	0x14a2
 4407 0d66 09       		.uleb128 0x9
 4408 0d67 D8000000 		.4byte	.LVL331
 4409 0d6b AD140000 		.4byte	0x14ad
 4410 0d6f 790D0000 		.4byte	0xd79
 4411 0d73 0A       		.uleb128 0xa
 4412 0d74 01       		.uleb128 0x1
 4413 0d75 50       		.byte	0x50
 4414 0d76 01       		.uleb128 0x1
 4415 0d77 31       		.byte	0x31
 4416 0d78 00       		.byte	0
 4417 0d79 09       		.uleb128 0x9
 4418 0d7a DE000000 		.4byte	.LVL332
 4419 0d7e B8140000 		.4byte	0x14b8
 4420 0d82 8C0D0000 		.4byte	0xd8c
 4421 0d86 0A       		.uleb128 0xa
 4422 0d87 01       		.uleb128 0x1
 4423 0d88 50       		.byte	0x50
 4424 0d89 01       		.uleb128 0x1
 4425 0d8a 31       		.byte	0x31
 4426 0d8b 00       		.byte	0
 4427 0d8c 09       		.uleb128 0x9
 4428 0d8d E4000000 		.4byte	.LVL333
 4429 0d91 8F130000 		.4byte	0x138f
 4430 0d95 9F0D0000 		.4byte	0xd9f
 4431 0d99 0A       		.uleb128 0xa
 4432 0d9a 01       		.uleb128 0x1
 4433 0d9b 50       		.byte	0x50
 4434 0d9c 01       		.uleb128 0x1
 4435 0d9d 30       		.byte	0x30
 4436 0d9e 00       		.byte	0
 4437 0d9f 07       		.uleb128 0x7
 4438 0da0 F2000000 		.4byte	.LVL335
 4439 0da4 C3140000 		.4byte	0x14c3
 4440 0da8 07       		.uleb128 0x7
 4441 0da9 00010000 		.4byte	.LVL337
 4442 0dad 87120000 		.4byte	0x1287
 4443 0db1 09       		.uleb128 0x9
 4444 0db2 08010000 		.4byte	.LVL338
 4445 0db6 2C130000 		.4byte	0x132c
 4446 0dba C60D0000 		.4byte	0xdc6
 4447 0dbe 0A       		.uleb128 0xa
 4448 0dbf 01       		.uleb128 0x1
 4449 0dc0 50       		.byte	0x50
 4450 0dc1 03       		.uleb128 0x3
ARM GAS  C:\Users\weiro\AppData\Local\Temp\ccS229OV.s 			page 95


 4451 0dc2 0A       		.byte	0xa
 4452 0dc3 D007     		.2byte	0x7d0
 4453 0dc5 00       		.byte	0
 4454 0dc6 09       		.uleb128 0x9
 4455 0dc7 12010000 		.4byte	.LVL340
 4456 0dcb B3030000 		.4byte	0x3b3
 4457 0dcf DE0D0000 		.4byte	0xdde
 4458 0dd3 0A       		.uleb128 0xa
 4459 0dd4 01       		.uleb128 0x1
 4460 0dd5 50       		.byte	0x50
 4461 0dd6 01       		.uleb128 0x1
 4462 0dd7 4E       		.byte	0x4e
 4463 0dd8 0A       		.uleb128 0xa
 4464 0dd9 01       		.uleb128 0x1
 4465 0dda 51       		.byte	0x51
 4466 0ddb 01       		.uleb128 0x1
 4467 0ddc 31       		.byte	0x31
 4468 0ddd 00       		.byte	0
 4469 0dde 09       		.uleb128 0x9
 4470 0ddf 22010000 		.4byte	.LVL342
 4471 0de3 E8080000 		.4byte	0x8e8
 4472 0de7 F10D0000 		.4byte	0xdf1
 4473 0deb 0A       		.uleb128 0xa
 4474 0dec 01       		.uleb128 0x1
 4475 0ded 51       		.byte	0x51
 4476 0dee 01       		.uleb128 0x1
 4477 0def 30       		.byte	0x30
 4478 0df0 00       		.byte	0
 4479 0df1 07       		.uleb128 0x7
 4480 0df2 26010000 		.4byte	.LVL343
 4481 0df6 62040000 		.4byte	0x462
 4482 0dfa 09       		.uleb128 0x9
 4483 0dfb 34010000 		.4byte	.LVL345
 4484 0dff E8080000 		.4byte	0x8e8
 4485 0e03 0D0E0000 		.4byte	0xe0d
 4486 0e07 0A       		.uleb128 0xa
 4487 0e08 01       		.uleb128 0x1
 4488 0e09 51       		.byte	0x51
 4489 0e0a 01       		.uleb128 0x1
 4490 0e0b 31       		.byte	0x31
 4491 0e0c 00       		.byte	0
 4492 0e0d 09       		.uleb128 0x9
 4493 0e0e 4A010000 		.4byte	.LVL347
 4494 0e12 2C130000 		.4byte	0x132c
 4495 0e16 220E0000 		.4byte	0xe22
 4496 0e1a 0A       		.uleb128 0xa
 4497 0e1b 01       		.uleb128 0x1
 4498 0e1c 50       		.byte	0x50
 4499 0e1d 03       		.uleb128 0x3
 4500 0e1e 0A       		.byte	0xa
 4501 0e1f F401     		.2byte	0x1f4
 4502 0e21 00       		.byte	0
 4503 0e22 07       		.uleb128 0x7
 4504 0e23 50010000 		.4byte	.LVL348
 4505 0e27 62040000 		.4byte	0x462
 4506 0e2b 09       		.uleb128 0x9
 4507 0e2c 60010000 		.4byte	.LVL350
ARM GAS  C:\Users\weiro\AppData\Local\Temp\ccS229OV.s 			page 96


 4508 0e30 E8080000 		.4byte	0x8e8
 4509 0e34 3E0E0000 		.4byte	0xe3e
 4510 0e38 0A       		.uleb128 0xa
 4511 0e39 01       		.uleb128 0x1
 4512 0e3a 51       		.byte	0x51
 4513 0e3b 01       		.uleb128 0x1
 4514 0e3c 31       		.byte	0x31
 4515 0e3d 00       		.byte	0
 4516 0e3e 09       		.uleb128 0x9
 4517 0e3f 76010000 		.4byte	.LVL351
 4518 0e43 2C130000 		.4byte	0x132c
 4519 0e47 530E0000 		.4byte	0xe53
 4520 0e4b 0A       		.uleb128 0xa
 4521 0e4c 01       		.uleb128 0x1
 4522 0e4d 50       		.byte	0x50
 4523 0e4e 03       		.uleb128 0x3
 4524 0e4f 0A       		.byte	0xa
 4525 0e50 F401     		.2byte	0x1f4
 4526 0e52 00       		.byte	0
 4527 0e53 07       		.uleb128 0x7
 4528 0e54 7C010000 		.4byte	.LVL353
 4529 0e58 1C050000 		.4byte	0x51c
 4530 0e5c 09       		.uleb128 0x9
 4531 0e5d 84010000 		.4byte	.LVL354
 4532 0e61 B3030000 		.4byte	0x3b3
 4533 0e65 740E0000 		.4byte	0xe74
 4534 0e69 0A       		.uleb128 0xa
 4535 0e6a 01       		.uleb128 0x1
 4536 0e6b 50       		.byte	0x50
 4537 0e6c 01       		.uleb128 0x1
 4538 0e6d 38       		.byte	0x38
 4539 0e6e 0A       		.uleb128 0xa
 4540 0e6f 01       		.uleb128 0x1
 4541 0e70 51       		.byte	0x51
 4542 0e71 01       		.uleb128 0x1
 4543 0e72 31       		.byte	0x31
 4544 0e73 00       		.byte	0
 4545 0e74 09       		.uleb128 0x9
 4546 0e75 94010000 		.4byte	.LVL356
 4547 0e79 E8080000 		.4byte	0x8e8
 4548 0e7d 870E0000 		.4byte	0xe87
 4549 0e81 0A       		.uleb128 0xa
 4550 0e82 01       		.uleb128 0x1
 4551 0e83 51       		.byte	0x51
 4552 0e84 01       		.uleb128 0x1
 4553 0e85 30       		.byte	0x30
 4554 0e86 00       		.byte	0
 4555 0e87 09       		.uleb128 0x9
 4556 0e88 AA010000 		.4byte	.LVL358
 4557 0e8c 2C130000 		.4byte	0x132c
 4558 0e90 9C0E0000 		.4byte	0xe9c
 4559 0e94 0A       		.uleb128 0xa
 4560 0e95 01       		.uleb128 0x1
 4561 0e96 50       		.byte	0x50
 4562 0e97 03       		.uleb128 0x3
 4563 0e98 0A       		.byte	0xa
 4564 0e99 F401     		.2byte	0x1f4
ARM GAS  C:\Users\weiro\AppData\Local\Temp\ccS229OV.s 			page 97


 4565 0e9b 00       		.byte	0
 4566 0e9c 07       		.uleb128 0x7
 4567 0e9d B0010000 		.4byte	.LVL359
 4568 0ea1 D6050000 		.4byte	0x5d6
 4569 0ea5 09       		.uleb128 0x9
 4570 0ea6 C8010000 		.4byte	.LVL360
 4571 0eaa 2C130000 		.4byte	0x132c
 4572 0eae BA0E0000 		.4byte	0xeba
 4573 0eb2 0A       		.uleb128 0xa
 4574 0eb3 01       		.uleb128 0x1
 4575 0eb4 50       		.byte	0x50
 4576 0eb5 03       		.uleb128 0x3
 4577 0eb6 0A       		.byte	0xa
 4578 0eb7 F401     		.2byte	0x1f4
 4579 0eb9 00       		.byte	0
 4580 0eba 07       		.uleb128 0x7
 4581 0ebb CE010000 		.4byte	.LVL361
 4582 0ebf 54090000 		.4byte	0x954
 4583 0ec3 09       		.uleb128 0x9
 4584 0ec4 DC010000 		.4byte	.LVL362
 4585 0ec8 C6130000 		.4byte	0x13c6
 4586 0ecc D60E0000 		.4byte	0xed6
 4587 0ed0 0A       		.uleb128 0xa
 4588 0ed1 01       		.uleb128 0x1
 4589 0ed2 50       		.byte	0x50
 4590 0ed3 01       		.uleb128 0x1
 4591 0ed4 31       		.byte	0x31
 4592 0ed5 00       		.byte	0
 4593 0ed6 09       		.uleb128 0x9
 4594 0ed7 E8010000 		.4byte	.LVL363
 4595 0edb D1130000 		.4byte	0x13d1
 4596 0edf E90E0000 		.4byte	0xee9
 4597 0ee3 0A       		.uleb128 0xa
 4598 0ee4 01       		.uleb128 0x1
 4599 0ee5 50       		.byte	0x50
 4600 0ee6 01       		.uleb128 0x1
 4601 0ee7 31       		.byte	0x31
 4602 0ee8 00       		.byte	0
 4603 0ee9 09       		.uleb128 0x9
 4604 0eea F4010000 		.4byte	.LVL364
 4605 0eee DC130000 		.4byte	0x13dc
 4606 0ef2 FC0E0000 		.4byte	0xefc
 4607 0ef6 0A       		.uleb128 0xa
 4608 0ef7 01       		.uleb128 0x1
 4609 0ef8 50       		.byte	0x50
 4610 0ef9 01       		.uleb128 0x1
 4611 0efa 31       		.byte	0x31
 4612 0efb 00       		.byte	0
 4613 0efc 09       		.uleb128 0x9
 4614 0efd 0C020000 		.4byte	.LVL365
 4615 0f01 2C130000 		.4byte	0x132c
 4616 0f05 110F0000 		.4byte	0xf11
 4617 0f09 0A       		.uleb128 0xa
 4618 0f0a 01       		.uleb128 0x1
 4619 0f0b 50       		.byte	0x50
 4620 0f0c 03       		.uleb128 0x3
 4621 0f0d 0A       		.byte	0xa
ARM GAS  C:\Users\weiro\AppData\Local\Temp\ccS229OV.s 			page 98


 4622 0f0e F401     		.2byte	0x1f4
 4623 0f10 00       		.byte	0
 4624 0f11 09       		.uleb128 0x9
 4625 0f12 16020000 		.4byte	.LVL367
 4626 0f16 B3030000 		.4byte	0x3b3
 4627 0f1a 290F0000 		.4byte	0xf29
 4628 0f1e 0A       		.uleb128 0xa
 4629 0f1f 01       		.uleb128 0x1
 4630 0f20 50       		.byte	0x50
 4631 0f21 01       		.uleb128 0x1
 4632 0f22 41       		.byte	0x41
 4633 0f23 0A       		.uleb128 0xa
 4634 0f24 01       		.uleb128 0x1
 4635 0f25 51       		.byte	0x51
 4636 0f26 01       		.uleb128 0x1
 4637 0f27 31       		.byte	0x31
 4638 0f28 00       		.byte	0
 4639 0f29 07       		.uleb128 0x7
 4640 0f2a 1E020000 		.4byte	.LVL368
 4641 0f2e CE140000 		.4byte	0x14ce
 4642 0f32 09       		.uleb128 0x9
 4643 0f33 26020000 		.4byte	.LVL369
 4644 0f37 2C130000 		.4byte	0x132c
 4645 0f3b 470F0000 		.4byte	0xf47
 4646 0f3f 0A       		.uleb128 0xa
 4647 0f40 01       		.uleb128 0x1
 4648 0f41 50       		.byte	0x50
 4649 0f42 03       		.uleb128 0x3
 4650 0f43 0A       		.byte	0xa
 4651 0f44 F401     		.2byte	0x1f4
 4652 0f46 00       		.byte	0
 4653 0f47 07       		.uleb128 0x7
 4654 0f48 2C020000 		.4byte	.LVL370
 4655 0f4c D9140000 		.4byte	0x14d9
 4656 0f50 09       		.uleb128 0x9
 4657 0f51 34020000 		.4byte	.LVL371
 4658 0f55 2C130000 		.4byte	0x132c
 4659 0f59 650F0000 		.4byte	0xf65
 4660 0f5d 0A       		.uleb128 0xa
 4661 0f5e 01       		.uleb128 0x1
 4662 0f5f 50       		.byte	0x50
 4663 0f60 03       		.uleb128 0x3
 4664 0f61 0A       		.byte	0xa
 4665 0f62 F401     		.2byte	0x1f4
 4666 0f64 00       		.byte	0
 4667 0f65 07       		.uleb128 0x7
 4668 0f66 3A020000 		.4byte	.LVL372
 4669 0f6a CE140000 		.4byte	0x14ce
 4670 0f6e 0B       		.uleb128 0xb
 4671 0f6f 52020000 		.4byte	.LVL374
 4672 0f73 2C130000 		.4byte	0x132c
 4673 0f77 0A       		.uleb128 0xa
 4674 0f78 01       		.uleb128 0x1
 4675 0f79 50       		.byte	0x50
 4676 0f7a 03       		.uleb128 0x3
 4677 0f7b 0A       		.byte	0xa
 4678 0f7c F401     		.2byte	0x1f4
ARM GAS  C:\Users\weiro\AppData\Local\Temp\ccS229OV.s 			page 99


 4679 0f7e 00       		.byte	0
 4680 0f7f 00       		.byte	0
 4681 0f80 15       		.uleb128 0x15
 4682 0f81 2E060000 		.4byte	.LASF48
 4683 0f85 05       		.byte	0x5
 4684 0f86 1207     		.2byte	0x712
 4685 0f88 8C0F0000 		.4byte	0xf8c
 4686 0f8c 16       		.uleb128 0x16
 4687 0f8d 7D000000 		.4byte	0x7d
 4688 0f91 17       		.uleb128 0x17
 4689 0f92 8F050000 		.4byte	.LASF49
 4690 0f96 01       		.byte	0x1
 4691 0f97 13       		.byte	0x13
 4692 0f98 25000000 		.4byte	0x25
 4693 0f9c 05       		.uleb128 0x5
 4694 0f9d 03       		.byte	0x3
 4695 0f9e 00000000 		.4byte	WHEEL_DIAMETER
 4696 0fa2 17       		.uleb128 0x17
 4697 0fa3 A2010000 		.4byte	.LASF50
 4698 0fa7 01       		.byte	0x1
 4699 0fa8 14       		.byte	0x14
 4700 0fa9 25000000 		.4byte	0x25
 4701 0fad 05       		.uleb128 0x5
 4702 0fae 03       		.byte	0x3
 4703 0faf 00000000 		.4byte	WHEEL_CIRCUMFERENCE
 4704 0fb3 17       		.uleb128 0x17
 4705 0fb4 31030000 		.4byte	.LASF51
 4706 0fb8 01       		.byte	0x1
 4707 0fb9 16       		.byte	0x16
 4708 0fba 25000000 		.4byte	0x25
 4709 0fbe 05       		.uleb128 0x5
 4710 0fbf 03       		.byte	0x3
 4711 0fc0 00000000 		.4byte	COUNT_WHEEL
 4712 0fc4 17       		.uleb128 0x17
 4713 0fc5 26000000 		.4byte	.LASF52
 4714 0fc9 01       		.byte	0x1
 4715 0fca 17       		.byte	0x17
 4716 0fcb 25000000 		.4byte	0x25
 4717 0fcf 05       		.uleb128 0x5
 4718 0fd0 03       		.byte	0x3
 4719 0fd1 00000000 		.4byte	CM_COUNT_CONV
 4720 0fd5 17       		.uleb128 0x17
 4721 0fd6 C6040000 		.4byte	.LASF53
 4722 0fda 01       		.byte	0x1
 4723 0fdb 18       		.byte	0x18
 4724 0fdc 25000000 		.4byte	0x25
 4725 0fe0 05       		.uleb128 0x5
 4726 0fe1 03       		.byte	0x3
 4727 0fe2 00000000 		.4byte	DISTANCE_BETW_WHEEL
 4728 0fe6 17       		.uleb128 0x17
 4729 0fe7 D8010000 		.4byte	.LASF54
 4730 0feb 01       		.byte	0x1
 4731 0fec 19       		.byte	0x19
 4732 0fed 25000000 		.4byte	0x25
 4733 0ff1 05       		.uleb128 0x5
 4734 0ff2 03       		.byte	0x3
 4735 0ff3 00000000 		.4byte	DISTANCE_PT_TURN
ARM GAS  C:\Users\weiro\AppData\Local\Temp\ccS229OV.s 			page 100


 4736 0ff7 17       		.uleb128 0x17
 4737 0ff8 12020000 		.4byte	.LASF40
 4738 0ffc 01       		.byte	0x1
 4739 0ffd 1A       		.byte	0x1a
 4740 0ffe 25000000 		.4byte	0x25
 4741 1002 05       		.uleb128 0x5
 4742 1003 03       		.byte	0x3
 4743 1004 00000000 		.4byte	PT_TURN_COUNT
 4744 1008 17       		.uleb128 0x17
 4745 1009 B7060000 		.4byte	.LASF55
 4746 100d 01       		.byte	0x1
 4747 100e 1B       		.byte	0x1b
 4748 100f 6F000000 		.4byte	0x6f
 4749 1013 05       		.uleb128 0x5
 4750 1014 03       		.byte	0x3
 4751 1015 00000000 		.4byte	Count_Master
 4752 1019 17       		.uleb128 0x17
 4753 101a C6050000 		.4byte	.LASF56
 4754 101e 01       		.byte	0x1
 4755 101f 1C       		.byte	0x1c
 4756 1020 6F000000 		.4byte	0x6f
 4757 1024 05       		.uleb128 0x5
 4758 1025 03       		.byte	0x3
 4759 1026 00000000 		.4byte	Count_Slave
 4760 102a 18       		.uleb128 0x18
 4761 102b 9B000000 		.4byte	0x9b
 4762 102f 3A100000 		.4byte	0x103a
 4763 1033 19       		.uleb128 0x19
 4764 1034 A9000000 		.4byte	0xa9
 4765 1038 13       		.byte	0x13
 4766 1039 00       		.byte	0
 4767 103a 17       		.uleb128 0x17
 4768 103b B0080000 		.4byte	.LASF57
 4769 103f 01       		.byte	0x1
 4770 1040 1D       		.byte	0x1d
 4771 1041 2A100000 		.4byte	0x102a
 4772 1045 05       		.uleb128 0x5
 4773 1046 03       		.byte	0x3
 4774 1047 00000000 		.4byte	string_1
 4775 104b 17       		.uleb128 0x17
 4776 104c B9080000 		.4byte	.LASF58
 4777 1050 01       		.byte	0x1
 4778 1051 1E       		.byte	0x1e
 4779 1052 2A100000 		.4byte	0x102a
 4780 1056 05       		.uleb128 0x5
 4781 1057 03       		.byte	0x3
 4782 1058 00000000 		.4byte	string_2
 4783 105c 17       		.uleb128 0x17
 4784 105d C2080000 		.4byte	.LASF59
 4785 1061 01       		.byte	0x1
 4786 1062 1F       		.byte	0x1f
 4787 1063 2A100000 		.4byte	0x102a
 4788 1067 05       		.uleb128 0x5
 4789 1068 03       		.byte	0x3
 4790 1069 00000000 		.4byte	string_3
 4791 106d 17       		.uleb128 0x17
 4792 106e 3D010000 		.4byte	.LASF60
ARM GAS  C:\Users\weiro\AppData\Local\Temp\ccS229OV.s 			page 101


 4793 1072 01       		.byte	0x1
 4794 1073 20       		.byte	0x20
 4795 1074 25000000 		.4byte	0x25
 4796 1078 05       		.uleb128 0x5
 4797 1079 03       		.byte	0x3
 4798 107a 00000000 		.4byte	error
 4799 107e 17       		.uleb128 0x17
 4800 107f 1F030000 		.4byte	.LASF61
 4801 1083 01       		.byte	0x1
 4802 1084 21       		.byte	0x21
 4803 1085 25000000 		.4byte	0x25
 4804 1089 05       		.uleb128 0x5
 4805 108a 03       		.byte	0x3
 4806 108b 00000000 		.4byte	accumulated_error
 4807 108f 17       		.uleb128 0x17
 4808 1090 26070000 		.4byte	.LASF62
 4809 1094 01       		.byte	0x1
 4810 1095 22       		.byte	0x22
 4811 1096 25000000 		.4byte	0x25
 4812 109a 05       		.uleb128 0x5
 4813 109b 03       		.byte	0x3
 4814 109c 00000000 		.4byte	last_error
 4815 10a0 17       		.uleb128 0x17
 4816 10a1 FE060000 		.4byte	.LASF63
 4817 10a5 01       		.byte	0x1
 4818 10a6 23       		.byte	0x23
 4819 10a7 25000000 		.4byte	0x25
 4820 10ab 05       		.uleb128 0x5
 4821 10ac 03       		.byte	0x3
 4822 10ad 00000000 		.4byte	derivative_error
 4823 10b1 17       		.uleb128 0x17
 4824 10b2 00010000 		.4byte	.LASF64
 4825 10b6 01       		.byte	0x1
 4826 10b7 24       		.byte	0x24
 4827 10b8 25000000 		.4byte	0x25
 4828 10bc 05       		.uleb128 0x5
 4829 10bd 03       		.byte	0x3
 4830 10be 00000000 		.4byte	timer_period
 4831 10c2 1A       		.uleb128 0x1a
 4832 10c3 4B5F7000 		.ascii	"K_p\000"
 4833 10c7 01       		.byte	0x1
 4834 10c8 25       		.byte	0x25
 4835 10c9 25000000 		.4byte	0x25
 4836 10cd 05       		.uleb128 0x5
 4837 10ce 03       		.byte	0x3
 4838 10cf 00000000 		.4byte	K_p
 4839 10d3 1A       		.uleb128 0x1a
 4840 10d4 4B5F6900 		.ascii	"K_i\000"
 4841 10d8 01       		.byte	0x1
 4842 10d9 26       		.byte	0x26
 4843 10da 25000000 		.4byte	0x25
 4844 10de 05       		.uleb128 0x5
 4845 10df 03       		.byte	0x3
 4846 10e0 00000000 		.4byte	K_i
 4847 10e4 1A       		.uleb128 0x1a
 4848 10e5 4B5F6400 		.ascii	"K_d\000"
 4849 10e9 01       		.byte	0x1
ARM GAS  C:\Users\weiro\AppData\Local\Temp\ccS229OV.s 			page 102


 4850 10ea 27       		.byte	0x27
 4851 10eb 25000000 		.4byte	0x25
 4852 10ef 05       		.uleb128 0x5
 4853 10f0 03       		.byte	0x3
 4854 10f1 00000000 		.4byte	K_d
 4855 10f5 17       		.uleb128 0x17
 4856 10f6 1B000000 		.4byte	.LASF65
 4857 10fa 01       		.byte	0x1
 4858 10fb 28       		.byte	0x28
 4859 10fc 94000000 		.4byte	0x94
 4860 1100 05       		.uleb128 0x5
 4861 1101 03       		.byte	0x3
 4862 1102 00000000 		.4byte	PWM_Master
 4863 1106 17       		.uleb128 0x17
 4864 1107 62070000 		.4byte	.LASF66
 4865 110b 01       		.byte	0x1
 4866 110c 29       		.byte	0x29
 4867 110d 94000000 		.4byte	0x94
 4868 1111 05       		.uleb128 0x5
 4869 1112 03       		.byte	0x3
 4870 1113 00000000 		.4byte	PWM_Slave
 4871 1117 17       		.uleb128 0x17
 4872 1118 65020000 		.4byte	.LASF67
 4873 111c 01       		.byte	0x1
 4874 111d 2A       		.byte	0x2a
 4875 111e 6F000000 		.4byte	0x6f
 4876 1122 05       		.uleb128 0x5
 4877 1123 03       		.byte	0x3
 4878 1124 00000000 		.4byte	is_moving
 4879 1128 17       		.uleb128 0x17
 4880 1129 0A040000 		.4byte	.LASF68
 4881 112d 01       		.byte	0x1
 4882 112e 2B       		.byte	0x2b
 4883 112f 88000000 		.4byte	0x88
 4884 1133 05       		.uleb128 0x5
 4885 1134 03       		.byte	0x3
 4886 1135 00000000 		.4byte	front_det_count_1
 4887 1139 17       		.uleb128 0x17
 4888 113a 1C040000 		.4byte	.LASF69
 4889 113e 01       		.byte	0x1
 4890 113f 2B       		.byte	0x2b
 4891 1140 88000000 		.4byte	0x88
 4892 1144 05       		.uleb128 0x5
 4893 1145 03       		.byte	0x3
 4894 1146 00000000 		.4byte	front_det_count_2
 4895 114a 17       		.uleb128 0x17
 4896 114b 1D010000 		.4byte	.LASF70
 4897 114f 01       		.byte	0x1
 4898 1150 2B       		.byte	0x2b
 4899 1151 88000000 		.4byte	0x88
 4900 1155 05       		.uleb128 0x5
 4901 1156 03       		.byte	0x3
 4902 1157 00000000 		.4byte	right_det_count
 4903 115b 17       		.uleb128 0x17
 4904 115c FB030000 		.4byte	.LASF71
 4905 1160 01       		.byte	0x1
 4906 1161 2B       		.byte	0x2b
ARM GAS  C:\Users\weiro\AppData\Local\Temp\ccS229OV.s 			page 103


 4907 1162 88000000 		.4byte	0x88
 4908 1166 05       		.uleb128 0x5
 4909 1167 03       		.byte	0x3
 4910 1168 00000000 		.4byte	left_det_count
 4911 116c 17       		.uleb128 0x17
 4912 116d 8A060000 		.4byte	.LASF72
 4913 1171 01       		.byte	0x1
 4914 1172 2C       		.byte	0x2c
 4915 1173 94000000 		.4byte	0x94
 4916 1177 05       		.uleb128 0x5
 4917 1178 03       		.byte	0x3
 4918 1179 00000000 		.4byte	front_measured_1
 4919 117d 17       		.uleb128 0x17
 4920 117e 9B060000 		.4byte	.LASF73
 4921 1182 01       		.byte	0x1
 4922 1183 2C       		.byte	0x2c
 4923 1184 94000000 		.4byte	0x94
 4924 1188 05       		.uleb128 0x5
 4925 1189 03       		.byte	0x3
 4926 118a 00000000 		.4byte	front_measured_2
 4927 118e 17       		.uleb128 0x17
 4928 118f F1000000 		.4byte	.LASF74
 4929 1193 01       		.byte	0x1
 4930 1194 2C       		.byte	0x2c
 4931 1195 94000000 		.4byte	0x94
 4932 1199 05       		.uleb128 0x5
 4933 119a 03       		.byte	0x3
 4934 119b 00000000 		.4byte	right_measured
 4935 119f 17       		.uleb128 0x17
 4936 11a0 41020000 		.4byte	.LASF75
 4937 11a4 01       		.byte	0x1
 4938 11a5 2C       		.byte	0x2c
 4939 11a6 94000000 		.4byte	0x94
 4940 11aa 05       		.uleb128 0x5
 4941 11ab 03       		.byte	0x3
 4942 11ac 00000000 		.4byte	left_measured
 4943 11b0 17       		.uleb128 0x17
 4944 11b1 CB010000 		.4byte	.LASF76
 4945 11b5 01       		.byte	0x1
 4946 11b6 2D       		.byte	0x2d
 4947 11b7 25000000 		.4byte	0x25
 4948 11bb 05       		.uleb128 0x5
 4949 11bc 03       		.byte	0x3
 4950 11bd 00000000 		.4byte	x_coord
 4951 11c1 17       		.uleb128 0x17
 4952 11c2 87050000 		.4byte	.LASF77
 4953 11c6 01       		.byte	0x1
 4954 11c7 2E       		.byte	0x2e
 4955 11c8 25000000 		.4byte	0x25
 4956 11cc 05       		.uleb128 0x5
 4957 11cd 03       		.byte	0x3
 4958 11ce 00000000 		.4byte	y_coord
 4959 11d2 17       		.uleb128 0x17
 4960 11d3 00000000 		.4byte	.LASF78
 4961 11d7 01       		.byte	0x1
 4962 11d8 2F       		.byte	0x2f
 4963 11d9 6F000000 		.4byte	0x6f
ARM GAS  C:\Users\weiro\AppData\Local\Temp\ccS229OV.s 			page 104


 4964 11dd 05       		.uleb128 0x5
 4965 11de 03       		.byte	0x3
 4966 11df 00000000 		.4byte	direction
 4967 11e3 17       		.uleb128 0x17
 4968 11e4 0A050000 		.4byte	.LASF79
 4969 11e8 01       		.byte	0x1
 4970 11e9 30       		.byte	0x30
 4971 11ea 6F000000 		.4byte	0x6f
 4972 11ee 05       		.uleb128 0x5
 4973 11ef 03       		.byte	0x3
 4974 11f0 00000000 		.4byte	step
 4975 11f4 17       		.uleb128 0x17
 4976 11f5 2C050000 		.4byte	.LASF80
 4977 11f9 01       		.byte	0x1
 4978 11fa 31       		.byte	0x31
 4979 11fb 6F000000 		.4byte	0x6f
 4980 11ff 05       		.uleb128 0x5
 4981 1200 03       		.byte	0x3
 4982 1201 00000000 		.4byte	compare_ready
 4983 1205 17       		.uleb128 0x17
 4984 1206 6C070000 		.4byte	.LASF81
 4985 120a 01       		.byte	0x1
 4986 120b 32       		.byte	0x32
 4987 120c 6F000000 		.4byte	0x6f
 4988 1210 05       		.uleb128 0x5
 4989 1211 03       		.byte	0x3
 4990 1212 00000000 		.4byte	color_detected
 4991 1216 17       		.uleb128 0x17
 4992 1217 E2080000 		.4byte	.LASF82
 4993 121b 01       		.byte	0x1
 4994 121c 33       		.byte	0x33
 4995 121d 6F000000 		.4byte	0x6f
 4996 1221 05       		.uleb128 0x5
 4997 1222 03       		.byte	0x3
 4998 1223 00000000 		.4byte	wall_detected_10
 4999 1227 17       		.uleb128 0x17
 5000 1228 48010000 		.4byte	.LASF83
 5001 122c 01       		.byte	0x1
 5002 122d 34       		.byte	0x34
 5003 122e 6F000000 		.4byte	0x6f
 5004 1232 05       		.uleb128 0x5
 5005 1233 03       		.byte	0x3
 5006 1234 00000000 		.4byte	slit_detected
 5007 1238 17       		.uleb128 0x17
 5008 1239 0A000000 		.4byte	.LASF84
 5009 123d 01       		.byte	0x1
 5010 123e 35       		.byte	0x35
 5011 123f 6F000000 		.4byte	0x6f
 5012 1243 05       		.uleb128 0x5
 5013 1244 03       		.byte	0x3
 5014 1245 00000000 		.4byte	down_big
 5015 1249 17       		.uleb128 0x17
 5016 124a A9080000 		.4byte	.LASF85
 5017 124e 01       		.byte	0x1
 5018 124f 36       		.byte	0x36
 5019 1250 6F000000 		.4byte	0x6f
 5020 1254 05       		.uleb128 0x5
ARM GAS  C:\Users\weiro\AppData\Local\Temp\ccS229OV.s 			page 105


 5021 1255 03       		.byte	0x3
 5022 1256 00000000 		.4byte	up_big
 5023 125a 17       		.uleb128 0x17
 5024 125b AC060000 		.4byte	.LASF86
 5025 125f 01       		.byte	0x1
 5026 1260 37       		.byte	0x37
 5027 1261 6F000000 		.4byte	0x6f
 5028 1265 05       		.uleb128 0x5
 5029 1266 03       		.byte	0x3
 5030 1267 00000000 		.4byte	open_small
 5031 126b 17       		.uleb128 0x17
 5032 126c 06020000 		.4byte	.LASF87
 5033 1270 01       		.byte	0x1
 5034 1271 38       		.byte	0x38
 5035 1272 6F000000 		.4byte	0x6f
 5036 1276 05       		.uleb128 0x5
 5037 1277 03       		.byte	0x3
 5038 1278 00000000 		.4byte	close_small
 5039 127c 1B       		.uleb128 0x1b
 5040 127d BC030000 		.4byte	.LASF88
 5041 1281 BC030000 		.4byte	.LASF88
 5042 1285 06       		.byte	0x6
 5043 1286 97       		.byte	0x97
 5044 1287 1B       		.uleb128 0x1b
 5045 1288 0E060000 		.4byte	.LASF89
 5046 128c 0E060000 		.4byte	.LASF89
 5047 1290 07       		.byte	0x7
 5048 1291 C3       		.byte	0xc3
 5049 1292 1B       		.uleb128 0x1b
 5050 1293 D6060000 		.4byte	.LASF90
 5051 1297 D6060000 		.4byte	.LASF90
 5052 129b 08       		.byte	0x8
 5053 129c 5E       		.byte	0x5e
 5054 129d 1B       		.uleb128 0x1b
 5055 129e 86040000 		.4byte	.LASF91
 5056 12a2 86040000 		.4byte	.LASF91
 5057 12a6 08       		.byte	0x8
 5058 12a7 69       		.byte	0x69
 5059 12a8 1B       		.uleb128 0x1b
 5060 12a9 70050000 		.4byte	.LASF92
 5061 12ad 70050000 		.4byte	.LASF92
 5062 12b1 09       		.byte	0x9
 5063 12b2 E7       		.byte	0xe7
 5064 12b3 1B       		.uleb128 0x1b
 5065 12b4 3D030000 		.4byte	.LASF93
 5066 12b8 3D030000 		.4byte	.LASF93
 5067 12bc 0A       		.byte	0xa
 5068 12bd 8B       		.byte	0x8b
 5069 12be 1B       		.uleb128 0x1b
 5070 12bf 5D040000 		.4byte	.LASF94
 5071 12c3 5D040000 		.4byte	.LASF94
 5072 12c7 0B       		.byte	0xb
 5073 12c8 5E       		.byte	0x5e
 5074 12c9 1B       		.uleb128 0x1b
 5075 12ca 2E040000 		.4byte	.LASF95
 5076 12ce 2E040000 		.4byte	.LASF95
 5077 12d2 0B       		.byte	0xb
ARM GAS  C:\Users\weiro\AppData\Local\Temp\ccS229OV.s 			page 106


 5078 12d3 69       		.byte	0x69
 5079 12d4 1B       		.uleb128 0x1b
 5080 12d5 96030000 		.4byte	.LASF96
 5081 12d9 96030000 		.4byte	.LASF96
 5082 12dd 0C       		.byte	0xc
 5083 12de 26       		.byte	0x26
 5084 12df 1B       		.uleb128 0x1b
 5085 12e0 9C070000 		.4byte	.LASF97
 5086 12e4 9C070000 		.4byte	.LASF97
 5087 12e8 0D       		.byte	0xd
 5088 12e9 26       		.byte	0x26
 5089 12ea 1B       		.uleb128 0x1b
 5090 12eb 89070000 		.4byte	.LASF98
 5091 12ef 89070000 		.4byte	.LASF98
 5092 12f3 0E       		.byte	0xe
 5093 12f4 26       		.byte	0x26
 5094 12f5 1B       		.uleb128 0x1b
 5095 12f6 A9030000 		.4byte	.LASF99
 5096 12fa A9030000 		.4byte	.LASF99
 5097 12fe 0F       		.byte	0xf
 5098 12ff 26       		.byte	0x26
 5099 1300 1B       		.uleb128 0x1b
 5100 1301 B8070000 		.4byte	.LASF100
 5101 1305 B8070000 		.4byte	.LASF100
 5102 1309 10       		.byte	0x10
 5103 130a 4F       		.byte	0x4f
 5104 130b 1B       		.uleb128 0x1b
 5105 130c B6010000 		.4byte	.LASF101
 5106 1310 B6010000 		.4byte	.LASF101
 5107 1314 11       		.byte	0x11
 5108 1315 4F       		.byte	0x4f
 5109 1316 1B       		.uleb128 0x1b
 5110 1317 8E000000 		.4byte	.LASF102
 5111 131b 8E000000 		.4byte	.LASF102
 5112 131f 10       		.byte	0x10
 5113 1320 4E       		.byte	0x4e
 5114 1321 1B       		.uleb128 0x1b
 5115 1322 81030000 		.4byte	.LASF103
 5116 1326 81030000 		.4byte	.LASF103
 5117 132a 11       		.byte	0x11
 5118 132b 4E       		.byte	0x4e
 5119 132c 1B       		.uleb128 0x1b
 5120 132d 13000000 		.4byte	.LASF104
 5121 1331 13000000 		.4byte	.LASF104
 5122 1335 12       		.byte	0x12
 5123 1336 76       		.byte	0x76
 5124 1337 1B       		.uleb128 0x1b
 5125 1338 9E050000 		.4byte	.LASF105
 5126 133c 9E050000 		.4byte	.LASF105
 5127 1340 13       		.byte	0x13
 5128 1341 26       		.byte	0x26
 5129 1342 1B       		.uleb128 0x1b
 5130 1343 20020000 		.4byte	.LASF106
 5131 1347 20020000 		.4byte	.LASF106
 5132 134b 12       		.byte	0x12
 5133 134c 77       		.byte	0x77
 5134 134d 1B       		.uleb128 0x1b
ARM GAS  C:\Users\weiro\AppData\Local\Temp\ccS229OV.s 			page 107


 5135 134e B4050000 		.4byte	.LASF107
 5136 1352 B4050000 		.4byte	.LASF107
 5137 1356 14       		.byte	0x14
 5138 1357 29       		.byte	0x29
 5139 1358 1B       		.uleb128 0x1b
 5140 1359 F3080000 		.4byte	.LASF108
 5141 135d F3080000 		.4byte	.LASF108
 5142 1361 15       		.byte	0x15
 5143 1362 26       		.byte	0x26
 5144 1363 1B       		.uleb128 0x1b
 5145 1364 3B060000 		.4byte	.LASF109
 5146 1368 3B060000 		.4byte	.LASF109
 5147 136c 16       		.byte	0x16
 5148 136d 29       		.byte	0x29
 5149 136e 1B       		.uleb128 0x1b
 5150 136f E3000000 		.4byte	.LASF110
 5151 1373 E3000000 		.4byte	.LASF110
 5152 1377 17       		.byte	0x17
 5153 1378 29       		.byte	0x29
 5154 1379 1B       		.uleb128 0x1b
 5155 137a 6D060000 		.4byte	.LASF111
 5156 137e 6D060000 		.4byte	.LASF111
 5157 1382 18       		.byte	0x18
 5158 1383 26       		.byte	0x26
 5159 1384 1B       		.uleb128 0x1b
 5160 1385 5B000000 		.4byte	.LASF112
 5161 1389 5B000000 		.4byte	.LASF112
 5162 138d 19       		.byte	0x19
 5163 138e 29       		.byte	0x29
 5164 138f 1B       		.uleb128 0x1b
 5165 1390 4E000000 		.4byte	.LASF113
 5166 1394 4E000000 		.4byte	.LASF113
 5167 1398 1A       		.byte	0x1a
 5168 1399 26       		.byte	0x26
 5169 139a 1B       		.uleb128 0x1b
 5170 139b AF070000 		.4byte	.LASF114
 5171 139f AF070000 		.4byte	.LASF114
 5172 13a3 1B       		.byte	0x1b
 5173 13a4 26       		.byte	0x26
 5174 13a5 1B       		.uleb128 0x1b
 5175 13a6 ED030000 		.4byte	.LASF115
 5176 13aa ED030000 		.4byte	.LASF115
 5177 13ae 1C       		.byte	0x1c
 5178 13af 26       		.byte	0x26
 5179 13b0 1B       		.uleb128 0x1b
 5180 13b1 49040000 		.4byte	.LASF116
 5181 13b5 49040000 		.4byte	.LASF116
 5182 13b9 1D       		.byte	0x1d
 5183 13ba 2F       		.byte	0x2f
 5184 13bb 1B       		.uleb128 0x1b
 5185 13bc DA040000 		.4byte	.LASF117
 5186 13c0 DA040000 		.4byte	.LASF117
 5187 13c4 1E       		.byte	0x1e
 5188 13c5 5E       		.byte	0x5e
 5189 13c6 1B       		.uleb128 0x1b
 5190 13c7 54070000 		.4byte	.LASF118
 5191 13cb 54070000 		.4byte	.LASF118
ARM GAS  C:\Users\weiro\AppData\Local\Temp\ccS229OV.s 			page 108


 5192 13cf 1F       		.byte	0x1f
 5193 13d0 26       		.byte	0x26
 5194 13d1 1B       		.uleb128 0x1b
 5195 13d2 2D010000 		.4byte	.LASF119
 5196 13d6 2D010000 		.4byte	.LASF119
 5197 13da 20       		.byte	0x20
 5198 13db 26       		.byte	0x26
 5199 13dc 1B       		.uleb128 0x1b
 5200 13dd 82020000 		.4byte	.LASF120
 5201 13e1 82020000 		.4byte	.LASF120
 5202 13e5 21       		.byte	0x21
 5203 13e6 26       		.byte	0x26
 5204 13e7 1B       		.uleb128 0x1b
 5205 13e8 B0000000 		.4byte	.LASF121
 5206 13ec B0000000 		.4byte	.LASF121
 5207 13f0 22       		.byte	0x22
 5208 13f1 18       		.byte	0x18
 5209 13f2 1B       		.uleb128 0x1b
 5210 13f3 9A040000 		.4byte	.LASF122
 5211 13f7 9A040000 		.4byte	.LASF122
 5212 13fb 23       		.byte	0x23
 5213 13fc 18       		.byte	0x18
 5214 13fd 1B       		.uleb128 0x1b
 5215 13fe DF030000 		.4byte	.LASF123
 5216 1402 DF030000 		.4byte	.LASF123
 5217 1406 24       		.byte	0x24
 5218 1407 5A       		.byte	0x5a
 5219 1408 1B       		.uleb128 0x1b
 5220 1409 78040000 		.4byte	.LASF124
 5221 140d 78040000 		.4byte	.LASF124
 5222 1411 08       		.byte	0x8
 5223 1412 5A       		.byte	0x5a
 5224 1413 1B       		.uleb128 0x1b
 5225 1414 6B000000 		.4byte	.LASF125
 5226 1418 6B000000 		.4byte	.LASF125
 5227 141c 25       		.byte	0x25
 5228 141d 5A       		.byte	0x5a
 5229 141e 1B       		.uleb128 0x1b
 5230 141f 3A050000 		.4byte	.LASF126
 5231 1423 3A050000 		.4byte	.LASF126
 5232 1427 0B       		.byte	0xb
 5233 1428 5A       		.byte	0x5a
 5234 1429 1B       		.uleb128 0x1b
 5235 142a 7E010000 		.4byte	.LASF127
 5236 142e 7E010000 		.4byte	.LASF127
 5237 1432 26       		.byte	0x26
 5238 1433 5A       		.byte	0x5a
 5239 1434 1B       		.uleb128 0x1b
 5240 1435 4E030000 		.4byte	.LASF128
 5241 1439 4E030000 		.4byte	.LASF128
 5242 143d 27       		.byte	0x27
 5243 143e 18       		.byte	0x18
 5244 143f 1B       		.uleb128 0x1b
 5245 1440 83080000 		.4byte	.LASF129
 5246 1444 83080000 		.4byte	.LASF129
 5247 1448 28       		.byte	0x28
 5248 1449 18       		.byte	0x18
ARM GAS  C:\Users\weiro\AppData\Local\Temp\ccS229OV.s 			page 109


 5249 144a 1B       		.uleb128 0x1b
 5250 144b 4F020000 		.4byte	.LASF130
 5251 144f 4F020000 		.4byte	.LASF130
 5252 1453 06       		.byte	0x6
 5253 1454 92       		.byte	0x92
 5254 1455 1B       		.uleb128 0x1b
 5255 1456 4A060000 		.4byte	.LASF131
 5256 145a 4A060000 		.4byte	.LASF131
 5257 145e 1E       		.byte	0x1e
 5258 145f 4F       		.byte	0x4f
 5259 1460 1B       		.uleb128 0x1b
 5260 1461 72080000 		.4byte	.LASF132
 5261 1465 72080000 		.4byte	.LASF132
 5262 1469 29       		.byte	0x29
 5263 146a 92       		.byte	0x92
 5264 146b 1B       		.uleb128 0x1b
 5265 146c D2080000 		.4byte	.LASF133
 5266 1470 D2080000 		.4byte	.LASF133
 5267 1474 07       		.byte	0x7
 5268 1475 92       		.byte	0x92
 5269 1476 1B       		.uleb128 0x1b
 5270 1477 79000000 		.4byte	.LASF134
 5271 147b 79000000 		.4byte	.LASF134
 5272 147f 2A       		.byte	0x2a
 5273 1480 92       		.byte	0x92
 5274 1481 1B       		.uleb128 0x1b
 5275 1482 3B000000 		.4byte	.LASF135
 5276 1486 3B000000 		.4byte	.LASF135
 5277 148a 2B       		.byte	0x2b
 5278 148b 92       		.byte	0x92
 5279 148c 1B       		.uleb128 0x1b
 5280 148d 0D010000 		.4byte	.LASF136
 5281 1491 0D010000 		.4byte	.LASF136
 5282 1495 10       		.byte	0x10
 5283 1496 48       		.byte	0x48
 5284 1497 1B       		.uleb128 0x1b
 5285 1498 F4050000 		.4byte	.LASF137
 5286 149c F4050000 		.4byte	.LASF137
 5287 14a0 11       		.byte	0x11
 5288 14a1 48       		.byte	0x48
 5289 14a2 1B       		.uleb128 0x1b
 5290 14a3 F1060000 		.4byte	.LASF138
 5291 14a7 F1060000 		.4byte	.LASF138
 5292 14ab 0A       		.byte	0xa
 5293 14ac 54       		.byte	0x54
 5294 14ad 1B       		.uleb128 0x1b
 5295 14ae 81060000 		.4byte	.LASF139
 5296 14b2 81060000 		.4byte	.LASF139
 5297 14b6 2C       		.byte	0x2c
 5298 14b7 26       		.byte	0x26
 5299 14b8 1B       		.uleb128 0x1b
 5300 14b9 6F020000 		.4byte	.LASF140
 5301 14bd 6F020000 		.4byte	.LASF140
 5302 14c1 2D       		.byte	0x2d
 5303 14c2 26       		.byte	0x26
 5304 14c3 1B       		.uleb128 0x1b
 5305 14c4 D2050000 		.4byte	.LASF141
ARM GAS  C:\Users\weiro\AppData\Local\Temp\ccS229OV.s 			page 110


 5306 14c8 D2050000 		.4byte	.LASF141
 5307 14cc 29       		.byte	0x29
 5308 14cd C3       		.byte	0xc3
 5309 14ce 1B       		.uleb128 0x1b
 5310 14cf 5C030000 		.4byte	.LASF142
 5311 14d3 5C030000 		.4byte	.LASF142
 5312 14d7 2B       		.byte	0x2b
 5313 14d8 C3       		.byte	0xc3
 5314 14d9 1B       		.uleb128 0x1b
 5315 14da 48050000 		.4byte	.LASF143
 5316 14de 48050000 		.4byte	.LASF143
 5317 14e2 2A       		.byte	0x2a
 5318 14e3 C3       		.byte	0xc3
 5319 14e4 00       		.byte	0
 5320              		.section	.debug_abbrev,"",%progbits
 5321              	.Ldebug_abbrev0:
 5322 0000 01       		.uleb128 0x1
 5323 0001 11       		.uleb128 0x11
 5324 0002 01       		.byte	0x1
 5325 0003 25       		.uleb128 0x25
 5326 0004 0E       		.uleb128 0xe
 5327 0005 13       		.uleb128 0x13
 5328 0006 0B       		.uleb128 0xb
 5329 0007 03       		.uleb128 0x3
 5330 0008 0E       		.uleb128 0xe
 5331 0009 1B       		.uleb128 0x1b
 5332 000a 0E       		.uleb128 0xe
 5333 000b 55       		.uleb128 0x55
 5334 000c 17       		.uleb128 0x17
 5335 000d 11       		.uleb128 0x11
 5336 000e 01       		.uleb128 0x1
 5337 000f 10       		.uleb128 0x10
 5338 0010 17       		.uleb128 0x17
 5339 0011 00       		.byte	0
 5340 0012 00       		.byte	0
 5341 0013 02       		.uleb128 0x2
 5342 0014 24       		.uleb128 0x24
 5343 0015 00       		.byte	0
 5344 0016 0B       		.uleb128 0xb
 5345 0017 0B       		.uleb128 0xb
 5346 0018 3E       		.uleb128 0x3e
 5347 0019 0B       		.uleb128 0xb
 5348 001a 03       		.uleb128 0x3
 5349 001b 0E       		.uleb128 0xe
 5350 001c 00       		.byte	0
 5351 001d 00       		.byte	0
 5352 001e 03       		.uleb128 0x3
 5353 001f 16       		.uleb128 0x16
 5354 0020 00       		.byte	0
 5355 0021 03       		.uleb128 0x3
 5356 0022 0E       		.uleb128 0xe
 5357 0023 3A       		.uleb128 0x3a
 5358 0024 0B       		.uleb128 0xb
 5359 0025 3B       		.uleb128 0x3b
 5360 0026 0B       		.uleb128 0xb
 5361 0027 49       		.uleb128 0x49
 5362 0028 13       		.uleb128 0x13
ARM GAS  C:\Users\weiro\AppData\Local\Temp\ccS229OV.s 			page 111


 5363 0029 00       		.byte	0
 5364 002a 00       		.byte	0
 5365 002b 04       		.uleb128 0x4
 5366 002c 24       		.uleb128 0x24
 5367 002d 00       		.byte	0
 5368 002e 0B       		.uleb128 0xb
 5369 002f 0B       		.uleb128 0xb
 5370 0030 3E       		.uleb128 0x3e
 5371 0031 0B       		.uleb128 0xb
 5372 0032 03       		.uleb128 0x3
 5373 0033 08       		.uleb128 0x8
 5374 0034 00       		.byte	0
 5375 0035 00       		.byte	0
 5376 0036 05       		.uleb128 0x5
 5377 0037 16       		.uleb128 0x16
 5378 0038 00       		.byte	0
 5379 0039 03       		.uleb128 0x3
 5380 003a 0E       		.uleb128 0xe
 5381 003b 3A       		.uleb128 0x3a
 5382 003c 0B       		.uleb128 0xb
 5383 003d 3B       		.uleb128 0x3b
 5384 003e 05       		.uleb128 0x5
 5385 003f 49       		.uleb128 0x49
 5386 0040 13       		.uleb128 0x13
 5387 0041 00       		.byte	0
 5388 0042 00       		.byte	0
 5389 0043 06       		.uleb128 0x6
 5390 0044 2E       		.uleb128 0x2e
 5391 0045 01       		.byte	0x1
 5392 0046 3F       		.uleb128 0x3f
 5393 0047 19       		.uleb128 0x19
 5394 0048 03       		.uleb128 0x3
 5395 0049 0E       		.uleb128 0xe
 5396 004a 3A       		.uleb128 0x3a
 5397 004b 0B       		.uleb128 0xb
 5398 004c 3B       		.uleb128 0x3b
 5399 004d 0B       		.uleb128 0xb
 5400 004e 27       		.uleb128 0x27
 5401 004f 19       		.uleb128 0x19
 5402 0050 11       		.uleb128 0x11
 5403 0051 01       		.uleb128 0x1
 5404 0052 12       		.uleb128 0x12
 5405 0053 06       		.uleb128 0x6
 5406 0054 40       		.uleb128 0x40
 5407 0055 18       		.uleb128 0x18
 5408 0056 9742     		.uleb128 0x2117
 5409 0058 19       		.uleb128 0x19
 5410 0059 01       		.uleb128 0x1
 5411 005a 13       		.uleb128 0x13
 5412 005b 00       		.byte	0
 5413 005c 00       		.byte	0
 5414 005d 07       		.uleb128 0x7
 5415 005e 898201   		.uleb128 0x4109
 5416 0061 00       		.byte	0
 5417 0062 11       		.uleb128 0x11
 5418 0063 01       		.uleb128 0x1
 5419 0064 31       		.uleb128 0x31
ARM GAS  C:\Users\weiro\AppData\Local\Temp\ccS229OV.s 			page 112


 5420 0065 13       		.uleb128 0x13
 5421 0066 00       		.byte	0
 5422 0067 00       		.byte	0
 5423 0068 08       		.uleb128 0x8
 5424 0069 2E       		.uleb128 0x2e
 5425 006a 01       		.byte	0x1
 5426 006b 3F       		.uleb128 0x3f
 5427 006c 19       		.uleb128 0x19
 5428 006d 03       		.uleb128 0x3
 5429 006e 0E       		.uleb128 0xe
 5430 006f 3A       		.uleb128 0x3a
 5431 0070 0B       		.uleb128 0xb
 5432 0071 3B       		.uleb128 0x3b
 5433 0072 0B       		.uleb128 0xb
 5434 0073 27       		.uleb128 0x27
 5435 0074 19       		.uleb128 0x19
 5436 0075 11       		.uleb128 0x11
 5437 0076 01       		.uleb128 0x1
 5438 0077 12       		.uleb128 0x12
 5439 0078 06       		.uleb128 0x6
 5440 0079 40       		.uleb128 0x40
 5441 007a 18       		.uleb128 0x18
 5442 007b 9642     		.uleb128 0x2116
 5443 007d 19       		.uleb128 0x19
 5444 007e 01       		.uleb128 0x1
 5445 007f 13       		.uleb128 0x13
 5446 0080 00       		.byte	0
 5447 0081 00       		.byte	0
 5448 0082 09       		.uleb128 0x9
 5449 0083 898201   		.uleb128 0x4109
 5450 0086 01       		.byte	0x1
 5451 0087 11       		.uleb128 0x11
 5452 0088 01       		.uleb128 0x1
 5453 0089 31       		.uleb128 0x31
 5454 008a 13       		.uleb128 0x13
 5455 008b 01       		.uleb128 0x1
 5456 008c 13       		.uleb128 0x13
 5457 008d 00       		.byte	0
 5458 008e 00       		.byte	0
 5459 008f 0A       		.uleb128 0xa
 5460 0090 8A8201   		.uleb128 0x410a
 5461 0093 00       		.byte	0
 5462 0094 02       		.uleb128 0x2
 5463 0095 18       		.uleb128 0x18
 5464 0096 9142     		.uleb128 0x2111
 5465 0098 18       		.uleb128 0x18
 5466 0099 00       		.byte	0
 5467 009a 00       		.byte	0
 5468 009b 0B       		.uleb128 0xb
 5469 009c 898201   		.uleb128 0x4109
 5470 009f 01       		.byte	0x1
 5471 00a0 11       		.uleb128 0x11
 5472 00a1 01       		.uleb128 0x1
 5473 00a2 31       		.uleb128 0x31
 5474 00a3 13       		.uleb128 0x13
 5475 00a4 00       		.byte	0
 5476 00a5 00       		.byte	0
ARM GAS  C:\Users\weiro\AppData\Local\Temp\ccS229OV.s 			page 113


 5477 00a6 0C       		.uleb128 0xc
 5478 00a7 2E       		.uleb128 0x2e
 5479 00a8 01       		.byte	0x1
 5480 00a9 3F       		.uleb128 0x3f
 5481 00aa 19       		.uleb128 0x19
 5482 00ab 03       		.uleb128 0x3
 5483 00ac 0E       		.uleb128 0xe
 5484 00ad 3A       		.uleb128 0x3a
 5485 00ae 0B       		.uleb128 0xb
 5486 00af 3B       		.uleb128 0x3b
 5487 00b0 0B       		.uleb128 0xb
 5488 00b1 11       		.uleb128 0x11
 5489 00b2 01       		.uleb128 0x1
 5490 00b3 12       		.uleb128 0x12
 5491 00b4 06       		.uleb128 0x6
 5492 00b5 40       		.uleb128 0x40
 5493 00b6 18       		.uleb128 0x18
 5494 00b7 9742     		.uleb128 0x2117
 5495 00b9 19       		.uleb128 0x19
 5496 00ba 01       		.uleb128 0x1
 5497 00bb 13       		.uleb128 0x13
 5498 00bc 00       		.byte	0
 5499 00bd 00       		.byte	0
 5500 00be 0D       		.uleb128 0xd
 5501 00bf 2E       		.uleb128 0x2e
 5502 00c0 01       		.byte	0x1
 5503 00c1 3F       		.uleb128 0x3f
 5504 00c2 19       		.uleb128 0x19
 5505 00c3 03       		.uleb128 0x3
 5506 00c4 0E       		.uleb128 0xe
 5507 00c5 3A       		.uleb128 0x3a
 5508 00c6 0B       		.uleb128 0xb
 5509 00c7 3B       		.uleb128 0x3b
 5510 00c8 05       		.uleb128 0x5
 5511 00c9 11       		.uleb128 0x11
 5512 00ca 01       		.uleb128 0x1
 5513 00cb 12       		.uleb128 0x12
 5514 00cc 06       		.uleb128 0x6
 5515 00cd 40       		.uleb128 0x40
 5516 00ce 18       		.uleb128 0x18
 5517 00cf 9742     		.uleb128 0x2117
 5518 00d1 19       		.uleb128 0x19
 5519 00d2 01       		.uleb128 0x1
 5520 00d3 13       		.uleb128 0x13
 5521 00d4 00       		.byte	0
 5522 00d5 00       		.byte	0
 5523 00d6 0E       		.uleb128 0xe
 5524 00d7 2E       		.uleb128 0x2e
 5525 00d8 01       		.byte	0x1
 5526 00d9 3F       		.uleb128 0x3f
 5527 00da 19       		.uleb128 0x19
 5528 00db 03       		.uleb128 0x3
 5529 00dc 0E       		.uleb128 0xe
 5530 00dd 3A       		.uleb128 0x3a
 5531 00de 0B       		.uleb128 0xb
 5532 00df 3B       		.uleb128 0x3b
 5533 00e0 05       		.uleb128 0x5
ARM GAS  C:\Users\weiro\AppData\Local\Temp\ccS229OV.s 			page 114


 5534 00e1 27       		.uleb128 0x27
 5535 00e2 19       		.uleb128 0x19
 5536 00e3 11       		.uleb128 0x11
 5537 00e4 01       		.uleb128 0x1
 5538 00e5 12       		.uleb128 0x12
 5539 00e6 06       		.uleb128 0x6
 5540 00e7 40       		.uleb128 0x40
 5541 00e8 18       		.uleb128 0x18
 5542 00e9 9642     		.uleb128 0x2116
 5543 00eb 19       		.uleb128 0x19
 5544 00ec 01       		.uleb128 0x1
 5545 00ed 13       		.uleb128 0x13
 5546 00ee 00       		.byte	0
 5547 00ef 00       		.byte	0
 5548 00f0 0F       		.uleb128 0xf
 5549 00f1 05       		.uleb128 0x5
 5550 00f2 00       		.byte	0
 5551 00f3 03       		.uleb128 0x3
 5552 00f4 0E       		.uleb128 0xe
 5553 00f5 3A       		.uleb128 0x3a
 5554 00f6 0B       		.uleb128 0xb
 5555 00f7 3B       		.uleb128 0x3b
 5556 00f8 05       		.uleb128 0x5
 5557 00f9 49       		.uleb128 0x49
 5558 00fa 13       		.uleb128 0x13
 5559 00fb 02       		.uleb128 0x2
 5560 00fc 17       		.uleb128 0x17
 5561 00fd 00       		.byte	0
 5562 00fe 00       		.byte	0
 5563 00ff 10       		.uleb128 0x10
 5564 0100 34       		.uleb128 0x34
 5565 0101 00       		.byte	0
 5566 0102 03       		.uleb128 0x3
 5567 0103 0E       		.uleb128 0xe
 5568 0104 3A       		.uleb128 0x3a
 5569 0105 0B       		.uleb128 0xb
 5570 0106 3B       		.uleb128 0x3b
 5571 0107 05       		.uleb128 0x5
 5572 0108 49       		.uleb128 0x49
 5573 0109 13       		.uleb128 0x13
 5574 010a 02       		.uleb128 0x2
 5575 010b 17       		.uleb128 0x17
 5576 010c 00       		.byte	0
 5577 010d 00       		.byte	0
 5578 010e 11       		.uleb128 0x11
 5579 010f 2E       		.uleb128 0x2e
 5580 0110 01       		.byte	0x1
 5581 0111 3F       		.uleb128 0x3f
 5582 0112 19       		.uleb128 0x19
 5583 0113 03       		.uleb128 0x3
 5584 0114 0E       		.uleb128 0xe
 5585 0115 3A       		.uleb128 0x3a
 5586 0116 0B       		.uleb128 0xb
 5587 0117 3B       		.uleb128 0x3b
 5588 0118 05       		.uleb128 0x5
 5589 0119 11       		.uleb128 0x11
 5590 011a 01       		.uleb128 0x1
ARM GAS  C:\Users\weiro\AppData\Local\Temp\ccS229OV.s 			page 115


 5591 011b 12       		.uleb128 0x12
 5592 011c 06       		.uleb128 0x6
 5593 011d 40       		.uleb128 0x40
 5594 011e 18       		.uleb128 0x18
 5595 011f 9642     		.uleb128 0x2116
 5596 0121 19       		.uleb128 0x19
 5597 0122 01       		.uleb128 0x1
 5598 0123 13       		.uleb128 0x13
 5599 0124 00       		.byte	0
 5600 0125 00       		.byte	0
 5601 0126 12       		.uleb128 0x12
 5602 0127 34       		.uleb128 0x34
 5603 0128 00       		.byte	0
 5604 0129 03       		.uleb128 0x3
 5605 012a 0E       		.uleb128 0xe
 5606 012b 3A       		.uleb128 0x3a
 5607 012c 0B       		.uleb128 0xb
 5608 012d 3B       		.uleb128 0x3b
 5609 012e 05       		.uleb128 0x5
 5610 012f 49       		.uleb128 0x49
 5611 0130 13       		.uleb128 0x13
 5612 0131 1C       		.uleb128 0x1c
 5613 0132 0B       		.uleb128 0xb
 5614 0133 00       		.byte	0
 5615 0134 00       		.byte	0
 5616 0135 13       		.uleb128 0x13
 5617 0136 2E       		.uleb128 0x2e
 5618 0137 01       		.byte	0x1
 5619 0138 3F       		.uleb128 0x3f
 5620 0139 19       		.uleb128 0x19
 5621 013a 03       		.uleb128 0x3
 5622 013b 08       		.uleb128 0x8
 5623 013c 3A       		.uleb128 0x3a
 5624 013d 0B       		.uleb128 0xb
 5625 013e 3B       		.uleb128 0x3b
 5626 013f 05       		.uleb128 0x5
 5627 0140 27       		.uleb128 0x27
 5628 0141 19       		.uleb128 0x19
 5629 0142 11       		.uleb128 0x11
 5630 0143 01       		.uleb128 0x1
 5631 0144 12       		.uleb128 0x12
 5632 0145 06       		.uleb128 0x6
 5633 0146 40       		.uleb128 0x40
 5634 0147 18       		.uleb128 0x18
 5635 0148 9742     		.uleb128 0x2117
 5636 014a 19       		.uleb128 0x19
 5637 014b 01       		.uleb128 0x1
 5638 014c 13       		.uleb128 0x13
 5639 014d 00       		.byte	0
 5640 014e 00       		.byte	0
 5641 014f 14       		.uleb128 0x14
 5642 0150 2E       		.uleb128 0x2e
 5643 0151 01       		.byte	0x1
 5644 0152 3F       		.uleb128 0x3f
 5645 0153 19       		.uleb128 0x19
 5646 0154 03       		.uleb128 0x3
 5647 0155 0E       		.uleb128 0xe
ARM GAS  C:\Users\weiro\AppData\Local\Temp\ccS229OV.s 			page 116


 5648 0156 3A       		.uleb128 0x3a
 5649 0157 0B       		.uleb128 0xb
 5650 0158 3B       		.uleb128 0x3b
 5651 0159 05       		.uleb128 0x5
 5652 015a 27       		.uleb128 0x27
 5653 015b 19       		.uleb128 0x19
 5654 015c 49       		.uleb128 0x49
 5655 015d 13       		.uleb128 0x13
 5656 015e 11       		.uleb128 0x11
 5657 015f 01       		.uleb128 0x1
 5658 0160 12       		.uleb128 0x12
 5659 0161 06       		.uleb128 0x6
 5660 0162 40       		.uleb128 0x40
 5661 0163 18       		.uleb128 0x18
 5662 0164 9642     		.uleb128 0x2116
 5663 0166 19       		.uleb128 0x19
 5664 0167 01       		.uleb128 0x1
 5665 0168 13       		.uleb128 0x13
 5666 0169 00       		.byte	0
 5667 016a 00       		.byte	0
 5668 016b 15       		.uleb128 0x15
 5669 016c 34       		.uleb128 0x34
 5670 016d 00       		.byte	0
 5671 016e 03       		.uleb128 0x3
 5672 016f 0E       		.uleb128 0xe
 5673 0170 3A       		.uleb128 0x3a
 5674 0171 0B       		.uleb128 0xb
 5675 0172 3B       		.uleb128 0x3b
 5676 0173 05       		.uleb128 0x5
 5677 0174 49       		.uleb128 0x49
 5678 0175 13       		.uleb128 0x13
 5679 0176 3F       		.uleb128 0x3f
 5680 0177 19       		.uleb128 0x19
 5681 0178 3C       		.uleb128 0x3c
 5682 0179 19       		.uleb128 0x19
 5683 017a 00       		.byte	0
 5684 017b 00       		.byte	0
 5685 017c 16       		.uleb128 0x16
 5686 017d 35       		.uleb128 0x35
 5687 017e 00       		.byte	0
 5688 017f 49       		.uleb128 0x49
 5689 0180 13       		.uleb128 0x13
 5690 0181 00       		.byte	0
 5691 0182 00       		.byte	0
 5692 0183 17       		.uleb128 0x17
 5693 0184 34       		.uleb128 0x34
 5694 0185 00       		.byte	0
 5695 0186 03       		.uleb128 0x3
 5696 0187 0E       		.uleb128 0xe
 5697 0188 3A       		.uleb128 0x3a
 5698 0189 0B       		.uleb128 0xb
 5699 018a 3B       		.uleb128 0x3b
 5700 018b 0B       		.uleb128 0xb
 5701 018c 49       		.uleb128 0x49
 5702 018d 13       		.uleb128 0x13
 5703 018e 3F       		.uleb128 0x3f
 5704 018f 19       		.uleb128 0x19
ARM GAS  C:\Users\weiro\AppData\Local\Temp\ccS229OV.s 			page 117


 5705 0190 02       		.uleb128 0x2
 5706 0191 18       		.uleb128 0x18
 5707 0192 00       		.byte	0
 5708 0193 00       		.byte	0
 5709 0194 18       		.uleb128 0x18
 5710 0195 01       		.uleb128 0x1
 5711 0196 01       		.byte	0x1
 5712 0197 49       		.uleb128 0x49
 5713 0198 13       		.uleb128 0x13
 5714 0199 01       		.uleb128 0x1
 5715 019a 13       		.uleb128 0x13
 5716 019b 00       		.byte	0
 5717 019c 00       		.byte	0
 5718 019d 19       		.uleb128 0x19
 5719 019e 21       		.uleb128 0x21
 5720 019f 00       		.byte	0
 5721 01a0 49       		.uleb128 0x49
 5722 01a1 13       		.uleb128 0x13
 5723 01a2 2F       		.uleb128 0x2f
 5724 01a3 0B       		.uleb128 0xb
 5725 01a4 00       		.byte	0
 5726 01a5 00       		.byte	0
 5727 01a6 1A       		.uleb128 0x1a
 5728 01a7 34       		.uleb128 0x34
 5729 01a8 00       		.byte	0
 5730 01a9 03       		.uleb128 0x3
 5731 01aa 08       		.uleb128 0x8
 5732 01ab 3A       		.uleb128 0x3a
 5733 01ac 0B       		.uleb128 0xb
 5734 01ad 3B       		.uleb128 0x3b
 5735 01ae 0B       		.uleb128 0xb
 5736 01af 49       		.uleb128 0x49
 5737 01b0 13       		.uleb128 0x13
 5738 01b1 3F       		.uleb128 0x3f
 5739 01b2 19       		.uleb128 0x19
 5740 01b3 02       		.uleb128 0x2
 5741 01b4 18       		.uleb128 0x18
 5742 01b5 00       		.byte	0
 5743 01b6 00       		.byte	0
 5744 01b7 1B       		.uleb128 0x1b
 5745 01b8 2E       		.uleb128 0x2e
 5746 01b9 00       		.byte	0
 5747 01ba 3F       		.uleb128 0x3f
 5748 01bb 19       		.uleb128 0x19
 5749 01bc 3C       		.uleb128 0x3c
 5750 01bd 19       		.uleb128 0x19
 5751 01be 6E       		.uleb128 0x6e
 5752 01bf 0E       		.uleb128 0xe
 5753 01c0 03       		.uleb128 0x3
 5754 01c1 0E       		.uleb128 0xe
 5755 01c2 3A       		.uleb128 0x3a
 5756 01c3 0B       		.uleb128 0xb
 5757 01c4 3B       		.uleb128 0x3b
 5758 01c5 0B       		.uleb128 0xb
 5759 01c6 00       		.byte	0
 5760 01c7 00       		.byte	0
 5761 01c8 00       		.byte	0
ARM GAS  C:\Users\weiro\AppData\Local\Temp\ccS229OV.s 			page 118


 5762              		.section	.debug_loc,"",%progbits
 5763              	.Ldebug_loc0:
 5764              	.LLST0:
 5765 0000 00000000 		.4byte	.LVL44
 5766 0004 07000000 		.4byte	.LVL45-1
 5767 0008 0100     		.2byte	0x1
 5768 000a 50       		.byte	0x50
 5769 000b 07000000 		.4byte	.LVL45-1
 5770 000f 10010000 		.4byte	.LFE74
 5771 0013 0400     		.2byte	0x4
 5772 0015 F3       		.byte	0xf3
 5773 0016 01       		.uleb128 0x1
 5774 0017 50       		.byte	0x50
 5775 0018 9F       		.byte	0x9f
 5776 0019 00000000 		.4byte	0
 5777 001d 00000000 		.4byte	0
 5778              	.LLST1:
 5779 0021 00000000 		.4byte	.LVL44
 5780 0025 07000000 		.4byte	.LVL45-1
 5781 0029 0100     		.2byte	0x1
 5782 002b 51       		.byte	0x51
 5783 002c 07000000 		.4byte	.LVL45-1
 5784 0030 F4000000 		.4byte	.LVL76
 5785 0034 0100     		.2byte	0x1
 5786 0036 56       		.byte	0x56
 5787 0037 F4000000 		.4byte	.LVL76
 5788 003b 10010000 		.4byte	.LFE74
 5789 003f 0400     		.2byte	0x4
 5790 0041 F3       		.byte	0xf3
 5791 0042 01       		.uleb128 0x1
 5792 0043 51       		.byte	0x51
 5793 0044 9F       		.byte	0x9f
 5794 0045 00000000 		.4byte	0
 5795 0049 00000000 		.4byte	0
 5796              	.LLST2:
 5797 004d 70000000 		.4byte	.LVL58
 5798 0051 9E000000 		.4byte	.LVL62
 5799 0055 0600     		.2byte	0x6
 5800 0057 54       		.byte	0x54
 5801 0058 93       		.byte	0x93
 5802 0059 04       		.uleb128 0x4
 5803 005a 55       		.byte	0x55
 5804 005b 93       		.byte	0x93
 5805 005c 04       		.uleb128 0x4
 5806 005d AC000000 		.4byte	.LVL64
 5807 0061 B2000000 		.4byte	.LVL65
 5808 0065 0600     		.2byte	0x6
 5809 0067 54       		.byte	0x54
 5810 0068 93       		.byte	0x93
 5811 0069 04       		.uleb128 0x4
 5812 006a 55       		.byte	0x55
 5813 006b 93       		.byte	0x93
 5814 006c 04       		.uleb128 0x4
 5815 006d C0000000 		.4byte	.LVL67
 5816 0071 C6000000 		.4byte	.LVL68
 5817 0075 0600     		.2byte	0x6
 5818 0077 54       		.byte	0x54
ARM GAS  C:\Users\weiro\AppData\Local\Temp\ccS229OV.s 			page 119


 5819 0078 93       		.byte	0x93
 5820 0079 04       		.uleb128 0x4
 5821 007a 55       		.byte	0x55
 5822 007b 93       		.byte	0x93
 5823 007c 04       		.uleb128 0x4
 5824 007d D8000000 		.4byte	.LVL71
 5825 0081 DE000000 		.4byte	.LVL72
 5826 0085 0600     		.2byte	0x6
 5827 0087 54       		.byte	0x54
 5828 0088 93       		.byte	0x93
 5829 0089 04       		.uleb128 0x4
 5830 008a 55       		.byte	0x55
 5831 008b 93       		.byte	0x93
 5832 008c 04       		.uleb128 0x4
 5833 008d 00000000 		.4byte	0
 5834 0091 00000000 		.4byte	0
 5835              	.LLST3:
 5836 0095 96000000 		.4byte	.LVL61
 5837 0099 A5000000 		.4byte	.LVL63-1
 5838 009d 0600     		.2byte	0x6
 5839 009f 50       		.byte	0x50
 5840 00a0 93       		.byte	0x93
 5841 00a1 04       		.uleb128 0x4
 5842 00a2 51       		.byte	0x51
 5843 00a3 93       		.byte	0x93
 5844 00a4 04       		.uleb128 0x4
 5845 00a5 AC000000 		.4byte	.LVL64
 5846 00a9 B9000000 		.4byte	.LVL66-1
 5847 00ad 0600     		.2byte	0x6
 5848 00af 50       		.byte	0x50
 5849 00b0 93       		.byte	0x93
 5850 00b1 04       		.uleb128 0x4
 5851 00b2 51       		.byte	0x51
 5852 00b3 93       		.byte	0x93
 5853 00b4 04       		.uleb128 0x4
 5854 00b5 C0000000 		.4byte	.LVL67
 5855 00b9 CE000000 		.4byte	.LVL69
 5856 00bd 0600     		.2byte	0x6
 5857 00bf 50       		.byte	0x50
 5858 00c0 93       		.byte	0x93
 5859 00c1 04       		.uleb128 0x4
 5860 00c2 51       		.byte	0x51
 5861 00c3 93       		.byte	0x93
 5862 00c4 04       		.uleb128 0x4
 5863 00c5 D8000000 		.4byte	.LVL71
 5864 00c9 E6000000 		.4byte	.LVL73
 5865 00cd 0600     		.2byte	0x6
 5866 00cf 50       		.byte	0x50
 5867 00d0 93       		.byte	0x93
 5868 00d1 04       		.uleb128 0x4
 5869 00d2 51       		.byte	0x51
 5870 00d3 93       		.byte	0x93
 5871 00d4 04       		.uleb128 0x4
 5872 00d5 00000000 		.4byte	0
 5873 00d9 00000000 		.4byte	0
 5874              	.LLST4:
 5875 00dd 18000000 		.4byte	.LVL48
ARM GAS  C:\Users\weiro\AppData\Local\Temp\ccS229OV.s 			page 120


 5876 00e1 1A000000 		.4byte	.LVL49
 5877 00e5 0100     		.2byte	0x1
 5878 00e7 50       		.byte	0x50
 5879 00e8 1A000000 		.4byte	.LVL49
 5880 00ec 70000000 		.4byte	.LVL58
 5881 00f0 0100     		.2byte	0x1
 5882 00f2 55       		.byte	0x55
 5883 00f3 00000000 		.4byte	0
 5884 00f7 00000000 		.4byte	0
 5885              	.LLST5:
 5886 00fb 50000000 		.4byte	.LVL87
 5887 00ff 7E000000 		.4byte	.LVL91
 5888 0103 0600     		.2byte	0x6
 5889 0105 54       		.byte	0x54
 5890 0106 93       		.byte	0x93
 5891 0107 04       		.uleb128 0x4
 5892 0108 55       		.byte	0x55
 5893 0109 93       		.byte	0x93
 5894 010a 04       		.uleb128 0x4
 5895 010b 8C000000 		.4byte	.LVL93
 5896 010f 92000000 		.4byte	.LVL94
 5897 0113 0600     		.2byte	0x6
 5898 0115 54       		.byte	0x54
 5899 0116 93       		.byte	0x93
 5900 0117 04       		.uleb128 0x4
 5901 0118 55       		.byte	0x55
 5902 0119 93       		.byte	0x93
 5903 011a 04       		.uleb128 0x4
 5904 011b A0000000 		.4byte	.LVL96
 5905 011f A6000000 		.4byte	.LVL97
 5906 0123 0600     		.2byte	0x6
 5907 0125 54       		.byte	0x54
 5908 0126 93       		.byte	0x93
 5909 0127 04       		.uleb128 0x4
 5910 0128 55       		.byte	0x55
 5911 0129 93       		.byte	0x93
 5912 012a 04       		.uleb128 0x4
 5913 012b B8000000 		.4byte	.LVL100
 5914 012f BE000000 		.4byte	.LVL101
 5915 0133 0600     		.2byte	0x6
 5916 0135 54       		.byte	0x54
 5917 0136 93       		.byte	0x93
 5918 0137 04       		.uleb128 0x4
 5919 0138 55       		.byte	0x55
 5920 0139 93       		.byte	0x93
 5921 013a 04       		.uleb128 0x4
 5922 013b 00000000 		.4byte	0
 5923 013f 00000000 		.4byte	0
 5924              	.LLST6:
 5925 0143 76000000 		.4byte	.LVL90
 5926 0147 85000000 		.4byte	.LVL92-1
 5927 014b 0600     		.2byte	0x6
 5928 014d 50       		.byte	0x50
 5929 014e 93       		.byte	0x93
 5930 014f 04       		.uleb128 0x4
 5931 0150 51       		.byte	0x51
 5932 0151 93       		.byte	0x93
ARM GAS  C:\Users\weiro\AppData\Local\Temp\ccS229OV.s 			page 121


 5933 0152 04       		.uleb128 0x4
 5934 0153 8C000000 		.4byte	.LVL93
 5935 0157 99000000 		.4byte	.LVL95-1
 5936 015b 0600     		.2byte	0x6
 5937 015d 50       		.byte	0x50
 5938 015e 93       		.byte	0x93
 5939 015f 04       		.uleb128 0x4
 5940 0160 51       		.byte	0x51
 5941 0161 93       		.byte	0x93
 5942 0162 04       		.uleb128 0x4
 5943 0163 A0000000 		.4byte	.LVL96
 5944 0167 AE000000 		.4byte	.LVL98
 5945 016b 0600     		.2byte	0x6
 5946 016d 50       		.byte	0x50
 5947 016e 93       		.byte	0x93
 5948 016f 04       		.uleb128 0x4
 5949 0170 51       		.byte	0x51
 5950 0171 93       		.byte	0x93
 5951 0172 04       		.uleb128 0x4
 5952 0173 B8000000 		.4byte	.LVL100
 5953 0177 C6000000 		.4byte	.LVL102
 5954 017b 0600     		.2byte	0x6
 5955 017d 50       		.byte	0x50
 5956 017e 93       		.byte	0x93
 5957 017f 04       		.uleb128 0x4
 5958 0180 51       		.byte	0x51
 5959 0181 93       		.byte	0x93
 5960 0182 04       		.uleb128 0x4
 5961 0183 00000000 		.4byte	0
 5962 0187 00000000 		.4byte	0
 5963              	.LLST7:
 5964 018b 50000000 		.4byte	.LVL115
 5965 018f 7E000000 		.4byte	.LVL119
 5966 0193 0600     		.2byte	0x6
 5967 0195 54       		.byte	0x54
 5968 0196 93       		.byte	0x93
 5969 0197 04       		.uleb128 0x4
 5970 0198 55       		.byte	0x55
 5971 0199 93       		.byte	0x93
 5972 019a 04       		.uleb128 0x4
 5973 019b 8C000000 		.4byte	.LVL121
 5974 019f 92000000 		.4byte	.LVL122
 5975 01a3 0600     		.2byte	0x6
 5976 01a5 54       		.byte	0x54
 5977 01a6 93       		.byte	0x93
 5978 01a7 04       		.uleb128 0x4
 5979 01a8 55       		.byte	0x55
 5980 01a9 93       		.byte	0x93
 5981 01aa 04       		.uleb128 0x4
 5982 01ab A0000000 		.4byte	.LVL124
 5983 01af A6000000 		.4byte	.LVL125
 5984 01b3 0600     		.2byte	0x6
 5985 01b5 54       		.byte	0x54
 5986 01b6 93       		.byte	0x93
 5987 01b7 04       		.uleb128 0x4
 5988 01b8 55       		.byte	0x55
 5989 01b9 93       		.byte	0x93
ARM GAS  C:\Users\weiro\AppData\Local\Temp\ccS229OV.s 			page 122


 5990 01ba 04       		.uleb128 0x4
 5991 01bb B8000000 		.4byte	.LVL128
 5992 01bf BE000000 		.4byte	.LVL129
 5993 01c3 0600     		.2byte	0x6
 5994 01c5 54       		.byte	0x54
 5995 01c6 93       		.byte	0x93
 5996 01c7 04       		.uleb128 0x4
 5997 01c8 55       		.byte	0x55
 5998 01c9 93       		.byte	0x93
 5999 01ca 04       		.uleb128 0x4
 6000 01cb 00000000 		.4byte	0
 6001 01cf 00000000 		.4byte	0
 6002              	.LLST8:
 6003 01d3 76000000 		.4byte	.LVL118
 6004 01d7 85000000 		.4byte	.LVL120-1
 6005 01db 0600     		.2byte	0x6
 6006 01dd 50       		.byte	0x50
 6007 01de 93       		.byte	0x93
 6008 01df 04       		.uleb128 0x4
 6009 01e0 51       		.byte	0x51
 6010 01e1 93       		.byte	0x93
 6011 01e2 04       		.uleb128 0x4
 6012 01e3 8C000000 		.4byte	.LVL121
 6013 01e7 99000000 		.4byte	.LVL123-1
 6014 01eb 0600     		.2byte	0x6
 6015 01ed 50       		.byte	0x50
 6016 01ee 93       		.byte	0x93
 6017 01ef 04       		.uleb128 0x4
 6018 01f0 51       		.byte	0x51
 6019 01f1 93       		.byte	0x93
 6020 01f2 04       		.uleb128 0x4
 6021 01f3 A0000000 		.4byte	.LVL124
 6022 01f7 AE000000 		.4byte	.LVL126
 6023 01fb 0600     		.2byte	0x6
 6024 01fd 50       		.byte	0x50
 6025 01fe 93       		.byte	0x93
 6026 01ff 04       		.uleb128 0x4
 6027 0200 51       		.byte	0x51
 6028 0201 93       		.byte	0x93
 6029 0202 04       		.uleb128 0x4
 6030 0203 B8000000 		.4byte	.LVL128
 6031 0207 C6000000 		.4byte	.LVL130
 6032 020b 0600     		.2byte	0x6
 6033 020d 50       		.byte	0x50
 6034 020e 93       		.byte	0x93
 6035 020f 04       		.uleb128 0x4
 6036 0210 51       		.byte	0x51
 6037 0211 93       		.byte	0x93
 6038 0212 04       		.uleb128 0x4
 6039 0213 00000000 		.4byte	0
 6040 0217 00000000 		.4byte	0
 6041              	.LLST9:
 6042 021b 2E000000 		.4byte	.LVL139
 6043 021f 5C000000 		.4byte	.LVL143
 6044 0223 0600     		.2byte	0x6
 6045 0225 54       		.byte	0x54
 6046 0226 93       		.byte	0x93
ARM GAS  C:\Users\weiro\AppData\Local\Temp\ccS229OV.s 			page 123


 6047 0227 04       		.uleb128 0x4
 6048 0228 55       		.byte	0x55
 6049 0229 93       		.byte	0x93
 6050 022a 04       		.uleb128 0x4
 6051 022b 6A000000 		.4byte	.LVL145
 6052 022f 70000000 		.4byte	.LVL146
 6053 0233 0600     		.2byte	0x6
 6054 0235 54       		.byte	0x54
 6055 0236 93       		.byte	0x93
 6056 0237 04       		.uleb128 0x4
 6057 0238 55       		.byte	0x55
 6058 0239 93       		.byte	0x93
 6059 023a 04       		.uleb128 0x4
 6060 023b 7E000000 		.4byte	.LVL148
 6061 023f 84000000 		.4byte	.LVL149
 6062 0243 0600     		.2byte	0x6
 6063 0245 54       		.byte	0x54
 6064 0246 93       		.byte	0x93
 6065 0247 04       		.uleb128 0x4
 6066 0248 55       		.byte	0x55
 6067 0249 93       		.byte	0x93
 6068 024a 04       		.uleb128 0x4
 6069 024b 96000000 		.4byte	.LVL152
 6070 024f 9C000000 		.4byte	.LVL153
 6071 0253 0600     		.2byte	0x6
 6072 0255 54       		.byte	0x54
 6073 0256 93       		.byte	0x93
 6074 0257 04       		.uleb128 0x4
 6075 0258 55       		.byte	0x55
 6076 0259 93       		.byte	0x93
 6077 025a 04       		.uleb128 0x4
 6078 025b 00000000 		.4byte	0
 6079 025f 00000000 		.4byte	0
 6080              	.LLST10:
 6081 0263 54000000 		.4byte	.LVL142
 6082 0267 63000000 		.4byte	.LVL144-1
 6083 026b 0600     		.2byte	0x6
 6084 026d 50       		.byte	0x50
 6085 026e 93       		.byte	0x93
 6086 026f 04       		.uleb128 0x4
 6087 0270 51       		.byte	0x51
 6088 0271 93       		.byte	0x93
 6089 0272 04       		.uleb128 0x4
 6090 0273 6A000000 		.4byte	.LVL145
 6091 0277 77000000 		.4byte	.LVL147-1
 6092 027b 0600     		.2byte	0x6
 6093 027d 50       		.byte	0x50
 6094 027e 93       		.byte	0x93
 6095 027f 04       		.uleb128 0x4
 6096 0280 51       		.byte	0x51
 6097 0281 93       		.byte	0x93
 6098 0282 04       		.uleb128 0x4
 6099 0283 7E000000 		.4byte	.LVL148
 6100 0287 8C000000 		.4byte	.LVL150
 6101 028b 0600     		.2byte	0x6
 6102 028d 50       		.byte	0x50
 6103 028e 93       		.byte	0x93
ARM GAS  C:\Users\weiro\AppData\Local\Temp\ccS229OV.s 			page 124


 6104 028f 04       		.uleb128 0x4
 6105 0290 51       		.byte	0x51
 6106 0291 93       		.byte	0x93
 6107 0292 04       		.uleb128 0x4
 6108 0293 96000000 		.4byte	.LVL152
 6109 0297 A4000000 		.4byte	.LVL154
 6110 029b 0600     		.2byte	0x6
 6111 029d 50       		.byte	0x50
 6112 029e 93       		.byte	0x93
 6113 029f 04       		.uleb128 0x4
 6114 02a0 51       		.byte	0x51
 6115 02a1 93       		.byte	0x93
 6116 02a2 04       		.uleb128 0x4
 6117 02a3 00000000 		.4byte	0
 6118 02a7 00000000 		.4byte	0
 6119              	.LLST11:
 6120 02ab 00000000 		.4byte	.LVL157
 6121 02af 12000000 		.4byte	.LVL158
 6122 02b3 0100     		.2byte	0x1
 6123 02b5 50       		.byte	0x50
 6124 02b6 12000000 		.4byte	.LVL158
 6125 02ba AA000000 		.4byte	.LVL173
 6126 02be 0100     		.2byte	0x1
 6127 02c0 55       		.byte	0x55
 6128 02c1 AA000000 		.4byte	.LVL173
 6129 02c5 58010000 		.4byte	.LFE78
 6130 02c9 0400     		.2byte	0x4
 6131 02cb F3       		.byte	0xf3
 6132 02cc 01       		.uleb128 0x1
 6133 02cd 50       		.byte	0x50
 6134 02ce 9F       		.byte	0x9f
 6135 02cf 00000000 		.4byte	0
 6136 02d3 00000000 		.4byte	0
 6137              	.LLST12:
 6138 02d7 00000000 		.4byte	.LVL157
 6139 02db 12000000 		.4byte	.LVL158
 6140 02df 0100     		.2byte	0x1
 6141 02e1 51       		.byte	0x51
 6142 02e2 12000000 		.4byte	.LVL158
 6143 02e6 2A010000 		.4byte	.LVL190
 6144 02ea 0100     		.2byte	0x1
 6145 02ec 56       		.byte	0x56
 6146 02ed 2A010000 		.4byte	.LVL190
 6147 02f1 58010000 		.4byte	.LFE78
 6148 02f5 0400     		.2byte	0x4
 6149 02f7 F3       		.byte	0xf3
 6150 02f8 01       		.uleb128 0x1
 6151 02f9 51       		.byte	0x51
 6152 02fa 9F       		.byte	0x9f
 6153 02fb 00000000 		.4byte	0
 6154 02ff 00000000 		.4byte	0
 6155              	.LLST13:
 6156 0303 AA000000 		.4byte	.LVL173
 6157 0307 D8000000 		.4byte	.LVL177
 6158 030b 0600     		.2byte	0x6
 6159 030d 54       		.byte	0x54
 6160 030e 93       		.byte	0x93
ARM GAS  C:\Users\weiro\AppData\Local\Temp\ccS229OV.s 			page 125


 6161 030f 04       		.uleb128 0x4
 6162 0310 55       		.byte	0x55
 6163 0311 93       		.byte	0x93
 6164 0312 04       		.uleb128 0x4
 6165 0313 E6000000 		.4byte	.LVL179
 6166 0317 EC000000 		.4byte	.LVL180
 6167 031b 0600     		.2byte	0x6
 6168 031d 54       		.byte	0x54
 6169 031e 93       		.byte	0x93
 6170 031f 04       		.uleb128 0x4
 6171 0320 55       		.byte	0x55
 6172 0321 93       		.byte	0x93
 6173 0322 04       		.uleb128 0x4
 6174 0323 FA000000 		.4byte	.LVL182
 6175 0327 00010000 		.4byte	.LVL183
 6176 032b 0600     		.2byte	0x6
 6177 032d 54       		.byte	0x54
 6178 032e 93       		.byte	0x93
 6179 032f 04       		.uleb128 0x4
 6180 0330 55       		.byte	0x55
 6181 0331 93       		.byte	0x93
 6182 0332 04       		.uleb128 0x4
 6183 0333 12010000 		.4byte	.LVL186
 6184 0337 18010000 		.4byte	.LVL187
 6185 033b 0600     		.2byte	0x6
 6186 033d 54       		.byte	0x54
 6187 033e 93       		.byte	0x93
 6188 033f 04       		.uleb128 0x4
 6189 0340 55       		.byte	0x55
 6190 0341 93       		.byte	0x93
 6191 0342 04       		.uleb128 0x4
 6192 0343 00000000 		.4byte	0
 6193 0347 00000000 		.4byte	0
 6194              	.LLST14:
 6195 034b D0000000 		.4byte	.LVL176
 6196 034f DF000000 		.4byte	.LVL178-1
 6197 0353 0600     		.2byte	0x6
 6198 0355 50       		.byte	0x50
 6199 0356 93       		.byte	0x93
 6200 0357 04       		.uleb128 0x4
 6201 0358 51       		.byte	0x51
 6202 0359 93       		.byte	0x93
 6203 035a 04       		.uleb128 0x4
 6204 035b E6000000 		.4byte	.LVL179
 6205 035f F3000000 		.4byte	.LVL181-1
 6206 0363 0600     		.2byte	0x6
 6207 0365 50       		.byte	0x50
 6208 0366 93       		.byte	0x93
 6209 0367 04       		.uleb128 0x4
 6210 0368 51       		.byte	0x51
 6211 0369 93       		.byte	0x93
 6212 036a 04       		.uleb128 0x4
 6213 036b FA000000 		.4byte	.LVL182
 6214 036f 08010000 		.4byte	.LVL184
 6215 0373 0600     		.2byte	0x6
 6216 0375 50       		.byte	0x50
 6217 0376 93       		.byte	0x93
ARM GAS  C:\Users\weiro\AppData\Local\Temp\ccS229OV.s 			page 126


 6218 0377 04       		.uleb128 0x4
 6219 0378 51       		.byte	0x51
 6220 0379 93       		.byte	0x93
 6221 037a 04       		.uleb128 0x4
 6222 037b 12010000 		.4byte	.LVL186
 6223 037f 20010000 		.4byte	.LVL188
 6224 0383 0600     		.2byte	0x6
 6225 0385 50       		.byte	0x50
 6226 0386 93       		.byte	0x93
 6227 0387 04       		.uleb128 0x4
 6228 0388 51       		.byte	0x51
 6229 0389 93       		.byte	0x93
 6230 038a 04       		.uleb128 0x4
 6231 038b 00000000 		.4byte	0
 6232 038f 00000000 		.4byte	0
 6233              	.LLST15:
 6234 0393 00000000 		.4byte	.LVL191
 6235 0397 08000000 		.4byte	.LVL193
 6236 039b 0100     		.2byte	0x1
 6237 039d 50       		.byte	0x50
 6238 039e 08000000 		.4byte	.LVL193
 6239 03a2 8E000000 		.4byte	.LVL208
 6240 03a6 0100     		.2byte	0x1
 6241 03a8 55       		.byte	0x55
 6242 03a9 8E000000 		.4byte	.LVL208
 6243 03ad 30010000 		.4byte	.LFE79
 6244 03b1 0400     		.2byte	0x4
 6245 03b3 F3       		.byte	0xf3
 6246 03b4 01       		.uleb128 0x1
 6247 03b5 50       		.byte	0x50
 6248 03b6 9F       		.byte	0x9f
 6249 03b7 00000000 		.4byte	0
 6250 03bb 00000000 		.4byte	0
 6251              	.LLST16:
 6252 03bf 00000000 		.4byte	.LVL191
 6253 03c3 08000000 		.4byte	.LVL193
 6254 03c7 0100     		.2byte	0x1
 6255 03c9 51       		.byte	0x51
 6256 03ca 08000000 		.4byte	.LVL193
 6257 03ce 0E010000 		.4byte	.LVL225
 6258 03d2 0100     		.2byte	0x1
 6259 03d4 56       		.byte	0x56
 6260 03d5 0E010000 		.4byte	.LVL225
 6261 03d9 30010000 		.4byte	.LFE79
 6262 03dd 0400     		.2byte	0x4
 6263 03df F3       		.byte	0xf3
 6264 03e0 01       		.uleb128 0x1
 6265 03e1 51       		.byte	0x51
 6266 03e2 9F       		.byte	0x9f
 6267 03e3 00000000 		.4byte	0
 6268 03e7 00000000 		.4byte	0
 6269              	.LLST17:
 6270 03eb 8E000000 		.4byte	.LVL208
 6271 03ef BC000000 		.4byte	.LVL212
 6272 03f3 0600     		.2byte	0x6
 6273 03f5 54       		.byte	0x54
 6274 03f6 93       		.byte	0x93
ARM GAS  C:\Users\weiro\AppData\Local\Temp\ccS229OV.s 			page 127


 6275 03f7 04       		.uleb128 0x4
 6276 03f8 55       		.byte	0x55
 6277 03f9 93       		.byte	0x93
 6278 03fa 04       		.uleb128 0x4
 6279 03fb CA000000 		.4byte	.LVL214
 6280 03ff D0000000 		.4byte	.LVL215
 6281 0403 0600     		.2byte	0x6
 6282 0405 54       		.byte	0x54
 6283 0406 93       		.byte	0x93
 6284 0407 04       		.uleb128 0x4
 6285 0408 55       		.byte	0x55
 6286 0409 93       		.byte	0x93
 6287 040a 04       		.uleb128 0x4
 6288 040b DE000000 		.4byte	.LVL217
 6289 040f E4000000 		.4byte	.LVL218
 6290 0413 0600     		.2byte	0x6
 6291 0415 54       		.byte	0x54
 6292 0416 93       		.byte	0x93
 6293 0417 04       		.uleb128 0x4
 6294 0418 55       		.byte	0x55
 6295 0419 93       		.byte	0x93
 6296 041a 04       		.uleb128 0x4
 6297 041b F6000000 		.4byte	.LVL221
 6298 041f FC000000 		.4byte	.LVL222
 6299 0423 0600     		.2byte	0x6
 6300 0425 54       		.byte	0x54
 6301 0426 93       		.byte	0x93
 6302 0427 04       		.uleb128 0x4
 6303 0428 55       		.byte	0x55
 6304 0429 93       		.byte	0x93
 6305 042a 04       		.uleb128 0x4
 6306 042b 00000000 		.4byte	0
 6307 042f 00000000 		.4byte	0
 6308              	.LLST18:
 6309 0433 B4000000 		.4byte	.LVL211
 6310 0437 C3000000 		.4byte	.LVL213-1
 6311 043b 0600     		.2byte	0x6
 6312 043d 50       		.byte	0x50
 6313 043e 93       		.byte	0x93
 6314 043f 04       		.uleb128 0x4
 6315 0440 51       		.byte	0x51
 6316 0441 93       		.byte	0x93
 6317 0442 04       		.uleb128 0x4
 6318 0443 CA000000 		.4byte	.LVL214
 6319 0447 D7000000 		.4byte	.LVL216-1
 6320 044b 0600     		.2byte	0x6
 6321 044d 50       		.byte	0x50
 6322 044e 93       		.byte	0x93
 6323 044f 04       		.uleb128 0x4
 6324 0450 51       		.byte	0x51
 6325 0451 93       		.byte	0x93
 6326 0452 04       		.uleb128 0x4
 6327 0453 DE000000 		.4byte	.LVL217
 6328 0457 EC000000 		.4byte	.LVL219
 6329 045b 0600     		.2byte	0x6
 6330 045d 50       		.byte	0x50
 6331 045e 93       		.byte	0x93
ARM GAS  C:\Users\weiro\AppData\Local\Temp\ccS229OV.s 			page 128


 6332 045f 04       		.uleb128 0x4
 6333 0460 51       		.byte	0x51
 6334 0461 93       		.byte	0x93
 6335 0462 04       		.uleb128 0x4
 6336 0463 F6000000 		.4byte	.LVL221
 6337 0467 04010000 		.4byte	.LVL223
 6338 046b 0600     		.2byte	0x6
 6339 046d 50       		.byte	0x50
 6340 046e 93       		.byte	0x93
 6341 046f 04       		.uleb128 0x4
 6342 0470 51       		.byte	0x51
 6343 0471 93       		.byte	0x93
 6344 0472 04       		.uleb128 0x4
 6345 0473 00000000 		.4byte	0
 6346 0477 00000000 		.4byte	0
 6347              	.LLST19:
 6348 047b 00000000 		.4byte	.LVL226
 6349 047f 08000000 		.4byte	.LVL228
 6350 0483 0100     		.2byte	0x1
 6351 0485 50       		.byte	0x50
 6352 0486 08000000 		.4byte	.LVL228
 6353 048a 66000000 		.4byte	.LVL238
 6354 048e 0100     		.2byte	0x1
 6355 0490 55       		.byte	0x55
 6356 0491 66000000 		.4byte	.LVL238
 6357 0495 00010000 		.4byte	.LFE80
 6358 0499 0400     		.2byte	0x4
 6359 049b F3       		.byte	0xf3
 6360 049c 01       		.uleb128 0x1
 6361 049d 50       		.byte	0x50
 6362 049e 9F       		.byte	0x9f
 6363 049f 00000000 		.4byte	0
 6364 04a3 00000000 		.4byte	0
 6365              	.LLST20:
 6366 04a7 00000000 		.4byte	.LVL226
 6367 04ab 08000000 		.4byte	.LVL228
 6368 04af 0100     		.2byte	0x1
 6369 04b1 51       		.byte	0x51
 6370 04b2 08000000 		.4byte	.LVL228
 6371 04b6 E6000000 		.4byte	.LVL255
 6372 04ba 0100     		.2byte	0x1
 6373 04bc 56       		.byte	0x56
 6374 04bd E6000000 		.4byte	.LVL255
 6375 04c1 00010000 		.4byte	.LFE80
 6376 04c5 0400     		.2byte	0x4
 6377 04c7 F3       		.byte	0xf3
 6378 04c8 01       		.uleb128 0x1
 6379 04c9 51       		.byte	0x51
 6380 04ca 9F       		.byte	0x9f
 6381 04cb 00000000 		.4byte	0
 6382 04cf 00000000 		.4byte	0
 6383              	.LLST21:
 6384 04d3 66000000 		.4byte	.LVL238
 6385 04d7 94000000 		.4byte	.LVL242
 6386 04db 0600     		.2byte	0x6
 6387 04dd 54       		.byte	0x54
 6388 04de 93       		.byte	0x93
ARM GAS  C:\Users\weiro\AppData\Local\Temp\ccS229OV.s 			page 129


 6389 04df 04       		.uleb128 0x4
 6390 04e0 55       		.byte	0x55
 6391 04e1 93       		.byte	0x93
 6392 04e2 04       		.uleb128 0x4
 6393 04e3 A2000000 		.4byte	.LVL244
 6394 04e7 A8000000 		.4byte	.LVL245
 6395 04eb 0600     		.2byte	0x6
 6396 04ed 54       		.byte	0x54
 6397 04ee 93       		.byte	0x93
 6398 04ef 04       		.uleb128 0x4
 6399 04f0 55       		.byte	0x55
 6400 04f1 93       		.byte	0x93
 6401 04f2 04       		.uleb128 0x4
 6402 04f3 B6000000 		.4byte	.LVL247
 6403 04f7 BC000000 		.4byte	.LVL248
 6404 04fb 0600     		.2byte	0x6
 6405 04fd 54       		.byte	0x54
 6406 04fe 93       		.byte	0x93
 6407 04ff 04       		.uleb128 0x4
 6408 0500 55       		.byte	0x55
 6409 0501 93       		.byte	0x93
 6410 0502 04       		.uleb128 0x4
 6411 0503 CE000000 		.4byte	.LVL251
 6412 0507 D4000000 		.4byte	.LVL252
 6413 050b 0600     		.2byte	0x6
 6414 050d 54       		.byte	0x54
 6415 050e 93       		.byte	0x93
 6416 050f 04       		.uleb128 0x4
 6417 0510 55       		.byte	0x55
 6418 0511 93       		.byte	0x93
 6419 0512 04       		.uleb128 0x4
 6420 0513 00000000 		.4byte	0
 6421 0517 00000000 		.4byte	0
 6422              	.LLST22:
 6423 051b 8C000000 		.4byte	.LVL241
 6424 051f 9B000000 		.4byte	.LVL243-1
 6425 0523 0600     		.2byte	0x6
 6426 0525 50       		.byte	0x50
 6427 0526 93       		.byte	0x93
 6428 0527 04       		.uleb128 0x4
 6429 0528 51       		.byte	0x51
 6430 0529 93       		.byte	0x93
 6431 052a 04       		.uleb128 0x4
 6432 052b A2000000 		.4byte	.LVL244
 6433 052f AF000000 		.4byte	.LVL246-1
 6434 0533 0600     		.2byte	0x6
 6435 0535 50       		.byte	0x50
 6436 0536 93       		.byte	0x93
 6437 0537 04       		.uleb128 0x4
 6438 0538 51       		.byte	0x51
 6439 0539 93       		.byte	0x93
 6440 053a 04       		.uleb128 0x4
 6441 053b B6000000 		.4byte	.LVL247
 6442 053f C4000000 		.4byte	.LVL249
 6443 0543 0600     		.2byte	0x6
 6444 0545 50       		.byte	0x50
 6445 0546 93       		.byte	0x93
ARM GAS  C:\Users\weiro\AppData\Local\Temp\ccS229OV.s 			page 130


 6446 0547 04       		.uleb128 0x4
 6447 0548 51       		.byte	0x51
 6448 0549 93       		.byte	0x93
 6449 054a 04       		.uleb128 0x4
 6450 054b CE000000 		.4byte	.LVL251
 6451 054f DC000000 		.4byte	.LVL253
 6452 0553 0600     		.2byte	0x6
 6453 0555 50       		.byte	0x50
 6454 0556 93       		.byte	0x93
 6455 0557 04       		.uleb128 0x4
 6456 0558 51       		.byte	0x51
 6457 0559 93       		.byte	0x93
 6458 055a 04       		.uleb128 0x4
 6459 055b 00000000 		.4byte	0
 6460 055f 00000000 		.4byte	0
 6461              	.LLST23:
 6462 0563 00000000 		.4byte	.LVL256
 6463 0567 08000000 		.4byte	.LVL257
 6464 056b 0100     		.2byte	0x1
 6465 056d 50       		.byte	0x50
 6466 056e 08000000 		.4byte	.LVL257
 6467 0572 7A000000 		.4byte	.LVL264
 6468 0576 0100     		.2byte	0x1
 6469 0578 55       		.byte	0x55
 6470 0579 7A000000 		.4byte	.LVL264
 6471 057d 80000000 		.4byte	.LFE81
 6472 0581 0400     		.2byte	0x4
 6473 0583 F3       		.byte	0xf3
 6474 0584 01       		.uleb128 0x1
 6475 0585 50       		.byte	0x50
 6476 0586 9F       		.byte	0x9f
 6477 0587 00000000 		.4byte	0
 6478 058b 00000000 		.4byte	0
 6479              	.LLST24:
 6480 058f 00000000 		.4byte	.LVL256
 6481 0593 08000000 		.4byte	.LVL257
 6482 0597 0100     		.2byte	0x1
 6483 0599 51       		.byte	0x51
 6484 059a 08000000 		.4byte	.LVL257
 6485 059e 7A000000 		.4byte	.LVL264
 6486 05a2 0100     		.2byte	0x1
 6487 05a4 56       		.byte	0x56
 6488 05a5 7A000000 		.4byte	.LVL264
 6489 05a9 80000000 		.4byte	.LFE81
 6490 05ad 0400     		.2byte	0x4
 6491 05af F3       		.byte	0xf3
 6492 05b0 01       		.uleb128 0x1
 6493 05b1 51       		.byte	0x51
 6494 05b2 9F       		.byte	0x9f
 6495 05b3 00000000 		.4byte	0
 6496 05b7 00000000 		.4byte	0
 6497              	.LLST25:
 6498 05bb 02000000 		.4byte	.LVL265
 6499 05bf 52000000 		.4byte	.LVL277
 6500 05c3 0200     		.2byte	0x2
 6501 05c5 31       		.byte	0x31
 6502 05c6 9F       		.byte	0x9f
ARM GAS  C:\Users\weiro\AppData\Local\Temp\ccS229OV.s 			page 131


 6503 05c7 52000000 		.4byte	.LVL277
 6504 05cb 9C000000 		.4byte	.LVL288
 6505 05cf 0200     		.2byte	0x2
 6506 05d1 32       		.byte	0x32
 6507 05d2 9F       		.byte	0x9f
 6508 05d3 9C000000 		.4byte	.LVL288
 6509 05d7 E6000000 		.4byte	.LVL299
 6510 05db 0200     		.2byte	0x2
 6511 05dd 33       		.byte	0x33
 6512 05de 9F       		.byte	0x9f
 6513 05df E6000000 		.4byte	.LVL299
 6514 05e3 38010000 		.4byte	.LFE82
 6515 05e7 0200     		.2byte	0x2
 6516 05e9 30       		.byte	0x30
 6517 05ea 9F       		.byte	0x9f
 6518 05eb 00000000 		.4byte	0
 6519 05ef 00000000 		.4byte	0
 6520              	.LLST26:
 6521 05f3 02000000 		.4byte	.LVL265
 6522 05f7 40000000 		.4byte	.LVL274
 6523 05fb 0200     		.2byte	0x2
 6524 05fd 30       		.byte	0x30
 6525 05fe 9F       		.byte	0x9f
 6526 05ff 40000000 		.4byte	.LVL274
 6527 0603 48000000 		.4byte	.LVL275
 6528 0607 0100     		.2byte	0x1
 6529 0609 50       		.byte	0x50
 6530 060a 48000000 		.4byte	.LVL275
 6531 060e 4B000000 		.4byte	.LVL276-1
 6532 0612 0100     		.2byte	0x1
 6533 0614 52       		.byte	0x52
 6534 0615 4B000000 		.4byte	.LVL276-1
 6535 0619 22010000 		.4byte	.LVL303
 6536 061d 0100     		.2byte	0x1
 6537 061f 54       		.byte	0x54
 6538 0620 00000000 		.4byte	0
 6539 0624 00000000 		.4byte	0
 6540              	.LLST27:
 6541 0628 02000000 		.4byte	.LVL265
 6542 062c 8A000000 		.4byte	.LVL285
 6543 0630 0200     		.2byte	0x2
 6544 0632 30       		.byte	0x30
 6545 0633 9F       		.byte	0x9f
 6546 0634 8A000000 		.4byte	.LVL285
 6547 0638 92000000 		.4byte	.LVL286
 6548 063c 0100     		.2byte	0x1
 6549 063e 50       		.byte	0x50
 6550 063f 92000000 		.4byte	.LVL286
 6551 0643 95000000 		.4byte	.LVL287-1
 6552 0647 0100     		.2byte	0x1
 6553 0649 52       		.byte	0x52
 6554 064a 95000000 		.4byte	.LVL287-1
 6555 064e 22010000 		.4byte	.LVL303
 6556 0652 0100     		.2byte	0x1
 6557 0654 56       		.byte	0x56
 6558 0655 00000000 		.4byte	0
 6559 0659 00000000 		.4byte	0
ARM GAS  C:\Users\weiro\AppData\Local\Temp\ccS229OV.s 			page 132


 6560              	.LLST28:
 6561 065d 02000000 		.4byte	.LVL265
 6562 0661 D4000000 		.4byte	.LVL296
 6563 0665 0200     		.2byte	0x2
 6564 0667 30       		.byte	0x30
 6565 0668 9F       		.byte	0x9f
 6566 0669 D4000000 		.4byte	.LVL296
 6567 066d DC000000 		.4byte	.LVL297
 6568 0671 0100     		.2byte	0x1
 6569 0673 50       		.byte	0x50
 6570 0674 DC000000 		.4byte	.LVL297
 6571 0678 DF000000 		.4byte	.LVL298-1
 6572 067c 0100     		.2byte	0x1
 6573 067e 52       		.byte	0x52
 6574 067f DF000000 		.4byte	.LVL298-1
 6575 0683 22010000 		.4byte	.LVL303
 6576 0687 0100     		.2byte	0x1
 6577 0689 55       		.byte	0x55
 6578 068a 00000000 		.4byte	0
 6579 068e 00000000 		.4byte	0
 6580              	.LLST29:
 6581 0692 E4000000 		.4byte	.LVL333
 6582 0696 12010000 		.4byte	.LVL340
 6583 069a 0200     		.2byte	0x2
 6584 069c 31       		.byte	0x31
 6585 069d 9F       		.byte	0x9f
 6586 069e 12010000 		.4byte	.LVL340
 6587 06a2 26010000 		.4byte	.LVL343
 6588 06a6 0200     		.2byte	0x2
 6589 06a8 30       		.byte	0x30
 6590 06a9 9F       		.byte	0x9f
 6591 06aa 26010000 		.4byte	.LVL343
 6592 06ae 78010000 		.4byte	.LVL352
 6593 06b2 0200     		.2byte	0x2
 6594 06b4 31       		.byte	0x31
 6595 06b5 9F       		.byte	0x9f
 6596 06b6 84010000 		.4byte	.LVL354
 6597 06ba 9A010000 		.4byte	.LVL357
 6598 06be 0200     		.2byte	0x2
 6599 06c0 30       		.byte	0x30
 6600 06c1 9F       		.byte	0x9f
 6601 06c2 00000000 		.4byte	0
 6602 06c6 00000000 		.4byte	0
 6603              	.LLST30:
 6604 06ca 00010000 		.4byte	.LVL337
 6605 06ce 0A010000 		.4byte	.LVL339
 6606 06d2 0A00     		.2byte	0xa
 6607 06d4 9E       		.byte	0x9e
 6608 06d5 08       		.uleb128 0x8
 6609 06d6 00000000 		.4byte	0
 6610 06da 00000000 		.4byte	0
 6611 06de 0A010000 		.4byte	.LVL339
 6612 06e2 3A010000 		.4byte	.LVL346
 6613 06e6 0A00     		.2byte	0xa
 6614 06e8 9E       		.byte	0x9e
 6615 06e9 08       		.uleb128 0x8
 6616 06ea 00000000 		.4byte	0
ARM GAS  C:\Users\weiro\AppData\Local\Temp\ccS229OV.s 			page 133


 6617 06ee 00003E40 		.4byte	0x403e0000
 6618 06f2 7C010000 		.4byte	.LVL353
 6619 06f6 9A010000 		.4byte	.LVL357
 6620 06fa 0A00     		.2byte	0xa
 6621 06fc 9E       		.byte	0x9e
 6622 06fd 08       		.uleb128 0x8
 6623 06fe 00000000 		.4byte	0
 6624 0702 00002140 		.4byte	0x40210000
 6625 0706 0E020000 		.4byte	.LVL366
 6626 070a 42020000 		.4byte	.LVL373
 6627 070e 0A00     		.2byte	0xa
 6628 0710 9E       		.byte	0x9e
 6629 0711 08       		.uleb128 0x8
 6630 0712 00000000 		.4byte	0
 6631 0716 00803140 		.4byte	0x40318000
 6632 071a 00000000 		.4byte	0
 6633 071e 00000000 		.4byte	0
 6634              	.LLST31:
 6635 0722 00010000 		.4byte	.LVL337
 6636 0726 07010000 		.4byte	.LVL338-1
 6637 072a 1500     		.2byte	0x15
 6638 072c 03       		.byte	0x3
 6639 072d 00000000 		.4byte	CM_COUNT_CONV
 6640 0731 F6       		.byte	0xf6
 6641 0732 08       		.byte	0x8
 6642 0733 25       		.uleb128 0x25
 6643 0734 F4       		.byte	0xf4
 6644 0735 25       		.uleb128 0x25
 6645 0736 08       		.byte	0x8
 6646 0737 00000000 		.4byte	0
 6647 073b 00000000 		.4byte	0
 6648 073f 1E       		.byte	0x1e
 6649 0740 9F       		.byte	0x9f
 6650 0741 00000000 		.4byte	0
 6651 0745 00000000 		.4byte	0
 6652              		.section	.debug_aranges,"",%progbits
 6653 0000 B4000000 		.4byte	0xb4
 6654 0004 0200     		.2byte	0x2
 6655 0006 00000000 		.4byte	.Ldebug_info0
 6656 000a 04       		.byte	0x4
 6657 000b 00       		.byte	0
 6658 000c 0000     		.2byte	0
 6659 000e 0000     		.2byte	0
 6660 0010 00000000 		.4byte	.LFB64
 6661 0014 14000000 		.4byte	.LFE64-.LFB64
 6662 0018 00000000 		.4byte	.LFB65
 6663 001c 64000000 		.4byte	.LFE65-.LFB65
 6664 0020 00000000 		.4byte	.LFB66
 6665 0024 78000000 		.4byte	.LFE66-.LFB66
 6666 0028 00000000 		.4byte	.LFB67
 6667 002c 6C000000 		.4byte	.LFE67-.LFB67
 6668 0030 00000000 		.4byte	.LFB68
 6669 0034 28000000 		.4byte	.LFE68-.LFB68
 6670 0038 00000000 		.4byte	.LFB69
 6671 003c 28000000 		.4byte	.LFE69-.LFB69
 6672 0040 00000000 		.4byte	.LFB70
 6673 0044 28000000 		.4byte	.LFE70-.LFB70
ARM GAS  C:\Users\weiro\AppData\Local\Temp\ccS229OV.s 			page 134


 6674 0048 00000000 		.4byte	.LFB71
 6675 004c 28000000 		.4byte	.LFE71-.LFB71
 6676 0050 00000000 		.4byte	.LFB72
 6677 0054 28000000 		.4byte	.LFE72-.LFB72
 6678 0058 00000000 		.4byte	.LFB73
 6679 005c 1C000000 		.4byte	.LFE73-.LFB73
 6680 0060 00000000 		.4byte	.LFB74
 6681 0064 10010000 		.4byte	.LFE74-.LFB74
 6682 0068 00000000 		.4byte	.LFB75
 6683 006c F0000000 		.4byte	.LFE75-.LFB75
 6684 0070 00000000 		.4byte	.LFB76
 6685 0074 F0000000 		.4byte	.LFE76-.LFB76
 6686 0078 00000000 		.4byte	.LFB77
 6687 007c D0000000 		.4byte	.LFE77-.LFB77
 6688 0080 00000000 		.4byte	.LFB78
 6689 0084 58010000 		.4byte	.LFE78-.LFB78
 6690 0088 00000000 		.4byte	.LFB79
 6691 008c 30010000 		.4byte	.LFE79-.LFB79
 6692 0090 00000000 		.4byte	.LFB80
 6693 0094 00010000 		.4byte	.LFE80-.LFB80
 6694 0098 00000000 		.4byte	.LFB81
 6695 009c 80000000 		.4byte	.LFE81-.LFB81
 6696 00a0 00000000 		.4byte	.LFB82
 6697 00a4 38010000 		.4byte	.LFE82-.LFB82
 6698 00a8 00000000 		.4byte	.LFB83
 6699 00ac 80020000 		.4byte	.LFE83-.LFB83
 6700 00b0 00000000 		.4byte	0
 6701 00b4 00000000 		.4byte	0
 6702              		.section	.debug_ranges,"",%progbits
 6703              	.Ldebug_ranges0:
 6704 0000 00000000 		.4byte	.LFB64
 6705 0004 14000000 		.4byte	.LFE64
 6706 0008 00000000 		.4byte	.LFB65
 6707 000c 64000000 		.4byte	.LFE65
 6708 0010 00000000 		.4byte	.LFB66
 6709 0014 78000000 		.4byte	.LFE66
 6710 0018 00000000 		.4byte	.LFB67
 6711 001c 6C000000 		.4byte	.LFE67
 6712 0020 00000000 		.4byte	.LFB68
 6713 0024 28000000 		.4byte	.LFE68
 6714 0028 00000000 		.4byte	.LFB69
 6715 002c 28000000 		.4byte	.LFE69
 6716 0030 00000000 		.4byte	.LFB70
 6717 0034 28000000 		.4byte	.LFE70
 6718 0038 00000000 		.4byte	.LFB71
 6719 003c 28000000 		.4byte	.LFE71
 6720 0040 00000000 		.4byte	.LFB72
 6721 0044 28000000 		.4byte	.LFE72
 6722 0048 00000000 		.4byte	.LFB73
 6723 004c 1C000000 		.4byte	.LFE73
 6724 0050 00000000 		.4byte	.LFB74
 6725 0054 10010000 		.4byte	.LFE74
 6726 0058 00000000 		.4byte	.LFB75
 6727 005c F0000000 		.4byte	.LFE75
 6728 0060 00000000 		.4byte	.LFB76
 6729 0064 F0000000 		.4byte	.LFE76
 6730 0068 00000000 		.4byte	.LFB77
ARM GAS  C:\Users\weiro\AppData\Local\Temp\ccS229OV.s 			page 135


 6731 006c D0000000 		.4byte	.LFE77
 6732 0070 00000000 		.4byte	.LFB78
 6733 0074 58010000 		.4byte	.LFE78
 6734 0078 00000000 		.4byte	.LFB79
 6735 007c 30010000 		.4byte	.LFE79
 6736 0080 00000000 		.4byte	.LFB80
 6737 0084 00010000 		.4byte	.LFE80
 6738 0088 00000000 		.4byte	.LFB81
 6739 008c 80000000 		.4byte	.LFE81
 6740 0090 00000000 		.4byte	.LFB82
 6741 0094 38010000 		.4byte	.LFE82
 6742 0098 00000000 		.4byte	.LFB83
 6743 009c 80020000 		.4byte	.LFE83
 6744 00a0 00000000 		.4byte	0
 6745 00a4 00000000 		.4byte	0
 6746              		.section	.debug_line,"",%progbits
 6747              	.Ldebug_line0:
 6748 0000 1D070000 		.section	.debug_str,"MS",%progbits,1
 6748      0200FE03 
 6748      00000201 
 6748      FB0E0D00 
 6748      01010101 
 6749              	.LASF78:
 6750 0000 64697265 		.ascii	"direction\000"
 6750      6374696F 
 6750      6E00
 6751              	.LASF84:
 6752 000a 646F776E 		.ascii	"down_big\000"
 6752      5F626967 
 6752      00
 6753              	.LASF104:
 6754 0013 43794465 		.ascii	"CyDelay\000"
 6754      6C617900 
 6755              	.LASF65:
 6756 001b 50574D5F 		.ascii	"PWM_Master\000"
 6756      4D617374 
 6756      657200
 6757              	.LASF52:
 6758 0026 434D5F43 		.ascii	"CM_COUNT_CONV\000"
 6758      4F554E54 
 6758      5F434F4E 
 6758      5600
 6759              	.LASF145:
 6760 0034 6D61696E 		.ascii	"main.c\000"
 6760      2E6300
 6761              	.LASF135:
 6762 003b 50574D5F 		.ascii	"PWM_BigServo_Start\000"
 6762      42696753 
 6762      6572766F 
 6762      5F537461 
 6762      727400
 6763              	.LASF113:
 6764 004e 43535F4C 		.ascii	"CS_LED_Write\000"
 6764      45445F57 
 6764      72697465 
 6764      00
 6765              	.LASF112:
ARM GAS  C:\Users\weiro\AppData\Local\Temp\ccS229OV.s 			page 136


 6766 005b 52696768 		.ascii	"Right_Echo_Read\000"
 6766      745F4563 
 6766      686F5F52 
 6766      65616400 
 6767              	.LASF125:
 6768 006b 54696D65 		.ascii	"Timer_3_Start\000"
 6768      725F335F 
 6768      53746172 
 6768      7400
 6769              	.LASF134:
 6770 0079 50574D5F 		.ascii	"PWM_SmallServo_Start\000"
 6770      536D616C 
 6770      6C536572 
 6770      766F5F53 
 6770      74617274 
 6771              	.LASF102:
 6772 008e 51756164 		.ascii	"QuadDec_1_GetCounter\000"
 6772      4465635F 
 6772      315F4765 
 6772      74436F75 
 6772      6E746572 
 6773              	.LASF44:
 6774 00a3 43535F63 		.ascii	"CS_count_Red\000"
 6774      6F756E74 
 6774      5F526564 
 6774      00
 6775              	.LASF121:
 6776 00b0 6973725F 		.ascii	"isr_1_StartEx\000"
 6776      315F5374 
 6776      61727445 
 6776      7800
 6777              	.LASF9:
 6778 00be 756E7369 		.ascii	"unsigned int\000"
 6778      676E6564 
 6778      20696E74 
 6778      00
 6779              	.LASF18:
 6780 00cb 53706565 		.ascii	"Speed_Control\000"
 6780      645F436F 
 6780      6E74726F 
 6780      6C00
 6781              	.LASF10:
 6782 00d9 5F5F696E 		.ascii	"__int32_t\000"
 6782      7433325F 
 6782      7400
 6783              	.LASF110:
 6784 00e3 49525F69 		.ascii	"IR_input_Read\000"
 6784      6E707574 
 6784      5F526561 
 6784      6400
 6785              	.LASF74:
 6786 00f1 72696768 		.ascii	"right_measured\000"
 6786      745F6D65 
 6786      61737572 
 6786      656400
 6787              	.LASF64:
 6788 0100 74696D65 		.ascii	"timer_period\000"
ARM GAS  C:\Users\weiro\AppData\Local\Temp\ccS229OV.s 			page 137


 6788      725F7065 
 6788      72696F64 
 6788      00
 6789              	.LASF136:
 6790 010d 51756164 		.ascii	"QuadDec_1_Start\000"
 6790      4465635F 
 6790      315F5374 
 6790      61727400 
 6791              	.LASF70:
 6792 011d 72696768 		.ascii	"right_det_count\000"
 6792      745F6465 
 6792      745F636F 
 6792      756E7400 
 6793              	.LASF119:
 6794 012d 6C65645F 		.ascii	"led_green_Write\000"
 6794      67726565 
 6794      6E5F5772 
 6794      69746500 
 6795              	.LASF60:
 6796 013d 6572726F 		.ascii	"error\000"
 6796      7200
 6797              	.LASF43:
 6798 0143 6D6F6465 		.ascii	"mode\000"
 6798      00
 6799              	.LASF83:
 6800 0148 736C6974 		.ascii	"slit_detected\000"
 6800      5F646574 
 6800      65637465 
 6800      6400
 6801              	.LASF33:
 6802 0156 666F7277 		.ascii	"forward2wall\000"
 6802      61726432 
 6802      77616C6C 
 6802      00
 6803              	.LASF46:
 6804 0163 43535F63 		.ascii	"CS_count_Green\000"
 6804      6F756E74 
 6804      5F477265 
 6804      656E00
 6805              	.LASF26:
 6806 0172 72657365 		.ascii	"reset_count\000"
 6806      745F636F 
 6806      756E7400 
 6807              	.LASF127:
 6808 017e 54696D65 		.ascii	"Timer_5_Start\000"
 6808      725F355F 
 6808      53746172 
 6808      7400
 6809              	.LASF45:
 6810 018c 43535F63 		.ascii	"CS_count_Blue\000"
 6810      6F756E74 
 6810      5F426C75 
 6810      6500
 6811              	.LASF23:
 6812 019a 72657665 		.ascii	"reverse\000"
 6812      72736500 
 6813              	.LASF50:
ARM GAS  C:\Users\weiro\AppData\Local\Temp\ccS229OV.s 			page 138


 6814 01a2 57484545 		.ascii	"WHEEL_CIRCUMFERENCE\000"
 6814      4C5F4349 
 6814      5243554D 
 6814      46455245 
 6814      4E434500 
 6815              	.LASF101:
 6816 01b6 51756164 		.ascii	"QuadDec_2_SetCounter\000"
 6816      4465635F 
 6816      325F5365 
 6816      74436F75 
 6816      6E746572 
 6817              	.LASF76:
 6818 01cb 785F636F 		.ascii	"x_coord\000"
 6818      6F726400 
 6819              	.LASF21:
 6820 01d3 73746F70 		.ascii	"stop\000"
 6820      00
 6821              	.LASF54:
 6822 01d8 44495354 		.ascii	"DISTANCE_PT_TURN\000"
 6822      414E4345 
 6822      5F50545F 
 6822      5455524E 
 6822      00
 6823              	.LASF13:
 6824 01e9 666C6F61 		.ascii	"float\000"
 6824      7400
 6825              	.LASF19:
 6826 01ef 64697374 		.ascii	"dist_front_detection_1\000"
 6826      5F66726F 
 6826      6E745F64 
 6826      65746563 
 6826      74696F6E 
 6827              	.LASF87:
 6828 0206 636C6F73 		.ascii	"close_small\000"
 6828      655F736D 
 6828      616C6C00 
 6829              	.LASF40:
 6830 0212 50545F54 		.ascii	"PT_TURN_COUNT\000"
 6830      55524E5F 
 6830      434F554E 
 6830      5400
 6831              	.LASF106:
 6832 0220 43794465 		.ascii	"CyDelayUs\000"
 6832      6C617955 
 6832      7300
 6833              	.LASF8:
 6834 022a 6C6F6E67 		.ascii	"long long unsigned int\000"
 6834      206C6F6E 
 6834      6720756E 
 6834      7369676E 
 6834      65642069 
 6835              	.LASF75:
 6836 0241 6C656674 		.ascii	"left_measured\000"
 6836      5F6D6561 
 6836      73757265 
 6836      6400
 6837              	.LASF130:
ARM GAS  C:\Users\weiro\AppData\Local\Temp\ccS229OV.s 			page 139


 6838 024f 50574D5F 		.ascii	"PWM_ColorSensor_Start\000"
 6838      436F6C6F 
 6838      7253656E 
 6838      736F725F 
 6838      53746172 
 6839              	.LASF67:
 6840 0265 69735F6D 		.ascii	"is_moving\000"
 6840      6F76696E 
 6840      6700
 6841              	.LASF140:
 6842 026f 53315F57 		.ascii	"S1_Write\000"
 6842      72697465 
 6842      00
 6843              	.LASF34:
 6844 0278 6D6F7665 		.ascii	"move2slit\000"
 6844      32736C69 
 6844      7400
 6845              	.LASF120:
 6846 0282 6C65645F 		.ascii	"led_blue_Write\000"
 6846      626C7565 
 6846      5F577269 
 6846      746500
 6847              	.LASF144:
 6848 0291 474E5520 		.ascii	"GNU C11 5.4.1 20160609 (release) [ARM/embedded-5-br"
 6848      43313120 
 6848      352E342E 
 6848      31203230 
 6848      31363036 
 6849 02c4 616E6368 		.ascii	"anch revision 237715] -mcpu=cortex-m3 -mthumb -g -O"
 6849      20726576 
 6849      6973696F 
 6849      6E203233 
 6849      37373135 
 6850 02f7 67202D66 		.ascii	"g -ffunction-sections -ffat-lto-objects\000"
 6850      66756E63 
 6850      74696F6E 
 6850      2D736563 
 6850      74696F6E 
 6851              	.LASF61:
 6852 031f 61636375 		.ascii	"accumulated_error\000"
 6852      6D756C61 
 6852      7465645F 
 6852      6572726F 
 6852      7200
 6853              	.LASF51:
 6854 0331 434F554E 		.ascii	"COUNT_WHEEL\000"
 6854      545F5748 
 6854      45454C00 
 6855              	.LASF93:
 6856 033d 55415254 		.ascii	"UART_1_PutString\000"
 6856      5F315F50 
 6856      75745374 
 6856      72696E67 
 6856      00
 6857              	.LASF128:
 6858 034e 6973725F 		.ascii	"isr_2_StartEx\000"
 6858      325F5374 
ARM GAS  C:\Users\weiro\AppData\Local\Temp\ccS229OV.s 			page 140


 6858      61727445 
 6858      7800
 6859              	.LASF142:
 6860 035c 50574D5F 		.ascii	"PWM_BigServo_WriteCompare\000"
 6860      42696753 
 6860      6572766F 
 6860      5F577269 
 6860      7465436F 
 6861              	.LASF32:
 6862 0376 64697374 		.ascii	"dist_count\000"
 6862      5F636F75 
 6862      6E7400
 6863              	.LASF103:
 6864 0381 51756164 		.ascii	"QuadDec_2_GetCounter\000"
 6864      4465635F 
 6864      325F4765 
 6864      74436F75 
 6864      6E746572 
 6865              	.LASF96:
 6866 0396 4D6F746F 		.ascii	"Motor_1_IN_1_Write\000"
 6866      725F315F 
 6866      494E5F31 
 6866      5F577269 
 6866      746500
 6867              	.LASF99:
 6868 03a9 4D6F746F 		.ascii	"Motor_2_IN_4_Write\000"
 6868      725F325F 
 6868      494E5F34 
 6868      5F577269 
 6868      746500
 6869              	.LASF88:
 6870 03bc 50574D5F 		.ascii	"PWM_ColorSensor_ReadStatusRegister\000"
 6870      436F6C6F 
 6870      7253656E 
 6870      736F725F 
 6870      52656164 
 6871              	.LASF123:
 6872 03df 54696D65 		.ascii	"Timer_1_Start\000"
 6872      725F315F 
 6872      53746172 
 6872      7400
 6873              	.LASF115:
 6874 03ed 53335F57 		.ascii	"S3_Write\000"
 6874      72697465 
 6874      00
 6875              	.LASF14:
 6876 03f6 63686172 		.ascii	"char\000"
 6876      00
 6877              	.LASF71:
 6878 03fb 6C656674 		.ascii	"left_det_count\000"
 6878      5F646574 
 6878      5F636F75 
 6878      6E7400
 6879              	.LASF68:
 6880 040a 66726F6E 		.ascii	"front_det_count_1\000"
 6880      745F6465 
 6880      745F636F 
ARM GAS  C:\Users\weiro\AppData\Local\Temp\ccS229OV.s 			page 141


 6880      756E745F 
 6880      3100
 6881              	.LASF69:
 6882 041c 66726F6E 		.ascii	"front_det_count_2\000"
 6882      745F6465 
 6882      745F636F 
 6882      756E745F 
 6882      3200
 6883              	.LASF95:
 6884 042e 54696D65 		.ascii	"Timer_4_ReadCounter\000"
 6884      725F345F 
 6884      52656164 
 6884      436F756E 
 6884      74657200 
 6885              	.LASF12:
 6886 0442 75696E74 		.ascii	"uint16\000"
 6886      313600
 6887              	.LASF116:
 6888 0449 436F6E74 		.ascii	"Control_Reg_1_Write\000"
 6888      726F6C5F 
 6888      5265675F 
 6888      315F5772 
 6888      69746500 
 6889              	.LASF94:
 6890 045d 54696D65 		.ascii	"Timer_4_ReadStatusRegister\000"
 6890      725F345F 
 6890      52656164 
 6890      53746174 
 6890      75735265 
 6891              	.LASF124:
 6892 0478 54696D65 		.ascii	"Timer_2_Start\000"
 6892      725F325F 
 6892      53746172 
 6892      7400
 6893              	.LASF91:
 6894 0486 54696D65 		.ascii	"Timer_2_ReadCounter\000"
 6894      725F325F 
 6894      52656164 
 6894      436F756E 
 6894      74657200 
 6895              	.LASF122:
 6896 049a 6973725F 		.ascii	"isr_6_StartEx\000"
 6896      365F5374 
 6896      61727445 
 6896      7800
 6897              	.LASF7:
 6898 04a8 6C6F6E67 		.ascii	"long long int\000"
 6898      206C6F6E 
 6898      6720696E 
 6898      7400
 6899              	.LASF27:
 6900 04b6 6D6F7665 		.ascii	"move_fixed_dist\000"
 6900      5F666978 
 6900      65645F64 
 6900      69737400 
 6901              	.LASF53:
 6902 04c6 44495354 		.ascii	"DISTANCE_BETW_WHEEL\000"
ARM GAS  C:\Users\weiro\AppData\Local\Temp\ccS229OV.s 			page 142


 6902      414E4345 
 6902      5F424554 
 6902      575F5748 
 6902      45454C00 
 6903              	.LASF117:
 6904 04da 436F756E 		.ascii	"Counter_ColorSensor_ReadCapture\000"
 6904      7465725F 
 6904      436F6C6F 
 6904      7253656E 
 6904      736F725F 
 6905              	.LASF41:
 6906 04fa 666C6167 		.ascii	"flag_CW\000"
 6906      5F435700 
 6907              	.LASF22:
 6908 0502 666F7277 		.ascii	"forward\000"
 6908      61726400 
 6909              	.LASF79:
 6910 050a 73746570 		.ascii	"step\000"
 6910      00
 6911              	.LASF28:
 6912 050f 64697374 		.ascii	"dist\000"
 6912      00
 6913              	.LASF38:
 6914 0514 666C6167 		.ascii	"flag_stop\000"
 6914      5F73746F 
 6914      7000
 6915              	.LASF17:
 6916 051e 436F6C6F 		.ascii	"Color_sensing\000"
 6916      725F7365 
 6916      6E73696E 
 6916      6700
 6917              	.LASF80:
 6918 052c 636F6D70 		.ascii	"compare_ready\000"
 6918      6172655F 
 6918      72656164 
 6918      7900
 6919              	.LASF126:
 6920 053a 54696D65 		.ascii	"Timer_4_Start\000"
 6920      725F345F 
 6920      53746172 
 6920      7400
 6921              	.LASF143:
 6922 0548 50574D5F 		.ascii	"PWM_SmallServo_WriteCompare\000"
 6922      536D616C 
 6922      6C536572 
 6922      766F5F57 
 6922      72697465 
 6923              	.LASF15:
 6924 0564 6C6F6E67 		.ascii	"long double\000"
 6924      20646F75 
 6924      626C6500 
 6925              	.LASF92:
 6926 0570 73707269 		.ascii	"sprintf\000"
 6926      6E746600 
 6927              	.LASF25:
 6928 0578 7475726E 		.ascii	"turn_clockwise\000"
 6928      5F636C6F 
ARM GAS  C:\Users\weiro\AppData\Local\Temp\ccS229OV.s 			page 143


 6928      636B7769 
 6928      736500
 6929              	.LASF77:
 6930 0587 795F636F 		.ascii	"y_coord\000"
 6930      6F726400 
 6931              	.LASF49:
 6932 058f 57484545 		.ascii	"WHEEL_DIAMETER\000"
 6932      4C5F4449 
 6932      414D4554 
 6932      455200
 6933              	.LASF105:
 6934 059e 46726F6E 		.ascii	"Front_Trigger_1_Write\000"
 6934      745F5472 
 6934      69676765 
 6934      725F315F 
 6934      57726974 
 6935              	.LASF107:
 6936 05b4 46726F6E 		.ascii	"Front_Echo_1_Read\000"
 6936      745F4563 
 6936      686F5F31 
 6936      5F526561 
 6936      6400
 6937              	.LASF56:
 6938 05c6 436F756E 		.ascii	"Count_Slave\000"
 6938      745F536C 
 6938      61766500 
 6939              	.LASF141:
 6940 05d2 50574D5F 		.ascii	"PWM_Master_WriteCompare\000"
 6940      4D617374 
 6940      65725F57 
 6940      72697465 
 6940      436F6D70 
 6941              	.LASF47:
 6942 05ea 64697374 		.ascii	"dist_trav\000"
 6942      5F747261 
 6942      7600
 6943              	.LASF137:
 6944 05f4 51756164 		.ascii	"QuadDec_2_Start\000"
 6944      4465635F 
 6944      325F5374 
 6944      61727400 
 6945              	.LASF3:
 6946 0604 73686F72 		.ascii	"short int\000"
 6946      7420696E 
 6946      7400
 6947              	.LASF89:
 6948 060e 50574D5F 		.ascii	"PWM_Slave_WriteCompare\000"
 6948      536C6176 
 6948      655F5772 
 6948      69746543 
 6948      6F6D7061 
 6949              	.LASF5:
 6950 0625 6C6F6E67 		.ascii	"long int\000"
 6950      20696E74 
 6950      00
 6951              	.LASF48:
 6952 062e 49544D5F 		.ascii	"ITM_RxBuffer\000"
ARM GAS  C:\Users\weiro\AppData\Local\Temp\ccS229OV.s 			page 144


 6952      52784275 
 6952      66666572 
 6952      00
 6953              	.LASF109:
 6954 063b 4C656674 		.ascii	"Left_Echo_Read\000"
 6954      5F456368 
 6954      6F5F5265 
 6954      616400
 6955              	.LASF131:
 6956 064a 436F756E 		.ascii	"Counter_ColorSensor_Start\000"
 6956      7465725F 
 6956      436F6C6F 
 6956      7253656E 
 6956      736F725F 
 6957              	.LASF31:
 6958 0664 6176675F 		.ascii	"avg_dist\000"
 6958      64697374 
 6958      00
 6959              	.LASF111:
 6960 066d 52696768 		.ascii	"Right_Trigger_Write\000"
 6960      745F5472 
 6960      69676765 
 6960      725F5772 
 6960      69746500 
 6961              	.LASF139:
 6962 0681 53305F57 		.ascii	"S0_Write\000"
 6962      72697465 
 6962      00
 6963              	.LASF72:
 6964 068a 66726F6E 		.ascii	"front_measured_1\000"
 6964      745F6D65 
 6964      61737572 
 6964      65645F31 
 6964      00
 6965              	.LASF73:
 6966 069b 66726F6E 		.ascii	"front_measured_2\000"
 6966      745F6D65 
 6966      61737572 
 6966      65645F32 
 6966      00
 6967              	.LASF86:
 6968 06ac 6F70656E 		.ascii	"open_small\000"
 6968      5F736D61 
 6968      6C6C00
 6969              	.LASF55:
 6970 06b7 436F756E 		.ascii	"Count_Master\000"
 6970      745F4D61 
 6970      73746572 
 6970      00
 6971              	.LASF35:
 6972 06c4 6D6F7665 		.ascii	"move2puck\000"
 6972      32707563 
 6972      6B00
 6973              	.LASF29:
 6974 06ce 666C6167 		.ascii	"flag_FR\000"
 6974      5F465200 
 6975              	.LASF90:
ARM GAS  C:\Users\weiro\AppData\Local\Temp\ccS229OV.s 			page 145


 6976 06d6 54696D65 		.ascii	"Timer_2_ReadStatusRegister\000"
 6976      725F325F 
 6976      52656164 
 6976      53746174 
 6976      75735265 
 6977              	.LASF138:
 6978 06f1 55415254 		.ascii	"UART_1_Start\000"
 6978      5F315F53 
 6978      74617274 
 6978      00
 6979              	.LASF63:
 6980 06fe 64657269 		.ascii	"derivative_error\000"
 6980      76617469 
 6980      76655F65 
 6980      72726F72 
 6980      00
 6981              	.LASF42:
 6982 070f 436F6C6F 		.ascii	"Color_Sensing_Function\000"
 6982      725F5365 
 6982      6E73696E 
 6982      675F4675 
 6982      6E637469 
 6983              	.LASF62:
 6984 0726 6C617374 		.ascii	"last_error\000"
 6984      5F657272 
 6984      6F7200
 6985              	.LASF16:
 6986 0731 73697A65 		.ascii	"sizetype\000"
 6986      74797065 
 6986      00
 6987              	.LASF6:
 6988 073a 6C6F6E67 		.ascii	"long unsigned int\000"
 6988      20756E73 
 6988      69676E65 
 6988      6420696E 
 6988      7400
 6989              	.LASF11:
 6990 074c 696E7433 		.ascii	"int32_t\000"
 6990      325F7400 
 6991              	.LASF118:
 6992 0754 6C65645F 		.ascii	"led_red_Write\000"
 6992      7265645F 
 6992      57726974 
 6992      6500
 6993              	.LASF66:
 6994 0762 50574D5F 		.ascii	"PWM_Slave\000"
 6994      536C6176 
 6994      6500
 6995              	.LASF81:
 6996 076c 636F6C6F 		.ascii	"color_detected\000"
 6996      725F6465 
 6996      74656374 
 6996      656400
 6997              	.LASF2:
 6998 077b 756E7369 		.ascii	"unsigned char\000"
 6998      676E6564 
 6998      20636861 
ARM GAS  C:\Users\weiro\AppData\Local\Temp\ccS229OV.s 			page 146


 6998      7200
 6999              	.LASF98:
 7000 0789 4D6F746F 		.ascii	"Motor_2_IN_3_Write\000"
 7000      725F325F 
 7000      494E5F33 
 7000      5F577269 
 7000      746500
 7001              	.LASF97:
 7002 079c 4D6F746F 		.ascii	"Motor_1_IN_2_Write\000"
 7002      725F315F 
 7002      494E5F32 
 7002      5F577269 
 7002      746500
 7003              	.LASF114:
 7004 07af 53325F57 		.ascii	"S2_Write\000"
 7004      72697465 
 7004      00
 7005              	.LASF100:
 7006 07b8 51756164 		.ascii	"QuadDec_1_SetCounter\000"
 7006      4465635F 
 7006      315F5365 
 7006      74436F75 
 7006      6E746572 
 7007              	.LASF24:
 7008 07cd 7475726E 		.ascii	"turn_anticlockwise\000"
 7008      5F616E74 
 7008      69636C6F 
 7008      636B7769 
 7008      736500
 7009              	.LASF20:
 7010 07e0 64697374 		.ascii	"dist_left_detection\000"
 7010      5F6C6566 
 7010      745F6465 
 7010      74656374 
 7010      696F6E00 
 7011              	.LASF30:
 7012 07f4 6176675F 		.ascii	"avg_count\000"
 7012      636F756E 
 7012      7400
 7013              	.LASF146:
 7014 07fe 433A5C55 		.ascii	"C:\\Users\\weiro\\code repository for ece4191\\ece4"
 7014      73657273 
 7014      5C776569 
 7014      726F5C63 
 7014      6F646520 
 7015 082d 3139315C 		.ascii	"191\\DC_Motor_1\\Design01.cydsn\000"
 7015      44435F4D 
 7015      6F746F72 
 7015      5F315C44 
 7015      65736967 
 7016              	.LASF36:
 7017 084b 465F6F72 		.ascii	"F_or_R_1\000"
 7017      5F525F31 
 7017      00
 7018              	.LASF37:
 7019 0854 465F6F72 		.ascii	"F_or_R_2\000"
 7019      5F525F32 
ARM GAS  C:\Users\weiro\AppData\Local\Temp\ccS229OV.s 			page 147


 7019      00
 7020              	.LASF39:
 7021 085d 465F6F72 		.ascii	"F_or_R_3\000"
 7021      5F525F33 
 7021      00
 7022              	.LASF1:
 7023 0866 7369676E 		.ascii	"signed char\000"
 7023      65642063 
 7023      68617200 
 7024              	.LASF132:
 7025 0872 50574D5F 		.ascii	"PWM_Master_Start\000"
 7025      4D617374 
 7025      65725F53 
 7025      74617274 
 7025      00
 7026              	.LASF129:
 7027 0883 6973725F 		.ascii	"isr_4_StartEx\000"
 7027      345F5374 
 7027      61727445 
 7027      7800
 7028              	.LASF4:
 7029 0891 73686F72 		.ascii	"short unsigned int\000"
 7029      7420756E 
 7029      7369676E 
 7029      65642069 
 7029      6E7400
 7030              	.LASF147:
 7031 08a4 6D61696E 		.ascii	"main\000"
 7031      00
 7032              	.LASF85:
 7033 08a9 75705F62 		.ascii	"up_big\000"
 7033      696700
 7034              	.LASF57:
 7035 08b0 73747269 		.ascii	"string_1\000"
 7035      6E675F31 
 7035      00
 7036              	.LASF58:
 7037 08b9 73747269 		.ascii	"string_2\000"
 7037      6E675F32 
 7037      00
 7038              	.LASF59:
 7039 08c2 73747269 		.ascii	"string_3\000"
 7039      6E675F33 
 7039      00
 7040              	.LASF0:
 7041 08cb 646F7562 		.ascii	"double\000"
 7041      6C6500
 7042              	.LASF133:
 7043 08d2 50574D5F 		.ascii	"PWM_Slave_Start\000"
 7043      536C6176 
 7043      655F5374 
 7043      61727400 
 7044              	.LASF82:
 7045 08e2 77616C6C 		.ascii	"wall_detected_10\000"
 7045      5F646574 
 7045      65637465 
 7045      645F3130 
ARM GAS  C:\Users\weiro\AppData\Local\Temp\ccS229OV.s 			page 148


 7045      00
 7046              	.LASF108:
 7047 08f3 4C656674 		.ascii	"Left_Trigger_Write\000"
 7047      5F547269 
 7047      67676572 
 7047      5F577269 
 7047      746500
 7048              		.ident	"GCC: (GNU Tools for ARM Embedded Processors) 5.4.1 20160609 (release) [ARM/embedded-5-bran
