ARM GAS  C:\Users\weiro\AppData\Local\Temp\ccglHz8v.s 			page 1


   1              		.syntax unified
   2              		.cpu cortex-m3
   3              		.fpu softvfp
   4              		.eabi_attribute 20, 1
   5              		.eabi_attribute 21, 1
   6              		.eabi_attribute 23, 3
   7              		.eabi_attribute 24, 1
   8              		.eabi_attribute 25, 1
   9              		.eabi_attribute 26, 1
  10              		.eabi_attribute 30, 1
  11              		.eabi_attribute 34, 1
  12              		.eabi_attribute 18, 4
  13              		.thumb
  14              		.syntax unified
  15              		.file	"main.c"
  16              		.text
  17              	.Ltext0:
  18              		.cfi_sections	.debug_frame
  19              		.global	__aeabi_i2d
  20              		.global	__aeabi_dmul
  21              		.global	__aeabi_f2d
  22              		.global	__aeabi_dadd
  23              		.global	__aeabi_d2f
  24              		.global	__aeabi_f2uiz
  25              		.section	.text.Speed_Control,"ax",%progbits
  26              		.align	2
  27              		.global	Speed_Control
  28              		.thumb
  29              		.thumb_func
  30              		.type	Speed_Control, %function
  31              	Speed_Control:
  32              	.LFB64:
  33              		.file 1 "main.c"
   1:main.c        **** /* ========================================
   2:main.c        ****  *
   3:main.c        ****  * Copyright YOUR COMPANY, THE YEAR
   4:main.c        ****  * All Rights Reserved
   5:main.c        ****  * UNPUBLISHED, LICENSED SOFTWARE.
   6:main.c        ****  *
   7:main.c        ****  * CONFIDENTIAL AND PROPRIETARY INFORMATION
   8:main.c        ****  * WHICH IS THE PROPERTY OF your company.
   9:main.c        ****  *
  10:main.c        ****  * ========================================
  11:main.c        **** */
  12:main.c        **** // ECE4191 Group 3
  13:main.c        **** 
  14:main.c        **** #include "project.h"
  15:main.c        **** #include <stdio.h>
  16:main.c        **** #include <stdlib.h>
  17:main.c        **** #include <math.h> 
  18:main.c        **** #include <string.h>
  19:main.c        **** #define MPU6050 0x68
  20:main.c        **** 
  21:main.c        **** int initial = 0; /// 0 --> initial position at left side, 1 --> inital position at right side
  22:main.c        **** double WHEEL_DIAMETER = 5.4; //cm
  23:main.c        **** double WHEEL_CIRCUMFERENCE = 0;
  24:main.c        **** int CS_count_Red = 0;
ARM GAS  C:\Users\weiro\AppData\Local\Temp\ccglHz8v.s 			page 2


  25:main.c        **** int CS_count_Blue = 0;
  26:main.c        **** int CS_count_Green = 0;
  27:main.c        **** double COUNT_WHEEL = 3667; // Count per rotation
  28:main.c        **** double CM_COUNT_CONV = 0;
  29:main.c        **** double DISTANCE_BETW_WHEEL = 22.30;
  30:main.c        **** double DISTANCE_PT_TURN = 0;
  31:main.c        **** double PT_TURN_COUNT = 0;
  32:main.c        **** int Count_Master = 0;
  33:main.c        **** int Count_Slave = 0;
  34:main.c        **** char string_1[200];
  35:main.c        **** char string_2[200];
  36:main.c        **** char string_3[200];
  37:main.c        **** double error = 0;
  38:main.c        **** double accumulated_error = 0;
  39:main.c        **** double last_error = 0;
  40:main.c        **** double derivative_error = 0;
  41:main.c        **** double timer_period = 5;
  42:main.c        **** double K_p = 5;
  43:main.c        **** double K_i = 0;
  44:main.c        **** double K_d = 0;
  45:main.c        **** float PWM_Master = 20000;
  46:main.c        **** float PWM_Cal = 10000;
  47:main.c        **** 
  48:main.c        **** float PWM_Slave = 20000;
  49:main.c        **** float PWM_Master_puck = 5000;
  50:main.c        **** float PWM_Slave_puck = 5000;
  51:main.c        **** int is_moving = 0;
  52:main.c        **** int ultrasonic_count = 0;
  53:main.c        **** double ultrasonic_measure = 0;
  54:main.c        **** double front_measured_1, front_measured_2, right_measured, left_measured = 0;
  55:main.c        **** int echo_select = 0;
  56:main.c        **** double x_coord = 0;
  57:main.c        **** double y_coord = 0;
  58:main.c        **** int direction = 0; // 0(front[0]), 1(right[90]),  2(back[180]),  3(left[270])
  59:main.c        **** int step = -1;
  60:main.c        **** int compare_ready = 0;
  61:main.c        **** int color_detected = 0; // 1-red, 2-green, 3-blue
  62:main.c        **** int wall_detected_10 = 0;
  63:main.c        **** int slit_detected = 0;
  64:main.c        **** int down_big = 615;
  65:main.c        **** int up_big = 525;
  66:main.c        **** int open_small = 980;
  67:main.c        **** int close_small  = 940;
  68:main.c        **** // bluetooth
  69:main.c        **** char Rx;
  70:main.c        **** int i = 0;
  71:main.c        **** char string_bt[200];
  72:main.c        **** int stop_bt = 0;
  73:main.c        **** char* tokenPtr;
  74:main.c        **** char task_info[3][20];
  75:main.c        **** int j = 0;
  76:main.c        **** // gyroscope
  77:main.c        **** uint8 array_1[6] = {0};
  78:main.c        **** int16 temp = 0;
  79:main.c        **** double yaw_rate = 0;
  80:main.c        **** double yaw_angle = 0;
  81:main.c        **** double previous_reading = 0;
ARM GAS  C:\Users\weiro\AppData\Local\Temp\ccglHz8v.s 			page 3


  82:main.c        **** double current_reading = 0;
  83:main.c        **** double heading = 0;
  84:main.c        **** int cycles = 0;
  85:main.c        **** char string_gyro[200] = "\0";
  86:main.c        **** int cal = 1;
  87:main.c        **** int count = 0;
  88:main.c        **** int16 error_gyro = 0; //to find the error in gyroscope readings when stationary
  89:main.c        **** int16 error_gyro_avg = 0; //average error in gyroscope readings when stationary
  90:main.c        **** double threshold = 0.1; //to prevent accumulation of error due to integration
  91:main.c        **** 
  92:main.c        **** CY_ISR (Speed_Control)
  93:main.c        **** {
  34              		.loc 1 93 0
  35              		.cfi_startproc
  36              		@ args = 0, pretend = 0, frame = 0
  37              		@ frame_needed = 0, uses_anonymous_args = 0
  38 0000 F8B5     		push	{r3, r4, r5, r6, r7, lr}
  39              		.cfi_def_cfa_offset 24
  40              		.cfi_offset 3, -24
  41              		.cfi_offset 4, -20
  42              		.cfi_offset 5, -16
  43              		.cfi_offset 6, -12
  44              		.cfi_offset 7, -8
  45              		.cfi_offset 14, -4
  94:main.c        ****     if(is_moving == 1)
  46              		.loc 1 94 0
  47 0002 1B4B     		ldr	r3, .L4+8
  48 0004 1B68     		ldr	r3, [r3]
  49 0006 012B     		cmp	r3, #1
  50 0008 2CD1     		bne	.L1
  95:main.c        ****     {
  96:main.c        ****         error = abs(Count_Master) - abs(Count_Slave);
  51              		.loc 1 96 0
  52 000a 194C     		ldr	r4, .L4+8
  53 000c 6068     		ldr	r0, [r4, #4]
  54 000e 0028     		cmp	r0, #0
  55 0010 B8BF     		it	lt
  56 0012 4042     		rsblt	r0, r0, #0
  57 0014 A368     		ldr	r3, [r4, #8]
  58 0016 002B     		cmp	r3, #0
  59 0018 B8BF     		it	lt
  60 001a 5B42     		rsblt	r3, r3, #0
  61 001c C01A     		subs	r0, r0, r3
  62 001e FFF7FEFF 		bl	__aeabi_i2d
  63              	.LVL0:
  64 0022 C4E90401 		strd	r0, [r4, #16]
  97:main.c        ****     	//accumulated_error = accumulated_error + (error*timer_period);
  98:main.c        ****         //derivative_error = (error - last_error)/timer_period;
  99:main.c        ****         //K_i = 1.2 * K_p / timer_period;
 100:main.c        ****         //K_d = 0.075 * K_p * timer_period;
 101:main.c        ****         //PWM_Slave = 25000 - (K_p*error + K_i*accumulated_error + K_d*derivative_error);
 102:main.c        ****         PWM_Slave = 0.8 * (PWM_Master + K_p*error);
  65              		.loc 1 102 0
  66 0026 134D     		ldr	r5, .L4+12
  67 0028 D5E90023 		ldrd	r2, [r5]
  68 002c FFF7FEFF 		bl	__aeabi_dmul
  69              	.LVL1:
ARM GAS  C:\Users\weiro\AppData\Local\Temp\ccglHz8v.s 			page 4


  70 0030 0646     		mov	r6, r0
  71 0032 0F46     		mov	r7, r1
  72 0034 A868     		ldr	r0, [r5, #8]	@ float
  73 0036 FFF7FEFF 		bl	__aeabi_f2d
  74              	.LVL2:
  75 003a 3246     		mov	r2, r6
  76 003c 3B46     		mov	r3, r7
  77 003e FFF7FEFF 		bl	__aeabi_dadd
  78              	.LVL3:
  79 0042 09A3     		adr	r3, .L4
  80 0044 D3E90023 		ldrd	r2, [r3]
  81 0048 FFF7FEFF 		bl	__aeabi_dmul
  82              	.LVL4:
  83 004c FFF7FEFF 		bl	__aeabi_d2f
  84              	.LVL5:
  85 0050 E860     		str	r0, [r5, #12]	@ float
 103:main.c        ****         //if (PWM_Slave>25000)
 104:main.c        ****         //{
 105:main.c        ****         //    PWM_Slave = 23000;
 106:main.c        ****         //}
 107:main.c        ****     
 108:main.c        ****         PWM_Wheels_WriteCompare2(PWM_Slave);
  86              		.loc 1 108 0
  87 0052 FFF7FEFF 		bl	__aeabi_f2uiz
  88              	.LVL6:
  89 0056 80B2     		uxth	r0, r0
  90 0058 FFF7FEFF 		bl	PWM_Wheels_WriteCompare2
  91              	.LVL7:
 109:main.c        ****         last_error = error;
  92              		.loc 1 109 0
  93 005c D4E90423 		ldrd	r2, [r4, #16]
  94 0060 C4E90623 		strd	r2, [r4, #24]
  95              	.L1:
  96 0064 F8BD     		pop	{r3, r4, r5, r6, r7, pc}
  97              	.L5:
  98 0066 00BF     		.align	3
  99              	.L4:
 100 0068 9A999999 		.word	-1717986918
 101 006c 9999E93F 		.word	1072273817
 102 0070 00000000 		.word	.LANCHOR0
 103 0074 00000000 		.word	.LANCHOR1
 104              		.cfi_endproc
 105              	.LFE64:
 106              		.size	Speed_Control, .-Speed_Control
 107              		.global	__aeabi_dcmple
 108              		.global	__aeabi_dcmpge
 109              		.section	.text.ultrasonic_echo,"ax",%progbits
 110              		.align	2
 111              		.global	ultrasonic_echo
 112              		.thumb
 113              		.thumb_func
 114              		.type	ultrasonic_echo, %function
 115              	ultrasonic_echo:
 116              	.LFB65:
 110:main.c        ****     }
 111:main.c        **** 
 112:main.c        ****     //sprintf(string_3, "PWM_Slave: %f\n", PWM_Slave);
ARM GAS  C:\Users\weiro\AppData\Local\Temp\ccglHz8v.s 			page 5


 113:main.c        ****     //UART_1_PutString(string_3);
 114:main.c        **** }
 115:main.c        **** 
 116:main.c        **** CY_ISR(ultrasonic_echo)
 117:main.c        **** {
 117              		.loc 1 117 0
 118              		.cfi_startproc
 119              		@ args = 0, pretend = 0, frame = 0
 120              		@ frame_needed = 0, uses_anonymous_args = 0
 121 0000 38B5     		push	{r3, r4, r5, lr}
 122              		.cfi_def_cfa_offset 16
 123              		.cfi_offset 3, -16
 124              		.cfi_offset 4, -12
 125              		.cfi_offset 5, -8
 126              		.cfi_offset 14, -4
 118:main.c        ****     Timer_3_ReadStatusRegister();
 127              		.loc 1 118 0
 128 0002 FFF7FEFF 		bl	Timer_3_ReadStatusRegister
 129              	.LVL8:
 119:main.c        ****     ultrasonic_count = Timer_3_ReadCounter();
 130              		.loc 1 119 0
 131 0006 FFF7FEFF 		bl	Timer_3_ReadCounter
 132              	.LVL9:
 133 000a 2D4C     		ldr	r4, .L22
 134 000c 2062     		str	r0, [r4, #32]
 120:main.c        ****     ultrasonic_measure = (65535-ultrasonic_count)/58;
 135              		.loc 1 120 0
 136 000e C0F57F43 		rsb	r3, r0, #65280
 137 0012 FF33     		adds	r3, r3, #255
 138 0014 2B48     		ldr	r0, .L22+4
 139 0016 80FB0320 		smull	r2, r0, r0, r3
 140 001a 1844     		add	r0, r0, r3
 141 001c DB17     		asrs	r3, r3, #31
 142 001e C3EB6010 		rsb	r0, r3, r0, asr #5
 143 0022 FFF7FEFF 		bl	__aeabi_i2d
 144              	.LVL10:
 145 0026 0246     		mov	r2, r0
 146 0028 0B46     		mov	r3, r1
 147 002a C4E90A23 		strd	r2, [r4, #40]
 121:main.c        ****     sprintf(string_1, "Front dist 1: %lf  \n", ultrasonic_measure);
 148              		.loc 1 121 0
 149 002e 264D     		ldr	r5, .L22+8
 150 0030 2649     		ldr	r1, .L22+12
 151 0032 2846     		mov	r0, r5
 152 0034 FFF7FEFF 		bl	sprintf
 153              	.LVL11:
 122:main.c        ****     UART_2_PutString(string_1);
 154              		.loc 1 122 0
 155 0038 2846     		mov	r0, r5
 156 003a FFF7FEFF 		bl	UART_2_PutString
 157              	.LVL12:
 123:main.c        ****     
 124:main.c        ****     if (echo_select == 0)
 158              		.loc 1 124 0
 159 003e 236B     		ldr	r3, [r4, #48]
 160 0040 2BB9     		cbnz	r3, .L7
 125:main.c        ****     {
ARM GAS  C:\Users\weiro\AppData\Local\Temp\ccglHz8v.s 			page 6


 126:main.c        ****         // front 1
 127:main.c        ****         front_measured_1 = ultrasonic_measure;
 161              		.loc 1 127 0
 162 0042 D4E90A01 		ldrd	r0, [r4, #40]
 163 0046 224B     		ldr	r3, .L22+16
 164 0048 C3E90001 		strd	r0, [r3]
 165 004c 18E0     		b	.L8
 166              	.L7:
 128:main.c        ****     }
 129:main.c        ****     else if (echo_select == 1)
 167              		.loc 1 129 0
 168 004e 012B     		cmp	r3, #1
 169 0050 06D1     		bne	.L9
 130:main.c        ****     {
 131:main.c        ****         // front 2
 132:main.c        ****         front_measured_2 = ultrasonic_measure;
 170              		.loc 1 132 0
 171 0052 1B4B     		ldr	r3, .L22
 172 0054 D3E90A01 		ldrd	r0, [r3, #40]
 173 0058 1E4B     		ldr	r3, .L22+20
 174 005a C3E90001 		strd	r0, [r3]
 175 005e 0FE0     		b	.L8
 176              	.L9:
 133:main.c        ****     }
 134:main.c        ****     else if (echo_select == 2)
 177              		.loc 1 134 0
 178 0060 022B     		cmp	r3, #2
 179 0062 05D1     		bne	.L10
 135:main.c        ****     {
 136:main.c        ****         // left
 137:main.c        ****         left_measured = ultrasonic_measure;
 180              		.loc 1 137 0
 181 0064 164B     		ldr	r3, .L22
 182 0066 D3E90A01 		ldrd	r0, [r3, #40]
 183 006a C3E90E01 		strd	r0, [r3, #56]
 184 006e 07E0     		b	.L8
 185              	.L10:
 138:main.c        ****     }
 139:main.c        ****     else if (echo_select == 3)
 186              		.loc 1 139 0
 187 0070 032B     		cmp	r3, #3
 188 0072 05D1     		bne	.L8
 140:main.c        ****     {
 141:main.c        ****         // right
 142:main.c        ****         right_measured = ultrasonic_measure;
 189              		.loc 1 142 0
 190 0074 124B     		ldr	r3, .L22
 191 0076 D3E90A01 		ldrd	r0, [r3, #40]
 192 007a 174B     		ldr	r3, .L22+24
 193 007c C3E90001 		strd	r0, [r3]
 194              	.L8:
 143:main.c        ****     }
 144:main.c        ****     
 145:main.c        ****     if(front_measured_2 <= 10)
 195              		.loc 1 145 0
 196 0080 0022     		movs	r2, #0
 197 0082 164B     		ldr	r3, .L22+28
ARM GAS  C:\Users\weiro\AppData\Local\Temp\ccglHz8v.s 			page 7


 198 0084 1349     		ldr	r1, .L22+20
 199 0086 D1E90001 		ldrd	r0, [r1]
 200 008a FFF7FEFF 		bl	__aeabi_dcmple
 201              	.LVL13:
 202 008e 18B1     		cbz	r0, .L19
 146:main.c        ****     {
 147:main.c        ****         wall_detected_10 = 1;
 203              		.loc 1 147 0
 204 0090 0122     		movs	r2, #1
 205 0092 0B4B     		ldr	r3, .L22
 206 0094 1A64     		str	r2, [r3, #64]
 207 0096 02E0     		b	.L13
 208              	.L19:
 148:main.c        ****     }
 149:main.c        ****     else
 150:main.c        ****     {
 151:main.c        ****         wall_detected_10 = 0;
 209              		.loc 1 151 0
 210 0098 0022     		movs	r2, #0
 211 009a 094B     		ldr	r3, .L22
 212 009c 1A64     		str	r2, [r3, #64]
 213              	.L13:
 152:main.c        ****     }
 153:main.c        ****     
 154:main.c        ****     if (left_measured >= 20)
 214              		.loc 1 154 0
 215 009e 0022     		movs	r2, #0
 216 00a0 0F4B     		ldr	r3, .L22+32
 217 00a2 0749     		ldr	r1, .L22
 218 00a4 D1E90E01 		ldrd	r0, [r1, #56]
 219 00a8 FFF7FEFF 		bl	__aeabi_dcmpge
 220              	.LVL14:
 221 00ac 18B1     		cbz	r0, .L20
 155:main.c        ****     {
 156:main.c        ****         slit_detected = 1;
 222              		.loc 1 156 0
 223 00ae 0122     		movs	r2, #1
 224 00b0 034B     		ldr	r3, .L22
 225 00b2 5A64     		str	r2, [r3, #68]
 226 00b4 38BD     		pop	{r3, r4, r5, pc}
 227              	.L20:
 157:main.c        ****     }
 158:main.c        ****     else
 159:main.c        ****     {
 160:main.c        ****         slit_detected = 0;
 228              		.loc 1 160 0
 229 00b6 0022     		movs	r2, #0
 230 00b8 014B     		ldr	r3, .L22
 231 00ba 5A64     		str	r2, [r3, #68]
 232 00bc 38BD     		pop	{r3, r4, r5, pc}
 233              	.L23:
 234 00be 00BF     		.align	2
 235              	.L22:
 236 00c0 00000000 		.word	.LANCHOR0
 237 00c4 09CB3D8D 		.word	-1925330167
 238 00c8 00000000 		.word	string_1
 239 00cc 00000000 		.word	.LC0
ARM GAS  C:\Users\weiro\AppData\Local\Temp\ccglHz8v.s 			page 8


 240 00d0 00000000 		.word	front_measured_1
 241 00d4 00000000 		.word	front_measured_2
 242 00d8 00000000 		.word	right_measured
 243 00dc 00002440 		.word	1076101120
 244 00e0 00003440 		.word	1077149696
 245              		.cfi_endproc
 246              	.LFE65:
 247              		.size	ultrasonic_echo, .-ultrasonic_echo
 248              		.section	.text.Color_sensing,"ax",%progbits
 249              		.align	2
 250              		.global	Color_sensing
 251              		.thumb
 252              		.thumb_func
 253              		.type	Color_sensing, %function
 254              	Color_sensing:
 255              	.LFB66:
 161:main.c        ****     }
 162:main.c        **** }
 163:main.c        **** 
 164:main.c        **** CY_ISR(Color_sensing)
 165:main.c        **** {
 256              		.loc 1 165 0
 257              		.cfi_startproc
 258              		@ args = 0, pretend = 0, frame = 0
 259              		@ frame_needed = 0, uses_anonymous_args = 0
 260 0000 08B5     		push	{r3, lr}
 261              		.cfi_def_cfa_offset 8
 262              		.cfi_offset 3, -8
 263              		.cfi_offset 14, -4
 166:main.c        ****     // Ready to do the capture --> to count the pulse
 167:main.c        ****     PWM_ColorSensor_ReadStatusRegister();
 264              		.loc 1 167 0
 265 0002 FFF7FEFF 		bl	PWM_ColorSensor_ReadStatusRegister
 266              	.LVL15:
 168:main.c        ****     compare_ready = 1;
 267              		.loc 1 168 0
 268 0006 0122     		movs	r2, #1
 269 0008 014B     		ldr	r3, .L26
 270 000a 9A64     		str	r2, [r3, #72]
 271 000c 08BD     		pop	{r3, pc}
 272              	.L27:
 273 000e 00BF     		.align	2
 274              	.L26:
 275 0010 00000000 		.word	.LANCHOR0
 276              		.cfi_endproc
 277              	.LFE66:
 278              		.size	Color_sensing, .-Color_sensing
 279              		.section	.text.Bluetooth,"ax",%progbits
 280              		.align	2
 281              		.global	Bluetooth
 282              		.thumb
 283              		.thumb_func
 284              		.type	Bluetooth, %function
 285              	Bluetooth:
 286              	.LFB67:
 169:main.c        **** }
 170:main.c        **** 
ARM GAS  C:\Users\weiro\AppData\Local\Temp\ccglHz8v.s 			page 9


 171:main.c        **** CY_ISR(Bluetooth)
 172:main.c        **** {
 287              		.loc 1 172 0
 288              		.cfi_startproc
 289              		@ args = 0, pretend = 0, frame = 0
 290              		@ frame_needed = 0, uses_anonymous_args = 0
 291 0000 08B5     		push	{r3, lr}
 292              		.cfi_def_cfa_offset 8
 293              		.cfi_offset 3, -8
 294              		.cfi_offset 14, -4
 173:main.c        ****     Rx = UART_1_GetChar();
 295              		.loc 1 173 0
 296 0002 FFF7FEFF 		bl	UART_1_GetChar
 297              	.LVL16:
 298 0006 094B     		ldr	r3, .L32
 299 0008 1870     		strb	r0, [r3]
 174:main.c        ****     if (Rx != '!')
 300              		.loc 1 174 0
 301 000a 2128     		cmp	r0, #33
 302 000c 06D0     		beq	.L29
 175:main.c        ****     {
 176:main.c        ****         string_bt[i] = Rx;
 303              		.loc 1 176 0
 304 000e 084A     		ldr	r2, .L32+4
 305 0010 D36C     		ldr	r3, [r2, #76]
 306 0012 0849     		ldr	r1, .L32+8
 307 0014 C854     		strb	r0, [r1, r3]
 177:main.c        ****         i++;
 308              		.loc 1 177 0
 309 0016 0133     		adds	r3, r3, #1
 310 0018 D364     		str	r3, [r2, #76]
 311 001a 08BD     		pop	{r3, pc}
 312              	.L29:
 178:main.c        ****     }
 179:main.c        ****     else
 180:main.c        ****     {
 181:main.c        ****         string_bt[i] = '\0'; // terminate
 313              		.loc 1 181 0
 314 001c 044B     		ldr	r3, .L32+4
 315 001e DA6C     		ldr	r2, [r3, #76]
 316 0020 0020     		movs	r0, #0
 317 0022 0449     		ldr	r1, .L32+8
 318 0024 8854     		strb	r0, [r1, r2]
 182:main.c        ****         stop_bt = 1;
 319              		.loc 1 182 0
 320 0026 0122     		movs	r2, #1
 321 0028 1A65     		str	r2, [r3, #80]
 322 002a 08BD     		pop	{r3, pc}
 323              	.L33:
 324              		.align	2
 325              	.L32:
 326 002c 00000000 		.word	Rx
 327 0030 00000000 		.word	.LANCHOR0
 328 0034 00000000 		.word	string_bt
 329              		.cfi_endproc
 330              	.LFE67:
 331              		.size	Bluetooth, .-Bluetooth
ARM GAS  C:\Users\weiro\AppData\Local\Temp\ccglHz8v.s 			page 10


 332              		.global	__aeabi_ddiv
 333              		.global	__aeabi_dsub
 334              		.global	__aeabi_dcmpgt
 335              		.global	__aeabi_d2iz
 336              		.global	__aeabi_dcmplt
 337              		.section	.text.Gyroscope,"ax",%progbits
 338              		.align	2
 339              		.global	Gyroscope
 340              		.thumb
 341              		.thumb_func
 342              		.type	Gyroscope, %function
 343              	Gyroscope:
 344              	.LFB68:
 183:main.c        ****     }
 184:main.c        **** }
 185:main.c        **** 
 186:main.c        **** CY_ISR(Gyroscope)
 187:main.c        **** {
 345              		.loc 1 187 0
 346              		.cfi_startproc
 347              		@ args = 0, pretend = 0, frame = 0
 348              		@ frame_needed = 0, uses_anonymous_args = 0
 349 0000 2DE9F041 		push	{r4, r5, r6, r7, r8, lr}
 350              		.cfi_def_cfa_offset 24
 351              		.cfi_offset 4, -24
 352              		.cfi_offset 5, -20
 353              		.cfi_offset 6, -16
 354              		.cfi_offset 7, -12
 355              		.cfi_offset 8, -8
 356              		.cfi_offset 14, -4
 188:main.c        ****     Timer_2_ReadStatusRegister();
 357              		.loc 1 188 0
 358 0004 FFF7FEFF 		bl	Timer_2_ReadStatusRegister
 359              	.LVL17:
 189:main.c        ****     //Timer_2_ReadStatusRegister();
 190:main.c        ****     
 191:main.c        ****     //Writing the register number from where the read operation starts
 192:main.c        ****     I2C_1_MasterSendStart(MPU6050,0); //Steps 1-2
 360              		.loc 1 192 0
 361 0008 0021     		movs	r1, #0
 362 000a 6820     		movs	r0, #104
 363 000c FFF7FEFF 		bl	I2C_1_MasterSendStart
 364              	.LVL18:
 193:main.c        ****     I2C_1_MasterWriteByte(0x43); //Step 3
 365              		.loc 1 193 0
 366 0010 4320     		movs	r0, #67
 367 0012 FFF7FEFF 		bl	I2C_1_MasterWriteByte
 368              	.LVL19:
 194:main.c        ****     I2C_1_MasterSendStop(); //Step 4
 369              		.loc 1 194 0
 370 0016 FFF7FEFF 		bl	I2C_1_MasterSendStop
 371              	.LVL20:
 195:main.c        ****     CyDelay(1);
 372              		.loc 1 195 0
 373 001a 0120     		movs	r0, #1
 374 001c FFF7FEFF 		bl	CyDelay
 375              	.LVL21:
ARM GAS  C:\Users\weiro\AppData\Local\Temp\ccglHz8v.s 			page 11


 196:main.c        ****     
 197:main.c        ****     //Read data starting from register 0x43
 198:main.c        ****     I2C_1_MasterSendStart(MPU6050,1); //Steps 5-6
 376              		.loc 1 198 0
 377 0020 0121     		movs	r1, #1
 378 0022 6820     		movs	r0, #104
 379 0024 FFF7FEFF 		bl	I2C_1_MasterSendStart
 380              	.LVL22:
 199:main.c        ****     
 200:main.c        ****     //Step 7
 201:main.c        ****     array_1[0] = I2C_1_MasterReadByte(I2C_1_ACK_DATA); //GYRO_XOUT_H
 381              		.loc 1 201 0
 382 0028 0120     		movs	r0, #1
 383 002a FFF7FEFF 		bl	I2C_1_MasterReadByte
 384              	.LVL23:
 385 002e 844C     		ldr	r4, .L52+16
 386 0030 84F85400 		strb	r0, [r4, #84]
 202:main.c        ****     array_1[1] = I2C_1_MasterReadByte(I2C_1_ACK_DATA); //GYRO_XOUT_L
 387              		.loc 1 202 0
 388 0034 0120     		movs	r0, #1
 389 0036 FFF7FEFF 		bl	I2C_1_MasterReadByte
 390              	.LVL24:
 391 003a 84F85500 		strb	r0, [r4, #85]
 203:main.c        ****     array_1[2] = I2C_1_MasterReadByte(I2C_1_ACK_DATA); //GYRO_YOUT_H
 392              		.loc 1 203 0
 393 003e 0120     		movs	r0, #1
 394 0040 FFF7FEFF 		bl	I2C_1_MasterReadByte
 395              	.LVL25:
 396 0044 84F85600 		strb	r0, [r4, #86]
 204:main.c        ****     array_1[3] = I2C_1_MasterReadByte(I2C_1_ACK_DATA); //GYRO_YOUT_L
 397              		.loc 1 204 0
 398 0048 0120     		movs	r0, #1
 399 004a FFF7FEFF 		bl	I2C_1_MasterReadByte
 400              	.LVL26:
 401 004e 84F85700 		strb	r0, [r4, #87]
 205:main.c        ****     array_1[4] = I2C_1_MasterReadByte(I2C_1_ACK_DATA); //GYRO_ZOUT_H
 402              		.loc 1 205 0
 403 0052 0120     		movs	r0, #1
 404 0054 FFF7FEFF 		bl	I2C_1_MasterReadByte
 405              	.LVL27:
 406 0058 84F85800 		strb	r0, [r4, #88]
 206:main.c        ****     array_1[5] = I2C_1_MasterReadByte(I2C_1_NAK_DATA); //GYRO_ZOUT_L
 407              		.loc 1 206 0
 408 005c 0020     		movs	r0, #0
 409 005e FFF7FEFF 		bl	I2C_1_MasterReadByte
 410              	.LVL28:
 411 0062 84F85900 		strb	r0, [r4, #89]
 207:main.c        ****     
 208:main.c        ****     I2C_1_MasterSendStop(); //Step 8
 412              		.loc 1 208 0
 413 0066 FFF7FEFF 		bl	I2C_1_MasterSendStop
 414              	.LVL29:
 209:main.c        ****     CyDelay(1);
 415              		.loc 1 209 0
 416 006a 0120     		movs	r0, #1
 417 006c FFF7FEFF 		bl	CyDelay
 418              	.LVL30:
ARM GAS  C:\Users\weiro\AppData\Local\Temp\ccglHz8v.s 			page 12


 210:main.c        ****     
 211:main.c        ****     temp = array_1[4] << 8 | array_1[5];
 419              		.loc 1 211 0
 420 0070 94F85800 		ldrb	r0, [r4, #88]	@ zero_extendqisi2
 421 0074 94F85930 		ldrb	r3, [r4, #89]	@ zero_extendqisi2
 422 0078 43EA0023 		orr	r3, r3, r0, lsl #8
 423 007c 1BB2     		sxth	r3, r3
 424 007e A4F85A30 		strh	r3, [r4, #90]	@ movhi
 212:main.c        ****         
 213:main.c        ****     if (cal == 1 && count < 20) //while calibrating
 425              		.loc 1 213 0
 426 0082 704A     		ldr	r2, .L52+20
 427 0084 1269     		ldr	r2, [r2, #16]
 428 0086 012A     		cmp	r2, #1
 429 0088 11D1     		bne	.L35
 430              		.loc 1 213 0 is_stmt 0 discriminator 1
 431 008a E16D     		ldr	r1, [r4, #92]
 432 008c 1329     		cmp	r1, #19
 433 008e 0EDC     		bgt	.L35
 214:main.c        ****     {
 215:main.c        ****         UART_1_PutString("Calibrating\n");
 434              		.loc 1 215 0 is_stmt 1
 435 0090 6D48     		ldr	r0, .L52+24
 436 0092 FFF7FEFF 		bl	UART_1_PutString
 437              	.LVL31:
 216:main.c        ****         error_gyro += temp;
 438              		.loc 1 216 0
 439 0096 B4F86010 		ldrh	r1, [r4, #96]
 440 009a B4F85A20 		ldrh	r2, [r4, #90]
 441 009e 0A44     		add	r2, r2, r1
 442 00a0 A4F86020 		strh	r2, [r4, #96]	@ movhi
 217:main.c        ****         count++;
 443              		.loc 1 217 0
 444 00a4 E26D     		ldr	r2, [r4, #92]
 445 00a6 0132     		adds	r2, r2, #1
 446 00a8 E265     		str	r2, [r4, #92]
 447 00aa BDE8F081 		pop	{r4, r5, r6, r7, r8, pc}
 448              	.L35:
 218:main.c        ****     }
 219:main.c        ****     else if (cal == 1 && count == 20) //end of calibration and computation of average error
 449              		.loc 1 219 0
 450 00ae 012A     		cmp	r2, #1
 451 00b0 13D1     		bne	.L37
 452              		.loc 1 219 0 is_stmt 0 discriminator 1
 453 00b2 634A     		ldr	r2, .L52+16
 454 00b4 D26D     		ldr	r2, [r2, #92]
 455 00b6 142A     		cmp	r2, #20
 456 00b8 0FD1     		bne	.L37
 220:main.c        ****     {
 221:main.c        ****         error_gyro_avg = error_gyro/20;
 457              		.loc 1 221 0 is_stmt 1
 458 00ba 6149     		ldr	r1, .L52+16
 459 00bc B1F96030 		ldrsh	r3, [r1, #96]
 460 00c0 624A     		ldr	r2, .L52+28
 461 00c2 82FB0302 		smull	r0, r2, r2, r3
 462 00c6 DB17     		asrs	r3, r3, #31
 463 00c8 C3EBE203 		rsb	r3, r3, r2, asr #3
ARM GAS  C:\Users\weiro\AppData\Local\Temp\ccglHz8v.s 			page 13


 464 00cc A1F86230 		strh	r3, [r1, #98]	@ movhi
 222:main.c        ****         cal = 0;
 465              		.loc 1 222 0
 466 00d0 0022     		movs	r2, #0
 467 00d2 5C4B     		ldr	r3, .L52+20
 468 00d4 1A61     		str	r2, [r3, #16]
 469 00d6 BDE8F081 		pop	{r4, r5, r6, r7, r8, pc}
 470              	.L37:
 223:main.c        ****     }
 224:main.c        ****     else //after calibration and with average error computed
 225:main.c        ****     {
 226:main.c        ****         temp = temp - error_gyro_avg;
 471              		.loc 1 226 0
 472 00da 594C     		ldr	r4, .L52+16
 473 00dc B4F86200 		ldrh	r0, [r4, #98]
 474 00e0 181A     		subs	r0, r3, r0
 475 00e2 00B2     		sxth	r0, r0
 476 00e4 A4F85A00 		strh	r0, [r4, #90]	@ movhi
 227:main.c        ****         yaw_rate = temp/65.535;
 477              		.loc 1 227 0
 478 00e8 FFF7FEFF 		bl	__aeabi_i2d
 479              	.LVL32:
 480 00ec 50A3     		adr	r3, .L52
 481 00ee D3E90023 		ldrd	r2, [r3]
 482 00f2 FFF7FEFF 		bl	__aeabi_ddiv
 483              	.LVL33:
 484 00f6 0646     		mov	r6, r0
 485 00f8 0F46     		mov	r7, r1
 486 00fa C4E91A67 		strd	r6, [r4, #104]
 228:main.c        **** 
 229:main.c        ****         current_reading = yaw_rate;   
 487              		.loc 1 229 0
 488 00fe C4E91C67 		strd	r6, [r4, #112]
 230:main.c        ****        
 231:main.c        ****         if (fabs(current_reading - previous_reading) > threshold)
 489              		.loc 1 231 0
 490 0102 04F17805 		add	r5, r4, #120
 491 0106 D5E90045 		ldrd	r4, [r5]
 492 010a 2246     		mov	r2, r4
 493 010c 2B46     		mov	r3, r5
 494 010e FFF7FEFF 		bl	__aeabi_dsub
 495              	.LVL34:
 496 0112 8446     		mov	ip, r0
 497 0114 8E46     		mov	lr, r1
 498 0116 4B4B     		ldr	r3, .L52+20
 499 0118 D3E90623 		ldrd	r2, [r3, #24]
 500 011c 6046     		mov	r0, ip
 501 011e 2EF00041 		bic	r1, lr, #-2147483648
 502 0122 FFF7FEFF 		bl	__aeabi_dcmpgt
 503              	.LVL35:
 504 0126 0028     		cmp	r0, #0
 505 0128 70D0     		beq	.L49
 232:main.c        ****         {
 233:main.c        ****             //integration of yaw_rate
 234:main.c        ****             yaw_angle = yaw_angle + 0.5*0.1*(previous_reading + current_reading);
 506              		.loc 1 234 0
 507 012a 2246     		mov	r2, r4
ARM GAS  C:\Users\weiro\AppData\Local\Temp\ccglHz8v.s 			page 14


 508 012c 2B46     		mov	r3, r5
 509 012e 3046     		mov	r0, r6
 510 0130 3946     		mov	r1, r7
 511 0132 FFF7FEFF 		bl	__aeabi_dadd
 512              	.LVL36:
 513 0136 40A3     		adr	r3, .L52+8
 514 0138 D3E90023 		ldrd	r2, [r3]
 515 013c FFF7FEFF 		bl	__aeabi_dmul
 516              	.LVL37:
 517 0140 DFF8FC80 		ldr	r8, .L52+16
 518 0144 D8E92023 		ldrd	r2, [r8, #128]
 519 0148 FFF7FEFF 		bl	__aeabi_dadd
 520              	.LVL38:
 521 014c 0546     		mov	r5, r0
 522 014e 0C46     		mov	r4, r1
 523 0150 0246     		mov	r2, r0
 524 0152 0B46     		mov	r3, r1
 525 0154 C8E92023 		strd	r2, [r8, #128]
 235:main.c        ****             previous_reading = current_reading;
 526              		.loc 1 235 0
 527 0158 C8E91E67 		strd	r6, [r8, #120]
 236:main.c        ****             
 237:main.c        ****             //counting cycles beyond +360 or -360
 238:main.c        ****             cycles = fabs(yaw_angle)/360;
 528              		.loc 1 238 0
 529 015c 0022     		movs	r2, #0
 530 015e 3C4B     		ldr	r3, .L52+32
 531 0160 2846     		mov	r0, r5
 532 0162 24F00041 		bic	r1, r4, #-2147483648
 533 0166 FFF7FEFF 		bl	__aeabi_ddiv
 534              	.LVL39:
 535 016a FFF7FEFF 		bl	__aeabi_d2iz
 536              	.LVL40:
 537 016e 0646     		mov	r6, r0
 538 0170 C8F88800 		str	r0, [r8, #136]
 239:main.c        ****             
 240:main.c        ****             if (cycles > 0)
 539              		.loc 1 240 0
 540 0174 0028     		cmp	r0, #0
 541 0176 23DD     		ble	.L40
 241:main.c        ****             {
 242:main.c        ****                 if (yaw_angle < 0)
 542              		.loc 1 242 0
 543 0178 0022     		movs	r2, #0
 544 017a 0023     		movs	r3, #0
 545 017c 2846     		mov	r0, r5
 546 017e 2146     		mov	r1, r4
 547 0180 FFF7FEFF 		bl	__aeabi_dcmplt
 548              	.LVL41:
 549 0184 60B1     		cbz	r0, .L50
 243:main.c        ****                 {
 244:main.c        ****                     heading = yaw_angle + cycles*360;
 550              		.loc 1 244 0
 551 0186 4FF4B470 		mov	r0, #360
 552 018a 00FB06F0 		mul	r0, r0, r6
 553 018e FFF7FEFF 		bl	__aeabi_i2d
 554              	.LVL42:
ARM GAS  C:\Users\weiro\AppData\Local\Temp\ccglHz8v.s 			page 15


 555 0192 2A46     		mov	r2, r5
 556 0194 2346     		mov	r3, r4
 557 0196 FFF7FEFF 		bl	__aeabi_dadd
 558              	.LVL43:
 559 019a C8E92401 		strd	r0, [r8, #144]
 560 019e 14E0     		b	.L43
 561              	.L50:
 245:main.c        ****                 }
 246:main.c        ****                 else
 247:main.c        ****                 {
 248:main.c        ****                     heading = yaw_angle - cycles*360;
 562              		.loc 1 248 0
 563 01a0 4FF4B470 		mov	r0, #360
 564 01a4 00FB06F0 		mul	r0, r0, r6
 565 01a8 FFF7FEFF 		bl	__aeabi_i2d
 566              	.LVL44:
 567 01ac 0246     		mov	r2, r0
 568 01ae 0B46     		mov	r3, r1
 569 01b0 2846     		mov	r0, r5
 570 01b2 2146     		mov	r1, r4
 571 01b4 FFF7FEFF 		bl	__aeabi_dsub
 572              	.LVL45:
 573 01b8 214B     		ldr	r3, .L52+16
 574 01ba C3E92401 		strd	r0, [r3, #144]
 575 01be 04E0     		b	.L43
 576              	.L40:
 249:main.c        ****                 }
 250:main.c        ****             }
 251:main.c        ****             else
 252:main.c        ****             {
 253:main.c        ****                 heading = yaw_angle;
 577              		.loc 1 253 0
 578 01c0 2A46     		mov	r2, r5
 579 01c2 2346     		mov	r3, r4
 580 01c4 1E49     		ldr	r1, .L52+16
 581 01c6 C1E92423 		strd	r2, [r1, #144]
 582              	.L43:
 254:main.c        ****             }
 255:main.c        ****             
 256:main.c        ****             //wrapping the heading within 0 - 360 degrees
 257:main.c        ****             if (heading < 0)
 583              		.loc 1 257 0
 584 01ca 1D4B     		ldr	r3, .L52+16
 585 01cc D3E92445 		ldrd	r4, [r3, #144]
 586 01d0 0022     		movs	r2, #0
 587 01d2 0023     		movs	r3, #0
 588 01d4 2046     		mov	r0, r4
 589 01d6 2946     		mov	r1, r5
 590 01d8 FFF7FEFF 		bl	__aeabi_dcmplt
 591              	.LVL46:
 592 01dc 40B1     		cbz	r0, .L44
 258:main.c        ****             {
 259:main.c        ****                 heading = heading + 360;
 593              		.loc 1 259 0
 594 01de 0022     		movs	r2, #0
 595 01e0 1B4B     		ldr	r3, .L52+32
 596 01e2 2046     		mov	r0, r4
ARM GAS  C:\Users\weiro\AppData\Local\Temp\ccglHz8v.s 			page 16


 597 01e4 2946     		mov	r1, r5
 598 01e6 FFF7FEFF 		bl	__aeabi_dadd
 599              	.LVL47:
 600 01ea 154B     		ldr	r3, .L52+16
 601 01ec C3E92401 		strd	r0, [r3, #144]
 602              	.L44:
 260:main.c        ****             }
 261:main.c        ****             
 262:main.c        ****             sprintf(string_gyro,"Heading: %lf\n",heading);
 603              		.loc 1 262 0
 604 01f0 134B     		ldr	r3, .L52+16
 605 01f2 03F19804 		add	r4, r3, #152
 606 01f6 D3E92423 		ldrd	r2, [r3, #144]
 607 01fa 1649     		ldr	r1, .L52+36
 608 01fc 2046     		mov	r0, r4
 609 01fe FFF7FEFF 		bl	sprintf
 610              	.LVL48:
 263:main.c        ****             UART_1_PutString(string_gyro);
 611              		.loc 1 263 0
 612 0202 2046     		mov	r0, r4
 613 0204 FFF7FEFF 		bl	UART_1_PutString
 614              	.LVL49:
 615 0208 BDE8F081 		pop	{r4, r5, r6, r7, r8, pc}
 616              	.L49:
 264:main.c        ****         }
 265:main.c        ****         else
 266:main.c        ****         {
 267:main.c        ****             previous_reading = current_reading;
 617              		.loc 1 267 0
 618 020c 0C4B     		ldr	r3, .L52+16
 619 020e C3E91E67 		strd	r6, [r3, #120]
 268:main.c        ****             sprintf(string_gyro,"Heading: %lf\n",heading);
 620              		.loc 1 268 0
 621 0212 03F19804 		add	r4, r3, #152
 622 0216 D3E92423 		ldrd	r2, [r3, #144]
 623 021a 0E49     		ldr	r1, .L52+36
 624 021c 2046     		mov	r0, r4
 625 021e FFF7FEFF 		bl	sprintf
 626              	.LVL50:
 269:main.c        ****             UART_1_PutString(string_gyro);
 627              		.loc 1 269 0
 628 0222 2046     		mov	r0, r4
 629 0224 FFF7FEFF 		bl	UART_1_PutString
 630              	.LVL51:
 631 0228 BDE8F081 		pop	{r4, r5, r6, r7, r8, pc}
 632              	.L53:
 633 022c AFF30080 		.align	3
 634              	.L52:
 635 0230 0AD7A370 		.word	1889785610
 636 0234 3D625040 		.word	1079009853
 637 0238 9A999999 		.word	-1717986918
 638 023c 9999A93F 		.word	1068079513
 639 0240 00000000 		.word	.LANCHOR0
 640 0244 00000000 		.word	.LANCHOR1
 641 0248 18000000 		.word	.LC1
 642 024c 67666666 		.word	1717986919
 643 0250 00807640 		.word	1081507840
ARM GAS  C:\Users\weiro\AppData\Local\Temp\ccglHz8v.s 			page 17


 644 0254 28000000 		.word	.LC2
 645              		.cfi_endproc
 646              	.LFE68:
 647              		.size	Gyroscope, .-Gyroscope
 648              		.section	.text.stop,"ax",%progbits
 649              		.align	2
 650              		.global	stop
 651              		.thumb
 652              		.thumb_func
 653              		.type	stop, %function
 654              	stop:
 655              	.LFB69:
 270:main.c        ****         }
 271:main.c        ****             
 272:main.c        ****     }
 273:main.c        **** }
 274:main.c        **** 
 275:main.c        **** void stop()
 276:main.c        **** {
 656              		.loc 1 276 0
 657              		.cfi_startproc
 658              		@ args = 0, pretend = 0, frame = 0
 659              		@ frame_needed = 0, uses_anonymous_args = 0
 660 0000 10B5     		push	{r4, lr}
 661              		.cfi_def_cfa_offset 8
 662              		.cfi_offset 4, -8
 663              		.cfi_offset 14, -4
 277:main.c        ****     is_moving = 0;
 664              		.loc 1 277 0
 665 0002 0024     		movs	r4, #0
 666 0004 074B     		ldr	r3, .L56
 667 0006 1C60     		str	r4, [r3]
 278:main.c        ****     Motor_1_IN_1_Write(0);
 668              		.loc 1 278 0
 669 0008 2046     		mov	r0, r4
 670 000a FFF7FEFF 		bl	Motor_1_IN_1_Write
 671              	.LVL52:
 279:main.c        ****     Motor_1_IN_2_Write(0);
 672              		.loc 1 279 0
 673 000e 2046     		mov	r0, r4
 674 0010 FFF7FEFF 		bl	Motor_1_IN_2_Write
 675              	.LVL53:
 280:main.c        ****     Motor_2_IN_3_Write(0);
 676              		.loc 1 280 0
 677 0014 2046     		mov	r0, r4
 678 0016 FFF7FEFF 		bl	Motor_2_IN_3_Write
 679              	.LVL54:
 281:main.c        ****     Motor_2_IN_4_Write(0);
 680              		.loc 1 281 0
 681 001a 2046     		mov	r0, r4
 682 001c FFF7FEFF 		bl	Motor_2_IN_4_Write
 683              	.LVL55:
 684 0020 10BD     		pop	{r4, pc}
 685              	.L57:
 686 0022 00BF     		.align	2
 687              	.L56:
 688 0024 00000000 		.word	.LANCHOR0
ARM GAS  C:\Users\weiro\AppData\Local\Temp\ccglHz8v.s 			page 18


 689              		.cfi_endproc
 690              	.LFE69:
 691              		.size	stop, .-stop
 692              		.section	.text.forward,"ax",%progbits
 693              		.align	2
 694              		.global	forward
 695              		.thumb
 696              		.thumb_func
 697              		.type	forward, %function
 698              	forward:
 699              	.LFB70:
 282:main.c        **** }
 283:main.c        **** 
 284:main.c        **** void forward()
 285:main.c        **** {
 700              		.loc 1 285 0
 701              		.cfi_startproc
 702              		@ args = 0, pretend = 0, frame = 0
 703              		@ frame_needed = 0, uses_anonymous_args = 0
 704 0000 10B5     		push	{r4, lr}
 705              		.cfi_def_cfa_offset 8
 706              		.cfi_offset 4, -8
 707              		.cfi_offset 14, -4
 286:main.c        ****     is_moving = 1;
 708              		.loc 1 286 0
 709 0002 0124     		movs	r4, #1
 710 0004 074B     		ldr	r3, .L60
 711 0006 1C60     		str	r4, [r3]
 287:main.c        ****     Motor_1_IN_1_Write(0);
 712              		.loc 1 287 0
 713 0008 0020     		movs	r0, #0
 714 000a FFF7FEFF 		bl	Motor_1_IN_1_Write
 715              	.LVL56:
 288:main.c        ****     Motor_1_IN_2_Write(1);
 716              		.loc 1 288 0
 717 000e 2046     		mov	r0, r4
 718 0010 FFF7FEFF 		bl	Motor_1_IN_2_Write
 719              	.LVL57:
 289:main.c        ****     Motor_2_IN_3_Write(0);
 720              		.loc 1 289 0
 721 0014 0020     		movs	r0, #0
 722 0016 FFF7FEFF 		bl	Motor_2_IN_3_Write
 723              	.LVL58:
 290:main.c        ****     Motor_2_IN_4_Write(1);
 724              		.loc 1 290 0
 725 001a 2046     		mov	r0, r4
 726 001c FFF7FEFF 		bl	Motor_2_IN_4_Write
 727              	.LVL59:
 728 0020 10BD     		pop	{r4, pc}
 729              	.L61:
 730 0022 00BF     		.align	2
 731              	.L60:
 732 0024 00000000 		.word	.LANCHOR0
 733              		.cfi_endproc
 734              	.LFE70:
 735              		.size	forward, .-forward
 736              		.section	.text.reverse,"ax",%progbits
ARM GAS  C:\Users\weiro\AppData\Local\Temp\ccglHz8v.s 			page 19


 737              		.align	2
 738              		.global	reverse
 739              		.thumb
 740              		.thumb_func
 741              		.type	reverse, %function
 742              	reverse:
 743              	.LFB71:
 291:main.c        **** }
 292:main.c        **** 
 293:main.c        **** void reverse()
 294:main.c        **** {
 744              		.loc 1 294 0
 745              		.cfi_startproc
 746              		@ args = 0, pretend = 0, frame = 0
 747              		@ frame_needed = 0, uses_anonymous_args = 0
 748 0000 10B5     		push	{r4, lr}
 749              		.cfi_def_cfa_offset 8
 750              		.cfi_offset 4, -8
 751              		.cfi_offset 14, -4
 295:main.c        ****     is_moving = 1;
 752              		.loc 1 295 0
 753 0002 0124     		movs	r4, #1
 754 0004 074B     		ldr	r3, .L64
 755 0006 1C60     		str	r4, [r3]
 296:main.c        ****     Motor_1_IN_1_Write(1);
 756              		.loc 1 296 0
 757 0008 2046     		mov	r0, r4
 758 000a FFF7FEFF 		bl	Motor_1_IN_1_Write
 759              	.LVL60:
 297:main.c        ****     Motor_1_IN_2_Write(0);
 760              		.loc 1 297 0
 761 000e 0020     		movs	r0, #0
 762 0010 FFF7FEFF 		bl	Motor_1_IN_2_Write
 763              	.LVL61:
 298:main.c        ****     Motor_2_IN_3_Write(1);
 764              		.loc 1 298 0
 765 0014 2046     		mov	r0, r4
 766 0016 FFF7FEFF 		bl	Motor_2_IN_3_Write
 767              	.LVL62:
 299:main.c        ****     Motor_2_IN_4_Write(0);
 768              		.loc 1 299 0
 769 001a 0020     		movs	r0, #0
 770 001c FFF7FEFF 		bl	Motor_2_IN_4_Write
 771              	.LVL63:
 772 0020 10BD     		pop	{r4, pc}
 773              	.L65:
 774 0022 00BF     		.align	2
 775              	.L64:
 776 0024 00000000 		.word	.LANCHOR0
 777              		.cfi_endproc
 778              	.LFE71:
 779              		.size	reverse, .-reverse
 780              		.section	.text.turn_anticlockwise,"ax",%progbits
 781              		.align	2
 782              		.global	turn_anticlockwise
 783              		.thumb
 784              		.thumb_func
ARM GAS  C:\Users\weiro\AppData\Local\Temp\ccglHz8v.s 			page 20


 785              		.type	turn_anticlockwise, %function
 786              	turn_anticlockwise:
 787              	.LFB72:
 300:main.c        **** }
 301:main.c        **** 
 302:main.c        **** void turn_anticlockwise()
 303:main.c        **** {
 788              		.loc 1 303 0
 789              		.cfi_startproc
 790              		@ args = 0, pretend = 0, frame = 0
 791              		@ frame_needed = 0, uses_anonymous_args = 0
 792 0000 10B5     		push	{r4, lr}
 793              		.cfi_def_cfa_offset 8
 794              		.cfi_offset 4, -8
 795              		.cfi_offset 14, -4
 304:main.c        ****     is_moving = 1;
 796              		.loc 1 304 0
 797 0002 0124     		movs	r4, #1
 798 0004 074B     		ldr	r3, .L68
 799 0006 1C60     		str	r4, [r3]
 305:main.c        ****     Motor_1_IN_1_Write(0);
 800              		.loc 1 305 0
 801 0008 0020     		movs	r0, #0
 802 000a FFF7FEFF 		bl	Motor_1_IN_1_Write
 803              	.LVL64:
 306:main.c        ****     Motor_1_IN_2_Write(1);
 804              		.loc 1 306 0
 805 000e 2046     		mov	r0, r4
 806 0010 FFF7FEFF 		bl	Motor_1_IN_2_Write
 807              	.LVL65:
 307:main.c        ****     Motor_2_IN_3_Write(1);
 808              		.loc 1 307 0
 809 0014 2046     		mov	r0, r4
 810 0016 FFF7FEFF 		bl	Motor_2_IN_3_Write
 811              	.LVL66:
 308:main.c        ****     Motor_2_IN_4_Write(0);
 812              		.loc 1 308 0
 813 001a 0020     		movs	r0, #0
 814 001c FFF7FEFF 		bl	Motor_2_IN_4_Write
 815              	.LVL67:
 816 0020 10BD     		pop	{r4, pc}
 817              	.L69:
 818 0022 00BF     		.align	2
 819              	.L68:
 820 0024 00000000 		.word	.LANCHOR0
 821              		.cfi_endproc
 822              	.LFE72:
 823              		.size	turn_anticlockwise, .-turn_anticlockwise
 824              		.section	.text.turn_clockwise,"ax",%progbits
 825              		.align	2
 826              		.global	turn_clockwise
 827              		.thumb
 828              		.thumb_func
 829              		.type	turn_clockwise, %function
 830              	turn_clockwise:
 831              	.LFB73:
 309:main.c        **** }
ARM GAS  C:\Users\weiro\AppData\Local\Temp\ccglHz8v.s 			page 21


 310:main.c        **** 
 311:main.c        **** void turn_clockwise()
 312:main.c        **** {
 832              		.loc 1 312 0
 833              		.cfi_startproc
 834              		@ args = 0, pretend = 0, frame = 0
 835              		@ frame_needed = 0, uses_anonymous_args = 0
 836 0000 10B5     		push	{r4, lr}
 837              		.cfi_def_cfa_offset 8
 838              		.cfi_offset 4, -8
 839              		.cfi_offset 14, -4
 313:main.c        ****     is_moving = 1;
 840              		.loc 1 313 0
 841 0002 0124     		movs	r4, #1
 842 0004 074B     		ldr	r3, .L72
 843 0006 1C60     		str	r4, [r3]
 314:main.c        ****     Motor_1_IN_1_Write(1);
 844              		.loc 1 314 0
 845 0008 2046     		mov	r0, r4
 846 000a FFF7FEFF 		bl	Motor_1_IN_1_Write
 847              	.LVL68:
 315:main.c        ****     Motor_1_IN_2_Write(0);
 848              		.loc 1 315 0
 849 000e 0020     		movs	r0, #0
 850 0010 FFF7FEFF 		bl	Motor_1_IN_2_Write
 851              	.LVL69:
 316:main.c        ****     Motor_2_IN_3_Write(0);
 852              		.loc 1 316 0
 853 0014 0020     		movs	r0, #0
 854 0016 FFF7FEFF 		bl	Motor_2_IN_3_Write
 855              	.LVL70:
 317:main.c        ****     Motor_2_IN_4_Write(1);
 856              		.loc 1 317 0
 857 001a 2046     		mov	r0, r4
 858 001c FFF7FEFF 		bl	Motor_2_IN_4_Write
 859              	.LVL71:
 860 0020 10BD     		pop	{r4, pc}
 861              	.L73:
 862 0022 00BF     		.align	2
 863              	.L72:
 864 0024 00000000 		.word	.LANCHOR0
 865              		.cfi_endproc
 866              	.LFE73:
 867              		.size	turn_clockwise, .-turn_clockwise
 868              		.section	.text.reset_count,"ax",%progbits
 869              		.align	2
 870              		.global	reset_count
 871              		.thumb
 872              		.thumb_func
 873              		.type	reset_count, %function
 874              	reset_count:
 875              	.LFB74:
 318:main.c        **** }
 319:main.c        **** 
 320:main.c        **** void reset_count()
 321:main.c        **** {
 876              		.loc 1 321 0
ARM GAS  C:\Users\weiro\AppData\Local\Temp\ccglHz8v.s 			page 22


 877              		.cfi_startproc
 878              		@ args = 0, pretend = 0, frame = 0
 879              		@ frame_needed = 0, uses_anonymous_args = 0
 880 0000 08B5     		push	{r3, lr}
 881              		.cfi_def_cfa_offset 8
 882              		.cfi_offset 3, -8
 883              		.cfi_offset 14, -4
 322:main.c        ****     QuadDec_1_SetCounter(0);
 884              		.loc 1 322 0
 885 0002 0020     		movs	r0, #0
 886 0004 FFF7FEFF 		bl	QuadDec_1_SetCounter
 887              	.LVL72:
 323:main.c        ****     QuadDec_2_SetCounter(0);
 888              		.loc 1 323 0
 889 0008 0020     		movs	r0, #0
 890 000a FFF7FEFF 		bl	QuadDec_2_SetCounter
 891              	.LVL73:
 324:main.c        ****     Count_Master = 0;
 892              		.loc 1 324 0
 893 000e 024B     		ldr	r3, .L76
 894 0010 0022     		movs	r2, #0
 895 0012 5A60     		str	r2, [r3, #4]
 325:main.c        ****     Count_Slave = 0;
 896              		.loc 1 325 0
 897 0014 9A60     		str	r2, [r3, #8]
 898 0016 08BD     		pop	{r3, pc}
 899              	.L77:
 900              		.align	2
 901              	.L76:
 902 0018 00000000 		.word	.LANCHOR0
 903              		.cfi_endproc
 904              	.LFE74:
 905              		.size	reset_count, .-reset_count
 906              		.section	.text.gyro_cal_1,"ax",%progbits
 907              		.align	2
 908              		.global	gyro_cal_1
 909              		.thumb
 910              		.thumb_func
 911              		.type	gyro_cal_1, %function
 912              	gyro_cal_1:
 913              	.LFB75:
 326:main.c        **** }
 327:main.c        **** 
 328:main.c        **** void gyro_cal_1()
 329:main.c        **** {
 914              		.loc 1 329 0
 915              		.cfi_startproc
 916              		@ args = 0, pretend = 0, frame = 0
 917              		@ frame_needed = 0, uses_anonymous_args = 0
 918 0000 10B5     		push	{r4, lr}
 919              		.cfi_def_cfa_offset 8
 920              		.cfi_offset 4, -8
 921              		.cfi_offset 14, -4
 922              	.LVL74:
 330:main.c        ****     // Determine the target angle based on the 'direction' variable
 331:main.c        ****     int ANGLE_TOLERANCE = 5;
 332:main.c        ****     int targetAngle = 0;
ARM GAS  C:\Users\weiro\AppData\Local\Temp\ccglHz8v.s 			page 23


 333:main.c        ****     PWM_Wheels_WriteCompare1(PWM_Cal);
 923              		.loc 1 333 0
 924 0002 274C     		ldr	r4, .L91
 925 0004 206A     		ldr	r0, [r4, #32]	@ float
 926 0006 FFF7FEFF 		bl	__aeabi_f2uiz
 927              	.LVL75:
 928 000a 80B2     		uxth	r0, r0
 929 000c FFF7FEFF 		bl	PWM_Wheels_WriteCompare1
 930              	.LVL76:
 334:main.c        ****     PWM_Wheels_WriteCompare2(PWM_Cal);
 931              		.loc 1 334 0
 932 0010 206A     		ldr	r0, [r4, #32]	@ float
 933 0012 FFF7FEFF 		bl	__aeabi_f2uiz
 934              	.LVL77:
 935 0016 80B2     		uxth	r0, r0
 936 0018 FFF7FEFF 		bl	PWM_Wheels_WriteCompare2
 937              	.LVL78:
 335:main.c        ****     switch (direction) {
 938              		.loc 1 335 0
 939 001c 214B     		ldr	r3, .L91+4
 940 001e D3F86031 		ldr	r3, [r3, #352]
 941 0022 032B     		cmp	r3, #3
 942 0024 3AD8     		bhi	.L78
 943 0026 DFE803F0 		tbb	[pc, r3]
 944              	.L81:
 945 002a 02       		.byte	(.L80-.L81)/2
 946 002b 09       		.byte	(.L89-.L81)/2
 947 002c 04       		.byte	(.L83-.L81)/2
 948 002d 06       		.byte	(.L84-.L81)/2
 949              		.p2align 1
 950              	.L80:
 336:main.c        ****         case 0:
 337:main.c        ****             targetAngle = 0;
 951              		.loc 1 337 0
 952 002e 0024     		movs	r4, #0
 953 0030 05E0     		b	.L88
 954              	.L83:
 955              	.LVL79:
 338:main.c        ****             break;
 339:main.c        ****         case 1:
 340:main.c        ****             targetAngle = 90;
 341:main.c        ****             break;
 342:main.c        ****         case 2:
 343:main.c        ****             targetAngle = 180;
 956              		.loc 1 343 0
 957 0032 B424     		movs	r4, #180
 344:main.c        ****             break;
 958              		.loc 1 344 0
 959 0034 03E0     		b	.L88
 960              	.LVL80:
 961              	.L84:
 345:main.c        ****         case 3:
 346:main.c        ****             targetAngle = 270;
 962              		.loc 1 346 0
 963 0036 4FF48774 		mov	r4, #270
 347:main.c        ****             break;
 964              		.loc 1 347 0
ARM GAS  C:\Users\weiro\AppData\Local\Temp\ccglHz8v.s 			page 24


 965 003a 00E0     		b	.L88
 966              	.LVL81:
 967              	.L89:
 340:main.c        ****             break;
 968              		.loc 1 340 0
 969 003c 5A24     		movs	r4, #90
 970              	.LVL82:
 971              	.L88:
 972              	.LBB2:
 348:main.c        ****         default:
 349:main.c        ****             // Handle invalid direction
 350:main.c        ****             return;
 351:main.c        ****     }
 352:main.c        **** 
 353:main.c        ****     // Perform calibration by continuously checking heading
 354:main.c        ****     while (1) {
 355:main.c        ****         // Calculate the difference between the current heading and the target angle
 356:main.c        ****         int angleDifference = heading - targetAngle;
 973              		.loc 1 356 0
 974 003e 2046     		mov	r0, r4
 975 0040 FFF7FEFF 		bl	__aeabi_i2d
 976              	.LVL83:
 977 0044 0246     		mov	r2, r0
 978 0046 0B46     		mov	r3, r1
 979 0048 1649     		ldr	r1, .L91+4
 980 004a D1E92401 		ldrd	r0, [r1, #144]
 981 004e FFF7FEFF 		bl	__aeabi_dsub
 982              	.LVL84:
 983 0052 FFF7FEFF 		bl	__aeabi_d2iz
 984              	.LVL85:
 357:main.c        **** 
 358:main.c        ****         // Check if we are within the tolerance range
 359:main.c        ****         if (angleDifference >= -ANGLE_TOLERANCE && angleDifference <= ANGLE_TOLERANCE) {
 985              		.loc 1 359 0
 986 0056 10F1050F 		cmn	r0, #5
 987 005a 14DB     		blt	.L85
 988              		.loc 1 359 0 is_stmt 0 discriminator 1
 989 005c 0528     		cmp	r0, #5
 990 005e 12DC     		bgt	.L85
 360:main.c        ****             // Calibration complete, within tolerance
 361:main.c        ****             stop();
 991              		.loc 1 361 0 is_stmt 1
 992 0060 FFF7FEFF 		bl	stop
 993              	.LVL86:
 994              	.LBE2:
 362:main.c        ****             break;
 363:main.c        ****             CyDelay(500);
 364:main.c        ****         } else if (angleDifference > 0) {
 365:main.c        ****             // Turn counterclockwise
 366:main.c        ****             turn_anticlockwise();
 367:main.c        ****         } else {
 368:main.c        ****             // Turn clockwise
 369:main.c        ****             turn_clockwise();
 370:main.c        ****         }
 371:main.c        ****         
 372:main.c        ****         CyDelay(50);
 373:main.c        ****     }
ARM GAS  C:\Users\weiro\AppData\Local\Temp\ccglHz8v.s 			page 25


 374:main.c        ****     CyDelay(200);
 995              		.loc 1 374 0
 996 0064 C820     		movs	r0, #200
 997 0066 FFF7FEFF 		bl	CyDelay
 998              	.LVL87:
 375:main.c        ****     PWM_Wheels_WriteCompare1(PWM_Master);
 999              		.loc 1 375 0
 1000 006a 0D4C     		ldr	r4, .L91
 1001              	.LVL88:
 1002 006c A068     		ldr	r0, [r4, #8]	@ float
 1003 006e FFF7FEFF 		bl	__aeabi_f2uiz
 1004              	.LVL89:
 1005 0072 80B2     		uxth	r0, r0
 1006 0074 FFF7FEFF 		bl	PWM_Wheels_WriteCompare1
 1007              	.LVL90:
 376:main.c        ****     PWM_Wheels_WriteCompare2(PWM_Master);
 1008              		.loc 1 376 0
 1009 0078 A068     		ldr	r0, [r4, #8]	@ float
 1010 007a FFF7FEFF 		bl	__aeabi_f2uiz
 1011              	.LVL91:
 1012 007e 80B2     		uxth	r0, r0
 1013 0080 FFF7FEFF 		bl	PWM_Wheels_WriteCompare2
 1014              	.LVL92:
 1015 0084 10BD     		pop	{r4, pc}
 1016              	.LVL93:
 1017              	.L85:
 1018              	.LBB3:
 364:main.c        ****             // Turn counterclockwise
 1019              		.loc 1 364 0
 1020 0086 0028     		cmp	r0, #0
 1021 0088 02DD     		ble	.L86
 366:main.c        ****         } else {
 1022              		.loc 1 366 0
 1023 008a FFF7FEFF 		bl	turn_anticlockwise
 1024              	.LVL94:
 1025 008e 01E0     		b	.L87
 1026              	.LVL95:
 1027              	.L86:
 369:main.c        ****         }
 1028              		.loc 1 369 0
 1029 0090 FFF7FEFF 		bl	turn_clockwise
 1030              	.LVL96:
 1031              	.L87:
 372:main.c        ****     }
 1032              		.loc 1 372 0
 1033 0094 3220     		movs	r0, #50
 1034 0096 FFF7FEFF 		bl	CyDelay
 1035              	.LVL97:
 1036              	.LBE3:
 373:main.c        ****     CyDelay(200);
 1037              		.loc 1 373 0
 1038 009a D0E7     		b	.L88
 1039              	.LVL98:
 1040              	.L78:
 1041 009c 10BD     		pop	{r4, pc}
 1042              	.L92:
 1043 009e 00BF     		.align	2
ARM GAS  C:\Users\weiro\AppData\Local\Temp\ccglHz8v.s 			page 26


 1044              	.L91:
 1045 00a0 00000000 		.word	.LANCHOR1
 1046 00a4 00000000 		.word	.LANCHOR0
 1047              		.cfi_endproc
 1048              	.LFE75:
 1049              		.size	gyro_cal_1, .-gyro_cal_1
 1050              		.section	.text.gyro_cal_2,"ax",%progbits
 1051              		.align	2
 1052              		.global	gyro_cal_2
 1053              		.thumb
 1054              		.thumb_func
 1055              		.type	gyro_cal_2, %function
 1056              	gyro_cal_2:
 1057              	.LFB76:
 377:main.c        **** }
 378:main.c        **** void gyro_cal_2()
 379:main.c        **** {
 1058              		.loc 1 379 0
 1059              		.cfi_startproc
 1060              		@ args = 0, pretend = 0, frame = 0
 1061              		@ frame_needed = 0, uses_anonymous_args = 0
 1062 0000 10B5     		push	{r4, lr}
 1063              		.cfi_def_cfa_offset 8
 1064              		.cfi_offset 4, -8
 1065              		.cfi_offset 14, -4
 1066              	.LVL99:
 380:main.c        ****     // Determine the target angle based on the 'direction' variable
 381:main.c        ****     int ANGLE_TOLERANCE = 1;
 382:main.c        ****     int targetAngle = 0;
 383:main.c        ****     PWM_Wheels_WriteCompare1(PWM_Cal);
 1067              		.loc 1 383 0
 1068 0002 274C     		ldr	r4, .L106
 1069 0004 206A     		ldr	r0, [r4, #32]	@ float
 1070 0006 FFF7FEFF 		bl	__aeabi_f2uiz
 1071              	.LVL100:
 1072 000a 80B2     		uxth	r0, r0
 1073 000c FFF7FEFF 		bl	PWM_Wheels_WriteCompare1
 1074              	.LVL101:
 384:main.c        ****     PWM_Wheels_WriteCompare2(PWM_Cal);
 1075              		.loc 1 384 0
 1076 0010 206A     		ldr	r0, [r4, #32]	@ float
 1077 0012 FFF7FEFF 		bl	__aeabi_f2uiz
 1078              	.LVL102:
 1079 0016 80B2     		uxth	r0, r0
 1080 0018 FFF7FEFF 		bl	PWM_Wheels_WriteCompare2
 1081              	.LVL103:
 385:main.c        ****     switch (direction) {
 1082              		.loc 1 385 0
 1083 001c 214B     		ldr	r3, .L106+4
 1084 001e D3F86031 		ldr	r3, [r3, #352]
 1085 0022 032B     		cmp	r3, #3
 1086 0024 3AD8     		bhi	.L93
 1087 0026 DFE803F0 		tbb	[pc, r3]
 1088              	.L96:
 1089 002a 02       		.byte	(.L95-.L96)/2
 1090 002b 09       		.byte	(.L104-.L96)/2
 1091 002c 04       		.byte	(.L98-.L96)/2
ARM GAS  C:\Users\weiro\AppData\Local\Temp\ccglHz8v.s 			page 27


 1092 002d 06       		.byte	(.L99-.L96)/2
 1093              		.p2align 1
 1094              	.L95:
 386:main.c        ****         case 0:
 387:main.c        ****             targetAngle = 0;
 1095              		.loc 1 387 0
 1096 002e 0024     		movs	r4, #0
 1097 0030 05E0     		b	.L103
 1098              	.L98:
 1099              	.LVL104:
 388:main.c        ****             break;
 389:main.c        ****         case 1:
 390:main.c        ****             targetAngle = 90;
 391:main.c        ****             break;
 392:main.c        ****         case 2:
 393:main.c        ****             targetAngle = 180;
 1100              		.loc 1 393 0
 1101 0032 B424     		movs	r4, #180
 394:main.c        ****             break;
 1102              		.loc 1 394 0
 1103 0034 03E0     		b	.L103
 1104              	.LVL105:
 1105              	.L99:
 395:main.c        ****         case 3:
 396:main.c        ****             targetAngle = 270;
 1106              		.loc 1 396 0
 1107 0036 4FF48774 		mov	r4, #270
 397:main.c        ****             break;
 1108              		.loc 1 397 0
 1109 003a 00E0     		b	.L103
 1110              	.LVL106:
 1111              	.L104:
 390:main.c        ****             break;
 1112              		.loc 1 390 0
 1113 003c 5A24     		movs	r4, #90
 1114              	.LVL107:
 1115              	.L103:
 1116              	.LBB4:
 398:main.c        ****         default:
 399:main.c        ****             // Handle invalid direction
 400:main.c        ****             return;
 401:main.c        ****     }
 402:main.c        **** 
 403:main.c        ****     // Perform calibration by continuously checking heading
 404:main.c        ****     while (1) {
 405:main.c        ****         // Calculate the difference between the current heading and the target angle
 406:main.c        ****         int angleDifference = heading - targetAngle;
 1117              		.loc 1 406 0
 1118 003e 2046     		mov	r0, r4
 1119 0040 FFF7FEFF 		bl	__aeabi_i2d
 1120              	.LVL108:
 1121 0044 0246     		mov	r2, r0
 1122 0046 0B46     		mov	r3, r1
 1123 0048 1649     		ldr	r1, .L106+4
 1124 004a D1E92401 		ldrd	r0, [r1, #144]
 1125 004e FFF7FEFF 		bl	__aeabi_dsub
 1126              	.LVL109:
ARM GAS  C:\Users\weiro\AppData\Local\Temp\ccglHz8v.s 			page 28


 1127 0052 FFF7FEFF 		bl	__aeabi_d2iz
 1128              	.LVL110:
 407:main.c        **** 
 408:main.c        ****         // Check if we are within the tolerance range
 409:main.c        ****         if (angleDifference >= -ANGLE_TOLERANCE && angleDifference <= ANGLE_TOLERANCE) {
 1129              		.loc 1 409 0
 1130 0056 B0F1FF3F 		cmp	r0, #-1
 1131 005a 14DB     		blt	.L100
 1132              		.loc 1 409 0 is_stmt 0 discriminator 1
 1133 005c 0128     		cmp	r0, #1
 1134 005e 12DC     		bgt	.L100
 410:main.c        ****             // Calibration complete, within tolerance
 411:main.c        ****             stop();
 1135              		.loc 1 411 0 is_stmt 1
 1136 0060 FFF7FEFF 		bl	stop
 1137              	.LVL111:
 1138              	.LBE4:
 412:main.c        ****             break;
 413:main.c        ****             CyDelay(500);
 414:main.c        ****         } else if (angleDifference > 0) {
 415:main.c        ****             // Turn counterclockwise
 416:main.c        ****             turn_anticlockwise();
 417:main.c        ****         } else {
 418:main.c        ****             // Turn clockwise
 419:main.c        ****             turn_clockwise();
 420:main.c        ****         }
 421:main.c        ****         
 422:main.c        ****         CyDelay(50);
 423:main.c        ****     }
 424:main.c        ****     CyDelay(200);
 1139              		.loc 1 424 0
 1140 0064 C820     		movs	r0, #200
 1141 0066 FFF7FEFF 		bl	CyDelay
 1142              	.LVL112:
 425:main.c        ****     PWM_Wheels_WriteCompare1(PWM_Master);
 1143              		.loc 1 425 0
 1144 006a 0D4C     		ldr	r4, .L106
 1145              	.LVL113:
 1146 006c A068     		ldr	r0, [r4, #8]	@ float
 1147 006e FFF7FEFF 		bl	__aeabi_f2uiz
 1148              	.LVL114:
 1149 0072 80B2     		uxth	r0, r0
 1150 0074 FFF7FEFF 		bl	PWM_Wheels_WriteCompare1
 1151              	.LVL115:
 426:main.c        ****     PWM_Wheels_WriteCompare2(PWM_Master);
 1152              		.loc 1 426 0
 1153 0078 A068     		ldr	r0, [r4, #8]	@ float
 1154 007a FFF7FEFF 		bl	__aeabi_f2uiz
 1155              	.LVL116:
 1156 007e 80B2     		uxth	r0, r0
 1157 0080 FFF7FEFF 		bl	PWM_Wheels_WriteCompare2
 1158              	.LVL117:
 1159 0084 10BD     		pop	{r4, pc}
 1160              	.LVL118:
 1161              	.L100:
 1162              	.LBB5:
 414:main.c        ****             // Turn counterclockwise
ARM GAS  C:\Users\weiro\AppData\Local\Temp\ccglHz8v.s 			page 29


 1163              		.loc 1 414 0
 1164 0086 0028     		cmp	r0, #0
 1165 0088 02DD     		ble	.L101
 416:main.c        ****         } else {
 1166              		.loc 1 416 0
 1167 008a FFF7FEFF 		bl	turn_anticlockwise
 1168              	.LVL119:
 1169 008e 01E0     		b	.L102
 1170              	.LVL120:
 1171              	.L101:
 419:main.c        ****         }
 1172              		.loc 1 419 0
 1173 0090 FFF7FEFF 		bl	turn_clockwise
 1174              	.LVL121:
 1175              	.L102:
 422:main.c        ****     }
 1176              		.loc 1 422 0
 1177 0094 3220     		movs	r0, #50
 1178 0096 FFF7FEFF 		bl	CyDelay
 1179              	.LVL122:
 1180              	.LBE5:
 423:main.c        ****     CyDelay(200);
 1181              		.loc 1 423 0
 1182 009a D0E7     		b	.L103
 1183              	.LVL123:
 1184              	.L93:
 1185 009c 10BD     		pop	{r4, pc}
 1186              	.L107:
 1187 009e 00BF     		.align	2
 1188              	.L106:
 1189 00a0 00000000 		.word	.LANCHOR1
 1190 00a4 00000000 		.word	.LANCHOR0
 1191              		.cfi_endproc
 1192              	.LFE76:
 1193              		.size	gyro_cal_2, .-gyro_cal_2
 1194              		.section	.text.move_fixed_dist,"ax",%progbits
 1195              		.align	2
 1196              		.global	move_fixed_dist
 1197              		.thumb
 1198              		.thumb_func
 1199              		.type	move_fixed_dist, %function
 1200              	move_fixed_dist:
 1201              	.LFB77:
 427:main.c        **** }
 428:main.c        **** 
 429:main.c        **** void move_fixed_dist(int dist, int flag_FR)
 430:main.c        **** {
 1202              		.loc 1 430 0
 1203              		.cfi_startproc
 1204              		@ args = 0, pretend = 0, frame = 0
 1205              		@ frame_needed = 0, uses_anonymous_args = 0
 1206              	.LVL124:
 1207 0000 70B5     		push	{r4, r5, r6, lr}
 1208              		.cfi_def_cfa_offset 16
 1209              		.cfi_offset 4, -16
 1210              		.cfi_offset 5, -12
 1211              		.cfi_offset 6, -8
ARM GAS  C:\Users\weiro\AppData\Local\Temp\ccglHz8v.s 			page 30


 1212              		.cfi_offset 14, -4
 1213 0002 0E46     		mov	r6, r1
 431:main.c        ****     double avg_count, avg_dist;
 432:main.c        ****     int dist_count = dist * CM_COUNT_CONV; // convert dist to count
 1214              		.loc 1 432 0
 1215 0004 FFF7FEFF 		bl	__aeabi_i2d
 1216              	.LVL125:
 1217 0008 414B     		ldr	r3, .L119+16
 1218 000a D3E90023 		ldrd	r2, [r3]
 1219 000e FFF7FEFF 		bl	__aeabi_dmul
 1220              	.LVL126:
 1221 0012 FFF7FEFF 		bl	__aeabi_d2iz
 1222              	.LVL127:
 1223 0016 0546     		mov	r5, r0
 1224              	.LVL128:
 433:main.c        ****     while(abs(Count_Master) <= dist_count && abs(Count_Slave) <= dist_count)
 1225              		.loc 1 433 0
 1226 0018 0FE0     		b	.L109
 1227              	.LVL129:
 1228              	.L113:
 434:main.c        ****     {
 435:main.c        ****         Count_Master = QuadDec_1_GetCounter();
 1229              		.loc 1 435 0
 1230 001a FFF7FEFF 		bl	QuadDec_1_GetCounter
 1231              	.LVL130:
 1232 001e 3D4C     		ldr	r4, .L119+20
 1233 0020 6060     		str	r0, [r4, #4]
 436:main.c        ****         Count_Slave = QuadDec_2_GetCounter();
 1234              		.loc 1 436 0
 1235 0022 FFF7FEFF 		bl	QuadDec_2_GetCounter
 1236              	.LVL131:
 1237 0026 A060     		str	r0, [r4, #8]
 437:main.c        ****         if (flag_FR==1)
 1238              		.loc 1 437 0
 1239 0028 012E     		cmp	r6, #1
 1240 002a 02D1     		bne	.L110
 438:main.c        ****         {
 439:main.c        ****             forward();
 1241              		.loc 1 439 0
 1242 002c FFF7FEFF 		bl	forward
 1243              	.LVL132:
 1244 0030 01E0     		b	.L111
 1245              	.L110:
 440:main.c        ****         }
 441:main.c        ****         else
 442:main.c        ****         {
 443:main.c        ****             reverse();
 1246              		.loc 1 443 0
 1247 0032 FFF7FEFF 		bl	reverse
 1248              	.LVL133:
 1249              	.L111:
 444:main.c        ****         }
 445:main.c        ****         gyro_cal_1();
 1250              		.loc 1 445 0
 1251 0036 FFF7FEFF 		bl	gyro_cal_1
 1252              	.LVL134:
 1253              	.L109:
ARM GAS  C:\Users\weiro\AppData\Local\Temp\ccglHz8v.s 			page 31


 433:main.c        ****     {
 1254              		.loc 1 433 0
 1255 003a 364B     		ldr	r3, .L119+20
 1256 003c 5B68     		ldr	r3, [r3, #4]
 1257 003e 002B     		cmp	r3, #0
 1258 0040 B8BF     		it	lt
 1259 0042 5B42     		rsblt	r3, r3, #0
 1260 0044 9D42     		cmp	r5, r3
 1261 0046 06DB     		blt	.L112
 433:main.c        ****     {
 1262              		.loc 1 433 0 is_stmt 0 discriminator 1
 1263 0048 324B     		ldr	r3, .L119+20
 1264 004a 9B68     		ldr	r3, [r3, #8]
 1265 004c 002B     		cmp	r3, #0
 1266 004e B8BF     		it	lt
 1267 0050 5B42     		rsblt	r3, r3, #0
 1268 0052 9D42     		cmp	r5, r3
 1269 0054 E1DA     		bge	.L113
 1270              	.L112:
 446:main.c        ****     }
 447:main.c        ****     stop();
 1271              		.loc 1 447 0 is_stmt 1
 1272 0056 FFF7FEFF 		bl	stop
 1273              	.LVL135:
 448:main.c        ****     avg_count = (QuadDec_1_GetCounter()+QuadDec_2_GetCounter())/2;
 1274              		.loc 1 448 0
 1275 005a FFF7FEFF 		bl	QuadDec_1_GetCounter
 1276              	.LVL136:
 1277 005e 0446     		mov	r4, r0
 1278 0060 FFF7FEFF 		bl	QuadDec_2_GetCounter
 1279              	.LVL137:
 1280 0064 2044     		add	r0, r0, r4
 1281 0066 00EBD070 		add	r0, r0, r0, lsr #31
 1282 006a 4010     		asrs	r0, r0, #1
 1283 006c FFF7FEFF 		bl	__aeabi_i2d
 1284              	.LVL138:
 1285 0070 0446     		mov	r4, r0
 1286 0072 0D46     		mov	r5, r1
 1287              	.LVL139:
 449:main.c        ****     avg_dist = avg_count*(M_PI*WHEEL_DIAMETER/3667);
 1288              		.loc 1 449 0
 1289 0074 22A3     		adr	r3, .L119
 1290 0076 D3E90023 		ldrd	r2, [r3]
 1291 007a 2749     		ldr	r1, .L119+24
 1292 007c D1E90A01 		ldrd	r0, [r1, #40]
 1293 0080 FFF7FEFF 		bl	__aeabi_dmul
 1294              	.LVL140:
 1295 0084 20A3     		adr	r3, .L119+8
 1296 0086 D3E90023 		ldrd	r2, [r3]
 1297 008a FFF7FEFF 		bl	__aeabi_ddiv
 1298              	.LVL141:
 1299 008e 0246     		mov	r2, r0
 1300 0090 0B46     		mov	r3, r1
 1301 0092 2046     		mov	r0, r4
 1302 0094 2946     		mov	r1, r5
 1303 0096 FFF7FEFF 		bl	__aeabi_dmul
 1304              	.LVL142:
ARM GAS  C:\Users\weiro\AppData\Local\Temp\ccglHz8v.s 			page 32


 450:main.c        ****     if (direction ==0)
 1305              		.loc 1 450 0
 1306 009a 1E4B     		ldr	r3, .L119+20
 1307 009c D3F86031 		ldr	r3, [r3, #352]
 1308 00a0 3BB9     		cbnz	r3, .L114
 451:main.c        ****     {
 452:main.c        ****         y_coord = y_coord + avg_dist;
 1309              		.loc 1 452 0
 1310 00a2 1C4C     		ldr	r4, .L119+20
 1311              	.LVL143:
 1312 00a4 F4E95C23 		ldrd	r2, [r4, #368]!
 1313 00a8 FFF7FEFF 		bl	__aeabi_dadd
 1314              	.LVL144:
 1315 00ac C4E90001 		strd	r0, [r4]
 1316 00b0 20E0     		b	.L115
 1317              	.LVL145:
 1318              	.L114:
 453:main.c        ****     }
 454:main.c        ****     else if (direction ==1)
 1319              		.loc 1 454 0
 1320 00b2 012B     		cmp	r3, #1
 1321 00b4 07D1     		bne	.L116
 455:main.c        ****     {
 456:main.c        ****         
 457:main.c        ****         x_coord = x_coord + avg_dist;
 1322              		.loc 1 457 0
 1323 00b6 174C     		ldr	r4, .L119+20
 1324              	.LVL146:
 1325 00b8 F4E95E23 		ldrd	r2, [r4, #376]!
 1326 00bc FFF7FEFF 		bl	__aeabi_dadd
 1327              	.LVL147:
 1328 00c0 C4E90001 		strd	r0, [r4]
 1329 00c4 16E0     		b	.L115
 1330              	.LVL148:
 1331              	.L116:
 458:main.c        ****     }
 459:main.c        ****     else if (direction ==2)
 1332              		.loc 1 459 0
 1333 00c6 022B     		cmp	r3, #2
 1334 00c8 09D1     		bne	.L117
 460:main.c        ****     {
 461:main.c        ****         
 462:main.c        ****         y_coord = y_coord - avg_dist;
 1335              		.loc 1 462 0
 1336 00ca 124C     		ldr	r4, .L119+20
 1337              	.LVL149:
 1338 00cc 0246     		mov	r2, r0
 1339 00ce 0B46     		mov	r3, r1
 1340 00d0 F4E95C01 		ldrd	r0, [r4, #368]!
 1341              	.LVL150:
 1342 00d4 FFF7FEFF 		bl	__aeabi_dsub
 1343              	.LVL151:
 1344 00d8 C4E90001 		strd	r0, [r4]
 1345 00dc 0AE0     		b	.L115
 1346              	.LVL152:
 1347              	.L117:
 463:main.c        ****     }
ARM GAS  C:\Users\weiro\AppData\Local\Temp\ccglHz8v.s 			page 33


 464:main.c        ****     else if (direction ==3)
 1348              		.loc 1 464 0
 1349 00de 032B     		cmp	r3, #3
 1350 00e0 08D1     		bne	.L115
 465:main.c        ****     {
 466:main.c        ****         
 467:main.c        ****         x_coord = x_coord - avg_dist;
 1351              		.loc 1 467 0
 1352 00e2 0C4C     		ldr	r4, .L119+20
 1353              	.LVL153:
 1354 00e4 0246     		mov	r2, r0
 1355 00e6 0B46     		mov	r3, r1
 1356 00e8 F4E95E01 		ldrd	r0, [r4, #376]!
 1357              	.LVL154:
 1358 00ec FFF7FEFF 		bl	__aeabi_dsub
 1359              	.LVL155:
 1360 00f0 C4E90001 		strd	r0, [r4]
 1361              	.L115:
 468:main.c        ****     }
 469:main.c        ****     reset_count();
 1362              		.loc 1 469 0
 1363 00f4 FFF7FEFF 		bl	reset_count
 1364              	.LVL156:
 1365 00f8 70BD     		pop	{r4, r5, r6, pc}
 1366              	.LVL157:
 1367              	.L120:
 1368 00fa 00BFAFF3 		.align	3
 1368      0080
 1369              	.L119:
 1370 0100 182D4454 		.word	1413754136
 1371 0104 FB210940 		.word	1074340347
 1372 0108 00000000 		.word	0
 1373 010c 00A6AC40 		.word	1085056512
 1374 0110 68010000 		.word	.LANCHOR0+360
 1375 0114 00000000 		.word	.LANCHOR0
 1376 0118 00000000 		.word	.LANCHOR1
 1377              		.cfi_endproc
 1378              	.LFE77:
 1379              		.size	move_fixed_dist, .-move_fixed_dist
 1380              		.section	.text.move2wall,"ax",%progbits
 1381              		.align	2
 1382              		.global	move2wall
 1383              		.thumb
 1384              		.thumb_func
 1385              		.type	move2wall, %function
 1386              	move2wall:
 1387              	.LFB78:
 470:main.c        **** }
 471:main.c        **** 
 472:main.c        **** void move2wall()
 473:main.c        **** {
 1388              		.loc 1 473 0
 1389              		.cfi_startproc
 1390              		@ args = 0, pretend = 0, frame = 0
 1391              		@ frame_needed = 0, uses_anonymous_args = 0
 1392 0000 38B5     		push	{r3, r4, r5, lr}
 1393              		.cfi_def_cfa_offset 16
ARM GAS  C:\Users\weiro\AppData\Local\Temp\ccglHz8v.s 			page 34


 1394              		.cfi_offset 3, -16
 1395              		.cfi_offset 4, -12
 1396              		.cfi_offset 5, -8
 1397              		.cfi_offset 14, -4
 474:main.c        ****     double avg_count, avg_dist;
 475:main.c        ****     echo_select = 1;
 1398              		.loc 1 475 0
 1399 0002 3D4C     		ldr	r4, .L129+16
 1400 0004 0120     		movs	r0, #1
 1401 0006 2063     		str	r0, [r4, #48]
 476:main.c        ****     Control_Reg_2_Write(echo_select);
 1402              		.loc 1 476 0
 1403 0008 FFF7FEFF 		bl	Control_Reg_2_Write
 1404              	.LVL158:
 477:main.c        ****     CyDelay(50);
 1405              		.loc 1 477 0
 1406 000c 3220     		movs	r0, #50
 1407 000e FFF7FEFF 		bl	CyDelay
 1408              	.LVL159:
 478:main.c        ****     wall_detected_10 = 0;
 1409              		.loc 1 478 0
 1410 0012 0023     		movs	r3, #0
 1411 0014 2364     		str	r3, [r4, #64]
 479:main.c        ****     while (wall_detected_10 == 0)
 1412              		.loc 1 479 0
 1413 0016 0FE0     		b	.L122
 1414              	.L123:
 480:main.c        ****     {
 481:main.c        ****         forward();
 1415              		.loc 1 481 0
 1416 0018 FFF7FEFF 		bl	forward
 1417              	.LVL160:
 482:main.c        ****         CyDelay(50);
 1418              		.loc 1 482 0
 1419 001c 3220     		movs	r0, #50
 1420 001e FFF7FEFF 		bl	CyDelay
 1421              	.LVL161:
 483:main.c        ****         Trigger_Write(1);
 1422              		.loc 1 483 0
 1423 0022 0120     		movs	r0, #1
 1424 0024 FFF7FEFF 		bl	Trigger_Write
 1425              	.LVL162:
 484:main.c        ****         CyDelayUs(10);
 1426              		.loc 1 484 0
 1427 0028 0A20     		movs	r0, #10
 1428 002a FFF7FEFF 		bl	CyDelayUs
 1429              	.LVL163:
 485:main.c        ****         Trigger_Write(0);
 1430              		.loc 1 485 0
 1431 002e 0020     		movs	r0, #0
 1432 0030 FFF7FEFF 		bl	Trigger_Write
 1433              	.LVL164:
 486:main.c        ****         gyro_cal_1();
 1434              		.loc 1 486 0
 1435 0034 FFF7FEFF 		bl	gyro_cal_1
 1436              	.LVL165:
 1437              	.L122:
ARM GAS  C:\Users\weiro\AppData\Local\Temp\ccglHz8v.s 			page 35


 479:main.c        ****     {
 1438              		.loc 1 479 0
 1439 0038 2F4B     		ldr	r3, .L129+16
 1440 003a 1B6C     		ldr	r3, [r3, #64]
 1441 003c 002B     		cmp	r3, #0
 1442 003e EBD0     		beq	.L123
 487:main.c        ****     }
 488:main.c        ****     stop();
 1443              		.loc 1 488 0
 1444 0040 FFF7FEFF 		bl	stop
 1445              	.LVL166:
 489:main.c        ****     avg_count = (QuadDec_1_GetCounter()+QuadDec_2_GetCounter())/2;
 1446              		.loc 1 489 0
 1447 0044 FFF7FEFF 		bl	QuadDec_1_GetCounter
 1448              	.LVL167:
 1449 0048 0446     		mov	r4, r0
 1450 004a FFF7FEFF 		bl	QuadDec_2_GetCounter
 1451              	.LVL168:
 1452 004e 2044     		add	r0, r0, r4
 1453 0050 00EBD070 		add	r0, r0, r0, lsr #31
 1454 0054 4010     		asrs	r0, r0, #1
 1455 0056 FFF7FEFF 		bl	__aeabi_i2d
 1456              	.LVL169:
 1457 005a 0446     		mov	r4, r0
 1458 005c 0D46     		mov	r5, r1
 1459              	.LVL170:
 490:main.c        ****     avg_dist = avg_count*(M_PI*WHEEL_DIAMETER/3667);
 1460              		.loc 1 490 0
 1461 005e 22A3     		adr	r3, .L129
 1462 0060 D3E90023 		ldrd	r2, [r3]
 1463 0064 2549     		ldr	r1, .L129+20
 1464 0066 D1E90A01 		ldrd	r0, [r1, #40]
 1465 006a FFF7FEFF 		bl	__aeabi_dmul
 1466              	.LVL171:
 1467 006e 20A3     		adr	r3, .L129+8
 1468 0070 D3E90023 		ldrd	r2, [r3]
 1469 0074 FFF7FEFF 		bl	__aeabi_ddiv
 1470              	.LVL172:
 1471 0078 0246     		mov	r2, r0
 1472 007a 0B46     		mov	r3, r1
 1473 007c 2046     		mov	r0, r4
 1474 007e 2946     		mov	r1, r5
 1475 0080 FFF7FEFF 		bl	__aeabi_dmul
 1476              	.LVL173:
 491:main.c        ****     if (direction ==0)
 1477              		.loc 1 491 0
 1478 0084 1C4B     		ldr	r3, .L129+16
 1479 0086 D3F86031 		ldr	r3, [r3, #352]
 1480 008a 3BB9     		cbnz	r3, .L124
 492:main.c        ****     {
 493:main.c        ****         y_coord = y_coord + avg_dist;
 1481              		.loc 1 493 0
 1482 008c 1A4C     		ldr	r4, .L129+16
 1483              	.LVL174:
 1484 008e F4E95C23 		ldrd	r2, [r4, #368]!
 1485 0092 FFF7FEFF 		bl	__aeabi_dadd
 1486              	.LVL175:
ARM GAS  C:\Users\weiro\AppData\Local\Temp\ccglHz8v.s 			page 36


 1487 0096 C4E90001 		strd	r0, [r4]
 1488 009a 20E0     		b	.L125
 1489              	.LVL176:
 1490              	.L124:
 494:main.c        ****     }
 495:main.c        ****     else if (direction ==1)
 1491              		.loc 1 495 0
 1492 009c 012B     		cmp	r3, #1
 1493 009e 07D1     		bne	.L126
 496:main.c        ****     {
 497:main.c        ****         
 498:main.c        ****         x_coord = x_coord + avg_dist;
 1494              		.loc 1 498 0
 1495 00a0 154C     		ldr	r4, .L129+16
 1496              	.LVL177:
 1497 00a2 F4E95E23 		ldrd	r2, [r4, #376]!
 1498 00a6 FFF7FEFF 		bl	__aeabi_dadd
 1499              	.LVL178:
 1500 00aa C4E90001 		strd	r0, [r4]
 1501 00ae 16E0     		b	.L125
 1502              	.LVL179:
 1503              	.L126:
 499:main.c        ****     }
 500:main.c        ****     else if (direction ==2)
 1504              		.loc 1 500 0
 1505 00b0 022B     		cmp	r3, #2
 1506 00b2 09D1     		bne	.L127
 501:main.c        ****     {
 502:main.c        ****         
 503:main.c        ****         y_coord = y_coord - avg_dist;
 1507              		.loc 1 503 0
 1508 00b4 104C     		ldr	r4, .L129+16
 1509              	.LVL180:
 1510 00b6 0246     		mov	r2, r0
 1511 00b8 0B46     		mov	r3, r1
 1512 00ba F4E95C01 		ldrd	r0, [r4, #368]!
 1513              	.LVL181:
 1514 00be FFF7FEFF 		bl	__aeabi_dsub
 1515              	.LVL182:
 1516 00c2 C4E90001 		strd	r0, [r4]
 1517 00c6 0AE0     		b	.L125
 1518              	.LVL183:
 1519              	.L127:
 504:main.c        ****     }
 505:main.c        ****     else if (direction ==3)
 1520              		.loc 1 505 0
 1521 00c8 032B     		cmp	r3, #3
 1522 00ca 08D1     		bne	.L125
 506:main.c        ****     {
 507:main.c        ****         
 508:main.c        ****         x_coord = x_coord - avg_dist;
 1523              		.loc 1 508 0
 1524 00cc 0A4C     		ldr	r4, .L129+16
 1525              	.LVL184:
 1526 00ce 0246     		mov	r2, r0
 1527 00d0 0B46     		mov	r3, r1
 1528 00d2 F4E95E01 		ldrd	r0, [r4, #376]!
ARM GAS  C:\Users\weiro\AppData\Local\Temp\ccglHz8v.s 			page 37


 1529              	.LVL185:
 1530 00d6 FFF7FEFF 		bl	__aeabi_dsub
 1531              	.LVL186:
 1532 00da C4E90001 		strd	r0, [r4]
 1533              	.L125:
 509:main.c        ****     }
 510:main.c        ****     reset_count();
 1534              		.loc 1 510 0
 1535 00de FFF7FEFF 		bl	reset_count
 1536              	.LVL187:
 1537 00e2 38BD     		pop	{r3, r4, r5, pc}
 1538              	.L130:
 1539 00e4 AFF30080 		.align	3
 1540              	.L129:
 1541 00e8 182D4454 		.word	1413754136
 1542 00ec FB210940 		.word	1074340347
 1543 00f0 00000000 		.word	0
 1544 00f4 00A6AC40 		.word	1085056512
 1545 00f8 00000000 		.word	.LANCHOR0
 1546 00fc 00000000 		.word	.LANCHOR1
 1547              		.cfi_endproc
 1548              	.LFE78:
 1549              		.size	move2wall, .-move2wall
 1550              		.section	.text.move2slit,"ax",%progbits
 1551              		.align	2
 1552              		.global	move2slit
 1553              		.thumb
 1554              		.thumb_func
 1555              		.type	move2slit, %function
 1556              	move2slit:
 1557              	.LFB79:
 511:main.c        **** }
 512:main.c        **** 
 513:main.c        **** void move2slit()
 514:main.c        **** {
 1558              		.loc 1 514 0
 1559              		.cfi_startproc
 1560              		@ args = 0, pretend = 0, frame = 0
 1561              		@ frame_needed = 0, uses_anonymous_args = 0
 1562 0000 38B5     		push	{r3, r4, r5, lr}
 1563              		.cfi_def_cfa_offset 16
 1564              		.cfi_offset 3, -16
 1565              		.cfi_offset 4, -12
 1566              		.cfi_offset 5, -8
 1567              		.cfi_offset 14, -4
 515:main.c        ****     double avg_count, avg_dist;
 516:main.c        ****     echo_select = 2;
 1568              		.loc 1 516 0
 1569 0002 0220     		movs	r0, #2
 1570 0004 464B     		ldr	r3, .L141+16
 1571 0006 1863     		str	r0, [r3, #48]
 517:main.c        ****     Control_Reg_2_Write(echo_select);
 1572              		.loc 1 517 0
 1573 0008 FFF7FEFF 		bl	Control_Reg_2_Write
 1574              	.LVL188:
 518:main.c        ****     CyDelay(50);
 1575              		.loc 1 518 0
ARM GAS  C:\Users\weiro\AppData\Local\Temp\ccglHz8v.s 			page 38


 1576 000c 3220     		movs	r0, #50
 1577 000e FFF7FEFF 		bl	CyDelay
 1578              	.LVL189:
 519:main.c        ****     //CyDelay(500);
 520:main.c        ****     while (slit_detected == 0)
 1579              		.loc 1 520 0
 1580 0012 21E0     		b	.L132
 1581              	.L135:
 521:main.c        ****     {
 522:main.c        ****         forward();
 1582              		.loc 1 522 0
 1583 0014 FFF7FEFF 		bl	forward
 1584              	.LVL190:
 523:main.c        ****         sprintf(string_1, "moving to slit");
 1585              		.loc 1 523 0
 1586 0018 424C     		ldr	r4, .L141+20
 1587 001a 434B     		ldr	r3, .L141+24
 1588 001c 07CB     		ldmia	r3!, {r0, r1, r2}
 1589 001e 2060     		str	r0, [r4]	@ unaligned
 1590 0020 6160     		str	r1, [r4, #4]	@ unaligned
 1591 0022 A260     		str	r2, [r4, #8]	@ unaligned
 1592 0024 1A88     		ldrh	r2, [r3]	@ unaligned
 1593 0026 9B78     		ldrb	r3, [r3, #2]	@ zero_extendqisi2
 1594 0028 A281     		strh	r2, [r4, #12]	@ unaligned
 1595 002a A373     		strb	r3, [r4, #14]
 524:main.c        ****         UART_1_PutString(string_1);
 1596              		.loc 1 524 0
 1597 002c 2046     		mov	r0, r4
 1598 002e FFF7FEFF 		bl	UART_1_PutString
 1599              	.LVL191:
 525:main.c        ****         CyDelay(100);
 1600              		.loc 1 525 0
 1601 0032 6420     		movs	r0, #100
 1602 0034 FFF7FEFF 		bl	CyDelay
 1603              	.LVL192:
 526:main.c        ****         while(Left_Echo_Read()==0)
 1604              		.loc 1 526 0
 1605 0038 08E0     		b	.L133
 1606              	.L134:
 527:main.c        ****         {
 528:main.c        ****             
 529:main.c        ****             Trigger_Write(1);
 1607              		.loc 1 529 0
 1608 003a 0120     		movs	r0, #1
 1609 003c FFF7FEFF 		bl	Trigger_Write
 1610              	.LVL193:
 530:main.c        ****             CyDelayUs(10);
 1611              		.loc 1 530 0
 1612 0040 0A20     		movs	r0, #10
 1613 0042 FFF7FEFF 		bl	CyDelayUs
 1614              	.LVL194:
 531:main.c        ****             Trigger_Write(0);
 1615              		.loc 1 531 0
 1616 0046 0020     		movs	r0, #0
 1617 0048 FFF7FEFF 		bl	Trigger_Write
 1618              	.LVL195:
 1619              	.L133:
ARM GAS  C:\Users\weiro\AppData\Local\Temp\ccglHz8v.s 			page 39


 526:main.c        ****         {
 1620              		.loc 1 526 0
 1621 004c FFF7FEFF 		bl	Left_Echo_Read
 1622              	.LVL196:
 1623 0050 0028     		cmp	r0, #0
 1624 0052 F2D0     		beq	.L134
 532:main.c        ****         }
 533:main.c        ****         gyro_cal_1();
 1625              		.loc 1 533 0
 1626 0054 FFF7FEFF 		bl	gyro_cal_1
 1627              	.LVL197:
 1628              	.L132:
 520:main.c        ****     {
 1629              		.loc 1 520 0
 1630 0058 314B     		ldr	r3, .L141+16
 1631 005a 5B6C     		ldr	r3, [r3, #68]
 1632 005c 002B     		cmp	r3, #0
 1633 005e D9D0     		beq	.L135
 534:main.c        ****     }
 535:main.c        ****     stop();
 1634              		.loc 1 535 0
 1635 0060 FFF7FEFF 		bl	stop
 1636              	.LVL198:
 536:main.c        ****     avg_count = (QuadDec_1_GetCounter()+QuadDec_2_GetCounter())/2;
 1637              		.loc 1 536 0
 1638 0064 FFF7FEFF 		bl	QuadDec_1_GetCounter
 1639              	.LVL199:
 1640 0068 0446     		mov	r4, r0
 1641 006a FFF7FEFF 		bl	QuadDec_2_GetCounter
 1642              	.LVL200:
 1643 006e 2044     		add	r0, r0, r4
 1644 0070 00EBD070 		add	r0, r0, r0, lsr #31
 1645 0074 4010     		asrs	r0, r0, #1
 1646 0076 FFF7FEFF 		bl	__aeabi_i2d
 1647              	.LVL201:
 1648 007a 0446     		mov	r4, r0
 1649 007c 0D46     		mov	r5, r1
 1650              	.LVL202:
 537:main.c        ****     avg_dist = avg_count*(M_PI*WHEEL_DIAMETER/3667);
 1651              		.loc 1 537 0
 1652 007e 24A3     		adr	r3, .L141
 1653 0080 D3E90023 		ldrd	r2, [r3]
 1654 0084 2949     		ldr	r1, .L141+28
 1655 0086 D1E90A01 		ldrd	r0, [r1, #40]
 1656 008a FFF7FEFF 		bl	__aeabi_dmul
 1657              	.LVL203:
 1658 008e 22A3     		adr	r3, .L141+8
 1659 0090 D3E90023 		ldrd	r2, [r3]
 1660 0094 FFF7FEFF 		bl	__aeabi_ddiv
 1661              	.LVL204:
 1662 0098 0246     		mov	r2, r0
 1663 009a 0B46     		mov	r3, r1
 1664 009c 2046     		mov	r0, r4
 1665 009e 2946     		mov	r1, r5
 1666 00a0 FFF7FEFF 		bl	__aeabi_dmul
 1667              	.LVL205:
 538:main.c        ****     if (direction ==0)
ARM GAS  C:\Users\weiro\AppData\Local\Temp\ccglHz8v.s 			page 40


 1668              		.loc 1 538 0
 1669 00a4 1E4B     		ldr	r3, .L141+16
 1670 00a6 D3F86031 		ldr	r3, [r3, #352]
 1671 00aa 3BB9     		cbnz	r3, .L136
 539:main.c        ****     {
 540:main.c        ****         y_coord = y_coord + avg_dist;
 1672              		.loc 1 540 0
 1673 00ac 1C4C     		ldr	r4, .L141+16
 1674              	.LVL206:
 1675 00ae F4E95C23 		ldrd	r2, [r4, #368]!
 1676 00b2 FFF7FEFF 		bl	__aeabi_dadd
 1677              	.LVL207:
 1678 00b6 C4E90001 		strd	r0, [r4]
 1679 00ba 20E0     		b	.L137
 1680              	.LVL208:
 1681              	.L136:
 541:main.c        ****     }
 542:main.c        ****     else if (direction ==1)
 1682              		.loc 1 542 0
 1683 00bc 012B     		cmp	r3, #1
 1684 00be 07D1     		bne	.L138
 543:main.c        ****     {
 544:main.c        ****         
 545:main.c        ****         x_coord = x_coord + avg_dist;
 1685              		.loc 1 545 0
 1686 00c0 174C     		ldr	r4, .L141+16
 1687              	.LVL209:
 1688 00c2 F4E95E23 		ldrd	r2, [r4, #376]!
 1689 00c6 FFF7FEFF 		bl	__aeabi_dadd
 1690              	.LVL210:
 1691 00ca C4E90001 		strd	r0, [r4]
 1692 00ce 16E0     		b	.L137
 1693              	.LVL211:
 1694              	.L138:
 546:main.c        ****     }
 547:main.c        ****     else if (direction ==2)
 1695              		.loc 1 547 0
 1696 00d0 022B     		cmp	r3, #2
 1697 00d2 09D1     		bne	.L139
 548:main.c        ****     {
 549:main.c        ****         
 550:main.c        ****         y_coord = y_coord - avg_dist;
 1698              		.loc 1 550 0
 1699 00d4 124C     		ldr	r4, .L141+16
 1700              	.LVL212:
 1701 00d6 0246     		mov	r2, r0
 1702 00d8 0B46     		mov	r3, r1
 1703 00da F4E95C01 		ldrd	r0, [r4, #368]!
 1704              	.LVL213:
 1705 00de FFF7FEFF 		bl	__aeabi_dsub
 1706              	.LVL214:
 1707 00e2 C4E90001 		strd	r0, [r4]
 1708 00e6 0AE0     		b	.L137
 1709              	.LVL215:
 1710              	.L139:
 551:main.c        ****     }
 552:main.c        ****     else if (direction ==3)
ARM GAS  C:\Users\weiro\AppData\Local\Temp\ccglHz8v.s 			page 41


 1711              		.loc 1 552 0
 1712 00e8 032B     		cmp	r3, #3
 1713 00ea 08D1     		bne	.L137
 553:main.c        ****     {
 554:main.c        ****         
 555:main.c        ****         x_coord = x_coord - avg_dist;
 1714              		.loc 1 555 0
 1715 00ec 0C4C     		ldr	r4, .L141+16
 1716              	.LVL216:
 1717 00ee 0246     		mov	r2, r0
 1718 00f0 0B46     		mov	r3, r1
 1719 00f2 F4E95E01 		ldrd	r0, [r4, #376]!
 1720              	.LVL217:
 1721 00f6 FFF7FEFF 		bl	__aeabi_dsub
 1722              	.LVL218:
 1723 00fa C4E90001 		strd	r0, [r4]
 1724              	.L137:
 556:main.c        ****     }
 557:main.c        ****     reset_count();
 1725              		.loc 1 557 0
 1726 00fe FFF7FEFF 		bl	reset_count
 1727              	.LVL219:
 558:main.c        ****     slit_detected=0;
 1728              		.loc 1 558 0
 1729 0102 0022     		movs	r2, #0
 1730 0104 064B     		ldr	r3, .L141+16
 1731 0106 5A64     		str	r2, [r3, #68]
 1732 0108 38BD     		pop	{r3, r4, r5, pc}
 1733              	.L142:
 1734 010a 00BFAFF3 		.align	3
 1734      0080
 1735              	.L141:
 1736 0110 182D4454 		.word	1413754136
 1737 0114 FB210940 		.word	1074340347
 1738 0118 00000000 		.word	0
 1739 011c 00A6AC40 		.word	1085056512
 1740 0120 00000000 		.word	.LANCHOR0
 1741 0124 00000000 		.word	string_1
 1742 0128 38000000 		.word	.LC3
 1743 012c 00000000 		.word	.LANCHOR1
 1744              		.cfi_endproc
 1745              	.LFE79:
 1746              		.size	move2slit, .-move2slit
 1747              		.section	.text.move2puck,"ax",%progbits
 1748              		.align	2
 1749              		.global	move2puck
 1750              		.thumb
 1751              		.thumb_func
 1752              		.type	move2puck, %function
 1753              	move2puck:
 1754              	.LFB80:
 559:main.c        **** }
 560:main.c        **** 
 561:main.c        **** void move2puck() // need to update to turn (routing)
 562:main.c        **** {
 1755              		.loc 1 562 0
 1756              		.cfi_startproc
ARM GAS  C:\Users\weiro\AppData\Local\Temp\ccglHz8v.s 			page 42


 1757              		@ args = 0, pretend = 0, frame = 0
 1758              		@ frame_needed = 0, uses_anonymous_args = 0
 1759 0000 38B5     		push	{r3, r4, r5, lr}
 1760              		.cfi_def_cfa_offset 16
 1761              		.cfi_offset 3, -16
 1762              		.cfi_offset 4, -12
 1763              		.cfi_offset 5, -8
 1764              		.cfi_offset 14, -4
 563:main.c        ****     double avg_count, avg_dist;
 564:main.c        ****     while (IR_input_Read() == 1)
 1765              		.loc 1 564 0
 1766 0002 03E0     		b	.L144
 1767              	.L145:
 565:main.c        ****     {
 566:main.c        ****         forward();
 1768              		.loc 1 566 0
 1769 0004 FFF7FEFF 		bl	forward
 1770              	.LVL220:
 567:main.c        ****         gyro_cal_1();
 1771              		.loc 1 567 0
 1772 0008 FFF7FEFF 		bl	gyro_cal_1
 1773              	.LVL221:
 1774              	.L144:
 564:main.c        ****     {
 1775              		.loc 1 564 0
 1776 000c FFF7FEFF 		bl	IR_input_Read
 1777              	.LVL222:
 1778 0010 0128     		cmp	r0, #1
 1779 0012 F7D0     		beq	.L145
 568:main.c        ****     }
 569:main.c        ****     stop();
 1780              		.loc 1 569 0
 1781 0014 FFF7FEFF 		bl	stop
 1782              	.LVL223:
 570:main.c        ****     CyDelay(500);
 1783              		.loc 1 570 0
 1784 0018 4FF4FA70 		mov	r0, #500
 1785 001c FFF7FEFF 		bl	CyDelay
 1786              	.LVL224:
 571:main.c        ****     
 572:main.c        ****     avg_count = (QuadDec_1_GetCounter()+QuadDec_2_GetCounter())/2;
 1787              		.loc 1 572 0
 1788 0020 FFF7FEFF 		bl	QuadDec_1_GetCounter
 1789              	.LVL225:
 1790 0024 0446     		mov	r4, r0
 1791 0026 FFF7FEFF 		bl	QuadDec_2_GetCounter
 1792              	.LVL226:
 1793 002a 2044     		add	r0, r0, r4
 1794 002c 00EBD070 		add	r0, r0, r0, lsr #31
 1795 0030 4010     		asrs	r0, r0, #1
 1796 0032 FFF7FEFF 		bl	__aeabi_i2d
 1797              	.LVL227:
 1798 0036 0446     		mov	r4, r0
 1799 0038 0D46     		mov	r5, r1
 1800              	.LVL228:
 573:main.c        ****     avg_dist = avg_count*(M_PI*WHEEL_DIAMETER/3667);
 1801              		.loc 1 573 0
ARM GAS  C:\Users\weiro\AppData\Local\Temp\ccglHz8v.s 			page 43


 1802 003a 21A3     		adr	r3, .L151
 1803 003c D3E90023 		ldrd	r2, [r3]
 1804 0040 2349     		ldr	r1, .L151+16
 1805 0042 D1E90A01 		ldrd	r0, [r1, #40]
 1806 0046 FFF7FEFF 		bl	__aeabi_dmul
 1807              	.LVL229:
 1808 004a 1FA3     		adr	r3, .L151+8
 1809 004c D3E90023 		ldrd	r2, [r3]
 1810 0050 FFF7FEFF 		bl	__aeabi_ddiv
 1811              	.LVL230:
 1812 0054 0246     		mov	r2, r0
 1813 0056 0B46     		mov	r3, r1
 1814 0058 2046     		mov	r0, r4
 1815 005a 2946     		mov	r1, r5
 1816 005c FFF7FEFF 		bl	__aeabi_dmul
 1817              	.LVL231:
 574:main.c        ****     if (direction ==0)
 1818              		.loc 1 574 0
 1819 0060 1C4B     		ldr	r3, .L151+20
 1820 0062 D3F86031 		ldr	r3, [r3, #352]
 1821 0066 3BB9     		cbnz	r3, .L146
 575:main.c        ****     {
 576:main.c        ****         y_coord = y_coord + avg_dist;
 1822              		.loc 1 576 0
 1823 0068 1A4C     		ldr	r4, .L151+20
 1824              	.LVL232:
 1825 006a F4E95C23 		ldrd	r2, [r4, #368]!
 1826 006e FFF7FEFF 		bl	__aeabi_dadd
 1827              	.LVL233:
 1828 0072 C4E90001 		strd	r0, [r4]
 1829 0076 20E0     		b	.L147
 1830              	.LVL234:
 1831              	.L146:
 577:main.c        ****     }
 578:main.c        ****     else if (direction ==1)
 1832              		.loc 1 578 0
 1833 0078 012B     		cmp	r3, #1
 1834 007a 07D1     		bne	.L148
 579:main.c        ****     {
 580:main.c        ****         
 581:main.c        ****         x_coord = x_coord + avg_dist;
 1835              		.loc 1 581 0
 1836 007c 154C     		ldr	r4, .L151+20
 1837              	.LVL235:
 1838 007e F4E95E23 		ldrd	r2, [r4, #376]!
 1839 0082 FFF7FEFF 		bl	__aeabi_dadd
 1840              	.LVL236:
 1841 0086 C4E90001 		strd	r0, [r4]
 1842 008a 16E0     		b	.L147
 1843              	.LVL237:
 1844              	.L148:
 582:main.c        ****     }
 583:main.c        ****     else if (direction ==2)
 1845              		.loc 1 583 0
 1846 008c 022B     		cmp	r3, #2
 1847 008e 09D1     		bne	.L149
 584:main.c        ****     {
ARM GAS  C:\Users\weiro\AppData\Local\Temp\ccglHz8v.s 			page 44


 585:main.c        ****         
 586:main.c        ****         y_coord = y_coord - avg_dist;
 1848              		.loc 1 586 0
 1849 0090 104C     		ldr	r4, .L151+20
 1850              	.LVL238:
 1851 0092 0246     		mov	r2, r0
 1852 0094 0B46     		mov	r3, r1
 1853 0096 F4E95C01 		ldrd	r0, [r4, #368]!
 1854              	.LVL239:
 1855 009a FFF7FEFF 		bl	__aeabi_dsub
 1856              	.LVL240:
 1857 009e C4E90001 		strd	r0, [r4]
 1858 00a2 0AE0     		b	.L147
 1859              	.LVL241:
 1860              	.L149:
 587:main.c        ****     }
 588:main.c        ****     else if (direction ==3)
 1861              		.loc 1 588 0
 1862 00a4 032B     		cmp	r3, #3
 1863 00a6 08D1     		bne	.L147
 589:main.c        ****     {
 590:main.c        ****         
 591:main.c        ****         x_coord = x_coord - avg_dist;
 1864              		.loc 1 591 0
 1865 00a8 0A4C     		ldr	r4, .L151+20
 1866              	.LVL242:
 1867 00aa 0246     		mov	r2, r0
 1868 00ac 0B46     		mov	r3, r1
 1869 00ae F4E95E01 		ldrd	r0, [r4, #376]!
 1870              	.LVL243:
 1871 00b2 FFF7FEFF 		bl	__aeabi_dsub
 1872              	.LVL244:
 1873 00b6 C4E90001 		strd	r0, [r4]
 1874              	.L147:
 592:main.c        ****     }
 593:main.c        ****     reset_count();
 1875              		.loc 1 593 0
 1876 00ba FFF7FEFF 		bl	reset_count
 1877              	.LVL245:
 1878 00be 38BD     		pop	{r3, r4, r5, pc}
 1879              	.L152:
 1880              		.align	3
 1881              	.L151:
 1882 00c0 182D4454 		.word	1413754136
 1883 00c4 FB210940 		.word	1074340347
 1884 00c8 00000000 		.word	0
 1885 00cc 00A6AC40 		.word	1085056512
 1886 00d0 00000000 		.word	.LANCHOR1
 1887 00d4 00000000 		.word	.LANCHOR0
 1888              		.cfi_endproc
 1889              	.LFE80:
 1890              		.size	move2puck, .-move2puck
 1891              		.section	.text.CW,"ax",%progbits
 1892              		.align	2
 1893              		.global	CW
 1894              		.thumb
 1895              		.thumb_func
ARM GAS  C:\Users\weiro\AppData\Local\Temp\ccglHz8v.s 			page 45


 1896              		.type	CW, %function
 1897              	CW:
 1898              	.LFB81:
 594:main.c        **** }
 595:main.c        **** 
 596:main.c        **** void CW(int PT_TURN_COUNT, int flag_CW) // 1-clockwise; 0-anti
 597:main.c        **** {
 1899              		.loc 1 597 0
 1900              		.cfi_startproc
 1901              		@ args = 0, pretend = 0, frame = 0
 1902              		@ frame_needed = 0, uses_anonymous_args = 0
 1903              	.LVL246:
 1904 0000 70B5     		push	{r4, r5, r6, lr}
 1905              		.cfi_def_cfa_offset 16
 1906              		.cfi_offset 4, -16
 1907              		.cfi_offset 5, -12
 1908              		.cfi_offset 6, -8
 1909              		.cfi_offset 14, -4
 1910 0002 0546     		mov	r5, r0
 1911 0004 0E46     		mov	r6, r1
 598:main.c        ****     while(abs(Count_Master) <= PT_TURN_COUNT && abs(Count_Slave) <= PT_TURN_COUNT)
 1912              		.loc 1 598 0
 1913 0006 0DE0     		b	.L154
 1914              	.LVL247:
 1915              	.L158:
 599:main.c        ****     {
 600:main.c        ****         Count_Master = QuadDec_1_GetCounter();
 1916              		.loc 1 600 0
 1917 0008 FFF7FEFF 		bl	QuadDec_1_GetCounter
 1918              	.LVL248:
 1919 000c 204C     		ldr	r4, .L164
 1920 000e 6060     		str	r0, [r4, #4]
 601:main.c        ****         Count_Slave = QuadDec_2_GetCounter();
 1921              		.loc 1 601 0
 1922 0010 FFF7FEFF 		bl	QuadDec_2_GetCounter
 1923              	.LVL249:
 1924 0014 A060     		str	r0, [r4, #8]
 602:main.c        ****         if (flag_CW == 1)
 1925              		.loc 1 602 0
 1926 0016 012E     		cmp	r6, #1
 1927 0018 02D1     		bne	.L155
 603:main.c        ****         {
 604:main.c        ****             turn_clockwise();
 1928              		.loc 1 604 0
 1929 001a FFF7FEFF 		bl	turn_clockwise
 1930              	.LVL250:
 1931 001e 01E0     		b	.L154
 1932              	.L155:
 605:main.c        ****         }
 606:main.c        ****         else 
 607:main.c        ****         {
 608:main.c        ****             turn_anticlockwise();
 1933              		.loc 1 608 0
 1934 0020 FFF7FEFF 		bl	turn_anticlockwise
 1935              	.LVL251:
 1936              	.L154:
 598:main.c        ****     {
ARM GAS  C:\Users\weiro\AppData\Local\Temp\ccglHz8v.s 			page 46


 1937              		.loc 1 598 0
 1938 0024 1A4B     		ldr	r3, .L164
 1939 0026 5B68     		ldr	r3, [r3, #4]
 1940 0028 002B     		cmp	r3, #0
 1941 002a B8BF     		it	lt
 1942 002c 5B42     		rsblt	r3, r3, #0
 1943 002e AB42     		cmp	r3, r5
 1944 0030 06DC     		bgt	.L157
 598:main.c        ****     {
 1945              		.loc 1 598 0 is_stmt 0 discriminator 1
 1946 0032 174B     		ldr	r3, .L164
 1947 0034 9B68     		ldr	r3, [r3, #8]
 1948 0036 002B     		cmp	r3, #0
 1949 0038 B8BF     		it	lt
 1950 003a 5B42     		rsblt	r3, r3, #0
 1951 003c 9D42     		cmp	r5, r3
 1952 003e E3DA     		bge	.L158
 1953              	.L157:
 609:main.c        ****         }
 610:main.c        ****     }
 611:main.c        ****     stop();    
 1954              		.loc 1 611 0 is_stmt 1
 1955 0040 FFF7FEFF 		bl	stop
 1956              	.LVL252:
 612:main.c        ****     if (flag_CW == 1)
 1957              		.loc 1 612 0
 1958 0044 012E     		cmp	r6, #1
 1959 0046 0ED1     		bne	.L159
 613:main.c        ****     {
 614:main.c        ****         if (direction == 3)
 1960              		.loc 1 614 0
 1961 0048 114B     		ldr	r3, .L164
 1962 004a D3F86031 		ldr	r3, [r3, #352]
 1963 004e 032B     		cmp	r3, #3
 1964 0050 04D1     		bne	.L160
 615:main.c        ****         {
 616:main.c        ****             direction = 0;
 1965              		.loc 1 616 0
 1966 0052 0022     		movs	r2, #0
 1967 0054 0E4B     		ldr	r3, .L164
 1968 0056 C3F86021 		str	r2, [r3, #352]
 1969 005a 11E0     		b	.L161
 1970              	.L160:
 617:main.c        ****         }
 618:main.c        ****         else
 619:main.c        ****         {
 620:main.c        ****             direction = direction +1;
 1971              		.loc 1 620 0
 1972 005c 0133     		adds	r3, r3, #1
 1973 005e 0C4A     		ldr	r2, .L164
 1974 0060 C2F86031 		str	r3, [r2, #352]
 1975 0064 0CE0     		b	.L161
 1976              	.L159:
 621:main.c        ****         }
 622:main.c        ****     }
 623:main.c        ****     else
 624:main.c        ****     {
ARM GAS  C:\Users\weiro\AppData\Local\Temp\ccglHz8v.s 			page 47


 625:main.c        ****         if (direction ==0)
 1977              		.loc 1 625 0
 1978 0066 0A4B     		ldr	r3, .L164
 1979 0068 D3F86031 		ldr	r3, [r3, #352]
 1980 006c 23B9     		cbnz	r3, .L162
 626:main.c        ****         {
 627:main.c        ****             direction = 3;
 1981              		.loc 1 627 0
 1982 006e 0322     		movs	r2, #3
 1983 0070 074B     		ldr	r3, .L164
 1984 0072 C3F86021 		str	r2, [r3, #352]
 1985 0076 03E0     		b	.L161
 1986              	.L162:
 628:main.c        ****         }
 629:main.c        ****         else
 630:main.c        ****         {
 631:main.c        ****             direction = direction -1;
 1987              		.loc 1 631 0
 1988 0078 013B     		subs	r3, r3, #1
 1989 007a 054A     		ldr	r2, .L164
 1990 007c C2F86031 		str	r3, [r2, #352]
 1991              	.L161:
 632:main.c        ****         }
 633:main.c        ****     }
 634:main.c        ****     CyDelay(50);
 1992              		.loc 1 634 0
 1993 0080 3220     		movs	r0, #50
 1994 0082 FFF7FEFF 		bl	CyDelay
 1995              	.LVL253:
 635:main.c        ****     gyro_cal_1();
 1996              		.loc 1 635 0
 1997 0086 FFF7FEFF 		bl	gyro_cal_1
 1998              	.LVL254:
 636:main.c        ****     //CyDelay(500);
 637:main.c        ****     //gyro_cal_2();
 638:main.c        ****     reset_count();
 1999              		.loc 1 638 0
 2000 008a FFF7FEFF 		bl	reset_count
 2001              	.LVL255:
 2002 008e 70BD     		pop	{r4, r5, r6, pc}
 2003              	.LVL256:
 2004              	.L165:
 2005              		.align	2
 2006              	.L164:
 2007 0090 00000000 		.word	.LANCHOR0
 2008              		.cfi_endproc
 2009              	.LFE81:
 2010              		.size	CW, .-CW
 2011              		.section	.text.Color_Sensing_Function,"ax",%progbits
 2012              		.align	2
 2013              		.global	Color_Sensing_Function
 2014              		.thumb
 2015              		.thumb_func
 2016              		.type	Color_Sensing_Function, %function
 2017              	Color_Sensing_Function:
 2018              	.LFB82:
 639:main.c        **** }
ARM GAS  C:\Users\weiro\AppData\Local\Temp\ccglHz8v.s 			page 48


 640:main.c        **** 
 641:main.c        **** void Color_Sensing_Function()
 642:main.c        **** {
 2019              		.loc 1 642 0
 2020              		.cfi_startproc
 2021              		@ args = 0, pretend = 0, frame = 0
 2022              		@ frame_needed = 0, uses_anonymous_args = 0
 2023 0000 2DE9F041 		push	{r4, r5, r6, r7, r8, lr}
 2024              		.cfi_def_cfa_offset 24
 2025              		.cfi_offset 4, -24
 2026              		.cfi_offset 5, -20
 2027              		.cfi_offset 6, -16
 2028              		.cfi_offset 7, -12
 2029              		.cfi_offset 8, -8
 2030              		.cfi_offset 14, -4
 2031              	.LVL257:
 643:main.c        ****     int mode = 1;
 644:main.c        **** 
 645:main.c        ****     //int count = 0;
 646:main.c        ****     
 647:main.c        ****     S0_Write(1);
 2032              		.loc 1 647 0
 2033 0004 0120     		movs	r0, #1
 2034 0006 FFF7FEFF 		bl	S0_Write
 2035              	.LVL258:
 648:main.c        ****     S1_Write(1);
 2036              		.loc 1 648 0
 2037 000a 0120     		movs	r0, #1
 2038 000c FFF7FEFF 		bl	S1_Write
 2039              	.LVL259:
 649:main.c        ****     CS_LED_Write(1);
 2040              		.loc 1 649 0
 2041 0010 0120     		movs	r0, #1
 2042 0012 FFF7FEFF 		bl	CS_LED_Write
 2043              	.LVL260:
 650:main.c        ****     CyDelay(10);
 2044              		.loc 1 650 0
 2045 0016 0A20     		movs	r0, #10
 2046 0018 FFF7FEFF 		bl	CyDelay
 2047              	.LVL261:
 651:main.c        ****     Counter_ColorSensor_Start();
 2048              		.loc 1 651 0
 2049 001c FFF7FEFF 		bl	Counter_ColorSensor_Start
 2050              	.LVL262:
 652:main.c        ****     
 653:main.c        ****     if (mode == 1) // red mode --> red filter
 654:main.c        ****     {
 655:main.c        ****         compare_ready = 0;
 2051              		.loc 1 655 0
 2052 0020 0024     		movs	r4, #0
 2053 0022 C34B     		ldr	r3, .L184
 2054 0024 9C64     		str	r4, [r3, #72]
 656:main.c        ****         S2_Write(0);
 2055              		.loc 1 656 0
 2056 0026 2046     		mov	r0, r4
 2057 0028 FFF7FEFF 		bl	S2_Write
 2058              	.LVL263:
ARM GAS  C:\Users\weiro\AppData\Local\Temp\ccglHz8v.s 			page 49


 657:main.c        ****         S3_Write(0);
 2059              		.loc 1 657 0
 2060 002c 2046     		mov	r0, r4
 2061 002e FFF7FEFF 		bl	S3_Write
 2062              	.LVL264:
 658:main.c        ****         CyDelay(20);
 2063              		.loc 1 658 0
 2064 0032 1420     		movs	r0, #20
 2065 0034 FFF7FEFF 		bl	CyDelay
 2066              	.LVL265:
 659:main.c        ****         Control_Reg_1_Write(1);
 2067              		.loc 1 659 0
 2068 0038 0120     		movs	r0, #1
 2069 003a FFF7FEFF 		bl	Control_Reg_1_Write
 2070              	.LVL266:
 660:main.c        ****         CyDelay(1);
 2071              		.loc 1 660 0
 2072 003e 0120     		movs	r0, #1
 2073 0040 FFF7FEFF 		bl	CyDelay
 2074              	.LVL267:
 661:main.c        ****         Control_Reg_1_Write(0);
 2075              		.loc 1 661 0
 2076 0044 2046     		mov	r0, r4
 2077 0046 FFF7FEFF 		bl	Control_Reg_1_Write
 2078              	.LVL268:
 2079              	.L167:
 662:main.c        ****         while(compare_ready==0)
 2080              		.loc 1 662 0 discriminator 1
 2081 004a B94B     		ldr	r3, .L184
 2082 004c 9B6C     		ldr	r3, [r3, #72]
 2083 004e 002B     		cmp	r3, #0
 2084 0050 FBD0     		beq	.L167
 663:main.c        ****         {
 664:main.c        ****             // waiting period (until compare ready = 1
 665:main.c        ****             //sprintf(string_1,"waiting\n");
 666:main.c        ****             //UART_1_PutString(string_1);
 667:main.c        ****         }
 668:main.c        ****         CS_count_Red = Counter_ColorSensor_ReadCapture();
 2085              		.loc 1 668 0
 2086 0052 FFF7FEFF 		bl	Counter_ColorSensor_ReadCapture
 2087              	.LVL269:
 2088 0056 0246     		mov	r2, r0
 2089 0058 B54D     		ldr	r5, .L184
 2090 005a C5F88001 		str	r0, [r5, #384]
 669:main.c        ****         sprintf(string_1,"red: %d\n", CS_count_Red);
 2091              		.loc 1 669 0
 2092 005e B54C     		ldr	r4, .L184+4
 2093 0060 B549     		ldr	r1, .L184+8
 2094 0062 2046     		mov	r0, r4
 2095 0064 FFF7FEFF 		bl	sprintf
 2096              	.LVL270:
 670:main.c        ****         UART_1_PutString(string_1);
 2097              		.loc 1 670 0
 2098 0068 2046     		mov	r0, r4
 2099 006a FFF7FEFF 		bl	UART_1_PutString
 2100              	.LVL271:
 671:main.c        ****         mode = 2;
ARM GAS  C:\Users\weiro\AppData\Local\Temp\ccglHz8v.s 			page 50


 672:main.c        ****     }
 673:main.c        ****     Counter_ColorSensor_Stop();
 2101              		.loc 1 673 0
 2102 006e FFF7FEFF 		bl	Counter_ColorSensor_Stop
 2103              	.LVL272:
 674:main.c        ****     CyDelay(100);
 2104              		.loc 1 674 0
 2105 0072 6420     		movs	r0, #100
 2106 0074 FFF7FEFF 		bl	CyDelay
 2107              	.LVL273:
 675:main.c        ****     Counter_ColorSensor_Start();
 2108              		.loc 1 675 0
 2109 0078 FFF7FEFF 		bl	Counter_ColorSensor_Start
 2110              	.LVL274:
 676:main.c        ****     if (mode == 2) // green mode --> green filter
 677:main.c        ****     {
 678:main.c        ****         compare_ready = 0;
 2111              		.loc 1 678 0
 2112 007c 0024     		movs	r4, #0
 2113 007e AC64     		str	r4, [r5, #72]
 679:main.c        ****         S2_Write(1);
 2114              		.loc 1 679 0
 2115 0080 0120     		movs	r0, #1
 2116 0082 FFF7FEFF 		bl	S2_Write
 2117              	.LVL275:
 680:main.c        ****         S3_Write(1);
 2118              		.loc 1 680 0
 2119 0086 0120     		movs	r0, #1
 2120 0088 FFF7FEFF 		bl	S3_Write
 2121              	.LVL276:
 681:main.c        ****         CyDelay(20);
 2122              		.loc 1 681 0
 2123 008c 1420     		movs	r0, #20
 2124 008e FFF7FEFF 		bl	CyDelay
 2125              	.LVL277:
 682:main.c        ****         Control_Reg_1_Write(1);
 2126              		.loc 1 682 0
 2127 0092 0120     		movs	r0, #1
 2128 0094 FFF7FEFF 		bl	Control_Reg_1_Write
 2129              	.LVL278:
 683:main.c        ****         CyDelay(1);
 2130              		.loc 1 683 0
 2131 0098 0120     		movs	r0, #1
 2132 009a FFF7FEFF 		bl	CyDelay
 2133              	.LVL279:
 684:main.c        ****         Control_Reg_1_Write(0);
 2134              		.loc 1 684 0
 2135 009e 2046     		mov	r0, r4
 2136 00a0 FFF7FEFF 		bl	Control_Reg_1_Write
 2137              	.LVL280:
 2138              	.L168:
 685:main.c        ****         while(compare_ready==0)
 2139              		.loc 1 685 0 discriminator 1
 2140 00a4 A24B     		ldr	r3, .L184
 2141 00a6 9B6C     		ldr	r3, [r3, #72]
 2142 00a8 002B     		cmp	r3, #0
 2143 00aa FBD0     		beq	.L168
ARM GAS  C:\Users\weiro\AppData\Local\Temp\ccglHz8v.s 			page 51


 686:main.c        ****         {
 687:main.c        ****             // waiting period (until compare ready = 1
 688:main.c        ****         }
 689:main.c        ****         CS_count_Green = Counter_ColorSensor_ReadCapture();
 2144              		.loc 1 689 0
 2145 00ac FFF7FEFF 		bl	Counter_ColorSensor_ReadCapture
 2146              	.LVL281:
 2147 00b0 0246     		mov	r2, r0
 2148 00b2 9F4D     		ldr	r5, .L184
 2149 00b4 C5F88401 		str	r0, [r5, #388]
 690:main.c        ****         sprintf(string_1,"green: %d\n", CS_count_Green);
 2150              		.loc 1 690 0
 2151 00b8 9E4C     		ldr	r4, .L184+4
 2152 00ba A049     		ldr	r1, .L184+12
 2153 00bc 2046     		mov	r0, r4
 2154 00be FFF7FEFF 		bl	sprintf
 2155              	.LVL282:
 691:main.c        ****         UART_1_PutString(string_1);
 2156              		.loc 1 691 0
 2157 00c2 2046     		mov	r0, r4
 2158 00c4 FFF7FEFF 		bl	UART_1_PutString
 2159              	.LVL283:
 692:main.c        ****         mode = 3;
 693:main.c        ****     }
 694:main.c        ****     Counter_ColorSensor_Stop();
 2160              		.loc 1 694 0
 2161 00c8 FFF7FEFF 		bl	Counter_ColorSensor_Stop
 2162              	.LVL284:
 695:main.c        ****     CyDelay(100);
 2163              		.loc 1 695 0
 2164 00cc 6420     		movs	r0, #100
 2165 00ce FFF7FEFF 		bl	CyDelay
 2166              	.LVL285:
 696:main.c        ****     Counter_ColorSensor_Start();
 2167              		.loc 1 696 0
 2168 00d2 FFF7FEFF 		bl	Counter_ColorSensor_Start
 2169              	.LVL286:
 697:main.c        ****     if (mode == 3) // blue mode --> blue filter
 698:main.c        ****     {
 699:main.c        ****         compare_ready = 0;
 2170              		.loc 1 699 0
 2171 00d6 0024     		movs	r4, #0
 2172 00d8 AC64     		str	r4, [r5, #72]
 700:main.c        ****         S2_Write(0);
 2173              		.loc 1 700 0
 2174 00da 2046     		mov	r0, r4
 2175 00dc FFF7FEFF 		bl	S2_Write
 2176              	.LVL287:
 701:main.c        ****         S3_Write(1);
 2177              		.loc 1 701 0
 2178 00e0 0120     		movs	r0, #1
 2179 00e2 FFF7FEFF 		bl	S3_Write
 2180              	.LVL288:
 702:main.c        ****         CyDelay(20);
 2181              		.loc 1 702 0
 2182 00e6 1420     		movs	r0, #20
 2183 00e8 FFF7FEFF 		bl	CyDelay
ARM GAS  C:\Users\weiro\AppData\Local\Temp\ccglHz8v.s 			page 52


 2184              	.LVL289:
 703:main.c        ****         Control_Reg_1_Write(1);
 2185              		.loc 1 703 0
 2186 00ec 0120     		movs	r0, #1
 2187 00ee FFF7FEFF 		bl	Control_Reg_1_Write
 2188              	.LVL290:
 704:main.c        ****         CyDelay(1);
 2189              		.loc 1 704 0
 2190 00f2 0120     		movs	r0, #1
 2191 00f4 FFF7FEFF 		bl	CyDelay
 2192              	.LVL291:
 705:main.c        ****         Control_Reg_1_Write(0);
 2193              		.loc 1 705 0
 2194 00f8 2046     		mov	r0, r4
 2195 00fa FFF7FEFF 		bl	Control_Reg_1_Write
 2196              	.LVL292:
 2197              	.L169:
 706:main.c        ****         while(compare_ready==0)
 2198              		.loc 1 706 0 discriminator 1
 2199 00fe 8C4B     		ldr	r3, .L184
 2200 0100 9B6C     		ldr	r3, [r3, #72]
 2201 0102 002B     		cmp	r3, #0
 2202 0104 FBD0     		beq	.L169
 707:main.c        ****         {
 708:main.c        ****             // waiting period (until compare ready = 1
 709:main.c        ****         }
 710:main.c        ****         CS_count_Blue = Counter_ColorSensor_ReadCapture();
 2203              		.loc 1 710 0
 2204 0106 FFF7FEFF 		bl	Counter_ColorSensor_ReadCapture
 2205              	.LVL293:
 2206 010a 0246     		mov	r2, r0
 2207 010c 884C     		ldr	r4, .L184
 2208 010e C4F88801 		str	r0, [r4, #392]
 711:main.c        ****         sprintf(string_1,"blue: %d\n", CS_count_Blue);
 2209              		.loc 1 711 0
 2210 0112 884D     		ldr	r5, .L184+4
 2211 0114 8A49     		ldr	r1, .L184+16
 2212 0116 2846     		mov	r0, r5
 2213 0118 FFF7FEFF 		bl	sprintf
 2214              	.LVL294:
 712:main.c        ****         UART_1_PutString(string_1);
 2215              		.loc 1 712 0
 2216 011c 2846     		mov	r0, r5
 2217 011e FFF7FEFF 		bl	UART_1_PutString
 2218              	.LVL295:
 713:main.c        ****         mode = 0;
 714:main.c        ****     }
 715:main.c        ****     Counter_ColorSensor_Stop();
 2219              		.loc 1 715 0
 2220 0122 FFF7FEFF 		bl	Counter_ColorSensor_Stop
 2221              	.LVL296:
 716:main.c        ****     if (CS_count_Red > CS_count_Green && CS_count_Red > CS_count_Blue)
 2222              		.loc 1 716 0
 2223 0126 D4F88031 		ldr	r3, [r4, #384]
 2224 012a D4F88421 		ldr	r2, [r4, #388]
 2225 012e 9342     		cmp	r3, r2
 2226 0130 0FDD     		ble	.L170
ARM GAS  C:\Users\weiro\AppData\Local\Temp\ccglHz8v.s 			page 53


 2227              		.loc 1 716 0 is_stmt 0 discriminator 1
 2228 0132 D4F88821 		ldr	r2, [r4, #392]
 2229 0136 9342     		cmp	r3, r2
 2230 0138 0BDD     		ble	.L170
 717:main.c        ****     {
 718:main.c        ****         color_detected = 1; //red
 2231              		.loc 1 718 0 is_stmt 1
 2232 013a 0120     		movs	r0, #1
 2233 013c C4F88C01 		str	r0, [r4, #396]
 719:main.c        ****         led_red_Write(1);
 2234              		.loc 1 719 0
 2235 0140 FFF7FEFF 		bl	led_red_Write
 2236              	.LVL297:
 720:main.c        ****         CyDelay(1000);
 2237              		.loc 1 720 0
 2238 0144 4FF47A70 		mov	r0, #1000
 2239 0148 FFF7FEFF 		bl	CyDelay
 2240              	.LVL298:
 721:main.c        ****         led_red_Write(0);
 2241              		.loc 1 721 0
 2242 014c 0020     		movs	r0, #0
 2243 014e FFF7FEFF 		bl	led_red_Write
 2244              	.LVL299:
 2245              	.L170:
 722:main.c        ****     }
 723:main.c        ****     if (CS_count_Green > CS_count_Red && CS_count_Green > CS_count_Blue)
 2246              		.loc 1 723 0
 2247 0152 774B     		ldr	r3, .L184
 2248 0154 D3F88421 		ldr	r2, [r3, #388]
 2249 0158 D3F88031 		ldr	r3, [r3, #384]
 2250 015c 9A42     		cmp	r2, r3
 2251 015e 12DD     		ble	.L171
 2252              		.loc 1 723 0 is_stmt 0 discriminator 1
 2253 0160 734B     		ldr	r3, .L184
 2254 0162 D3F88831 		ldr	r3, [r3, #392]
 2255 0166 9A42     		cmp	r2, r3
 2256 0168 0DDD     		ble	.L171
 724:main.c        ****     {
 725:main.c        ****         color_detected = 2; //green
 2257              		.loc 1 725 0 is_stmt 1
 2258 016a 0222     		movs	r2, #2
 2259 016c 704B     		ldr	r3, .L184
 2260 016e C3F88C21 		str	r2, [r3, #396]
 726:main.c        ****         led_green_Write(1);
 2261              		.loc 1 726 0
 2262 0172 0120     		movs	r0, #1
 2263 0174 FFF7FEFF 		bl	led_green_Write
 2264              	.LVL300:
 727:main.c        ****         CyDelay(1000);
 2265              		.loc 1 727 0
 2266 0178 4FF47A70 		mov	r0, #1000
 2267 017c FFF7FEFF 		bl	CyDelay
 2268              	.LVL301:
 728:main.c        ****         led_green_Write(0);
 2269              		.loc 1 728 0
 2270 0180 0020     		movs	r0, #0
 2271 0182 FFF7FEFF 		bl	led_green_Write
ARM GAS  C:\Users\weiro\AppData\Local\Temp\ccglHz8v.s 			page 54


 2272              	.LVL302:
 2273              	.L171:
 729:main.c        ****     }
 730:main.c        ****     if (CS_count_Blue > CS_count_Red && CS_count_Blue > CS_count_Green)
 2274              		.loc 1 730 0
 2275 0186 6A4B     		ldr	r3, .L184
 2276 0188 D3F88821 		ldr	r2, [r3, #392]
 2277 018c D3F88031 		ldr	r3, [r3, #384]
 2278 0190 9A42     		cmp	r2, r3
 2279 0192 12DD     		ble	.L172
 2280              		.loc 1 730 0 is_stmt 0 discriminator 1
 2281 0194 664B     		ldr	r3, .L184
 2282 0196 D3F88431 		ldr	r3, [r3, #388]
 2283 019a 9A42     		cmp	r2, r3
 2284 019c 0DDD     		ble	.L172
 731:main.c        ****     {
 732:main.c        ****         color_detected = 3; //blue
 2285              		.loc 1 732 0 is_stmt 1
 2286 019e 0322     		movs	r2, #3
 2287 01a0 634B     		ldr	r3, .L184
 2288 01a2 C3F88C21 		str	r2, [r3, #396]
 733:main.c        ****         led_blue_Write(1);
 2289              		.loc 1 733 0
 2290 01a6 0120     		movs	r0, #1
 2291 01a8 FFF7FEFF 		bl	led_blue_Write
 2292              	.LVL303:
 734:main.c        ****         CyDelay(1000);
 2293              		.loc 1 734 0
 2294 01ac 4FF47A70 		mov	r0, #1000
 2295 01b0 FFF7FEFF 		bl	CyDelay
 2296              	.LVL304:
 735:main.c        ****         led_blue_Write(0);
 2297              		.loc 1 735 0
 2298 01b4 0020     		movs	r0, #0
 2299 01b6 FFF7FEFF 		bl	led_blue_Write
 2300              	.LVL305:
 2301              	.L172:
 736:main.c        ****     }
 737:main.c        ****     CS_LED_Write(0);
 2302              		.loc 1 737 0
 2303 01ba 0020     		movs	r0, #0
 2304 01bc FFF7FEFF 		bl	CS_LED_Write
 2305              	.LVL306:
 738:main.c        ****     while (color_detected == 1) //red
 2306              		.loc 1 738 0
 2307 01c0 1CE0     		b	.L175
 2308              	.L174:
 739:main.c        ****     {
 740:main.c        ****         while(Front_Echo_2_Read()==0)
 741:main.c        ****         {
 742:main.c        ****             Trigger_Write(1);
 2309              		.loc 1 742 0
 2310 01c2 0120     		movs	r0, #1
 2311 01c4 FFF7FEFF 		bl	Trigger_Write
 2312              	.LVL307:
 743:main.c        ****             CyDelayUs(10);
 2313              		.loc 1 743 0
ARM GAS  C:\Users\weiro\AppData\Local\Temp\ccglHz8v.s 			page 55


 2314 01c8 0A20     		movs	r0, #10
 2315 01ca FFF7FEFF 		bl	CyDelayUs
 2316              	.LVL308:
 744:main.c        ****             Trigger_Write(0);
 2317              		.loc 1 744 0
 2318 01ce 0020     		movs	r0, #0
 2319 01d0 FFF7FEFF 		bl	Trigger_Write
 2320              	.LVL309:
 2321              	.L177:
 740:main.c        ****         {
 2322              		.loc 1 740 0
 2323 01d4 FFF7FEFF 		bl	Front_Echo_2_Read
 2324              	.LVL310:
 2325 01d8 0028     		cmp	r0, #0
 2326 01da F2D0     		beq	.L174
 745:main.c        ****         }
 746:main.c        ****         
 747:main.c        ****         if (front_measured_2 >= 10)
 2327              		.loc 1 747 0
 2328 01dc 0022     		movs	r2, #0
 2329 01de 594B     		ldr	r3, .L184+20
 2330 01e0 5949     		ldr	r1, .L184+24
 2331 01e2 D1E90001 		ldrd	r0, [r1]
 2332 01e6 FFF7FEFF 		bl	__aeabi_dcmpge
 2333              	.LVL311:
 2334 01ea 38B1     		cbz	r0, .L175
 748:main.c        ****         {
 749:main.c        ****             move_fixed_dist(20, 1);
 2335              		.loc 1 749 0
 2336 01ec 0121     		movs	r1, #1
 2337 01ee 1420     		movs	r0, #20
 2338 01f0 FFF7FEFF 		bl	move_fixed_dist
 2339              	.LVL312:
 750:main.c        ****             color_detected = 0;
 2340              		.loc 1 750 0
 2341 01f4 0022     		movs	r2, #0
 2342 01f6 4E4B     		ldr	r3, .L184
 2343 01f8 C3F88C21 		str	r2, [r3, #396]
 2344              	.L175:
 738:main.c        ****     {
 2345              		.loc 1 738 0
 2346 01fc 4C4B     		ldr	r3, .L184
 2347 01fe D3F88C31 		ldr	r3, [r3, #396]
 2348 0202 012B     		cmp	r3, #1
 2349 0204 E6D0     		beq	.L177
 2350 0206 64E0     		b	.L178
 2351              	.L179:
 751:main.c        ****         }
 752:main.c        ****     }
 753:main.c        ****     while (color_detected == 2) //green
 754:main.c        ****     {
 755:main.c        ****         CW(PT_TURN_COUNT, 1);
 2352              		.loc 1 755 0
 2353 0208 494D     		ldr	r5, .L184
 2354 020a 2C46     		mov	r4, r5
 2355 020c F4E96401 		ldrd	r0, [r4, #400]!
 2356 0210 FFF7FEFF 		bl	__aeabi_d2iz
ARM GAS  C:\Users\weiro\AppData\Local\Temp\ccglHz8v.s 			page 56


 2357              	.LVL313:
 2358 0214 0121     		movs	r1, #1
 2359 0216 FFF7FEFF 		bl	CW
 2360              	.LVL314:
 756:main.c        ****         CyDelay(500);
 2361              		.loc 1 756 0
 2362 021a 4FF4FA70 		mov	r0, #500
 2363 021e FFF7FEFF 		bl	CyDelay
 2364              	.LVL315:
 757:main.c        ****         move2slit();
 2365              		.loc 1 757 0
 2366 0222 FFF7FEFF 		bl	move2slit
 2367              	.LVL316:
 758:main.c        ****         CyDelay(500);
 2368              		.loc 1 758 0
 2369 0226 4FF4FA70 		mov	r0, #500
 2370 022a FFF7FEFF 		bl	CyDelay
 2371              	.LVL317:
 759:main.c        ****         move_fixed_dist(20, 1);
 2372              		.loc 1 759 0
 2373 022e 0121     		movs	r1, #1
 2374 0230 1420     		movs	r0, #20
 2375 0232 FFF7FEFF 		bl	move_fixed_dist
 2376              	.LVL318:
 760:main.c        ****         CyDelay(500);
 2377              		.loc 1 760 0
 2378 0236 4FF4FA70 		mov	r0, #500
 2379 023a FFF7FEFF 		bl	CyDelay
 2380              	.LVL319:
 761:main.c        ****         CW(PT_TURN_COUNT, 0);
 2381              		.loc 1 761 0
 2382 023e D4E90001 		ldrd	r0, [r4]
 2383 0242 FFF7FEFF 		bl	__aeabi_d2iz
 2384              	.LVL320:
 2385 0246 0021     		movs	r1, #0
 2386 0248 FFF7FEFF 		bl	CW
 2387              	.LVL321:
 762:main.c        ****         CyDelay(500);
 2388              		.loc 1 762 0
 2389 024c 4FF4FA70 		mov	r0, #500
 2390 0250 FFF7FEFF 		bl	CyDelay
 2391              	.LVL322:
 763:main.c        ****         move_fixed_dist(30, 1);
 2392              		.loc 1 763 0
 2393 0254 0121     		movs	r1, #1
 2394 0256 1E20     		movs	r0, #30
 2395 0258 FFF7FEFF 		bl	move_fixed_dist
 2396              	.LVL323:
 764:main.c        ****         CyDelay(500);
 2397              		.loc 1 764 0
 2398 025c 4FF4FA70 		mov	r0, #500
 2399 0260 FFF7FEFF 		bl	CyDelay
 2400              	.LVL324:
 765:main.c        ****         move2slit();
 2401              		.loc 1 765 0
 2402 0264 FFF7FEFF 		bl	move2slit
 2403              	.LVL325:
ARM GAS  C:\Users\weiro\AppData\Local\Temp\ccglHz8v.s 			page 57


 766:main.c        ****         CyDelay(500);
 2404              		.loc 1 766 0
 2405 0268 4FF4FA70 		mov	r0, #500
 2406 026c FFF7FEFF 		bl	CyDelay
 2407              	.LVL326:
 767:main.c        ****         move_fixed_dist(20, 1);
 2408              		.loc 1 767 0
 2409 0270 0121     		movs	r1, #1
 2410 0272 1420     		movs	r0, #20
 2411 0274 FFF7FEFF 		bl	move_fixed_dist
 2412              	.LVL327:
 768:main.c        ****         CyDelay(500);
 2413              		.loc 1 768 0
 2414 0278 4FF4FA70 		mov	r0, #500
 2415 027c FFF7FEFF 		bl	CyDelay
 2416              	.LVL328:
 769:main.c        ****         CW(PT_TURN_COUNT, 0);
 2417              		.loc 1 769 0
 2418 0280 D4E90001 		ldrd	r0, [r4]
 2419 0284 FFF7FEFF 		bl	__aeabi_d2iz
 2420              	.LVL329:
 2421 0288 0021     		movs	r1, #0
 2422 028a FFF7FEFF 		bl	CW
 2423              	.LVL330:
 770:main.c        ****         CyDelay(500);
 2424              		.loc 1 770 0
 2425 028e 4FF4FA70 		mov	r0, #500
 2426 0292 FFF7FEFF 		bl	CyDelay
 2427              	.LVL331:
 771:main.c        ****         move_fixed_dist(20, 1);
 2428              		.loc 1 771 0
 2429 0296 0121     		movs	r1, #1
 2430 0298 1420     		movs	r0, #20
 2431 029a FFF7FEFF 		bl	move_fixed_dist
 2432              	.LVL332:
 772:main.c        ****         CyDelay(500);
 2433              		.loc 1 772 0
 2434 029e 4FF4FA70 		mov	r0, #500
 2435 02a2 FFF7FEFF 		bl	CyDelay
 2436              	.LVL333:
 773:main.c        ****         CW(PT_TURN_COUNT, 1);
 2437              		.loc 1 773 0
 2438 02a6 D4E90001 		ldrd	r0, [r4]
 2439 02aa FFF7FEFF 		bl	__aeabi_d2iz
 2440              	.LVL334:
 2441 02ae 0121     		movs	r1, #1
 2442 02b0 FFF7FEFF 		bl	CW
 2443              	.LVL335:
 774:main.c        ****         CyDelay(500);
 2444              		.loc 1 774 0
 2445 02b4 4FF4FA70 		mov	r0, #500
 2446 02b8 FFF7FEFF 		bl	CyDelay
 2447              	.LVL336:
 775:main.c        ****         move_fixed_dist(20, 1);
 2448              		.loc 1 775 0
 2449 02bc 0121     		movs	r1, #1
 2450 02be 1420     		movs	r0, #20
ARM GAS  C:\Users\weiro\AppData\Local\Temp\ccglHz8v.s 			page 58


 2451 02c0 FFF7FEFF 		bl	move_fixed_dist
 2452              	.LVL337:
 776:main.c        ****         CyDelay(500);
 2453              		.loc 1 776 0
 2454 02c4 4FF4FA70 		mov	r0, #500
 2455 02c8 FFF7FEFF 		bl	CyDelay
 2456              	.LVL338:
 777:main.c        ****         color_detected = 0;
 2457              		.loc 1 777 0
 2458 02cc 0023     		movs	r3, #0
 2459 02ce C5F88C31 		str	r3, [r5, #396]
 2460              	.L178:
 753:main.c        ****     {
 2461              		.loc 1 753 0
 2462 02d2 174B     		ldr	r3, .L184
 2463 02d4 D3F88C31 		ldr	r3, [r3, #396]
 2464 02d8 022B     		cmp	r3, #2
 2465 02da 95D0     		beq	.L179
 2466 02dc 21E0     		b	.L180
 2467              	.L181:
 2468              	.LBB6:
 778:main.c        ****     }
 779:main.c        ****     while (color_detected == 3) //blue
 780:main.c        ****     {
 781:main.c        ****         int a = y_coord;
 2469              		.loc 1 781 0
 2470 02de 144C     		ldr	r4, .L184
 2471 02e0 04F5B873 		add	r3, r4, #368
 2472 02e4 D3E90067 		ldrd	r6, [r3]
 2473 02e8 3046     		mov	r0, r6
 2474 02ea 3946     		mov	r1, r7
 2475 02ec FFF7FEFF 		bl	__aeabi_d2iz
 2476              	.LVL339:
 2477 02f0 8046     		mov	r8, r0
 2478              	.LVL340:
 782:main.c        ****         sprintf(string_1, "y_coord = %lf\n", y_coord);
 2479              		.loc 1 782 0
 2480 02f2 104D     		ldr	r5, .L184+4
 2481 02f4 3246     		mov	r2, r6
 2482 02f6 3B46     		mov	r3, r7
 2483 02f8 1449     		ldr	r1, .L184+28
 2484 02fa 2846     		mov	r0, r5
 2485              	.LVL341:
 2486 02fc FFF7FEFF 		bl	sprintf
 2487              	.LVL342:
 783:main.c        ****         UART_2_PutString(string_1);
 2488              		.loc 1 783 0
 2489 0300 2846     		mov	r0, r5
 2490 0302 FFF7FEFF 		bl	UART_2_PutString
 2491              	.LVL343:
 784:main.c        ****         move_fixed_dist(abs(a), 0);
 2492              		.loc 1 784 0
 2493 0306 0021     		movs	r1, #0
 2494 0308 88EAE870 		eor	r0, r8, r8, asr #31
 2495 030c A0EBE870 		sub	r0, r0, r8, asr #31
 2496 0310 FFF7FEFF 		bl	move_fixed_dist
 2497              	.LVL344:
ARM GAS  C:\Users\weiro\AppData\Local\Temp\ccglHz8v.s 			page 59


 785:main.c        ****         CyDelay(500);
 2498              		.loc 1 785 0
 2499 0314 4FF4FA70 		mov	r0, #500
 2500 0318 FFF7FEFF 		bl	CyDelay
 2501              	.LVL345:
 786:main.c        ****         color_detected = 0;
 2502              		.loc 1 786 0
 2503 031c 0023     		movs	r3, #0
 2504 031e C4F88C31 		str	r3, [r4, #396]
 2505              	.LVL346:
 2506              	.L180:
 2507              	.LBE6:
 779:main.c        ****     {
 2508              		.loc 1 779 0
 2509 0322 034B     		ldr	r3, .L184
 2510 0324 D3F88C31 		ldr	r3, [r3, #396]
 2511 0328 032B     		cmp	r3, #3
 2512 032a D8D0     		beq	.L181
 787:main.c        ****         
 788:main.c        ****     }
 789:main.c        ****     //step = step +1;
 790:main.c        **** }
 2513              		.loc 1 790 0
 2514 032c BDE8F081 		pop	{r4, r5, r6, r7, r8, pc}
 2515              	.L185:
 2516              		.align	2
 2517              	.L184:
 2518 0330 00000000 		.word	.LANCHOR0
 2519 0334 00000000 		.word	string_1
 2520 0338 48000000 		.word	.LC4
 2521 033c 54000000 		.word	.LC5
 2522 0340 60000000 		.word	.LC6
 2523 0344 00002440 		.word	1076101120
 2524 0348 00000000 		.word	front_measured_2
 2525 034c 6C000000 		.word	.LC7
 2526              		.cfi_endproc
 2527              	.LFE82:
 2528              		.size	Color_Sensing_Function, .-Color_Sensing_Function
 2529              		.section	.text.Gyroscope_Function,"ax",%progbits
 2530              		.align	2
 2531              		.global	Gyroscope_Function
 2532              		.thumb
 2533              		.thumb_func
 2534              		.type	Gyroscope_Function, %function
 2535              	Gyroscope_Function:
 2536              	.LFB83:
 791:main.c        **** 
 792:main.c        **** void Gyroscope_Function()
 793:main.c        **** {
 2537              		.loc 1 793 0
 2538              		.cfi_startproc
 2539              		@ args = 0, pretend = 0, frame = 0
 2540              		@ frame_needed = 0, uses_anonymous_args = 0
 2541 0000 08B5     		push	{r3, lr}
 2542              		.cfi_def_cfa_offset 8
 2543              		.cfi_offset 3, -8
 2544              		.cfi_offset 14, -4
ARM GAS  C:\Users\weiro\AppData\Local\Temp\ccglHz8v.s 			page 60


 794:main.c        ****     //Bring the sensor out of sleep mode
 795:main.c        ****     I2C_1_MasterSendStart(MPU6050,0); //Steps 1-2
 2545              		.loc 1 795 0
 2546 0002 0021     		movs	r1, #0
 2547 0004 6820     		movs	r0, #104
 2548 0006 FFF7FEFF 		bl	I2C_1_MasterSendStart
 2549              	.LVL347:
 796:main.c        ****     I2C_1_MasterWriteByte(0x6B); //Step 3
 2550              		.loc 1 796 0
 2551 000a 6B20     		movs	r0, #107
 2552 000c FFF7FEFF 		bl	I2C_1_MasterWriteByte
 2553              	.LVL348:
 797:main.c        ****     I2C_1_MasterWriteByte(0x00); //Step 4
 2554              		.loc 1 797 0
 2555 0010 0020     		movs	r0, #0
 2556 0012 FFF7FEFF 		bl	I2C_1_MasterWriteByte
 2557              	.LVL349:
 798:main.c        ****     I2C_1_MasterSendStop(); //Step 5
 2558              		.loc 1 798 0
 2559 0016 FFF7FEFF 		bl	I2C_1_MasterSendStop
 2560              	.LVL350:
 799:main.c        ****     CyDelay(1);
 2561              		.loc 1 799 0
 2562 001a 0120     		movs	r0, #1
 2563 001c FFF7FEFF 		bl	CyDelay
 2564              	.LVL351:
 800:main.c        ****     
 801:main.c        ****     
 802:main.c        ****     //Set the scaling factor of the sensor
 803:main.c        ****     I2C_1_MasterSendStart(MPU6050,0); //Steps 1-2
 2565              		.loc 1 803 0
 2566 0020 0021     		movs	r1, #0
 2567 0022 6820     		movs	r0, #104
 2568 0024 FFF7FEFF 		bl	I2C_1_MasterSendStart
 2569              	.LVL352:
 804:main.c        ****     I2C_1_MasterWriteByte(0x1B); //Step 3
 2570              		.loc 1 804 0
 2571 0028 1B20     		movs	r0, #27
 2572 002a FFF7FEFF 		bl	I2C_1_MasterWriteByte
 2573              	.LVL353:
 805:main.c        ****     I2C_1_MasterWriteByte(0x08); //Step 4
 2574              		.loc 1 805 0
 2575 002e 0820     		movs	r0, #8
 2576 0030 FFF7FEFF 		bl	I2C_1_MasterWriteByte
 2577              	.LVL354:
 806:main.c        ****     I2C_1_MasterSendStop(); //Step 5
 2578              		.loc 1 806 0
 2579 0034 FFF7FEFF 		bl	I2C_1_MasterSendStop
 2580              	.LVL355:
 807:main.c        ****     CyDelay(1);
 2581              		.loc 1 807 0
 2582 0038 0120     		movs	r0, #1
 2583 003a FFF7FEFF 		bl	CyDelay
 2584              	.LVL356:
 808:main.c        ****     
 809:main.c        ****     
 810:main.c        ****     //Activating the low-pass filter
ARM GAS  C:\Users\weiro\AppData\Local\Temp\ccglHz8v.s 			page 61


 811:main.c        ****     I2C_1_MasterSendStart(MPU6050,0); //Steps 1-2
 2585              		.loc 1 811 0
 2586 003e 0021     		movs	r1, #0
 2587 0040 6820     		movs	r0, #104
 2588 0042 FFF7FEFF 		bl	I2C_1_MasterSendStart
 2589              	.LVL357:
 812:main.c        ****     I2C_1_MasterWriteByte(0x1A); //Step 3
 2590              		.loc 1 812 0
 2591 0046 1A20     		movs	r0, #26
 2592 0048 FFF7FEFF 		bl	I2C_1_MasterWriteByte
 2593              	.LVL358:
 813:main.c        ****     I2C_1_MasterWriteByte(0x05); //Step 4
 2594              		.loc 1 813 0
 2595 004c 0520     		movs	r0, #5
 2596 004e FFF7FEFF 		bl	I2C_1_MasterWriteByte
 2597              	.LVL359:
 814:main.c        ****     I2C_1_MasterSendStop(); //Step 5    
 2598              		.loc 1 814 0
 2599 0052 FFF7FEFF 		bl	I2C_1_MasterSendStop
 2600              	.LVL360:
 815:main.c        ****     CyDelay(1);
 2601              		.loc 1 815 0
 2602 0056 0120     		movs	r0, #1
 2603 0058 FFF7FEFF 		bl	CyDelay
 2604              	.LVL361:
 2605 005c 08BD     		pop	{r3, pc}
 2606              		.cfi_endproc
 2607              	.LFE83:
 2608              		.size	Gyroscope_Function, .-Gyroscope_Function
 2609 005e 00BF     		.section	.text.Flicker_Function,"ax",%progbits
 2610              		.align	2
 2611              		.global	Flicker_Function
 2612              		.thumb
 2613              		.thumb_func
 2614              		.type	Flicker_Function, %function
 2615              	Flicker_Function:
 2616              	.LFB84:
 816:main.c        **** }
 817:main.c        **** 
 818:main.c        **** void Flicker_Function()
 819:main.c        **** {
 2617              		.loc 1 819 0
 2618              		.cfi_startproc
 2619              		@ args = 0, pretend = 0, frame = 0
 2620              		@ frame_needed = 0, uses_anonymous_args = 0
 2621 0000 08B5     		push	{r3, lr}
 2622              		.cfi_def_cfa_offset 8
 2623              		.cfi_offset 3, -8
 2624              		.cfi_offset 14, -4
 2625              	.LVL362:
 820:main.c        ****     int flag_FR = 0;
 821:main.c        ****     double dist_trav = 5;
 822:main.c        ****     Flicker_Write(1);
 2626              		.loc 1 822 0
 2627 0002 0120     		movs	r0, #1
 2628 0004 FFF7FEFF 		bl	Flicker_Write
 2629              	.LVL363:
ARM GAS  C:\Users\weiro\AppData\Local\Temp\ccglHz8v.s 			page 62


 823:main.c        ****     CyDelay(5000);
 2630              		.loc 1 823 0
 2631 0008 41F28830 		movw	r0, #5000
 2632 000c FFF7FEFF 		bl	CyDelay
 2633              	.LVL364:
 824:main.c        ****     move_fixed_dist(dist_trav, flag_FR); // move forward
 2634              		.loc 1 824 0
 2635 0010 0021     		movs	r1, #0
 2636 0012 0520     		movs	r0, #5
 2637 0014 FFF7FEFF 		bl	move_fixed_dist
 2638              	.LVL365:
 825:main.c        ****     CyDelay(500);
 2639              		.loc 1 825 0
 2640 0018 4FF4FA70 		mov	r0, #500
 2641 001c FFF7FEFF 		bl	CyDelay
 2642              	.LVL366:
 826:main.c        ****     Flicker_Write(0);
 2643              		.loc 1 826 0
 2644 0020 0020     		movs	r0, #0
 2645 0022 FFF7FEFF 		bl	Flicker_Write
 2646              	.LVL367:
 2647 0026 08BD     		pop	{r3, pc}
 2648              		.cfi_endproc
 2649              	.LFE84:
 2650              		.size	Flicker_Function, .-Flicker_Function
 2651              		.global	__aeabi_i2f
 2652              		.global	__aeabi_fadd
 2653              		.global	__aeabi_fdiv
 2654              		.section	.text.Sharp_IR,"ax",%progbits
 2655              		.align	2
 2656              		.global	Sharp_IR
 2657              		.thumb
 2658              		.thumb_func
 2659              		.type	Sharp_IR, %function
 2660              	Sharp_IR:
 2661              	.LFB85:
 827:main.c        **** }
 828:main.c        **** 
 829:main.c        **** float Sharp_IR()
 830:main.c        **** {
 2662              		.loc 1 830 0
 2663              		.cfi_startproc
 2664              		@ args = 0, pretend = 0, frame = 0
 2665              		@ frame_needed = 0, uses_anonymous_args = 0
 2666 0000 F8B5     		push	{r3, r4, r5, r6, r7, lr}
 2667              		.cfi_def_cfa_offset 24
 2668              		.cfi_offset 3, -24
 2669              		.cfi_offset 4, -20
 2670              		.cfi_offset 5, -16
 2671              		.cfi_offset 6, -12
 2672              		.cfi_offset 7, -8
 2673              		.cfi_offset 14, -4
 2674              	.LVL368:
 831:main.c        ****     int Sharp_IR_analogue = 0;
 832:main.c        ****     float Sharp_IR_avg_a = 0;
 833:main.c        ****     float Sharp_IR_sum_a = 0;
 834:main.c        ****     int Sharp_IR_iter = 0;
ARM GAS  C:\Users\weiro\AppData\Local\Temp\ccglHz8v.s 			page 63


 2675              		.loc 1 834 0
 2676 0002 0024     		movs	r4, #0
 833:main.c        ****     int Sharp_IR_iter = 0;
 2677              		.loc 1 833 0
 2678 0004 0025     		movs	r5, #0
 835:main.c        ****     float Sharp_IR_volt = 0;
 836:main.c        ****     float Sharp_IR_dist = 0;
 837:main.c        ****     while (Sharp_IR_iter < 21)
 2679              		.loc 1 837 0
 2680 0006 15E0     		b	.L191
 2681              	.LVL369:
 2682              	.L194:
 838:main.c        ****     {
 839:main.c        ****         ADC_SAR_1_StartConvert();
 2683              		.loc 1 839 0
 2684 0008 FFF7FEFF 		bl	ADC_SAR_1_StartConvert
 2685              	.LVL370:
 2686              	.L192:
 840:main.c        ****         do
 841:main.c        ****         {
 842:main.c        ****             Sharp_IR_analogue = ADC_SAR_1_IsEndConversion(ADC_SAR_1_RETURN_STATUS);
 2687              		.loc 1 842 0 discriminator 1
 2688 000c 0120     		movs	r0, #1
 2689 000e FFF7FEFF 		bl	ADC_SAR_1_IsEndConversion
 2690              	.LVL371:
 843:main.c        ****         }
 844:main.c        ****         while(Sharp_IR_analogue==0);
 2691              		.loc 1 844 0 discriminator 1
 2692 0012 0028     		cmp	r0, #0
 2693 0014 FAD0     		beq	.L192
 845:main.c        ****         Sharp_IR_analogue = ADC_SAR_1_GetResult8();
 2694              		.loc 1 845 0
 2695 0016 FFF7FEFF 		bl	ADC_SAR_1_GetResult8
 2696              	.LVL372:
 846:main.c        ****         if (Sharp_IR_analogue > 0)
 2697              		.loc 1 846 0
 2698 001a 0028     		cmp	r0, #0
 2699 001c 07DD     		ble	.L193
 847:main.c        ****         {
 848:main.c        ****             Sharp_IR_sum_a = Sharp_IR_sum_a + Sharp_IR_analogue;
 2700              		.loc 1 848 0
 2701 001e FFF7FEFF 		bl	__aeabi_i2f
 2702              	.LVL373:
 2703 0022 0146     		mov	r1, r0
 2704 0024 2846     		mov	r0, r5
 2705 0026 FFF7FEFF 		bl	__aeabi_fadd
 2706              	.LVL374:
 2707 002a 0546     		mov	r5, r0
 2708              	.LVL375:
 849:main.c        ****             Sharp_IR_iter++;
 2709              		.loc 1 849 0
 2710 002c 0134     		adds	r4, r4, #1
 2711              	.LVL376:
 2712              	.L193:
 850:main.c        ****         }
 851:main.c        ****         CyDelay(20);
 2713              		.loc 1 851 0
ARM GAS  C:\Users\weiro\AppData\Local\Temp\ccglHz8v.s 			page 64


 2714 002e 1420     		movs	r0, #20
 2715 0030 FFF7FEFF 		bl	CyDelay
 2716              	.LVL377:
 2717              	.L191:
 837:main.c        ****     {
 2718              		.loc 1 837 0
 2719 0034 142C     		cmp	r4, #20
 2720 0036 E7DD     		ble	.L194
 852:main.c        ****     }
 853:main.c        ****     Sharp_IR_avg_a = Sharp_IR_sum_a/20;
 2721              		.loc 1 853 0
 2722 0038 2149     		ldr	r1, .L196+24
 2723 003a 2846     		mov	r0, r5
 2724 003c FFF7FEFF 		bl	__aeabi_fdiv
 2725              	.LVL378:
 854:main.c        ****     Sharp_IR_volt = Sharp_IR_avg_a/51;
 2726              		.loc 1 854 0
 2727 0040 2049     		ldr	r1, .L196+28
 2728 0042 FFF7FEFF 		bl	__aeabi_fdiv
 2729              	.LVL379:
 855:main.c        ****     Sharp_IR_dist = pow((Sharp_IR_volt-0.2)/(27.728*1.3),-1/1.205);
 2730              		.loc 1 855 0
 2731 0046 FFF7FEFF 		bl	__aeabi_f2d
 2732              	.LVL380:
 2733 004a 0646     		mov	r6, r0
 2734 004c 0F46     		mov	r7, r1
 2735 004e 16A3     		adr	r3, .L196
 2736 0050 D3E90023 		ldrd	r2, [r3]
 2737 0054 FFF7FEFF 		bl	__aeabi_dsub
 2738              	.LVL381:
 2739 0058 15A3     		adr	r3, .L196+8
 2740 005a D3E90023 		ldrd	r2, [r3]
 2741 005e FFF7FEFF 		bl	__aeabi_ddiv
 2742              	.LVL382:
 2743 0062 15A3     		adr	r3, .L196+16
 2744 0064 D3E90023 		ldrd	r2, [r3]
 2745 0068 FFF7FEFF 		bl	pow
 2746              	.LVL383:
 2747 006c FFF7FEFF 		bl	__aeabi_d2f
 2748              	.LVL384:
 2749 0070 0546     		mov	r5, r0
 2750              	.LVL385:
 856:main.c        ****     CyDelay(200);
 2751              		.loc 1 856 0
 2752 0072 C820     		movs	r0, #200
 2753              	.LVL386:
 2754 0074 FFF7FEFF 		bl	CyDelay
 2755              	.LVL387:
 857:main.c        ****     sprintf(string_1,"volt(V): %lf\n",Sharp_IR_volt);
 2756              		.loc 1 857 0
 2757 0078 134C     		ldr	r4, .L196+32
 2758              	.LVL388:
 2759 007a 3246     		mov	r2, r6
 2760 007c 3B46     		mov	r3, r7
 2761 007e 1349     		ldr	r1, .L196+36
 2762 0080 2046     		mov	r0, r4
 2763 0082 FFF7FEFF 		bl	sprintf
ARM GAS  C:\Users\weiro\AppData\Local\Temp\ccglHz8v.s 			page 65


 2764              	.LVL389:
 858:main.c        ****     UART_1_PutString(string_1);
 2765              		.loc 1 858 0
 2766 0086 2046     		mov	r0, r4
 2767 0088 FFF7FEFF 		bl	UART_1_PutString
 2768              	.LVL390:
 859:main.c        ****     sprintf(string_1,"dist(cm): %lf\n",Sharp_IR_dist);
 2769              		.loc 1 859 0
 2770 008c 2846     		mov	r0, r5
 2771 008e FFF7FEFF 		bl	__aeabi_f2d
 2772              	.LVL391:
 2773 0092 0246     		mov	r2, r0
 2774 0094 0B46     		mov	r3, r1
 2775 0096 0E49     		ldr	r1, .L196+40
 2776 0098 2046     		mov	r0, r4
 2777 009a FFF7FEFF 		bl	sprintf
 2778              	.LVL392:
 860:main.c        ****     UART_1_PutString(string_1);
 2779              		.loc 1 860 0
 2780 009e 2046     		mov	r0, r4
 2781 00a0 FFF7FEFF 		bl	UART_1_PutString
 2782              	.LVL393:
 861:main.c        ****     return Sharp_IR_dist;
 862:main.c        **** }
 2783              		.loc 1 862 0
 2784 00a4 2846     		mov	r0, r5
 2785 00a6 F8BD     		pop	{r3, r4, r5, r6, r7, pc}
 2786              	.LVL394:
 2787              	.L197:
 2788              		.align	3
 2789              	.L196:
 2790 00a8 9A999999 		.word	-1717986918
 2791 00ac 9999C93F 		.word	1070176665
 2792 00b0 6844696F 		.word	1869169768
 2793 00b4 F0054240 		.word	1078068720
 2794 00b8 1A578E1A 		.word	445536026
 2795 00bc 578EEABF 		.word	-1075147177
 2796 00c0 0000A041 		.word	1101004800
 2797 00c4 00004C42 		.word	1112276992
 2798 00c8 00000000 		.word	string_1
 2799 00cc 7C000000 		.word	.LC8
 2800 00d0 8C000000 		.word	.LC9
 2801              		.cfi_endproc
 2802              	.LFE85:
 2803              		.size	Sharp_IR, .-Sharp_IR
 2804              		.section	.text.Find_Puck,"ax",%progbits
 2805              		.align	2
 2806              		.global	Find_Puck
 2807              		.thumb
 2808              		.thumb_func
 2809              		.type	Find_Puck, %function
 2810              	Find_Puck:
 2811              	.LFB86:
 863:main.c        **** 
 864:main.c        **** void Find_Puck(int target)
 865:main.c        **** {
 2812              		.loc 1 865 0
ARM GAS  C:\Users\weiro\AppData\Local\Temp\ccglHz8v.s 			page 66


 2813              		.cfi_startproc
 2814              		@ args = 0, pretend = 0, frame = 0
 2815              		@ frame_needed = 0, uses_anonymous_args = 0
 2816              	.LVL395:
 2817 0000 38B5     		push	{r3, r4, r5, lr}
 2818              		.cfi_def_cfa_offset 16
 2819              		.cfi_offset 3, -16
 2820              		.cfi_offset 4, -12
 2821              		.cfi_offset 5, -8
 2822              		.cfi_offset 14, -4
 2823 0002 0546     		mov	r5, r0
 2824              	.LVL396:
 866:main.c        ****     // [target] 1-Red; 2-Green; 3-Blue
 867:main.c        ****     int objective = 0;
 2825              		.loc 1 867 0
 2826 0004 0024     		movs	r4, #0
 868:main.c        ****     while (objective == 0)
 2827              		.loc 1 868 0
 2828 0006 43E0     		b	.L199
 2829              	.LVL397:
 2830              	.L204:
 2831              	.LBB7:
 869:main.c        ****     {
 870:main.c        ****         move2puck();
 2832              		.loc 1 870 0
 2833 0008 FFF7FEFF 		bl	move2puck
 2834              	.LVL398:
 871:main.c        ****         int flag_FR = 1;
 872:main.c        ****         int dist_trav = 4;
 873:main.c        ****         move_fixed_dist(dist_trav, flag_FR); // move backward
 2835              		.loc 1 873 0
 2836 000c 0121     		movs	r1, #1
 2837 000e 0420     		movs	r0, #4
 2838 0010 FFF7FEFF 		bl	move_fixed_dist
 2839              	.LVL399:
 874:main.c        ****         CyDelay(500);
 2840              		.loc 1 874 0
 2841 0014 4FF4FA70 		mov	r0, #500
 2842 0018 FFF7FEFF 		bl	CyDelay
 2843              	.LVL400:
 875:main.c        ****         Color_Sensing_Function();
 2844              		.loc 1 875 0
 2845 001c FFF7FEFF 		bl	Color_Sensing_Function
 2846              	.LVL401:
 876:main.c        ****         if (color_detected == 1) // red
 2847              		.loc 1 876 0
 2848 0020 1D4B     		ldr	r3, .L207
 2849 0022 D3F88C31 		ldr	r3, [r3, #396]
 2850 0026 012B     		cmp	r3, #1
 2851 0028 0DD1     		bne	.L200
 877:main.c        ****         {
 878:main.c        ****             led_red_Write(1);
 2852              		.loc 1 878 0
 2853 002a 0120     		movs	r0, #1
 2854 002c FFF7FEFF 		bl	led_red_Write
 2855              	.LVL402:
 879:main.c        ****             CyDelay(1000);
ARM GAS  C:\Users\weiro\AppData\Local\Temp\ccglHz8v.s 			page 67


 2856              		.loc 1 879 0
 2857 0030 4FF47A70 		mov	r0, #1000
 2858 0034 FFF7FEFF 		bl	CyDelay
 2859              	.LVL403:
 880:main.c        ****             led_red_Write(0);
 2860              		.loc 1 880 0
 2861 0038 0020     		movs	r0, #0
 2862 003a FFF7FEFF 		bl	led_red_Write
 2863              	.LVL404:
 881:main.c        ****             UART_1_PutString("Red  \n");
 2864              		.loc 1 881 0
 2865 003e 1748     		ldr	r0, .L207+4
 2866 0040 FFF7FEFF 		bl	UART_1_PutString
 2867              	.LVL405:
 2868 0044 1EE0     		b	.L201
 2869              	.L200:
 882:main.c        ****         }
 883:main.c        ****         else if (color_detected == 2) // green
 2870              		.loc 1 883 0
 2871 0046 022B     		cmp	r3, #2
 2872 0048 0DD1     		bne	.L202
 884:main.c        ****         {
 885:main.c        ****             led_green_Write(1);
 2873              		.loc 1 885 0
 2874 004a 0120     		movs	r0, #1
 2875 004c FFF7FEFF 		bl	led_green_Write
 2876              	.LVL406:
 886:main.c        ****             CyDelay(1000);
 2877              		.loc 1 886 0
 2878 0050 4FF47A70 		mov	r0, #1000
 2879 0054 FFF7FEFF 		bl	CyDelay
 2880              	.LVL407:
 887:main.c        ****             led_green_Write(0);
 2881              		.loc 1 887 0
 2882 0058 0020     		movs	r0, #0
 2883 005a FFF7FEFF 		bl	led_green_Write
 2884              	.LVL408:
 888:main.c        ****             UART_1_PutString("Green  \n");
 2885              		.loc 1 888 0
 2886 005e 1048     		ldr	r0, .L207+8
 2887 0060 FFF7FEFF 		bl	UART_1_PutString
 2888              	.LVL409:
 2889 0064 0EE0     		b	.L201
 2890              	.L202:
 889:main.c        ****         }
 890:main.c        ****         else if (color_detected == 3) // blue
 2891              		.loc 1 890 0
 2892 0066 032B     		cmp	r3, #3
 2893 0068 0CD1     		bne	.L201
 891:main.c        ****         {
 892:main.c        ****             led_blue_Write(1);
 2894              		.loc 1 892 0
 2895 006a 0120     		movs	r0, #1
 2896 006c FFF7FEFF 		bl	led_blue_Write
 2897              	.LVL410:
 893:main.c        ****             CyDelay(1000);
 2898              		.loc 1 893 0
ARM GAS  C:\Users\weiro\AppData\Local\Temp\ccglHz8v.s 			page 68


 2899 0070 4FF47A70 		mov	r0, #1000
 2900 0074 FFF7FEFF 		bl	CyDelay
 2901              	.LVL411:
 894:main.c        ****             led_blue_Write(0);
 2902              		.loc 1 894 0
 2903 0078 0020     		movs	r0, #0
 2904 007a FFF7FEFF 		bl	led_blue_Write
 2905              	.LVL412:
 895:main.c        ****             UART_1_PutString("Blue  \n");
 2906              		.loc 1 895 0
 2907 007e 0948     		ldr	r0, .L207+12
 2908 0080 FFF7FEFF 		bl	UART_1_PutString
 2909              	.LVL413:
 2910              	.L201:
 896:main.c        ****         }
 897:main.c        ****         if (color_detected == target)
 2911              		.loc 1 897 0
 2912 0084 044B     		ldr	r3, .L207
 2913 0086 D3F88C31 		ldr	r3, [r3, #396]
 2914 008a AB42     		cmp	r3, r5
 2915 008c 00D1     		bne	.L199
 898:main.c        ****         {
 899:main.c        ****             objective = 1;
 2916              		.loc 1 899 0
 2917 008e 0124     		movs	r4, #1
 2918              	.LVL414:
 2919              	.L199:
 2920              	.LBE7:
 868:main.c        ****     {
 2921              		.loc 1 868 0
 2922 0090 002C     		cmp	r4, #0
 2923 0092 B9D0     		beq	.L204
 900:main.c        ****         }
 901:main.c        ****     }
 902:main.c        **** }
 2924              		.loc 1 902 0
 2925 0094 38BD     		pop	{r3, r4, r5, pc}
 2926              	.LVL415:
 2927              	.L208:
 2928 0096 00BF     		.align	2
 2929              	.L207:
 2930 0098 00000000 		.word	.LANCHOR0
 2931 009c 9C000000 		.word	.LC10
 2932 00a0 A4000000 		.word	.LC11
 2933 00a4 B0000000 		.word	.LC12
 2934              		.cfi_endproc
 2935              	.LFE86:
 2936              		.size	Find_Puck, .-Find_Puck
 2937              		.section	.text.Pick_Up_Puck,"ax",%progbits
 2938              		.align	2
 2939              		.global	Pick_Up_Puck
 2940              		.thumb
 2941              		.thumb_func
 2942              		.type	Pick_Up_Puck, %function
 2943              	Pick_Up_Puck:
 2944              	.LFB87:
 903:main.c        **** 
ARM GAS  C:\Users\weiro\AppData\Local\Temp\ccglHz8v.s 			page 69


 904:main.c        **** void Pick_Up_Puck()
 905:main.c        **** {
 2945              		.loc 1 905 0
 2946              		.cfi_startproc
 2947              		@ args = 0, pretend = 0, frame = 0
 2948              		@ frame_needed = 0, uses_anonymous_args = 0
 2949 0000 10B5     		push	{r4, lr}
 2950              		.cfi_def_cfa_offset 8
 2951              		.cfi_offset 4, -8
 2952              		.cfi_offset 14, -4
 2953              	.LVL416:
 906:main.c        ****     int flag_FR = 1;
 907:main.c        ****     double dist_trav = 18; // distance from color sensor to gripper center
 908:main.c        ****     move_fixed_dist(dist_trav, flag_FR);
 2954              		.loc 1 908 0
 2955 0002 0121     		movs	r1, #1
 2956 0004 1220     		movs	r0, #18
 2957 0006 FFF7FEFF 		bl	move_fixed_dist
 2958              	.LVL417:
 909:main.c        ****     CyDelay(500);
 2959              		.loc 1 909 0
 2960 000a 4FF4FA70 		mov	r0, #500
 2961 000e FFF7FEFF 		bl	CyDelay
 2962              	.LVL418:
 910:main.c        ****     PWM_BigServo_WriteCompare(down_big);
 2963              		.loc 1 910 0
 2964 0012 094C     		ldr	r4, .L211
 2965 0014 208E     		ldrh	r0, [r4, #48]
 2966 0016 FFF7FEFF 		bl	PWM_BigServo_WriteCompare
 2967              	.LVL419:
 911:main.c        ****     CyDelay(1000);
 2968              		.loc 1 911 0
 2969 001a 4FF47A70 		mov	r0, #1000
 2970 001e FFF7FEFF 		bl	CyDelay
 2971              	.LVL420:
 912:main.c        ****     PWM_SmallServo_WriteCompare(close_small);
 2972              		.loc 1 912 0
 2973 0022 A08E     		ldrh	r0, [r4, #52]
 2974 0024 FFF7FEFF 		bl	PWM_SmallServo_WriteCompare
 2975              	.LVL421:
 913:main.c        ****     CyDelay(1000);
 2976              		.loc 1 913 0
 2977 0028 4FF47A70 		mov	r0, #1000
 2978 002c FFF7FEFF 		bl	CyDelay
 2979              	.LVL422:
 914:main.c        ****     PWM_BigServo_WriteCompare(up_big);
 2980              		.loc 1 914 0
 2981 0030 208F     		ldrh	r0, [r4, #56]
 2982 0032 FFF7FEFF 		bl	PWM_BigServo_WriteCompare
 2983              	.LVL423:
 2984 0036 10BD     		pop	{r4, pc}
 2985              	.L212:
 2986              		.align	2
 2987              	.L211:
 2988 0038 00000000 		.word	.LANCHOR1
 2989              		.cfi_endproc
 2990              	.LFE87:
ARM GAS  C:\Users\weiro\AppData\Local\Temp\ccglHz8v.s 			page 70


 2991              		.size	Pick_Up_Puck, .-Pick_Up_Puck
 2992              		.section	.text.Put_Down_Puck,"ax",%progbits
 2993              		.align	2
 2994              		.global	Put_Down_Puck
 2995              		.thumb
 2996              		.thumb_func
 2997              		.type	Put_Down_Puck, %function
 2998              	Put_Down_Puck:
 2999              	.LFB88:
 915:main.c        **** }
 916:main.c        **** 
 917:main.c        **** void Put_Down_Puck()
 918:main.c        **** {
 3000              		.loc 1 918 0
 3001              		.cfi_startproc
 3002              		@ args = 0, pretend = 0, frame = 0
 3003              		@ frame_needed = 0, uses_anonymous_args = 0
 3004 0000 10B5     		push	{r4, lr}
 3005              		.cfi_def_cfa_offset 8
 3006              		.cfi_offset 4, -8
 3007              		.cfi_offset 14, -4
 919:main.c        ****     PWM_BigServo_WriteCompare(down_big);
 3008              		.loc 1 919 0
 3009 0002 0D4C     		ldr	r4, .L215
 3010 0004 208E     		ldrh	r0, [r4, #48]
 3011 0006 FFF7FEFF 		bl	PWM_BigServo_WriteCompare
 3012              	.LVL424:
 920:main.c        ****     CyDelay(1000);
 3013              		.loc 1 920 0
 3014 000a 4FF47A70 		mov	r0, #1000
 3015 000e FFF7FEFF 		bl	CyDelay
 3016              	.LVL425:
 921:main.c        ****     PWM_SmallServo_WriteCompare(open_small);
 3017              		.loc 1 921 0
 3018 0012 A08F     		ldrh	r0, [r4, #60]
 3019 0014 FFF7FEFF 		bl	PWM_SmallServo_WriteCompare
 3020              	.LVL426:
 922:main.c        ****     CyDelay(500);
 3021              		.loc 1 922 0
 3022 0018 4FF4FA70 		mov	r0, #500
 3023 001c FFF7FEFF 		bl	CyDelay
 3024              	.LVL427:
 923:main.c        ****     PWM_BigServo_WriteCompare(up_big);
 3025              		.loc 1 923 0
 3026 0020 208F     		ldrh	r0, [r4, #56]
 3027 0022 FFF7FEFF 		bl	PWM_BigServo_WriteCompare
 3028              	.LVL428:
 924:main.c        ****     CyDelay(500);
 3029              		.loc 1 924 0
 3030 0026 4FF4FA70 		mov	r0, #500
 3031 002a FFF7FEFF 		bl	CyDelay
 3032              	.LVL429:
 925:main.c        ****     PWM_SmallServo_WriteCompare(close_small);
 3033              		.loc 1 925 0
 3034 002e A08E     		ldrh	r0, [r4, #52]
 3035 0030 FFF7FEFF 		bl	PWM_SmallServo_WriteCompare
 3036              	.LVL430:
ARM GAS  C:\Users\weiro\AppData\Local\Temp\ccglHz8v.s 			page 71


 3037 0034 10BD     		pop	{r4, pc}
 3038              	.L216:
 3039 0036 00BF     		.align	2
 3040              	.L215:
 3041 0038 00000000 		.word	.LANCHOR1
 3042              		.cfi_endproc
 3043              	.LFE88:
 3044              		.size	Put_Down_Puck, .-Put_Down_Puck
 3045              		.section	.text.main,"ax",%progbits
 3046              		.align	2
 3047              		.global	main
 3048              		.thumb
 3049              		.thumb_func
 3050              		.type	main, %function
 3051              	main:
 3052              	.LFB89:
 926:main.c        **** }
 927:main.c        **** 
 928:main.c        **** int main(void)
 929:main.c        **** {
 3053              		.loc 1 929 0
 3054              		.cfi_startproc
 3055              		@ args = 0, pretend = 0, frame = 0
 3056              		@ frame_needed = 0, uses_anonymous_args = 0
 3057 0000 2DE9F84F 		push	{r3, r4, r5, r6, r7, r8, r9, r10, fp, lr}
 3058              		.cfi_def_cfa_offset 40
 3059              		.cfi_offset 3, -40
 3060              		.cfi_offset 4, -36
 3061              		.cfi_offset 5, -32
 3062              		.cfi_offset 6, -28
 3063              		.cfi_offset 7, -24
 3064              		.cfi_offset 8, -20
 3065              		.cfi_offset 9, -16
 3066              		.cfi_offset 10, -12
 3067              		.cfi_offset 11, -8
 3068              		.cfi_offset 14, -4
 930:main.c        ****     CyGlobalIntEnable; /* Enable global interrupts. */
 3069              		.loc 1 930 0
 3070              		.syntax unified
 3071              	@ 930 "main.c" 1
 3072 0004 62B6     		CPSIE   i
 3073              	@ 0 "" 2
 931:main.c        **** 
 932:main.c        ****     WHEEL_CIRCUMFERENCE = M_PI*WHEEL_DIAMETER;
 3074              		.loc 1 932 0
 3075              		.thumb
 3076              		.syntax unified
 3077 0006 DFF80CB3 		ldr	fp, .L273+52
 3078 000a B5A3     		adr	r3, .L273
 3079 000c D3E90023 		ldrd	r2, [r3]
 3080 0010 DBE90A01 		ldrd	r0, [fp, #40]
 3081 0014 FFF7FEFF 		bl	__aeabi_dmul
 3082              	.LVL431:
 3083 0018 0446     		mov	r4, r0
 3084 001a 0D46     		mov	r5, r1
 3085 001c DFF8E0A2 		ldr	r10, .L273+32
 3086 0020 0AF5CC73 		add	r3, r10, #408
ARM GAS  C:\Users\weiro\AppData\Local\Temp\ccglHz8v.s 			page 72


 3087 0024 C3E90045 		strd	r4, [r3]
 933:main.c        ****     DISTANCE_PT_TURN = M_PI*DISTANCE_BETW_WHEEL/4;
 3088              		.loc 1 933 0
 3089 0028 ADA3     		adr	r3, .L273
 3090 002a D3E90023 		ldrd	r2, [r3]
 3091 002e DBE91001 		ldrd	r0, [fp, #64]
 3092 0032 FFF7FEFF 		bl	__aeabi_dmul
 3093              	.LVL432:
 3094 0036 0022     		movs	r2, #0
 3095 0038 AB4B     		ldr	r3, .L273+8
 3096 003a FFF7FEFF 		bl	__aeabi_dmul
 3097              	.LVL433:
 3098 003e 0646     		mov	r6, r0
 3099 0040 0F46     		mov	r7, r1
 3100 0042 0AF5D073 		add	r3, r10, #416
 3101 0046 C3E90067 		strd	r6, [r3]
 934:main.c        ****     CM_COUNT_CONV = COUNT_WHEEL/WHEEL_CIRCUMFERENCE;
 3102              		.loc 1 934 0
 3103 004a DBE91289 		ldrd	r8, [fp, #72]
 3104 004e 2246     		mov	r2, r4
 3105 0050 2B46     		mov	r3, r5
 3106 0052 4046     		mov	r0, r8
 3107 0054 4946     		mov	r1, r9
 3108 0056 FFF7FEFF 		bl	__aeabi_ddiv
 3109              	.LVL434:
 3110 005a 0AF5B473 		add	r3, r10, #360
 3111 005e C3E90001 		strd	r0, [r3]
 935:main.c        ****     PT_TURN_COUNT = COUNT_WHEEL * DISTANCE_PT_TURN/(M_PI*WHEEL_DIAMETER);
 3112              		.loc 1 935 0
 3113 0062 4246     		mov	r2, r8
 3114 0064 4B46     		mov	r3, r9
 3115 0066 3046     		mov	r0, r6
 3116 0068 3946     		mov	r1, r7
 3117 006a FFF7FEFF 		bl	__aeabi_dmul
 3118              	.LVL435:
 3119 006e 2246     		mov	r2, r4
 3120 0070 2B46     		mov	r3, r5
 3121 0072 FFF7FEFF 		bl	__aeabi_ddiv
 3122              	.LVL436:
 3123 0076 0AF5C873 		add	r3, r10, #400
 3124 007a C3E90001 		strd	r0, [r3]
 936:main.c        ****     isr_1_StartEx(Speed_Control);
 3125              		.loc 1 936 0
 3126 007e 9B48     		ldr	r0, .L273+12
 3127 0080 FFF7FEFF 		bl	isr_1_StartEx
 3128              	.LVL437:
 937:main.c        ****     isr_6_StartEx(Color_sensing);
 3129              		.loc 1 937 0
 3130 0084 9A48     		ldr	r0, .L273+16
 3131 0086 FFF7FEFF 		bl	isr_6_StartEx
 3132              	.LVL438:
 938:main.c        ****     Timer_1_Start();
 3133              		.loc 1 938 0
 3134 008a FFF7FEFF 		bl	Timer_1_Start
 3135              	.LVL439:
 939:main.c        ****     Timer_3_Start();
 3136              		.loc 1 939 0
ARM GAS  C:\Users\weiro\AppData\Local\Temp\ccglHz8v.s 			page 73


 3137 008e FFF7FEFF 		bl	Timer_3_Start
 3138              	.LVL440:
 940:main.c        ****     isr_3_StartEx(ultrasonic_echo);
 3139              		.loc 1 940 0
 3140 0092 9848     		ldr	r0, .L273+20
 3141 0094 FFF7FEFF 		bl	isr_3_StartEx
 3142              	.LVL441:
 941:main.c        ****     PWM_ColorSensor_Start();
 3143              		.loc 1 941 0
 3144 0098 FFF7FEFF 		bl	PWM_ColorSensor_Start
 3145              	.LVL442:
 942:main.c        ****     isr_7_StartEx(Bluetooth);
 3146              		.loc 1 942 0
 3147 009c 9648     		ldr	r0, .L273+24
 3148 009e FFF7FEFF 		bl	isr_7_StartEx
 3149              	.LVL443:
 943:main.c        ****     Flicker_Write(0);
 3150              		.loc 1 943 0
 3151 00a2 0020     		movs	r0, #0
 3152 00a4 FFF7FEFF 		bl	Flicker_Write
 3153              	.LVL444:
 944:main.c        ****     Trigger_Write(0);
 3154              		.loc 1 944 0
 3155 00a8 0020     		movs	r0, #0
 3156 00aa FFF7FEFF 		bl	Trigger_Write
 3157              	.LVL445:
 945:main.c        ****     PWM_Wheels_Start();
 3158              		.loc 1 945 0
 3159 00ae FFF7FEFF 		bl	PWM_Wheels_Start
 3160              	.LVL446:
 946:main.c        ****     PWM_SmallServo_Start();
 3161              		.loc 1 946 0
 3162 00b2 FFF7FEFF 		bl	PWM_SmallServo_Start
 3163              	.LVL447:
 947:main.c        ****     PWM_BigServo_Start();
 3164              		.loc 1 947 0
 3165 00b6 FFF7FEFF 		bl	PWM_BigServo_Start
 3166              	.LVL448:
 948:main.c        ****     QuadDec_1_Start();
 3167              		.loc 1 948 0
 3168 00ba FFF7FEFF 		bl	QuadDec_1_Start
 3169              	.LVL449:
 949:main.c        ****     QuadDec_1_SetCounter(0);
 3170              		.loc 1 949 0
 3171 00be 0020     		movs	r0, #0
 3172 00c0 FFF7FEFF 		bl	QuadDec_1_SetCounter
 3173              	.LVL450:
 950:main.c        ****     QuadDec_2_Start();
 3174              		.loc 1 950 0
 3175 00c4 FFF7FEFF 		bl	QuadDec_2_Start
 3176              	.LVL451:
 951:main.c        ****     QuadDec_2_SetCounter(0);
 3177              		.loc 1 951 0
 3178 00c8 0020     		movs	r0, #0
 3179 00ca FFF7FEFF 		bl	QuadDec_2_SetCounter
 3180              	.LVL452:
 952:main.c        ****     UART_1_Start();
ARM GAS  C:\Users\weiro\AppData\Local\Temp\ccglHz8v.s 			page 74


 3181              		.loc 1 952 0
 3182 00ce FFF7FEFF 		bl	UART_1_Start
 3183              	.LVL453:
 953:main.c        ****     CS_LED_Write(0);
 3184              		.loc 1 953 0
 3185 00d2 0020     		movs	r0, #0
 3186 00d4 FFF7FEFF 		bl	CS_LED_Write
 3187              	.LVL454:
 954:main.c        ****     //ADC_SAR_1_Start();
 955:main.c        ****     I2C_1_Start();
 3188              		.loc 1 955 0
 3189 00d8 FFF7FEFF 		bl	I2C_1_Start
 3190              	.LVL455:
 956:main.c        ****     Timer_2_Start();
 3191              		.loc 1 956 0
 3192 00dc FFF7FEFF 		bl	Timer_2_Start
 3193              	.LVL456:
 957:main.c        ****     isr_2_StartEx(Gyroscope);
 3194              		.loc 1 957 0
 3195 00e0 8648     		ldr	r0, .L273+28
 3196 00e2 FFF7FEFF 		bl	isr_2_StartEx
 3197              	.LVL457:
 958:main.c        ****     Gyroscope_Function();
 3198              		.loc 1 958 0
 3199 00e6 FFF7FEFF 		bl	Gyroscope_Function
 3200              	.LVL458:
 959:main.c        ****     wall_detected_10 = 0;
 3201              		.loc 1 959 0
 3202 00ea 0023     		movs	r3, #0
 3203 00ec CAF84030 		str	r3, [r10, #64]
 960:main.c        ****     slit_detected = 0;
 3204              		.loc 1 960 0
 3205 00f0 CAF84430 		str	r3, [r10, #68]
 961:main.c        ****     UART_2_Start();
 3206              		.loc 1 961 0
 3207 00f4 FFF7FEFF 		bl	UART_2_Start
 3208              	.LVL459:
 962:main.c        **** 
 963:main.c        ****     int flag_FR = 1;
 964:main.c        ****     int flag_CW = 1;
 965:main.c        ****     PWM_Wheels_WriteCompare1(PWM_Master);
 3209              		.loc 1 965 0
 3210 00f8 DBF80800 		ldr	r0, [fp, #8]	@ float
 3211 00fc FFF7FEFF 		bl	__aeabi_f2uiz
 3212              	.LVL460:
 3213 0100 80B2     		uxth	r0, r0
 3214 0102 FFF7FEFF 		bl	PWM_Wheels_WriteCompare1
 3215              	.LVL461:
 966:main.c        ****     PWM_Wheels_WriteCompare2(PWM_Master);
 3216              		.loc 1 966 0
 3217 0106 DBF80800 		ldr	r0, [fp, #8]	@ float
 3218 010a FFF7FEFF 		bl	__aeabi_f2uiz
 3219              	.LVL462:
 3220 010e 80B2     		uxth	r0, r0
 3221 0110 FFF7FEFF 		bl	PWM_Wheels_WriteCompare2
 3222              	.LVL463:
 3223              	.L218:
ARM GAS  C:\Users\weiro\AppData\Local\Temp\ccglHz8v.s 			page 75


 967:main.c        ****     double dist_trav = 0;
 968:main.c        ****     //double dist_count = dist_trav*CM_COUNT_CONV;
 969:main.c        ****     
 970:main.c        ****     
 971:main.c        ****     for(;;)
 972:main.c        ****     {                  
 973:main.c        ****         /* Place your application code here. */
 974:main.c        ****         if (stop_bt == 1)
 3224              		.loc 1 974 0
 3225 0114 7A4B     		ldr	r3, .L273+32
 3226 0116 1B6D     		ldr	r3, [r3, #80]
 3227 0118 012B     		cmp	r3, #1
 3228 011a FBD1     		bne	.L218
 975:main.c        ****         {
 976:main.c        ****             if (strcmp(string_bt, "Are you ready?") == 0)
 3229              		.loc 1 976 0
 3230 011c 7949     		ldr	r1, .L273+36
 3231 011e 7A48     		ldr	r0, .L273+40
 3232 0120 FFF7FEFF 		bl	strcmp
 3233              	.LVL464:
 3234 0124 18B9     		cbnz	r0, .L219
 977:main.c        ****             {
 978:main.c        ****                 UART_1_PutString("Ready  \n"); // insert 2 white spaces to terminate
 3235              		.loc 1 978 0
 3236 0126 7948     		ldr	r0, .L273+44
 3237 0128 FFF7FEFF 		bl	UART_1_PutString
 3238              	.LVL465:
 3239 012c 9CE2     		b	.L220
 3240              	.L219:
 979:main.c        ****             }
 980:main.c        ****             else if (strcmp(string_bt, "Start") == 0)
 3241              		.loc 1 980 0
 3242 012e 7849     		ldr	r1, .L273+48
 3243 0130 7548     		ldr	r0, .L273+40
 3244 0132 FFF7FEFF 		bl	strcmp
 3245              	.LVL466:
 3246 0136 0028     		cmp	r0, #0
 3247 0138 40F05D82 		bne	.L221
 981:main.c        ****             {
 982:main.c        ****                 // start main program
 983:main.c        ****                 Find_Puck(2);
 3248              		.loc 1 983 0
 3249 013c 0220     		movs	r0, #2
 3250 013e FFF7FEFF 		bl	Find_Puck
 3251              	.LVL467:
 984:main.c        ****                 CyDelay(1000);
 3252              		.loc 1 984 0
 3253 0142 4FF47A70 		mov	r0, #1000
 3254 0146 FFF7FEFF 		bl	CyDelay
 3255              	.LVL468:
 985:main.c        ****                 Pick_Up_Puck();
 3256              		.loc 1 985 0
 3257 014a FFF7FEFF 		bl	Pick_Up_Puck
 3258              	.LVL469:
 986:main.c        ****                 CyDelay(1000);
 3259              		.loc 1 986 0
 3260 014e 4FF47A70 		mov	r0, #1000
ARM GAS  C:\Users\weiro\AppData\Local\Temp\ccglHz8v.s 			page 76


 3261 0152 FFF7FEFF 		bl	CyDelay
 3262              	.LVL470:
 987:main.c        ****                 move_fixed_dist(10, 0);
 3263              		.loc 1 987 0
 3264 0156 0021     		movs	r1, #0
 3265 0158 0A20     		movs	r0, #10
 3266 015a FFF7FEFF 		bl	move_fixed_dist
 3267              	.LVL471:
 988:main.c        ****                 CyDelay(1000);
 3268              		.loc 1 988 0
 3269 015e 4FF47A70 		mov	r0, #1000
 3270 0162 FFF7FEFF 		bl	CyDelay
 3271              	.LVL472:
 989:main.c        ****                 Put_Down_Puck();
 3272              		.loc 1 989 0
 3273 0166 FFF7FEFF 		bl	Put_Down_Puck
 3274              	.LVL473:
 990:main.c        ****                 CyDelay(1000);
 3275              		.loc 1 990 0
 3276 016a 4FF47A70 		mov	r0, #1000
 3277 016e FFF7FEFF 		bl	CyDelay
 3278              	.LVL474:
 991:main.c        ****                 Flicker_Function();
 3279              		.loc 1 991 0
 3280 0172 FFF7FEFF 		bl	Flicker_Function
 3281              	.LVL475:
 992:main.c        ****                 //move2wall();
 993:main.c        ****                 
 994:main.c        ****                   
 995:main.c        ****                 while (step == 0)
 3282              		.loc 1 995 0
 3283 0176 18E0     		b	.L222
 3284              	.L223:
 3285              	.LVL476:
 996:main.c        ****                 {
 997:main.c        ****                     flag_FR = 1;
 998:main.c        ****                     dist_trav = 50;
 999:main.c        ****                     move_fixed_dist(dist_trav, flag_FR); // move forward
 3286              		.loc 1 999 0
 3287 0178 0121     		movs	r1, #1
 3288 017a 3220     		movs	r0, #50
 3289 017c FFF7FEFF 		bl	move_fixed_dist
 3290              	.LVL477:
1000:main.c        ****                     
1001:main.c        ****                     flag_CW = 0;
1002:main.c        ****                     CW(PT_TURN_COUNT, flag_CW); // turn CCW facing left wall
 3291              		.loc 1 1002 0
 3292 0180 5F4C     		ldr	r4, .L273+32
 3293 0182 F4E96401 		ldrd	r0, [r4, #400]!
 3294 0186 FFF7FEFF 		bl	__aeabi_d2iz
 3295              	.LVL478:
 3296 018a 0021     		movs	r1, #0
 3297 018c FFF7FEFF 		bl	CW
 3298              	.LVL479:
1003:main.c        ****                     
1004:main.c        ****                     move2wall(); // move to left wall
 3299              		.loc 1 1004 0
ARM GAS  C:\Users\weiro\AppData\Local\Temp\ccglHz8v.s 			page 77


 3300 0190 FFF7FEFF 		bl	move2wall
 3301              	.LVL480:
1005:main.c        ****                     flag_CW = 1;
1006:main.c        ****                     CW(PT_TURN_COUNT, flag_CW); // turn CW facing front wall
 3302              		.loc 1 1006 0
 3303 0194 D4E90001 		ldrd	r0, [r4]
 3304 0198 FFF7FEFF 		bl	__aeabi_d2iz
 3305              	.LVL481:
 3306 019c 0121     		movs	r1, #1
 3307 019e FFF7FEFF 		bl	CW
 3308              	.LVL482:
1007:main.c        ****                     
1008:main.c        ****                     step++; 
 3309              		.loc 1 1008 0
 3310 01a2 5C4A     		ldr	r2, .L273+52
 3311 01a4 136D     		ldr	r3, [r2, #80]
 3312 01a6 0133     		adds	r3, r3, #1
 3313 01a8 1365     		str	r3, [r2, #80]
 3314              	.LVL483:
 3315              	.L222:
 995:main.c        ****                 {
 3316              		.loc 1 995 0
 3317 01aa 5A4B     		ldr	r3, .L273+52
 3318 01ac 1B6D     		ldr	r3, [r3, #80]
 3319 01ae 002B     		cmp	r3, #0
 3320 01b0 E2D0     		beq	.L223
1009:main.c        ****                 }
1010:main.c        ****                 wall_detected_10 = 0;
 3321              		.loc 1 1010 0
 3322 01b2 0022     		movs	r2, #0
 3323 01b4 524B     		ldr	r3, .L273+32
 3324 01b6 1A64     		str	r2, [r3, #64]
1011:main.c        ****                 CyDelay(500);
 3325              		.loc 1 1011 0
 3326 01b8 4FF4FA70 		mov	r0, #500
 3327 01bc FFF7FEFF 		bl	CyDelay
 3328              	.LVL484:
1012:main.c        ****                 
1013:main.c        ****                 // move forward to front wall & turn 90 deg CW facing right wall
1014:main.c        ****                 while (step == 1)
 3329              		.loc 1 1014 0
 3330 01c0 11E0     		b	.L224
 3331              	.L225:
1015:main.c        ****                 {
1016:main.c        ****                     move2wall(); // move to front wall
 3332              		.loc 1 1016 0
 3333 01c2 FFF7FEFF 		bl	move2wall
 3334              	.LVL485:
1017:main.c        ****                     CyDelay(500);
 3335              		.loc 1 1017 0
 3336 01c6 4FF4FA70 		mov	r0, #500
 3337 01ca FFF7FEFF 		bl	CyDelay
 3338              	.LVL486:
1018:main.c        ****                     flag_CW = 1;
1019:main.c        ****                     CW(PT_TURN_COUNT, flag_CW); // turn CW facing right wall --> problem: Step 2 wi
 3339              		.loc 1 1019 0
 3340 01ce 524B     		ldr	r3, .L273+56
ARM GAS  C:\Users\weiro\AppData\Local\Temp\ccglHz8v.s 			page 78


 3341 01d0 D3E90001 		ldrd	r0, [r3]
 3342 01d4 FFF7FEFF 		bl	__aeabi_d2iz
 3343              	.LVL487:
 3344 01d8 0121     		movs	r1, #1
 3345 01da FFF7FEFF 		bl	CW
 3346              	.LVL488:
1020:main.c        ****                     step++;
 3347              		.loc 1 1020 0
 3348 01de 4D4A     		ldr	r2, .L273+52
 3349 01e0 136D     		ldr	r3, [r2, #80]
 3350 01e2 0133     		adds	r3, r3, #1
 3351 01e4 1365     		str	r3, [r2, #80]
 3352              	.LVL489:
 3353              	.L224:
1014:main.c        ****                 {
 3354              		.loc 1 1014 0
 3355 01e6 4B4B     		ldr	r3, .L273+52
 3356 01e8 1B6D     		ldr	r3, [r3, #80]
 3357 01ea 012B     		cmp	r3, #1
 3358 01ec E9D0     		beq	.L225
1021:main.c        ****                 }
1022:main.c        ****                 CyDelay(1000);
 3359              		.loc 1 1022 0
 3360 01ee 4FF47A70 		mov	r0, #1000
 3361 01f2 FFF7FEFF 		bl	CyDelay
 3362              	.LVL490:
1023:main.c        ****                 
1024:main.c        ****                 // look for slit & adjust so that robot can fit through slit
1025:main.c        ****                 while (step == 2)
 3363              		.loc 1 1025 0
 3364 01f6 14E0     		b	.L226
 3365              	.L227:
1026:main.c        ****                 {
1027:main.c        ****                     move2slit();
 3366              		.loc 1 1027 0
 3367 01f8 FFF7FEFF 		bl	move2slit
 3368              	.LVL491:
1028:main.c        ****                     sprintf(string_1, "step 2");
 3369              		.loc 1 1028 0
 3370 01fc 474B     		ldr	r3, .L273+60
 3371 01fe 484A     		ldr	r2, .L273+64
 3372 0200 1068     		ldr	r0, [r2]	@ unaligned
 3373 0202 1860     		str	r0, [r3]	@ unaligned
 3374 0204 9188     		ldrh	r1, [r2, #4]	@ unaligned
 3375 0206 9279     		ldrb	r2, [r2, #6]	@ zero_extendqisi2
 3376 0208 9980     		strh	r1, [r3, #4]	@ unaligned
 3377 020a 9A71     		strb	r2, [r3, #6]
1029:main.c        ****                     UART_1_PutString(string_1);
 3378              		.loc 1 1029 0
 3379 020c 1846     		mov	r0, r3
 3380 020e FFF7FEFF 		bl	UART_1_PutString
 3381              	.LVL492:
1030:main.c        ****                     CyDelay(500);
 3382              		.loc 1 1030 0
 3383 0212 4FF4FA70 		mov	r0, #500
 3384 0216 FFF7FEFF 		bl	CyDelay
 3385              	.LVL493:
ARM GAS  C:\Users\weiro\AppData\Local\Temp\ccglHz8v.s 			page 79


1031:main.c        ****                     
1032:main.c        ****                     step++;
 3386              		.loc 1 1032 0
 3387 021a 3E4A     		ldr	r2, .L273+52
 3388 021c 136D     		ldr	r3, [r2, #80]
 3389 021e 0133     		adds	r3, r3, #1
 3390 0220 1365     		str	r3, [r2, #80]
 3391              	.L226:
1025:main.c        ****                 {
 3392              		.loc 1 1025 0
 3393 0222 3C4B     		ldr	r3, .L273+52
 3394 0224 1B6D     		ldr	r3, [r3, #80]
 3395 0226 022B     		cmp	r3, #2
 3396 0228 E6D0     		beq	.L227
1033:main.c        ****                 }
1034:main.c        ****                 CyDelay(500);
 3397              		.loc 1 1034 0
 3398 022a 4FF4FA70 		mov	r0, #500
 3399 022e FFF7FEFF 		bl	CyDelay
 3400              	.LVL494:
1035:main.c        ****                 while (step == 3)
 3401              		.loc 1 1035 0
 3402 0232 0FE0     		b	.L228
 3403              	.L229:
 3404              	.LVL495:
1036:main.c        ****                 {
1037:main.c        ****                     dist_trav = 8.5;
1038:main.c        ****                     flag_FR = 1;
1039:main.c        ****                     move_fixed_dist(dist_trav, flag_FR);
 3405              		.loc 1 1039 0
 3406 0234 0121     		movs	r1, #1
 3407 0236 0820     		movs	r0, #8
 3408 0238 FFF7FEFF 		bl	move_fixed_dist
 3409              	.LVL496:
1040:main.c        ****                     flag_CW = 0;
1041:main.c        ****                     CW(PT_TURN_COUNT, flag_CW); 
 3410              		.loc 1 1041 0
 3411 023c 364B     		ldr	r3, .L273+56
 3412 023e D3E90001 		ldrd	r0, [r3]
 3413 0242 FFF7FEFF 		bl	__aeabi_d2iz
 3414              	.LVL497:
 3415 0246 0021     		movs	r1, #0
 3416 0248 FFF7FEFF 		bl	CW
 3417              	.LVL498:
1042:main.c        ****                     step++;
 3418              		.loc 1 1042 0
 3419 024c 314A     		ldr	r2, .L273+52
 3420 024e 136D     		ldr	r3, [r2, #80]
 3421 0250 0133     		adds	r3, r3, #1
 3422 0252 1365     		str	r3, [r2, #80]
 3423              	.LVL499:
 3424              	.L228:
1035:main.c        ****                 {
 3425              		.loc 1 1035 0
 3426 0254 2F4B     		ldr	r3, .L273+52
 3427 0256 1B6D     		ldr	r3, [r3, #80]
 3428 0258 032B     		cmp	r3, #3
ARM GAS  C:\Users\weiro\AppData\Local\Temp\ccglHz8v.s 			page 80


 3429 025a EBD0     		beq	.L229
1043:main.c        ****                 }
1044:main.c        ****                 CyDelay(500);
 3430              		.loc 1 1044 0
 3431 025c 4FF4FA70 		mov	r0, #500
 3432 0260 FFF7FEFF 		bl	CyDelay
 3433              	.LVL500:
1045:main.c        ****                 // move forward until puck is detected
1046:main.c        ****                 while (step == 4)
 3434              		.loc 1 1046 0
 3435 0264 05E0     		b	.L230
 3436              	.L231:
1047:main.c        ****                 {
1048:main.c        ****                     move2puck();
 3437              		.loc 1 1048 0
 3438 0266 FFF7FEFF 		bl	move2puck
 3439              	.LVL501:
1049:main.c        ****                     step++;
 3440              		.loc 1 1049 0
 3441 026a 2A4A     		ldr	r2, .L273+52
 3442 026c 136D     		ldr	r3, [r2, #80]
 3443 026e 0133     		adds	r3, r3, #1
 3444 0270 1365     		str	r3, [r2, #80]
 3445              	.L230:
1046:main.c        ****                 {
 3446              		.loc 1 1046 0
 3447 0272 284B     		ldr	r3, .L273+52
 3448 0274 1B6D     		ldr	r3, [r3, #80]
 3449 0276 042B     		cmp	r3, #4
 3450 0278 F5D0     		beq	.L231
1050:main.c        ****                 }
1051:main.c        ****                 CyDelay(500);
 3451              		.loc 1 1051 0
 3452 027a 4FF4FA70 		mov	r0, #500
 3453 027e FFF7FEFF 		bl	CyDelay
 3454              	.LVL502:
1052:main.c        ****                 
1053:main.c        ****                 // color sensing & light up LED
1054:main.c        ****                 while (step == 5)
 3455              		.loc 1 1054 0
 3456 0282 21E0     		b	.L232
 3457              	.L236:
 3458              	.LVL503:
 3459              	.LBB8:
1055:main.c        ****                 {
1056:main.c        ****                     int flag_FR = 0;
1057:main.c        ****                     int dist_trav = 2;
1058:main.c        ****                     move_fixed_dist(dist_trav, flag_FR); // move backward
 3460              		.loc 1 1058 0
 3461 0284 0021     		movs	r1, #0
 3462 0286 0220     		movs	r0, #2
 3463 0288 FFF7FEFF 		bl	move_fixed_dist
 3464              	.LVL504:
1059:main.c        ****                     CyDelay(500);
 3465              		.loc 1 1059 0
 3466 028c 4FF4FA70 		mov	r0, #500
 3467 0290 FFF7FEFF 		bl	CyDelay
ARM GAS  C:\Users\weiro\AppData\Local\Temp\ccglHz8v.s 			page 81


 3468              	.LVL505:
1060:main.c        ****                     Color_Sensing_Function();
 3469              		.loc 1 1060 0
 3470 0294 FFF7FEFF 		bl	Color_Sensing_Function
 3471              	.LVL506:
1061:main.c        ****                     if (color_detected == 1) // red
 3472              		.loc 1 1061 0
 3473 0298 194B     		ldr	r3, .L273+32
 3474 029a D3F88C31 		ldr	r3, [r3, #396]
 3475 029e 012B     		cmp	r3, #1
 3476 02a0 03D1     		bne	.L233
1062:main.c        ****                     {
1063:main.c        ****                         led_red_Write(1);
 3477              		.loc 1 1063 0
 3478 02a2 0120     		movs	r0, #1
 3479 02a4 FFF7FEFF 		bl	led_red_Write
 3480              	.LVL507:
 3481 02a8 0AE0     		b	.L234
 3482              	.L233:
1064:main.c        ****                     }
1065:main.c        ****                     else if (color_detected == 2) // green
 3483              		.loc 1 1065 0
 3484 02aa 022B     		cmp	r3, #2
 3485 02ac 03D1     		bne	.L235
1066:main.c        ****                     {
1067:main.c        ****                         led_green_Write(1);
 3486              		.loc 1 1067 0
 3487 02ae 0120     		movs	r0, #1
 3488 02b0 FFF7FEFF 		bl	led_green_Write
 3489              	.LVL508:
 3490 02b4 04E0     		b	.L234
 3491              	.L235:
1068:main.c        ****                     }
1069:main.c        ****                     else if (color_detected == 3) // blue
 3492              		.loc 1 1069 0
 3493 02b6 032B     		cmp	r3, #3
 3494 02b8 02D1     		bne	.L234
1070:main.c        ****                     {
1071:main.c        ****                         led_blue_Write(1);   
 3495              		.loc 1 1071 0
 3496 02ba 0120     		movs	r0, #1
 3497 02bc FFF7FEFF 		bl	led_blue_Write
 3498              	.LVL509:
 3499              	.L234:
1072:main.c        ****                     }
1073:main.c        ****                     step++;
 3500              		.loc 1 1073 0
 3501 02c0 144A     		ldr	r2, .L273+52
 3502 02c2 136D     		ldr	r3, [r2, #80]
 3503 02c4 0133     		adds	r3, r3, #1
 3504 02c6 1365     		str	r3, [r2, #80]
 3505              	.LVL510:
 3506              	.L232:
 3507              	.LBE8:
1054:main.c        ****                 {
 3508              		.loc 1 1054 0
 3509 02c8 124B     		ldr	r3, .L273+52
ARM GAS  C:\Users\weiro\AppData\Local\Temp\ccglHz8v.s 			page 82


 3510 02ca 1B6D     		ldr	r3, [r3, #80]
 3511 02cc 052B     		cmp	r3, #5
 3512 02ce D9D0     		beq	.L236
1074:main.c        ****                 }
1075:main.c        ****                 CyDelay(500);
 3513              		.loc 1 1075 0
 3514 02d0 4FF4FA70 		mov	r0, #500
 3515 02d4 FFF7FEFF 		bl	CyDelay
 3516              	.LVL511:
1076:main.c        ****                 
1077:main.c        ****                 // move forward & pick up puck
1078:main.c        ****                 while (step == 6)
 3517              		.loc 1 1078 0
 3518 02d8 3DE0     		b	.L237
 3519              	.L274:
 3520 02da 00BFAFF3 		.align	3
 3520      0080
 3521              	.L273:
 3522 02e0 182D4454 		.word	1413754136
 3523 02e4 FB210940 		.word	1074340347
 3524 02e8 0000D03F 		.word	1070596096
 3525 02ec 00000000 		.word	Speed_Control
 3526 02f0 00000000 		.word	Color_sensing
 3527 02f4 00000000 		.word	ultrasonic_echo
 3528 02f8 00000000 		.word	Bluetooth
 3529 02fc 00000000 		.word	Gyroscope
 3530 0300 00000000 		.word	.LANCHOR0
 3531 0304 B8000000 		.word	.LC13
 3532 0308 00000000 		.word	string_bt
 3533 030c C8000000 		.word	.LC14
 3534 0310 D4000000 		.word	.LC15
 3535 0314 00000000 		.word	.LANCHOR1
 3536 0318 90010000 		.word	.LANCHOR0+400
 3537 031c 00000000 		.word	string_1
 3538 0320 DC000000 		.word	.LC16
 3539              	.L238:
 3540              	.LVL512:
1079:main.c        ****                 {
1080:main.c        ****                     flag_FR = 1;
1081:main.c        ****                     dist_trav = 18; // distance from color sensor to gripper center
1082:main.c        ****                     move_fixed_dist(dist_trav, flag_FR);
 3541              		.loc 1 1082 0
 3542 0324 0121     		movs	r1, #1
 3543 0326 1220     		movs	r0, #18
 3544 0328 FFF7FEFF 		bl	move_fixed_dist
 3545              	.LVL513:
1083:main.c        ****                     PWM_BigServo_WriteCompare(down_big);
 3546              		.loc 1 1083 0
 3547 032c B54C     		ldr	r4, .L275
 3548 032e 208E     		ldrh	r0, [r4, #48]
 3549 0330 FFF7FEFF 		bl	PWM_BigServo_WriteCompare
 3550              	.LVL514:
1084:main.c        ****                     CyDelay(500);
 3551              		.loc 1 1084 0
 3552 0334 4FF4FA70 		mov	r0, #500
 3553 0338 FFF7FEFF 		bl	CyDelay
 3554              	.LVL515:
ARM GAS  C:\Users\weiro\AppData\Local\Temp\ccglHz8v.s 			page 83


1085:main.c        ****                     PWM_SmallServo_WriteCompare(close_small);
 3555              		.loc 1 1085 0
 3556 033c A08E     		ldrh	r0, [r4, #52]
 3557 033e FFF7FEFF 		bl	PWM_SmallServo_WriteCompare
 3558              	.LVL516:
1086:main.c        ****                     CyDelay(500);
 3559              		.loc 1 1086 0
 3560 0342 4FF4FA70 		mov	r0, #500
 3561 0346 FFF7FEFF 		bl	CyDelay
 3562              	.LVL517:
1087:main.c        ****                     PWM_BigServo_WriteCompare(up_big);
 3563              		.loc 1 1087 0
 3564 034a 208F     		ldrh	r0, [r4, #56]
 3565 034c FFF7FEFF 		bl	PWM_BigServo_WriteCompare
 3566              	.LVL518:
1088:main.c        ****                     step++;
 3567              		.loc 1 1088 0
 3568 0350 236D     		ldr	r3, [r4, #80]
 3569 0352 0133     		adds	r3, r3, #1
 3570 0354 2365     		str	r3, [r4, #80]
 3571              	.LVL519:
 3572              	.L237:
1078:main.c        ****                 {
 3573              		.loc 1 1078 0
 3574 0356 AB4B     		ldr	r3, .L275
 3575 0358 1B6D     		ldr	r3, [r3, #80]
 3576 035a 062B     		cmp	r3, #6
 3577 035c E2D0     		beq	.L238
1089:main.c        ****                 }
1090:main.c        ****                 CyDelay(500);
 3578              		.loc 1 1090 0
 3579 035e 4FF4FA70 		mov	r0, #500
 3580 0362 FFF7FEFF 		bl	CyDelay
 3581              	.LVL520:
1091:main.c        ****                 
1092:main.c        ****                 while (step == 7)
 3582              		.loc 1 1092 0
 3583 0366 1AE0     		b	.L239
 3584              	.L241:
 3585              	.LVL521:
1093:main.c        ****                 {
1094:main.c        ****                     // reverse (out of the slit) and move to the corner of facing the initial posit
1095:main.c        ****                     flag_FR = 0;
1096:main.c        ****                     dist_trav = 50;
1097:main.c        ****                     move_fixed_dist(dist_trav, flag_FR);
 3586              		.loc 1 1097 0
 3587 0368 0021     		movs	r1, #0
 3588 036a 3220     		movs	r0, #50
 3589 036c FFF7FEFF 		bl	move_fixed_dist
 3590              	.LVL522:
1098:main.c        ****                     CyDelay(500);
 3591              		.loc 1 1098 0
 3592 0370 4FF4FA70 		mov	r0, #500
 3593 0374 FFF7FEFF 		bl	CyDelay
 3594              	.LVL523:
1099:main.c        ****                     if (initial == 0)
 3595              		.loc 1 1099 0
ARM GAS  C:\Users\weiro\AppData\Local\Temp\ccglHz8v.s 			page 84


 3596 0378 A34B     		ldr	r3, .L275+4
 3597 037a D3F8A831 		ldr	r3, [r3, #424]
 3598 037e 0BB9     		cbnz	r3, .L267
1100:main.c        ****                     {
1101:main.c        ****                         flag_CW = 0; // ccw to left wall
 3599              		.loc 1 1101 0
 3600 0380 0024     		movs	r4, #0
 3601 0382 00E0     		b	.L240
 3602              	.L267:
1102:main.c        ****                     }
1103:main.c        ****                     else
1104:main.c        ****                     {
1105:main.c        ****                         flag_CW = 1; // cw to right wall
 3603              		.loc 1 1105 0
 3604 0384 0124     		movs	r4, #1
 3605              	.L240:
 3606              	.LVL524:
1106:main.c        ****                     }
1107:main.c        ****                     CW(PT_TURN_COUNT, flag_CW); // turn robot facing left or right wall
 3607              		.loc 1 1107 0
 3608 0386 A14B     		ldr	r3, .L275+8
 3609 0388 D3E90001 		ldrd	r0, [r3]
 3610 038c FFF7FEFF 		bl	__aeabi_d2iz
 3611              	.LVL525:
 3612 0390 2146     		mov	r1, r4
 3613 0392 FFF7FEFF 		bl	CW
 3614              	.LVL526:
1108:main.c        ****                     step++;     
 3615              		.loc 1 1108 0
 3616 0396 9B4A     		ldr	r2, .L275
 3617 0398 136D     		ldr	r3, [r2, #80]
 3618 039a 0133     		adds	r3, r3, #1
 3619 039c 1365     		str	r3, [r2, #80]
 3620              	.LVL527:
 3621              	.L239:
1092:main.c        ****                 {
 3622              		.loc 1 1092 0
 3623 039e 994B     		ldr	r3, .L275
 3624 03a0 1B6D     		ldr	r3, [r3, #80]
 3625 03a2 072B     		cmp	r3, #7
 3626 03a4 E0D0     		beq	.L241
1109:main.c        ****                 }
1110:main.c        ****                 CyDelay(500);
 3627              		.loc 1 1110 0
 3628 03a6 4FF4FA70 		mov	r0, #500
 3629 03aa FFF7FEFF 		bl	CyDelay
 3630              	.LVL528:
1111:main.c        ****                 wall_detected_10 = 0;
 3631              		.loc 1 1111 0
 3632 03ae 0022     		movs	r2, #0
 3633 03b0 954B     		ldr	r3, .L275+4
 3634 03b2 1A64     		str	r2, [r3, #64]
1112:main.c        ****                 while (step ==8)
 3635              		.loc 1 1112 0
 3636 03b4 0DE0     		b	.L242
 3637              	.L243:
1113:main.c        ****                 {
ARM GAS  C:\Users\weiro\AppData\Local\Temp\ccglHz8v.s 			page 85


1114:main.c        ****                     move2wall(); // move to left wall
 3638              		.loc 1 1114 0
 3639 03b6 FFF7FEFF 		bl	move2wall
 3640              	.LVL529:
1115:main.c        ****                     flag_CW = 1;
1116:main.c        ****                     CW(PT_TURN_COUNT, flag_CW); // turn CW facing base wall
 3641              		.loc 1 1116 0
 3642 03ba 944B     		ldr	r3, .L275+8
 3643 03bc D3E90001 		ldrd	r0, [r3]
 3644 03c0 FFF7FEFF 		bl	__aeabi_d2iz
 3645              	.LVL530:
 3646 03c4 0121     		movs	r1, #1
 3647 03c6 FFF7FEFF 		bl	CW
 3648              	.LVL531:
1117:main.c        ****                     
1118:main.c        ****                     
1119:main.c        ****                    
1120:main.c        ****                     step++;
 3649              		.loc 1 1120 0
 3650 03ca 8E4A     		ldr	r2, .L275
 3651 03cc 136D     		ldr	r3, [r2, #80]
 3652 03ce 0133     		adds	r3, r3, #1
 3653 03d0 1365     		str	r3, [r2, #80]
 3654              	.LVL532:
 3655              	.L242:
1112:main.c        ****                 {
 3656              		.loc 1 1112 0
 3657 03d2 8C4B     		ldr	r3, .L275
 3658 03d4 1B6D     		ldr	r3, [r3, #80]
 3659 03d6 082B     		cmp	r3, #8
 3660 03d8 EDD0     		beq	.L243
1121:main.c        ****                     
1122:main.c        ****                 }
1123:main.c        ****                 CyDelay(500);
 3661              		.loc 1 1123 0
 3662 03da 4FF4FA70 		mov	r0, #500
 3663 03de FFF7FEFF 		bl	CyDelay
 3664              	.LVL533:
1124:main.c        ****                 
1125:main.c        ****                 wall_detected_10 = 0;
 3665              		.loc 1 1125 0
 3666 03e2 0022     		movs	r2, #0
 3667 03e4 884B     		ldr	r3, .L275+4
 3668 03e6 1A64     		str	r2, [r3, #64]
1126:main.c        ****                 while (step ==9)
 3669              		.loc 1 1126 0
 3670 03e8 0BE0     		b	.L244
 3671              	.L245:
 3672              	.LVL534:
1127:main.c        ****                 {
1128:main.c        ****                     flag_FR = 0
1129:main.c        ****                     
1130:main.c        ****                     ;
1131:main.c        ****                     dist_trav = 70;
1132:main.c        ****                     move_fixed_dist(dist_trav, flag_FR);
 3673              		.loc 1 1132 0
 3674 03ea 0021     		movs	r1, #0
ARM GAS  C:\Users\weiro\AppData\Local\Temp\ccglHz8v.s 			page 86


 3675 03ec 4620     		movs	r0, #70
 3676 03ee FFF7FEFF 		bl	move_fixed_dist
 3677              	.LVL535:
1133:main.c        ****                     //move_fixed_dist(200); // move to corner
1134:main.c        ****                     CyDelay(500);
 3678              		.loc 1 1134 0
 3679 03f2 4FF4FA70 		mov	r0, #500
 3680 03f6 FFF7FEFF 		bl	CyDelay
 3681              	.LVL536:
1135:main.c        ****                     step ++;
 3682              		.loc 1 1135 0
 3683 03fa 824A     		ldr	r2, .L275
 3684 03fc 136D     		ldr	r3, [r2, #80]
 3685 03fe 0133     		adds	r3, r3, #1
 3686 0400 1365     		str	r3, [r2, #80]
 3687              	.LVL537:
 3688              	.L244:
1126:main.c        ****                 {
 3689              		.loc 1 1126 0
 3690 0402 804B     		ldr	r3, .L275
 3691 0404 1B6D     		ldr	r3, [r3, #80]
 3692 0406 092B     		cmp	r3, #9
 3693 0408 EFD0     		beq	.L245
 3694 040a 1EE0     		b	.L246
 3695              	.L248:
 3696              	.LVL538:
1136:main.c        ****                 }
1137:main.c        ****                 
1138:main.c        ****                 while (step == 10)
1139:main.c        ****                 {
1140:main.c        ****                      // move away from the corner
1141:main.c        ****                     flag_FR = 0;
1142:main.c        ****                     dist_trav = 50;
1143:main.c        ****                     move_fixed_dist(dist_trav, flag_FR);
 3697              		.loc 1 1143 0
 3698 040c 0021     		movs	r1, #0
 3699 040e 3220     		movs	r0, #50
 3700 0410 FFF7FEFF 		bl	move_fixed_dist
 3701              	.LVL539:
1144:main.c        ****                     CyDelay(500);
 3702              		.loc 1 1144 0
 3703 0414 4FF4FA70 		mov	r0, #500
 3704 0418 FFF7FEFF 		bl	CyDelay
 3705              	.LVL540:
1145:main.c        ****                     if (initial == 0)
 3706              		.loc 1 1145 0
 3707 041c 7A4B     		ldr	r3, .L275+4
 3708 041e D3F8A831 		ldr	r3, [r3, #424]
 3709 0422 0BB9     		cbnz	r3, .L268
1146:main.c        ****                     {
1147:main.c        ****                         flag_CW = 1;    // ccw
 3710              		.loc 1 1147 0
 3711 0424 0124     		movs	r4, #1
 3712 0426 00E0     		b	.L247
 3713              	.L268:
1148:main.c        ****                     }
1149:main.c        ****                     else
ARM GAS  C:\Users\weiro\AppData\Local\Temp\ccglHz8v.s 			page 87


1150:main.c        ****                     {
1151:main.c        ****                         flag_CW = 0;    // cw
 3714              		.loc 1 1151 0
 3715 0428 0024     		movs	r4, #0
 3716              	.L247:
 3717              	.LVL541:
1152:main.c        ****                     }
1153:main.c        ****                     CW(PT_TURN_COUNT, flag_CW); // turn CCW or CW facing puck landing zone
 3718              		.loc 1 1153 0
 3719 042a 784B     		ldr	r3, .L275+8
 3720 042c D3E90001 		ldrd	r0, [r3]
 3721 0430 FFF7FEFF 		bl	__aeabi_d2iz
 3722              	.LVL542:
 3723 0434 2146     		mov	r1, r4
 3724 0436 FFF7FEFF 		bl	CW
 3725              	.LVL543:
1154:main.c        ****                     CyDelay(500);
 3726              		.loc 1 1154 0
 3727 043a 4FF4FA70 		mov	r0, #500
 3728 043e FFF7FEFF 		bl	CyDelay
 3729              	.LVL544:
1155:main.c        ****                     step ++;
 3730              		.loc 1 1155 0
 3731 0442 704A     		ldr	r2, .L275
 3732 0444 136D     		ldr	r3, [r2, #80]
 3733 0446 0133     		adds	r3, r3, #1
 3734 0448 1365     		str	r3, [r2, #80]
 3735              	.LVL545:
 3736              	.L246:
1138:main.c        ****                 {
 3737              		.loc 1 1138 0
 3738 044a 6E4B     		ldr	r3, .L275
 3739 044c 1B6D     		ldr	r3, [r3, #80]
 3740 044e 0A2B     		cmp	r3, #10
 3741 0450 DCD0     		beq	.L248
1156:main.c        ****                 }
1157:main.c        ****                 CyDelay(500);
 3742              		.loc 1 1157 0
 3743 0452 4FF4FA70 		mov	r0, #500
 3744 0456 FFF7FEFF 		bl	CyDelay
 3745              	.LVL546:
1158:main.c        ****                 
1159:main.c        ****                 while (step == 11)
 3746              		.loc 1 1159 0
 3747 045a 1AE0     		b	.L249
 3748              	.L251:
 3749              	.LVL547:
1160:main.c        ****                 {
1161:main.c        ****                 
1162:main.c        ****                     // move to puck landing
1163:main.c        ****                     flag_FR = 0;
1164:main.c        ****                     dist_trav = 20;
1165:main.c        ****                     move_fixed_dist(dist_trav, flag_FR);
 3750              		.loc 1 1165 0
 3751 045c 0021     		movs	r1, #0
 3752 045e 1420     		movs	r0, #20
 3753 0460 FFF7FEFF 		bl	move_fixed_dist
ARM GAS  C:\Users\weiro\AppData\Local\Temp\ccglHz8v.s 			page 88


 3754              	.LVL548:
1166:main.c        ****                     CyDelay(500);
 3755              		.loc 1 1166 0
 3756 0464 4FF4FA70 		mov	r0, #500
 3757 0468 FFF7FEFF 		bl	CyDelay
 3758              	.LVL549:
1167:main.c        ****                     if (initial == 0)
 3759              		.loc 1 1167 0
 3760 046c 664B     		ldr	r3, .L275+4
 3761 046e D3F8A831 		ldr	r3, [r3, #424]
 3762 0472 0BB9     		cbnz	r3, .L269
1168:main.c        ****                     {
1169:main.c        ****                         flag_CW = 1;    // cw
 3763              		.loc 1 1169 0
 3764 0474 0124     		movs	r4, #1
 3765 0476 00E0     		b	.L250
 3766              	.L269:
1170:main.c        ****                     }
1171:main.c        ****                     else
1172:main.c        ****                     {
1173:main.c        ****                         flag_CW = 0;    // ccw
 3767              		.loc 1 1173 0
 3768 0478 0024     		movs	r4, #0
 3769              	.L250:
 3770              	.LVL550:
1174:main.c        ****                     }
1175:main.c        ****                     CW(PT_TURN_COUNT, flag_CW); // turn CCW or CW facing puck landing zone
 3771              		.loc 1 1175 0
 3772 047a 644B     		ldr	r3, .L275+8
 3773 047c D3E90001 		ldrd	r0, [r3]
 3774 0480 FFF7FEFF 		bl	__aeabi_d2iz
 3775              	.LVL551:
 3776 0484 2146     		mov	r1, r4
 3777 0486 FFF7FEFF 		bl	CW
 3778              	.LVL552:
1176:main.c        ****                     step++;
 3779              		.loc 1 1176 0
 3780 048a 5E4A     		ldr	r2, .L275
 3781 048c 136D     		ldr	r3, [r2, #80]
 3782 048e 0133     		adds	r3, r3, #1
 3783 0490 1365     		str	r3, [r2, #80]
 3784              	.LVL553:
 3785              	.L249:
1159:main.c        ****                 {
 3786              		.loc 1 1159 0
 3787 0492 5C4B     		ldr	r3, .L275
 3788 0494 1B6D     		ldr	r3, [r3, #80]
 3789 0496 0B2B     		cmp	r3, #11
 3790 0498 E0D0     		beq	.L251
1177:main.c        ****                 }
1178:main.c        ****                 CyDelay(500);
 3791              		.loc 1 1178 0
 3792 049a 4FF4FA70 		mov	r0, #500
 3793 049e FFF7FEFF 		bl	CyDelay
 3794              	.LVL554:
1179:main.c        ****                 while (step ==12)
 3795              		.loc 1 1179 0
ARM GAS  C:\Users\weiro\AppData\Local\Temp\ccglHz8v.s 			page 89


 3796 04a2 1BE0     		b	.L252
 3797              	.L253:
1180:main.c        ****                 {
1181:main.c        ****                     // put down
1182:main.c        ****                     PWM_BigServo_WriteCompare(down_big);
 3798              		.loc 1 1182 0
 3799 04a4 574C     		ldr	r4, .L275
 3800 04a6 208E     		ldrh	r0, [r4, #48]
 3801 04a8 FFF7FEFF 		bl	PWM_BigServo_WriteCompare
 3802              	.LVL555:
1183:main.c        ****                     CyDelay(1000);
 3803              		.loc 1 1183 0
 3804 04ac 4FF47A70 		mov	r0, #1000
 3805 04b0 FFF7FEFF 		bl	CyDelay
 3806              	.LVL556:
1184:main.c        ****                     PWM_SmallServo_WriteCompare(open_small);
 3807              		.loc 1 1184 0
 3808 04b4 A08F     		ldrh	r0, [r4, #60]
 3809 04b6 FFF7FEFF 		bl	PWM_SmallServo_WriteCompare
 3810              	.LVL557:
1185:main.c        ****                     CyDelay(500);
 3811              		.loc 1 1185 0
 3812 04ba 4FF4FA70 		mov	r0, #500
 3813 04be FFF7FEFF 		bl	CyDelay
 3814              	.LVL558:
1186:main.c        ****                     PWM_BigServo_WriteCompare(up_big);
 3815              		.loc 1 1186 0
 3816 04c2 208F     		ldrh	r0, [r4, #56]
 3817 04c4 FFF7FEFF 		bl	PWM_BigServo_WriteCompare
 3818              	.LVL559:
1187:main.c        ****                     CyDelay(500);
 3819              		.loc 1 1187 0
 3820 04c8 4FF4FA70 		mov	r0, #500
 3821 04cc FFF7FEFF 		bl	CyDelay
 3822              	.LVL560:
1188:main.c        ****                     PWM_SmallServo_WriteCompare(close_small);
 3823              		.loc 1 1188 0
 3824 04d0 A08E     		ldrh	r0, [r4, #52]
 3825 04d2 FFF7FEFF 		bl	PWM_SmallServo_WriteCompare
 3826              	.LVL561:
1189:main.c        ****                     step++;
 3827              		.loc 1 1189 0
 3828 04d6 236D     		ldr	r3, [r4, #80]
 3829 04d8 0133     		adds	r3, r3, #1
 3830 04da 2365     		str	r3, [r4, #80]
 3831              	.L252:
1179:main.c        ****                 {
 3832              		.loc 1 1179 0
 3833 04dc 494B     		ldr	r3, .L275
 3834 04de 1B6D     		ldr	r3, [r3, #80]
 3835 04e0 0C2B     		cmp	r3, #12
 3836 04e2 DFD0     		beq	.L253
1190:main.c        ****                 }
1191:main.c        ****                 CyDelay(500);
 3837              		.loc 1 1191 0
 3838 04e4 4FF4FA70 		mov	r0, #500
 3839 04e8 FFF7FEFF 		bl	CyDelay
ARM GAS  C:\Users\weiro\AppData\Local\Temp\ccglHz8v.s 			page 90


 3840              	.LVL562:
1192:main.c        ****                 while (step == 13)
 3841              		.loc 1 1192 0
 3842 04ec 12E0     		b	.L254
 3843              	.L255:
 3844              	.LVL563:
1193:main.c        ****                 {
1194:main.c        ****                     flag_FR = 1;
1195:main.c        ****                     dist_trav = 20;
1196:main.c        ****                     move_fixed_dist(dist_trav, flag_FR);
 3845              		.loc 1 1196 0
 3846 04ee 0121     		movs	r1, #1
 3847 04f0 1420     		movs	r0, #20
 3848 04f2 FFF7FEFF 		bl	move_fixed_dist
 3849              	.LVL564:
1197:main.c        ****                     CyDelay(500);
 3850              		.loc 1 1197 0
 3851 04f6 4FF4FA70 		mov	r0, #500
 3852 04fa FFF7FEFF 		bl	CyDelay
 3853              	.LVL565:
1198:main.c        ****                     PWM_BigServo_WriteCompare(down_big);
 3854              		.loc 1 1198 0
 3855 04fe 414C     		ldr	r4, .L275
 3856 0500 208E     		ldrh	r0, [r4, #48]
 3857 0502 FFF7FEFF 		bl	PWM_BigServo_WriteCompare
 3858              	.LVL566:
1199:main.c        ****                     CyDelay(500);
 3859              		.loc 1 1199 0
 3860 0506 4FF4FA70 		mov	r0, #500
 3861 050a FFF7FEFF 		bl	CyDelay
 3862              	.LVL567:
1200:main.c        ****                     step++;
 3863              		.loc 1 1200 0
 3864 050e 236D     		ldr	r3, [r4, #80]
 3865 0510 0133     		adds	r3, r3, #1
 3866 0512 2365     		str	r3, [r4, #80]
 3867              	.LVL568:
 3868              	.L254:
1192:main.c        ****                 {
 3869              		.loc 1 1192 0
 3870 0514 3B4B     		ldr	r3, .L275
 3871 0516 1B6D     		ldr	r3, [r3, #80]
 3872 0518 0D2B     		cmp	r3, #13
 3873 051a E8D0     		beq	.L255
1201:main.c        ****                 }
1202:main.c        ****                 CyDelay(500);
 3874              		.loc 1 1202 0
 3875 051c 4FF4FA70 		mov	r0, #500
 3876 0520 FFF7FEFF 		bl	CyDelay
 3877              	.LVL569:
1203:main.c        ****                 while (step == 14)
 3878              		.loc 1 1203 0
 3879 0524 12E0     		b	.L256
 3880              	.L257:
 3881              	.LVL570:
1204:main.c        ****                 {
1205:main.c        ****                     flag_FR = 0;
ARM GAS  C:\Users\weiro\AppData\Local\Temp\ccglHz8v.s 			page 91


1206:main.c        ****                     dist_trav = 20;
1207:main.c        ****                     move_fixed_dist(dist_trav, flag_FR);
 3882              		.loc 1 1207 0
 3883 0526 0021     		movs	r1, #0
 3884 0528 1420     		movs	r0, #20
 3885 052a FFF7FEFF 		bl	move_fixed_dist
 3886              	.LVL571:
1208:main.c        ****                     CyDelay(500);
 3887              		.loc 1 1208 0
 3888 052e 4FF4FA70 		mov	r0, #500
 3889 0532 FFF7FEFF 		bl	CyDelay
 3890              	.LVL572:
1209:main.c        ****                     PWM_BigServo_WriteCompare(up_big);
 3891              		.loc 1 1209 0
 3892 0536 334C     		ldr	r4, .L275
 3893 0538 208F     		ldrh	r0, [r4, #56]
 3894 053a FFF7FEFF 		bl	PWM_BigServo_WriteCompare
 3895              	.LVL573:
1210:main.c        ****                     CyDelay(500);
 3896              		.loc 1 1210 0
 3897 053e 4FF4FA70 		mov	r0, #500
 3898 0542 FFF7FEFF 		bl	CyDelay
 3899              	.LVL574:
1211:main.c        ****                     step++;
 3900              		.loc 1 1211 0
 3901 0546 236D     		ldr	r3, [r4, #80]
 3902 0548 0133     		adds	r3, r3, #1
 3903 054a 2365     		str	r3, [r4, #80]
 3904              	.LVL575:
 3905              	.L256:
1203:main.c        ****                 {
 3906              		.loc 1 1203 0
 3907 054c 2D4B     		ldr	r3, .L275
 3908 054e 1B6D     		ldr	r3, [r3, #80]
 3909 0550 0E2B     		cmp	r3, #14
 3910 0552 E8D0     		beq	.L257
1212:main.c        ****                 }
1213:main.c        ****                 CyDelay(500);
 3911              		.loc 1 1213 0
 3912 0554 4FF4FA70 		mov	r0, #500
 3913 0558 FFF7FEFF 		bl	CyDelay
 3914              	.LVL576:
1214:main.c        ****                 while (step == 15)
 3915              		.loc 1 1214 0
 3916 055c 1EE0     		b	.L258
 3917              	.L260:
1215:main.c        ****                 {
1216:main.c        ****                     if (initial == 0)
 3918              		.loc 1 1216 0
 3919 055e 2A4B     		ldr	r3, .L275+4
 3920 0560 D3F8A831 		ldr	r3, [r3, #424]
 3921 0564 0BB9     		cbnz	r3, .L270
1217:main.c        ****                     {
1218:main.c        ****                         flag_CW = 1;    // cw
 3922              		.loc 1 1218 0
 3923 0566 0124     		movs	r4, #1
 3924 0568 00E0     		b	.L259
ARM GAS  C:\Users\weiro\AppData\Local\Temp\ccglHz8v.s 			page 92


 3925              	.L270:
1219:main.c        ****                     }
1220:main.c        ****                     else
1221:main.c        ****                     {
1222:main.c        ****                         flag_CW = 0;    // ccw
 3926              		.loc 1 1222 0
 3927 056a 0024     		movs	r4, #0
 3928              	.L259:
 3929              	.LVL577:
1223:main.c        ****                     }
1224:main.c        ****                     CW(PT_TURN_COUNT, flag_CW); // turn CCW or CW facing puck landing zone
 3930              		.loc 1 1224 0
 3931 056c 274B     		ldr	r3, .L275+8
 3932 056e D3E90001 		ldrd	r0, [r3]
 3933 0572 FFF7FEFF 		bl	__aeabi_d2iz
 3934              	.LVL578:
 3935 0576 2146     		mov	r1, r4
 3936 0578 FFF7FEFF 		bl	CW
 3937              	.LVL579:
1225:main.c        ****                     CyDelay(500);
 3938              		.loc 1 1225 0
 3939 057c 4FF4FA70 		mov	r0, #500
 3940 0580 FFF7FEFF 		bl	CyDelay
 3941              	.LVL580:
1226:main.c        ****                     flag_FR = 1;
1227:main.c        ****                     dist_trav = 50;
1228:main.c        ****                     move_fixed_dist(dist_trav, flag_FR);
 3942              		.loc 1 1228 0
 3943 0584 0121     		movs	r1, #1
 3944 0586 3220     		movs	r0, #50
 3945 0588 FFF7FEFF 		bl	move_fixed_dist
 3946              	.LVL581:
1229:main.c        ****                     CyDelay(500);
 3947              		.loc 1 1229 0
 3948 058c 4FF4FA70 		mov	r0, #500
 3949 0590 FFF7FEFF 		bl	CyDelay
 3950              	.LVL582:
1230:main.c        ****                     step++;
 3951              		.loc 1 1230 0
 3952 0594 1B4A     		ldr	r2, .L275
 3953 0596 136D     		ldr	r3, [r2, #80]
 3954 0598 0133     		adds	r3, r3, #1
 3955 059a 1365     		str	r3, [r2, #80]
 3956              	.LVL583:
 3957              	.L258:
1214:main.c        ****                 {
 3958              		.loc 1 1214 0
 3959 059c 194B     		ldr	r3, .L275
 3960 059e 1B6D     		ldr	r3, [r3, #80]
 3961 05a0 0F2B     		cmp	r3, #15
 3962 05a2 DCD0     		beq	.L260
1231:main.c        ****                 }
1232:main.c        ****                 CyDelay(500);
 3963              		.loc 1 1232 0
 3964 05a4 4FF4FA70 		mov	r0, #500
 3965 05a8 FFF7FEFF 		bl	CyDelay
 3966              	.LVL584:
ARM GAS  C:\Users\weiro\AppData\Local\Temp\ccglHz8v.s 			page 93


1233:main.c        ****                 while (step == 16)
 3967              		.loc 1 1233 0
 3968 05ac 1EE0     		b	.L261
 3969              	.L263:
1234:main.c        ****                 {
1235:main.c        ****                     if (initial == 0)
 3970              		.loc 1 1235 0
 3971 05ae 164B     		ldr	r3, .L275+4
 3972 05b0 D3F8A831 		ldr	r3, [r3, #424]
 3973 05b4 0BB9     		cbnz	r3, .L271
1236:main.c        ****                     {
1237:main.c        ****                         flag_CW = 1;    // cw
 3974              		.loc 1 1237 0
 3975 05b6 0124     		movs	r4, #1
 3976 05b8 00E0     		b	.L262
 3977              	.L271:
1238:main.c        ****                     }
1239:main.c        ****                     else
1240:main.c        ****                     {
1241:main.c        ****                         flag_CW = 0;    // ccw
 3978              		.loc 1 1241 0
 3979 05ba 0024     		movs	r4, #0
 3980              	.L262:
 3981              	.LVL585:
1242:main.c        ****                     }
1243:main.c        ****                     CW(PT_TURN_COUNT, flag_CW); // turn CCW or CW facing puck landing zone
 3982              		.loc 1 1243 0
 3983 05bc 134B     		ldr	r3, .L275+8
 3984 05be D3E90001 		ldrd	r0, [r3]
 3985 05c2 FFF7FEFF 		bl	__aeabi_d2iz
 3986              	.LVL586:
 3987 05c6 2146     		mov	r1, r4
 3988 05c8 FFF7FEFF 		bl	CW
 3989              	.LVL587:
1244:main.c        ****                     CyDelay(500);
 3990              		.loc 1 1244 0
 3991 05cc 4FF4FA70 		mov	r0, #500
 3992 05d0 FFF7FEFF 		bl	CyDelay
 3993              	.LVL588:
1245:main.c        ****                     flag_FR = 1;
1246:main.c        ****                     dist_trav = 50;
1247:main.c        ****                     move_fixed_dist(dist_trav, flag_FR);
 3994              		.loc 1 1247 0
 3995 05d4 0121     		movs	r1, #1
 3996 05d6 3220     		movs	r0, #50
 3997 05d8 FFF7FEFF 		bl	move_fixed_dist
 3998              	.LVL589:
1248:main.c        ****                     CyDelay(500);
 3999              		.loc 1 1248 0
 4000 05dc 4FF4FA70 		mov	r0, #500
 4001 05e0 FFF7FEFF 		bl	CyDelay
 4002              	.LVL590:
1249:main.c        ****                     step ++;
 4003              		.loc 1 1249 0
 4004 05e4 074A     		ldr	r2, .L275
 4005 05e6 136D     		ldr	r3, [r2, #80]
 4006 05e8 0133     		adds	r3, r3, #1
ARM GAS  C:\Users\weiro\AppData\Local\Temp\ccglHz8v.s 			page 94


 4007 05ea 1365     		str	r3, [r2, #80]
 4008              	.LVL591:
 4009              	.L261:
1233:main.c        ****                 {
 4010              		.loc 1 1233 0
 4011 05ec 054B     		ldr	r3, .L275
 4012 05ee 1B6D     		ldr	r3, [r3, #80]
 4013 05f0 102B     		cmp	r3, #16
 4014 05f2 DCD0     		beq	.L263
 4015 05f4 38E0     		b	.L220
 4016              	.L221:
1250:main.c        ****                 }
1251:main.c        ****                 
1252:main.c        ****                 // go home
1253:main.c        ****             }
1254:main.c        ****             else // task info
1255:main.c        ****             {
1256:main.c        ****                 tokenPtr = strtok(string_bt, " ");
 4017              		.loc 1 1256 0
 4018 05f6 0649     		ldr	r1, .L275+12
 4019 05f8 0648     		ldr	r0, .L275+16
 4020 05fa FFF7FEFF 		bl	strtok
 4021              	.LVL592:
 4022 05fe 064B     		ldr	r3, .L275+20
 4023 0600 1860     		str	r0, [r3]
1257:main.c        ****                 while (tokenPtr != NULL)
 4024              		.loc 1 1257 0
 4025 0602 1EE0     		b	.L264
 4026              	.L276:
 4027              		.align	2
 4028              	.L275:
 4029 0604 00000000 		.word	.LANCHOR1
 4030 0608 00000000 		.word	.LANCHOR0
 4031 060c 90010000 		.word	.LANCHOR0+400
 4032 0610 E4000000 		.word	.LC17
 4033 0614 00000000 		.word	string_bt
 4034 0618 00000000 		.word	tokenPtr
 4035              	.L265:
1258:main.c        ****                 {
1259:main.c        ****                     strcpy(task_info[j], tokenPtr);
 4036              		.loc 1 1259 0
 4037 061c 164D     		ldr	r5, .L277
 4038 061e D5F8AC41 		ldr	r4, [r5, #428]
 4039 0622 04EB8402 		add	r2, r4, r4, lsl #2
 4040 0626 9300     		lsls	r3, r2, #2
 4041 0628 1448     		ldr	r0, .L277+4
 4042 062a 1844     		add	r0, r0, r3
 4043 062c FFF7FEFF 		bl	strcpy
 4044              	.LVL593:
1260:main.c        ****                     j++;
 4045              		.loc 1 1260 0
 4046 0630 0134     		adds	r4, r4, #1
 4047 0632 C5F8AC41 		str	r4, [r5, #428]
1261:main.c        ****                     tokenPtr = strtok(NULL, " ");
 4048              		.loc 1 1261 0
 4049 0636 1249     		ldr	r1, .L277+8
 4050 0638 0020     		movs	r0, #0
ARM GAS  C:\Users\weiro\AppData\Local\Temp\ccglHz8v.s 			page 95


 4051 063a FFF7FEFF 		bl	strtok
 4052              	.LVL594:
 4053 063e 114B     		ldr	r3, .L277+12
 4054 0640 1860     		str	r0, [r3]
 4055              	.L264:
1257:main.c        ****                 {
 4056              		.loc 1 1257 0
 4057 0642 104B     		ldr	r3, .L277+12
 4058 0644 1968     		ldr	r1, [r3]
 4059 0646 0029     		cmp	r1, #0
 4060 0648 E8D1     		bne	.L265
1262:main.c        ****                 }
1263:main.c        ****                 UART_1_PutString(task_info[0]);
 4061              		.loc 1 1263 0
 4062 064a 0C4C     		ldr	r4, .L277+4
 4063 064c 2046     		mov	r0, r4
 4064 064e FFF7FEFF 		bl	UART_1_PutString
 4065              	.LVL595:
1264:main.c        ****                 UART_1_PutString(task_info[1]);
 4066              		.loc 1 1264 0
 4067 0652 04F11400 		add	r0, r4, #20
 4068 0656 FFF7FEFF 		bl	UART_1_PutString
 4069              	.LVL596:
1265:main.c        ****                 UART_1_PutString(task_info[2]);
 4070              		.loc 1 1265 0
 4071 065a 04F12800 		add	r0, r4, #40
 4072 065e FFF7FEFF 		bl	UART_1_PutString
 4073              	.LVL597:
1266:main.c        ****                 UART_1_PutString("Received  \n");
 4074              		.loc 1 1266 0
 4075 0662 0948     		ldr	r0, .L277+16
 4076 0664 FFF7FEFF 		bl	UART_1_PutString
 4077              	.LVL598:
 4078              	.L220:
1267:main.c        ****             }
1268:main.c        ****             i = 0;
 4079              		.loc 1 1268 0
 4080 0668 034B     		ldr	r3, .L277
 4081 066a 0022     		movs	r2, #0
 4082 066c DA64     		str	r2, [r3, #76]
1269:main.c        ****             j = 0;
 4083              		.loc 1 1269 0
 4084 066e C3F8AC21 		str	r2, [r3, #428]
1270:main.c        ****             stop_bt = 0;
 4085              		.loc 1 1270 0
 4086 0672 1A65     		str	r2, [r3, #80]
 4087 0674 4EE5     		b	.L218
 4088              	.L278:
 4089 0676 00BF     		.align	2
 4090              	.L277:
 4091 0678 00000000 		.word	.LANCHOR0
 4092 067c 00000000 		.word	task_info
 4093 0680 E4000000 		.word	.LC17
 4094 0684 00000000 		.word	tokenPtr
 4095 0688 E8000000 		.word	.LC18
 4096              		.cfi_endproc
 4097              	.LFE89:
ARM GAS  C:\Users\weiro\AppData\Local\Temp\ccglHz8v.s 			page 96


 4098              		.size	main, .-main
 4099              		.global	threshold
 4100              		.global	error_gyro_avg
 4101              		.global	error_gyro
 4102              		.global	count
 4103              		.global	cal
 4104              		.global	string_gyro
 4105              		.global	cycles
 4106              		.global	heading
 4107              		.global	current_reading
 4108              		.global	previous_reading
 4109              		.global	yaw_angle
 4110              		.global	yaw_rate
 4111              		.global	temp
 4112              		.global	array_1
 4113              		.global	j
 4114              		.comm	task_info,60,4
 4115              		.comm	tokenPtr,4,4
 4116              		.global	stop_bt
 4117              		.comm	string_bt,200,4
 4118              		.global	i
 4119              		.comm	Rx,1,1
 4120              		.global	close_small
 4121              		.global	open_small
 4122              		.global	up_big
 4123              		.global	down_big
 4124              		.global	slit_detected
 4125              		.global	wall_detected_10
 4126              		.global	color_detected
 4127              		.global	compare_ready
 4128              		.global	step
 4129              		.global	direction
 4130              		.global	y_coord
 4131              		.global	x_coord
 4132              		.global	echo_select
 4133              		.global	left_measured
 4134              		.comm	right_measured,8,8
 4135              		.comm	front_measured_2,8,8
 4136              		.comm	front_measured_1,8,8
 4137              		.global	ultrasonic_measure
 4138              		.global	ultrasonic_count
 4139              		.global	is_moving
 4140              		.global	PWM_Slave_puck
 4141              		.global	PWM_Master_puck
 4142              		.global	PWM_Slave
 4143              		.global	PWM_Cal
 4144              		.global	PWM_Master
 4145              		.global	K_d
 4146              		.global	K_i
 4147              		.global	K_p
 4148              		.global	timer_period
 4149              		.global	derivative_error
 4150              		.global	last_error
 4151              		.global	accumulated_error
 4152              		.global	error
 4153              		.comm	string_3,200,4
 4154              		.comm	string_2,200,4
ARM GAS  C:\Users\weiro\AppData\Local\Temp\ccglHz8v.s 			page 97


 4155              		.comm	string_1,200,4
 4156              		.global	Count_Slave
 4157              		.global	Count_Master
 4158              		.global	PT_TURN_COUNT
 4159              		.global	DISTANCE_PT_TURN
 4160              		.global	DISTANCE_BETW_WHEEL
 4161              		.global	CM_COUNT_CONV
 4162              		.global	COUNT_WHEEL
 4163              		.global	CS_count_Green
 4164              		.global	CS_count_Blue
 4165              		.global	CS_count_Red
 4166              		.global	WHEEL_CIRCUMFERENCE
 4167              		.global	WHEEL_DIAMETER
 4168              		.global	initial
 4169              		.data
 4170              		.align	3
 4171              		.set	.LANCHOR1,. + 0
 4172              		.type	K_p, %object
 4173              		.size	K_p, 8
 4174              	K_p:
 4175 0000 00000000 		.word	0
 4176 0004 00001440 		.word	1075052544
 4177              		.type	PWM_Master, %object
 4178              		.size	PWM_Master, 4
 4179              	PWM_Master:
 4180 0008 00409C46 		.word	1184645120
 4181              		.type	PWM_Slave, %object
 4182              		.size	PWM_Slave, 4
 4183              	PWM_Slave:
 4184 000c 00409C46 		.word	1184645120
 4185              		.type	cal, %object
 4186              		.size	cal, 4
 4187              	cal:
 4188 0010 01000000 		.word	1
 4189 0014 00000000 		.space	4
 4190              		.type	threshold, %object
 4191              		.size	threshold, 8
 4192              	threshold:
 4193 0018 9A999999 		.word	-1717986918
 4194 001c 9999B93F 		.word	1069128089
 4195              		.type	PWM_Cal, %object
 4196              		.size	PWM_Cal, 4
 4197              	PWM_Cal:
 4198 0020 00401C46 		.word	1176256512
 4199 0024 00000000 		.space	4
 4200              		.type	WHEEL_DIAMETER, %object
 4201              		.size	WHEEL_DIAMETER, 8
 4202              	WHEEL_DIAMETER:
 4203 0028 9A999999 		.word	-1717986918
 4204 002c 99991540 		.word	1075157401
 4205              		.type	down_big, %object
 4206              		.size	down_big, 4
 4207              	down_big:
 4208 0030 67020000 		.word	615
 4209              		.type	close_small, %object
 4210              		.size	close_small, 4
 4211              	close_small:
ARM GAS  C:\Users\weiro\AppData\Local\Temp\ccglHz8v.s 			page 98


 4212 0034 AC030000 		.word	940
 4213              		.type	up_big, %object
 4214              		.size	up_big, 4
 4215              	up_big:
 4216 0038 0D020000 		.word	525
 4217              		.type	open_small, %object
 4218              		.size	open_small, 4
 4219              	open_small:
 4220 003c D4030000 		.word	980
 4221              		.type	DISTANCE_BETW_WHEEL, %object
 4222              		.size	DISTANCE_BETW_WHEEL, 8
 4223              	DISTANCE_BETW_WHEEL:
 4224 0040 CDCCCCCC 		.word	-858993459
 4225 0044 CC4C3640 		.word	1077300428
 4226              		.type	COUNT_WHEEL, %object
 4227              		.size	COUNT_WHEEL, 8
 4228              	COUNT_WHEEL:
 4229 0048 00000000 		.word	0
 4230 004c 00A6AC40 		.word	1085056512
 4231              		.type	step, %object
 4232              		.size	step, 4
 4233              	step:
 4234 0050 FFFFFFFF 		.word	-1
 4235              		.type	PWM_Slave_puck, %object
 4236              		.size	PWM_Slave_puck, 4
 4237              	PWM_Slave_puck:
 4238 0054 00409C45 		.word	1167867904
 4239              		.type	PWM_Master_puck, %object
 4240              		.size	PWM_Master_puck, 4
 4241              	PWM_Master_puck:
 4242 0058 00409C45 		.word	1167867904
 4243 005c 00000000 		.space	4
 4244              		.type	timer_period, %object
 4245              		.size	timer_period, 8
 4246              	timer_period:
 4247 0060 00000000 		.word	0
 4248 0064 00001440 		.word	1075052544
 4249              		.section	.rodata.str1.4,"aMS",%progbits,1
 4250              		.align	2
 4251              	.LC0:
 4252 0000 46726F6E 		.ascii	"Front dist 1: %lf  \012\000"
 4252      74206469 
 4252      73742031 
 4252      3A20256C 
 4252      6620200A 
 4253 0015 000000   		.space	3
 4254              	.LC1:
 4255 0018 43616C69 		.ascii	"Calibrating\012\000"
 4255      62726174 
 4255      696E670A 
 4255      00
 4256 0025 000000   		.space	3
 4257              	.LC2:
 4258 0028 48656164 		.ascii	"Heading: %lf\012\000"
 4258      696E673A 
 4258      20256C66 
 4258      0A00
ARM GAS  C:\Users\weiro\AppData\Local\Temp\ccglHz8v.s 			page 99


 4259 0036 0000     		.space	2
 4260              	.LC3:
 4261 0038 6D6F7669 		.ascii	"moving to slit\000"
 4261      6E672074 
 4261      6F20736C 
 4261      697400
 4262 0047 00       		.space	1
 4263              	.LC4:
 4264 0048 7265643A 		.ascii	"red: %d\012\000"
 4264      2025640A 
 4264      00
 4265 0051 000000   		.space	3
 4266              	.LC5:
 4267 0054 67726565 		.ascii	"green: %d\012\000"
 4267      6E3A2025 
 4267      640A00
 4268 005f 00       		.space	1
 4269              	.LC6:
 4270 0060 626C7565 		.ascii	"blue: %d\012\000"
 4270      3A202564 
 4270      0A00
 4271 006a 0000     		.space	2
 4272              	.LC7:
 4273 006c 795F636F 		.ascii	"y_coord = %lf\012\000"
 4273      6F726420 
 4273      3D20256C 
 4273      660A00
 4274 007b 00       		.space	1
 4275              	.LC8:
 4276 007c 766F6C74 		.ascii	"volt(V): %lf\012\000"
 4276      2856293A 
 4276      20256C66 
 4276      0A00
 4277 008a 0000     		.space	2
 4278              	.LC9:
 4279 008c 64697374 		.ascii	"dist(cm): %lf\012\000"
 4279      28636D29 
 4279      3A20256C 
 4279      660A00
 4280 009b 00       		.space	1
 4281              	.LC10:
 4282 009c 52656420 		.ascii	"Red  \012\000"
 4282      200A00
 4283 00a3 00       		.space	1
 4284              	.LC11:
 4285 00a4 47726565 		.ascii	"Green  \012\000"
 4285      6E20200A 
 4285      00
 4286 00ad 000000   		.space	3
 4287              	.LC12:
 4288 00b0 426C7565 		.ascii	"Blue  \012\000"
 4288      20200A00 
 4289              	.LC13:
 4290 00b8 41726520 		.ascii	"Are you ready?\000"
 4290      796F7520 
 4290      72656164 
 4290      793F00
ARM GAS  C:\Users\weiro\AppData\Local\Temp\ccglHz8v.s 			page 100


 4291 00c7 00       		.space	1
 4292              	.LC14:
 4293 00c8 52656164 		.ascii	"Ready  \012\000"
 4293      7920200A 
 4293      00
 4294 00d1 000000   		.space	3
 4295              	.LC15:
 4296 00d4 53746172 		.ascii	"Start\000"
 4296      7400
 4297 00da 0000     		.space	2
 4298              	.LC16:
 4299 00dc 73746570 		.ascii	"step 2\000"
 4299      203200
 4300 00e3 00       		.space	1
 4301              	.LC17:
 4302 00e4 2000     		.ascii	" \000"
 4303 00e6 0000     		.space	2
 4304              	.LC18:
 4305 00e8 52656365 		.ascii	"Received  \012\000"
 4305      69766564 
 4305      20200A00 
 4306              		.bss
 4307              		.align	3
 4308              		.set	.LANCHOR0,. + 0
 4309              		.type	is_moving, %object
 4310              		.size	is_moving, 4
 4311              	is_moving:
 4312 0000 00000000 		.space	4
 4313              		.type	Count_Master, %object
 4314              		.size	Count_Master, 4
 4315              	Count_Master:
 4316 0004 00000000 		.space	4
 4317              		.type	Count_Slave, %object
 4318              		.size	Count_Slave, 4
 4319              	Count_Slave:
 4320 0008 00000000 		.space	4
 4321 000c 00000000 		.space	4
 4322              		.type	error, %object
 4323              		.size	error, 8
 4324              	error:
 4325 0010 00000000 		.space	8
 4325      00000000 
 4326              		.type	last_error, %object
 4327              		.size	last_error, 8
 4328              	last_error:
 4329 0018 00000000 		.space	8
 4329      00000000 
 4330              		.type	ultrasonic_count, %object
 4331              		.size	ultrasonic_count, 4
 4332              	ultrasonic_count:
 4333 0020 00000000 		.space	4
 4334 0024 00000000 		.space	4
 4335              		.type	ultrasonic_measure, %object
 4336              		.size	ultrasonic_measure, 8
 4337              	ultrasonic_measure:
 4338 0028 00000000 		.space	8
 4338      00000000 
ARM GAS  C:\Users\weiro\AppData\Local\Temp\ccglHz8v.s 			page 101


 4339              		.type	echo_select, %object
 4340              		.size	echo_select, 4
 4341              	echo_select:
 4342 0030 00000000 		.space	4
 4343 0034 00000000 		.space	4
 4344              		.type	left_measured, %object
 4345              		.size	left_measured, 8
 4346              	left_measured:
 4347 0038 00000000 		.space	8
 4347      00000000 
 4348              		.type	wall_detected_10, %object
 4349              		.size	wall_detected_10, 4
 4350              	wall_detected_10:
 4351 0040 00000000 		.space	4
 4352              		.type	slit_detected, %object
 4353              		.size	slit_detected, 4
 4354              	slit_detected:
 4355 0044 00000000 		.space	4
 4356              		.type	compare_ready, %object
 4357              		.size	compare_ready, 4
 4358              	compare_ready:
 4359 0048 00000000 		.space	4
 4360              		.type	i, %object
 4361              		.size	i, 4
 4362              	i:
 4363 004c 00000000 		.space	4
 4364              		.type	stop_bt, %object
 4365              		.size	stop_bt, 4
 4366              	stop_bt:
 4367 0050 00000000 		.space	4
 4368              		.type	array_1, %object
 4369              		.size	array_1, 6
 4370              	array_1:
 4371 0054 00000000 		.space	6
 4371      0000
 4372              		.type	temp, %object
 4373              		.size	temp, 2
 4374              	temp:
 4375 005a 0000     		.space	2
 4376              		.type	count, %object
 4377              		.size	count, 4
 4378              	count:
 4379 005c 00000000 		.space	4
 4380              		.type	error_gyro, %object
 4381              		.size	error_gyro, 2
 4382              	error_gyro:
 4383 0060 0000     		.space	2
 4384              		.type	error_gyro_avg, %object
 4385              		.size	error_gyro_avg, 2
 4386              	error_gyro_avg:
 4387 0062 0000     		.space	2
 4388 0064 00000000 		.space	4
 4389              		.type	yaw_rate, %object
 4390              		.size	yaw_rate, 8
 4391              	yaw_rate:
 4392 0068 00000000 		.space	8
 4392      00000000 
ARM GAS  C:\Users\weiro\AppData\Local\Temp\ccglHz8v.s 			page 102


 4393              		.type	current_reading, %object
 4394              		.size	current_reading, 8
 4395              	current_reading:
 4396 0070 00000000 		.space	8
 4396      00000000 
 4397              		.type	previous_reading, %object
 4398              		.size	previous_reading, 8
 4399              	previous_reading:
 4400 0078 00000000 		.space	8
 4400      00000000 
 4401              		.type	yaw_angle, %object
 4402              		.size	yaw_angle, 8
 4403              	yaw_angle:
 4404 0080 00000000 		.space	8
 4404      00000000 
 4405              		.type	cycles, %object
 4406              		.size	cycles, 4
 4407              	cycles:
 4408 0088 00000000 		.space	4
 4409 008c 00000000 		.space	4
 4410              		.type	heading, %object
 4411              		.size	heading, 8
 4412              	heading:
 4413 0090 00000000 		.space	8
 4413      00000000 
 4414              		.type	string_gyro, %object
 4415              		.size	string_gyro, 200
 4416              	string_gyro:
 4417 0098 00000000 		.space	200
 4417      00000000 
 4417      00000000 
 4417      00000000 
 4417      00000000 
 4418              		.type	direction, %object
 4419              		.size	direction, 4
 4420              	direction:
 4421 0160 00000000 		.space	4
 4422 0164 00000000 		.space	4
 4423              		.type	CM_COUNT_CONV, %object
 4424              		.size	CM_COUNT_CONV, 8
 4425              	CM_COUNT_CONV:
 4426 0168 00000000 		.space	8
 4426      00000000 
 4427              		.type	y_coord, %object
 4428              		.size	y_coord, 8
 4429              	y_coord:
 4430 0170 00000000 		.space	8
 4430      00000000 
 4431              		.type	x_coord, %object
 4432              		.size	x_coord, 8
 4433              	x_coord:
 4434 0178 00000000 		.space	8
 4434      00000000 
 4435              		.type	CS_count_Red, %object
 4436              		.size	CS_count_Red, 4
 4437              	CS_count_Red:
 4438 0180 00000000 		.space	4
ARM GAS  C:\Users\weiro\AppData\Local\Temp\ccglHz8v.s 			page 103


 4439              		.type	CS_count_Green, %object
 4440              		.size	CS_count_Green, 4
 4441              	CS_count_Green:
 4442 0184 00000000 		.space	4
 4443              		.type	CS_count_Blue, %object
 4444              		.size	CS_count_Blue, 4
 4445              	CS_count_Blue:
 4446 0188 00000000 		.space	4
 4447              		.type	color_detected, %object
 4448              		.size	color_detected, 4
 4449              	color_detected:
 4450 018c 00000000 		.space	4
 4451              		.type	PT_TURN_COUNT, %object
 4452              		.size	PT_TURN_COUNT, 8
 4453              	PT_TURN_COUNT:
 4454 0190 00000000 		.space	8
 4454      00000000 
 4455              		.type	WHEEL_CIRCUMFERENCE, %object
 4456              		.size	WHEEL_CIRCUMFERENCE, 8
 4457              	WHEEL_CIRCUMFERENCE:
 4458 0198 00000000 		.space	8
 4458      00000000 
 4459              		.type	DISTANCE_PT_TURN, %object
 4460              		.size	DISTANCE_PT_TURN, 8
 4461              	DISTANCE_PT_TURN:
 4462 01a0 00000000 		.space	8
 4462      00000000 
 4463              		.type	initial, %object
 4464              		.size	initial, 4
 4465              	initial:
 4466 01a8 00000000 		.space	4
 4467              		.type	j, %object
 4468              		.size	j, 4
 4469              	j:
 4470 01ac 00000000 		.space	4
 4471              		.type	K_d, %object
 4472              		.size	K_d, 8
 4473              	K_d:
 4474 01b0 00000000 		.space	8
 4474      00000000 
 4475              		.type	K_i, %object
 4476              		.size	K_i, 8
 4477              	K_i:
 4478 01b8 00000000 		.space	8
 4478      00000000 
 4479              		.type	derivative_error, %object
 4480              		.size	derivative_error, 8
 4481              	derivative_error:
 4482 01c0 00000000 		.space	8
 4482      00000000 
 4483              		.type	accumulated_error, %object
 4484              		.size	accumulated_error, 8
 4485              	accumulated_error:
 4486 01c8 00000000 		.space	8
 4486      00000000 
 4487              		.text
 4488              	.Letext0:
ARM GAS  C:\Users\weiro\AppData\Local\Temp\ccglHz8v.s 			page 104


 4489              		.file 2 "c:\\program files (x86)\\cypress\\psoc creator\\4.4\\psoc creator\\import\\gnu\\arm\\5.4.
 4490              		.file 3 "c:\\program files (x86)\\cypress\\psoc creator\\4.4\\psoc creator\\import\\gnu\\arm\\5.4.
 4491              		.file 4 "Generated_Source\\PSoC5/cytypes.h"
 4492              		.file 5 "Generated_Source\\PSoC5/core_cm3.h"
 4493              		.file 6 "Generated_Source\\PSoC5/PWM_Wheels.h"
 4494              		.file 7 "Generated_Source\\PSoC5/Timer_3.h"
 4495              		.file 8 "c:\\program files (x86)\\cypress\\psoc creator\\4.4\\psoc creator\\import\\gnu\\arm\\5.4.
 4496              		.file 9 "Generated_Source\\PSoC5/PWM_ColorSensor.h"
 4497              		.file 10 "Generated_Source\\PSoC5/UART_1.h"
 4498              		.file 11 "Generated_Source\\PSoC5/Timer_2.h"
 4499              		.file 12 "Generated_Source\\PSoC5/I2C_1.h"
 4500              		.file 13 "Generated_Source\\PSoC5/CyLib.h"
 4501              		.file 14 "Generated_Source\\PSoC5/Motor_1_IN_1.h"
 4502              		.file 15 "Generated_Source\\PSoC5/Motor_1_IN_2.h"
 4503              		.file 16 "Generated_Source\\PSoC5/Motor_2_IN_3.h"
 4504              		.file 17 "Generated_Source\\PSoC5/Motor_2_IN_4.h"
 4505              		.file 18 "Generated_Source\\PSoC5/QuadDec_1.h"
 4506              		.file 19 "Generated_Source\\PSoC5/QuadDec_2.h"
 4507              		.file 20 "Generated_Source\\PSoC5/Control_Reg_2.h"
 4508              		.file 21 "Generated_Source\\PSoC5/Trigger.h"
 4509              		.file 22 "Generated_Source\\PSoC5/Left_Echo.h"
 4510              		.file 23 "Generated_Source\\PSoC5/IR_input.h"
 4511              		.file 24 "Generated_Source\\PSoC5/S0.h"
 4512              		.file 25 "Generated_Source\\PSoC5/S1.h"
 4513              		.file 26 "Generated_Source\\PSoC5/CS_LED.h"
 4514              		.file 27 "Generated_Source\\PSoC5/Counter_ColorSensor.h"
 4515              		.file 28 "Generated_Source\\PSoC5/S2.h"
 4516              		.file 29 "Generated_Source\\PSoC5/S3.h"
 4517              		.file 30 "Generated_Source\\PSoC5/Control_Reg_1.h"
 4518              		.file 31 "Generated_Source\\PSoC5/led_red.h"
 4519              		.file 32 "Generated_Source\\PSoC5/led_green.h"
 4520              		.file 33 "Generated_Source\\PSoC5/led_blue.h"
 4521              		.file 34 "Generated_Source\\PSoC5/Front_Echo_2.h"
 4522              		.file 35 "Generated_Source\\PSoC5/ADC_SAR_1.h"
 4523              		.file 36 "Generated_Source\\PSoC5/PWM_BigServo.h"
 4524              		.file 37 "Generated_Source\\PSoC5/PWM_SmallServo.h"
 4525              		.file 38 "Generated_Source\\PSoC5/isr_1.h"
 4526              		.file 39 "Generated_Source\\PSoC5/isr_6.h"
 4527              		.file 40 "Generated_Source\\PSoC5/Timer_1.h"
 4528              		.file 41 "Generated_Source\\PSoC5/isr_3.h"
 4529              		.file 42 "Generated_Source\\PSoC5/isr_7.h"
 4530              		.file 43 "Generated_Source\\PSoC5/isr_2.h"
 4531              		.file 44 "c:\\program files (x86)\\cypress\\psoc creator\\4.4\\psoc creator\\import\\gnu\\arm\\5.4
 4532              		.file 45 "c:\\program files (x86)\\cypress\\psoc creator\\4.4\\psoc creator\\import\\gnu\\arm\\5.4
 4533              		.section	.debug_info,"",%progbits
 4534              	.Ldebug_info0:
 4535 0000 62270000 		.4byte	0x2762
 4536 0004 0400     		.2byte	0x4
 4537 0006 00000000 		.4byte	.Ldebug_abbrev0
 4538 000a 04       		.byte	0x4
 4539 000b 01       		.uleb128 0x1
 4540 000c 5A030000 		.4byte	.LASF192
 4541 0010 0C       		.byte	0xc
 4542 0011 4F000000 		.4byte	.LASF193
 4543 0015 3A0A0000 		.4byte	.LASF194
 4544 0019 30000000 		.4byte	.Ldebug_ranges0+0x30
 4545 001d 00000000 		.4byte	0
ARM GAS  C:\Users\weiro\AppData\Local\Temp\ccglHz8v.s 			page 105


 4546 0021 00000000 		.4byte	.Ldebug_line0
 4547 0025 02       		.uleb128 0x2
 4548 0026 08       		.byte	0x8
 4549 0027 04       		.byte	0x4
 4550 0028 030B0000 		.4byte	.LASF0
 4551 002c 02       		.uleb128 0x2
 4552 002d 01       		.byte	0x1
 4553 002e 06       		.byte	0x6
 4554 002f 950A0000 		.4byte	.LASF1
 4555 0033 02       		.uleb128 0x2
 4556 0034 01       		.byte	0x1
 4557 0035 08       		.byte	0x8
 4558 0036 6A090000 		.4byte	.LASF2
 4559 003a 02       		.uleb128 0x2
 4560 003b 02       		.byte	0x2
 4561 003c 05       		.byte	0x5
 4562 003d 36070000 		.4byte	.LASF3
 4563 0041 02       		.uleb128 0x2
 4564 0042 02       		.byte	0x2
 4565 0043 07       		.byte	0x7
 4566 0044 A10A0000 		.4byte	.LASF4
 4567 0048 03       		.uleb128 0x3
 4568 0049 1C010000 		.4byte	.LASF10
 4569 004d 02       		.byte	0x2
 4570 004e 3F       		.byte	0x3f
 4571 004f 53000000 		.4byte	0x53
 4572 0053 02       		.uleb128 0x2
 4573 0054 04       		.byte	0x4
 4574 0055 05       		.byte	0x5
 4575 0056 60070000 		.4byte	.LASF5
 4576 005a 02       		.uleb128 0x2
 4577 005b 04       		.byte	0x4
 4578 005c 07       		.byte	0x7
 4579 005d E6080000 		.4byte	.LASF6
 4580 0061 02       		.uleb128 0x2
 4581 0062 08       		.byte	0x8
 4582 0063 05       		.byte	0x5
 4583 0064 B2050000 		.4byte	.LASF7
 4584 0068 02       		.uleb128 0x2
 4585 0069 08       		.byte	0x8
 4586 006a 07       		.byte	0x7
 4587 006b C3020000 		.4byte	.LASF8
 4588 006f 04       		.uleb128 0x4
 4589 0070 04       		.byte	0x4
 4590 0071 05       		.byte	0x5
 4591 0072 696E7400 		.ascii	"int\000"
 4592 0076 02       		.uleb128 0x2
 4593 0077 04       		.byte	0x4
 4594 0078 07       		.byte	0x7
 4595 0079 F6000000 		.4byte	.LASF9
 4596 007d 03       		.uleb128 0x3
 4597 007e 33090000 		.4byte	.LASF11
 4598 0082 03       		.byte	0x3
 4599 0083 2C       		.byte	0x2c
 4600 0084 48000000 		.4byte	0x48
 4601 0088 05       		.uleb128 0x5
 4602 0089 FD0A0000 		.4byte	.LASF12
ARM GAS  C:\Users\weiro\AppData\Local\Temp\ccglHz8v.s 			page 106


 4603 008d 04       		.byte	0x4
 4604 008e E801     		.2byte	0x1e8
 4605 0090 33000000 		.4byte	0x33
 4606 0094 05       		.uleb128 0x5
 4607 0095 26010000 		.4byte	.LASF13
 4608 0099 04       		.byte	0x4
 4609 009a EC01     		.2byte	0x1ec
 4610 009c 3A000000 		.4byte	0x3a
 4611 00a0 02       		.uleb128 0x2
 4612 00a1 04       		.byte	0x4
 4613 00a2 04       		.byte	0x4
 4614 00a3 61020000 		.4byte	.LASF14
 4615 00a7 02       		.uleb128 0x2
 4616 00a8 01       		.byte	0x1
 4617 00a9 08       		.byte	0x8
 4618 00aa 2A050000 		.4byte	.LASF15
 4619 00ae 02       		.uleb128 0x2
 4620 00af 08       		.byte	0x8
 4621 00b0 04       		.byte	0x4
 4622 00b1 B4060000 		.4byte	.LASF16
 4623 00b5 02       		.uleb128 0x2
 4624 00b6 04       		.byte	0x4
 4625 00b7 07       		.byte	0x7
 4626 00b8 CF080000 		.4byte	.LASF17
 4627 00bc 06       		.uleb128 0x6
 4628 00bd 04       		.byte	0x4
 4629 00be A7000000 		.4byte	0xa7
 4630 00c2 07       		.uleb128 0x7
 4631 00c3 03010000 		.4byte	.LASF18
 4632 00c7 01       		.byte	0x1
 4633 00c8 5C       		.byte	0x5c
 4634 00c9 00000000 		.4byte	.LFB64
 4635 00cd 78000000 		.4byte	.LFE64-.LFB64
 4636 00d1 01       		.uleb128 0x1
 4637 00d2 9C       		.byte	0x9c
 4638 00d3 E1000000 		.4byte	0xe1
 4639 00d7 08       		.uleb128 0x8
 4640 00d8 5C000000 		.4byte	.LVL7
 4641 00dc 77240000 		.4byte	0x2477
 4642 00e0 00       		.byte	0
 4643 00e1 07       		.uleb128 0x7
 4644 00e2 4B060000 		.4byte	.LASF19
 4645 00e6 01       		.byte	0x1
 4646 00e7 74       		.byte	0x74
 4647 00e8 00000000 		.4byte	.LFB65
 4648 00ec E4000000 		.4byte	.LFE65-.LFB65
 4649 00f0 01       		.uleb128 0x1
 4650 00f1 9C       		.byte	0x9c
 4651 00f2 47010000 		.4byte	0x147
 4652 00f6 09       		.uleb128 0x9
 4653 00f7 21020000 		.4byte	.LASF47
 4654 00fb 01       		.byte	0x1
 4655 00fc 7A       		.byte	0x7a
 4656 00fd 6F000000 		.4byte	0x6f
 4657 0101 07010000 		.4byte	0x107
 4658 0105 0A       		.uleb128 0xa
 4659 0106 00       		.byte	0
ARM GAS  C:\Users\weiro\AppData\Local\Temp\ccglHz8v.s 			page 107


 4660 0107 08       		.uleb128 0x8
 4661 0108 06000000 		.4byte	.LVL8
 4662 010c 82240000 		.4byte	0x2482
 4663 0110 08       		.uleb128 0x8
 4664 0111 0A000000 		.4byte	.LVL9
 4665 0115 8D240000 		.4byte	0x248d
 4666 0119 0B       		.uleb128 0xb
 4667 011a 38000000 		.4byte	.LVL11
 4668 011e 98240000 		.4byte	0x2498
 4669 0122 36010000 		.4byte	0x136
 4670 0126 0C       		.uleb128 0xc
 4671 0127 01       		.uleb128 0x1
 4672 0128 50       		.byte	0x50
 4673 0129 02       		.uleb128 0x2
 4674 012a 75       		.byte	0x75
 4675 012b 00       		.sleb128 0
 4676 012c 0C       		.uleb128 0xc
 4677 012d 01       		.uleb128 0x1
 4678 012e 51       		.byte	0x51
 4679 012f 05       		.uleb128 0x5
 4680 0130 03       		.byte	0x3
 4681 0131 00000000 		.4byte	.LC0
 4682 0135 00       		.byte	0
 4683 0136 0D       		.uleb128 0xd
 4684 0137 3E000000 		.4byte	.LVL12
 4685 013b A3240000 		.4byte	0x24a3
 4686 013f 0C       		.uleb128 0xc
 4687 0140 01       		.uleb128 0x1
 4688 0141 50       		.byte	0x50
 4689 0142 02       		.uleb128 0x2
 4690 0143 75       		.byte	0x75
 4691 0144 00       		.sleb128 0
 4692 0145 00       		.byte	0
 4693 0146 00       		.byte	0
 4694 0147 0E       		.uleb128 0xe
 4695 0148 6A060000 		.4byte	.LASF20
 4696 014c 01       		.byte	0x1
 4697 014d A4       		.byte	0xa4
 4698 014e 00000000 		.4byte	.LFB66
 4699 0152 14000000 		.4byte	.LFE66-.LFB66
 4700 0156 01       		.uleb128 0x1
 4701 0157 9C       		.byte	0x9c
 4702 0158 66010000 		.4byte	0x166
 4703 015c 08       		.uleb128 0x8
 4704 015d 06000000 		.4byte	.LVL15
 4705 0161 AE240000 		.4byte	0x24ae
 4706 0165 00       		.byte	0
 4707 0166 0E       		.uleb128 0xe
 4708 0167 190B0000 		.4byte	.LASF21
 4709 016b 01       		.byte	0x1
 4710 016c AB       		.byte	0xab
 4711 016d 00000000 		.4byte	.LFB67
 4712 0171 38000000 		.4byte	.LFE67-.LFB67
 4713 0175 01       		.uleb128 0x1
 4714 0176 9C       		.byte	0x9c
 4715 0177 85010000 		.4byte	0x185
 4716 017b 08       		.uleb128 0x8
ARM GAS  C:\Users\weiro\AppData\Local\Temp\ccglHz8v.s 			page 108


 4717 017c 06000000 		.4byte	.LVL16
 4718 0180 B9240000 		.4byte	0x24b9
 4719 0184 00       		.byte	0
 4720 0185 07       		.uleb128 0x7
 4721 0186 8E060000 		.4byte	.LASF22
 4722 018a 01       		.byte	0x1
 4723 018b BA       		.byte	0xba
 4724 018c 00000000 		.4byte	.LFB68
 4725 0190 58020000 		.4byte	.LFE68-.LFB68
 4726 0194 01       		.uleb128 0x1
 4727 0195 9C       		.byte	0x9c
 4728 0196 09030000 		.4byte	0x309
 4729 019a 08       		.uleb128 0x8
 4730 019b 08000000 		.4byte	.LVL17
 4731 019f C4240000 		.4byte	0x24c4
 4732 01a3 0B       		.uleb128 0xb
 4733 01a4 10000000 		.4byte	.LVL18
 4734 01a8 CF240000 		.4byte	0x24cf
 4735 01ac BC010000 		.4byte	0x1bc
 4736 01b0 0C       		.uleb128 0xc
 4737 01b1 01       		.uleb128 0x1
 4738 01b2 50       		.byte	0x50
 4739 01b3 02       		.uleb128 0x2
 4740 01b4 08       		.byte	0x8
 4741 01b5 68       		.byte	0x68
 4742 01b6 0C       		.uleb128 0xc
 4743 01b7 01       		.uleb128 0x1
 4744 01b8 51       		.byte	0x51
 4745 01b9 01       		.uleb128 0x1
 4746 01ba 30       		.byte	0x30
 4747 01bb 00       		.byte	0
 4748 01bc 0B       		.uleb128 0xb
 4749 01bd 16000000 		.4byte	.LVL19
 4750 01c1 DA240000 		.4byte	0x24da
 4751 01c5 D0010000 		.4byte	0x1d0
 4752 01c9 0C       		.uleb128 0xc
 4753 01ca 01       		.uleb128 0x1
 4754 01cb 50       		.byte	0x50
 4755 01cc 02       		.uleb128 0x2
 4756 01cd 08       		.byte	0x8
 4757 01ce 43       		.byte	0x43
 4758 01cf 00       		.byte	0
 4759 01d0 08       		.uleb128 0x8
 4760 01d1 1A000000 		.4byte	.LVL20
 4761 01d5 E5240000 		.4byte	0x24e5
 4762 01d9 0B       		.uleb128 0xb
 4763 01da 20000000 		.4byte	.LVL21
 4764 01de F0240000 		.4byte	0x24f0
 4765 01e2 EC010000 		.4byte	0x1ec
 4766 01e6 0C       		.uleb128 0xc
 4767 01e7 01       		.uleb128 0x1
 4768 01e8 50       		.byte	0x50
 4769 01e9 01       		.uleb128 0x1
 4770 01ea 31       		.byte	0x31
 4771 01eb 00       		.byte	0
 4772 01ec 0B       		.uleb128 0xb
 4773 01ed 28000000 		.4byte	.LVL22
ARM GAS  C:\Users\weiro\AppData\Local\Temp\ccglHz8v.s 			page 109


 4774 01f1 CF240000 		.4byte	0x24cf
 4775 01f5 05020000 		.4byte	0x205
 4776 01f9 0C       		.uleb128 0xc
 4777 01fa 01       		.uleb128 0x1
 4778 01fb 50       		.byte	0x50
 4779 01fc 02       		.uleb128 0x2
 4780 01fd 08       		.byte	0x8
 4781 01fe 68       		.byte	0x68
 4782 01ff 0C       		.uleb128 0xc
 4783 0200 01       		.uleb128 0x1
 4784 0201 51       		.byte	0x51
 4785 0202 01       		.uleb128 0x1
 4786 0203 31       		.byte	0x31
 4787 0204 00       		.byte	0
 4788 0205 0B       		.uleb128 0xb
 4789 0206 2E000000 		.4byte	.LVL23
 4790 020a FB240000 		.4byte	0x24fb
 4791 020e 18020000 		.4byte	0x218
 4792 0212 0C       		.uleb128 0xc
 4793 0213 01       		.uleb128 0x1
 4794 0214 50       		.byte	0x50
 4795 0215 01       		.uleb128 0x1
 4796 0216 31       		.byte	0x31
 4797 0217 00       		.byte	0
 4798 0218 0B       		.uleb128 0xb
 4799 0219 3A000000 		.4byte	.LVL24
 4800 021d FB240000 		.4byte	0x24fb
 4801 0221 2B020000 		.4byte	0x22b
 4802 0225 0C       		.uleb128 0xc
 4803 0226 01       		.uleb128 0x1
 4804 0227 50       		.byte	0x50
 4805 0228 01       		.uleb128 0x1
 4806 0229 31       		.byte	0x31
 4807 022a 00       		.byte	0
 4808 022b 0B       		.uleb128 0xb
 4809 022c 44000000 		.4byte	.LVL25
 4810 0230 FB240000 		.4byte	0x24fb
 4811 0234 3E020000 		.4byte	0x23e
 4812 0238 0C       		.uleb128 0xc
 4813 0239 01       		.uleb128 0x1
 4814 023a 50       		.byte	0x50
 4815 023b 01       		.uleb128 0x1
 4816 023c 31       		.byte	0x31
 4817 023d 00       		.byte	0
 4818 023e 0B       		.uleb128 0xb
 4819 023f 4E000000 		.4byte	.LVL26
 4820 0243 FB240000 		.4byte	0x24fb
 4821 0247 51020000 		.4byte	0x251
 4822 024b 0C       		.uleb128 0xc
 4823 024c 01       		.uleb128 0x1
 4824 024d 50       		.byte	0x50
 4825 024e 01       		.uleb128 0x1
 4826 024f 31       		.byte	0x31
 4827 0250 00       		.byte	0
 4828 0251 0B       		.uleb128 0xb
 4829 0252 58000000 		.4byte	.LVL27
 4830 0256 FB240000 		.4byte	0x24fb
ARM GAS  C:\Users\weiro\AppData\Local\Temp\ccglHz8v.s 			page 110


 4831 025a 64020000 		.4byte	0x264
 4832 025e 0C       		.uleb128 0xc
 4833 025f 01       		.uleb128 0x1
 4834 0260 50       		.byte	0x50
 4835 0261 01       		.uleb128 0x1
 4836 0262 31       		.byte	0x31
 4837 0263 00       		.byte	0
 4838 0264 0B       		.uleb128 0xb
 4839 0265 62000000 		.4byte	.LVL28
 4840 0269 FB240000 		.4byte	0x24fb
 4841 026d 77020000 		.4byte	0x277
 4842 0271 0C       		.uleb128 0xc
 4843 0272 01       		.uleb128 0x1
 4844 0273 50       		.byte	0x50
 4845 0274 01       		.uleb128 0x1
 4846 0275 30       		.byte	0x30
 4847 0276 00       		.byte	0
 4848 0277 08       		.uleb128 0x8
 4849 0278 6A000000 		.4byte	.LVL29
 4850 027c E5240000 		.4byte	0x24e5
 4851 0280 0B       		.uleb128 0xb
 4852 0281 70000000 		.4byte	.LVL30
 4853 0285 F0240000 		.4byte	0x24f0
 4854 0289 93020000 		.4byte	0x293
 4855 028d 0C       		.uleb128 0xc
 4856 028e 01       		.uleb128 0x1
 4857 028f 50       		.byte	0x50
 4858 0290 01       		.uleb128 0x1
 4859 0291 31       		.byte	0x31
 4860 0292 00       		.byte	0
 4861 0293 0B       		.uleb128 0xb
 4862 0294 96000000 		.4byte	.LVL31
 4863 0298 06250000 		.4byte	0x2506
 4864 029c AA020000 		.4byte	0x2aa
 4865 02a0 0C       		.uleb128 0xc
 4866 02a1 01       		.uleb128 0x1
 4867 02a2 50       		.byte	0x50
 4868 02a3 05       		.uleb128 0x5
 4869 02a4 03       		.byte	0x3
 4870 02a5 18000000 		.4byte	.LC1
 4871 02a9 00       		.byte	0
 4872 02aa 0B       		.uleb128 0xb
 4873 02ab 02020000 		.4byte	.LVL48
 4874 02af 98240000 		.4byte	0x2498
 4875 02b3 C7020000 		.4byte	0x2c7
 4876 02b7 0C       		.uleb128 0xc
 4877 02b8 01       		.uleb128 0x1
 4878 02b9 50       		.byte	0x50
 4879 02ba 02       		.uleb128 0x2
 4880 02bb 74       		.byte	0x74
 4881 02bc 00       		.sleb128 0
 4882 02bd 0C       		.uleb128 0xc
 4883 02be 01       		.uleb128 0x1
 4884 02bf 51       		.byte	0x51
 4885 02c0 05       		.uleb128 0x5
 4886 02c1 03       		.byte	0x3
 4887 02c2 28000000 		.4byte	.LC2
ARM GAS  C:\Users\weiro\AppData\Local\Temp\ccglHz8v.s 			page 111


 4888 02c6 00       		.byte	0
 4889 02c7 0B       		.uleb128 0xb
 4890 02c8 08020000 		.4byte	.LVL49
 4891 02cc 06250000 		.4byte	0x2506
 4892 02d0 DB020000 		.4byte	0x2db
 4893 02d4 0C       		.uleb128 0xc
 4894 02d5 01       		.uleb128 0x1
 4895 02d6 50       		.byte	0x50
 4896 02d7 02       		.uleb128 0x2
 4897 02d8 74       		.byte	0x74
 4898 02d9 00       		.sleb128 0
 4899 02da 00       		.byte	0
 4900 02db 0B       		.uleb128 0xb
 4901 02dc 22020000 		.4byte	.LVL50
 4902 02e0 98240000 		.4byte	0x2498
 4903 02e4 F8020000 		.4byte	0x2f8
 4904 02e8 0C       		.uleb128 0xc
 4905 02e9 01       		.uleb128 0x1
 4906 02ea 50       		.byte	0x50
 4907 02eb 02       		.uleb128 0x2
 4908 02ec 74       		.byte	0x74
 4909 02ed 00       		.sleb128 0
 4910 02ee 0C       		.uleb128 0xc
 4911 02ef 01       		.uleb128 0x1
 4912 02f0 51       		.byte	0x51
 4913 02f1 05       		.uleb128 0x5
 4914 02f2 03       		.byte	0x3
 4915 02f3 28000000 		.4byte	.LC2
 4916 02f7 00       		.byte	0
 4917 02f8 0D       		.uleb128 0xd
 4918 02f9 28020000 		.4byte	.LVL51
 4919 02fd 06250000 		.4byte	0x2506
 4920 0301 0C       		.uleb128 0xc
 4921 0302 01       		.uleb128 0x1
 4922 0303 50       		.byte	0x50
 4923 0304 02       		.uleb128 0x2
 4924 0305 74       		.byte	0x74
 4925 0306 00       		.sleb128 0
 4926 0307 00       		.byte	0
 4927 0308 00       		.byte	0
 4928 0309 0F       		.uleb128 0xf
 4929 030a 4B020000 		.4byte	.LASF23
 4930 030e 01       		.byte	0x1
 4931 030f 1301     		.2byte	0x113
 4932 0311 00000000 		.4byte	.LFB69
 4933 0315 28000000 		.4byte	.LFE69-.LFB69
 4934 0319 01       		.uleb128 0x1
 4935 031a 9C       		.byte	0x9c
 4936 031b 6C030000 		.4byte	0x36c
 4937 031f 0B       		.uleb128 0xb
 4938 0320 0E000000 		.4byte	.LVL52
 4939 0324 11250000 		.4byte	0x2511
 4940 0328 33030000 		.4byte	0x333
 4941 032c 0C       		.uleb128 0xc
 4942 032d 01       		.uleb128 0x1
 4943 032e 50       		.byte	0x50
 4944 032f 02       		.uleb128 0x2
ARM GAS  C:\Users\weiro\AppData\Local\Temp\ccglHz8v.s 			page 112


 4945 0330 74       		.byte	0x74
 4946 0331 00       		.sleb128 0
 4947 0332 00       		.byte	0
 4948 0333 0B       		.uleb128 0xb
 4949 0334 14000000 		.4byte	.LVL53
 4950 0338 1C250000 		.4byte	0x251c
 4951 033c 47030000 		.4byte	0x347
 4952 0340 0C       		.uleb128 0xc
 4953 0341 01       		.uleb128 0x1
 4954 0342 50       		.byte	0x50
 4955 0343 02       		.uleb128 0x2
 4956 0344 74       		.byte	0x74
 4957 0345 00       		.sleb128 0
 4958 0346 00       		.byte	0
 4959 0347 0B       		.uleb128 0xb
 4960 0348 1A000000 		.4byte	.LVL54
 4961 034c 27250000 		.4byte	0x2527
 4962 0350 5B030000 		.4byte	0x35b
 4963 0354 0C       		.uleb128 0xc
 4964 0355 01       		.uleb128 0x1
 4965 0356 50       		.byte	0x50
 4966 0357 02       		.uleb128 0x2
 4967 0358 74       		.byte	0x74
 4968 0359 00       		.sleb128 0
 4969 035a 00       		.byte	0
 4970 035b 0D       		.uleb128 0xd
 4971 035c 20000000 		.4byte	.LVL55
 4972 0360 32250000 		.4byte	0x2532
 4973 0364 0C       		.uleb128 0xc
 4974 0365 01       		.uleb128 0x1
 4975 0366 50       		.byte	0x50
 4976 0367 02       		.uleb128 0x2
 4977 0368 74       		.byte	0x74
 4978 0369 00       		.sleb128 0
 4979 036a 00       		.byte	0
 4980 036b 00       		.byte	0
 4981 036c 0F       		.uleb128 0xf
 4982 036d 3E060000 		.4byte	.LASF24
 4983 0371 01       		.byte	0x1
 4984 0372 1C01     		.2byte	0x11c
 4985 0374 00000000 		.4byte	.LFB70
 4986 0378 28000000 		.4byte	.LFE70-.LFB70
 4987 037c 01       		.uleb128 0x1
 4988 037d 9C       		.byte	0x9c
 4989 037e CD030000 		.4byte	0x3cd
 4990 0382 0B       		.uleb128 0xb
 4991 0383 0E000000 		.4byte	.LVL56
 4992 0387 11250000 		.4byte	0x2511
 4993 038b 95030000 		.4byte	0x395
 4994 038f 0C       		.uleb128 0xc
 4995 0390 01       		.uleb128 0x1
 4996 0391 50       		.byte	0x50
 4997 0392 01       		.uleb128 0x1
 4998 0393 30       		.byte	0x30
 4999 0394 00       		.byte	0
 5000 0395 0B       		.uleb128 0xb
 5001 0396 14000000 		.4byte	.LVL57
ARM GAS  C:\Users\weiro\AppData\Local\Temp\ccglHz8v.s 			page 113


 5002 039a 1C250000 		.4byte	0x251c
 5003 039e A9030000 		.4byte	0x3a9
 5004 03a2 0C       		.uleb128 0xc
 5005 03a3 01       		.uleb128 0x1
 5006 03a4 50       		.byte	0x50
 5007 03a5 02       		.uleb128 0x2
 5008 03a6 74       		.byte	0x74
 5009 03a7 00       		.sleb128 0
 5010 03a8 00       		.byte	0
 5011 03a9 0B       		.uleb128 0xb
 5012 03aa 1A000000 		.4byte	.LVL58
 5013 03ae 27250000 		.4byte	0x2527
 5014 03b2 BC030000 		.4byte	0x3bc
 5015 03b6 0C       		.uleb128 0xc
 5016 03b7 01       		.uleb128 0x1
 5017 03b8 50       		.byte	0x50
 5018 03b9 01       		.uleb128 0x1
 5019 03ba 30       		.byte	0x30
 5020 03bb 00       		.byte	0
 5021 03bc 0D       		.uleb128 0xd
 5022 03bd 20000000 		.4byte	.LVL59
 5023 03c1 32250000 		.4byte	0x2532
 5024 03c5 0C       		.uleb128 0xc
 5025 03c6 01       		.uleb128 0x1
 5026 03c7 50       		.byte	0x50
 5027 03c8 02       		.uleb128 0x2
 5028 03c9 74       		.byte	0x74
 5029 03ca 00       		.sleb128 0
 5030 03cb 00       		.byte	0
 5031 03cc 00       		.byte	0
 5032 03cd 0F       		.uleb128 0xf
 5033 03ce E2010000 		.4byte	.LASF25
 5034 03d2 01       		.byte	0x1
 5035 03d3 2501     		.2byte	0x125
 5036 03d5 00000000 		.4byte	.LFB71
 5037 03d9 28000000 		.4byte	.LFE71-.LFB71
 5038 03dd 01       		.uleb128 0x1
 5039 03de 9C       		.byte	0x9c
 5040 03df 2E040000 		.4byte	0x42e
 5041 03e3 0B       		.uleb128 0xb
 5042 03e4 0E000000 		.4byte	.LVL60
 5043 03e8 11250000 		.4byte	0x2511
 5044 03ec F7030000 		.4byte	0x3f7
 5045 03f0 0C       		.uleb128 0xc
 5046 03f1 01       		.uleb128 0x1
 5047 03f2 50       		.byte	0x50
 5048 03f3 02       		.uleb128 0x2
 5049 03f4 74       		.byte	0x74
 5050 03f5 00       		.sleb128 0
 5051 03f6 00       		.byte	0
 5052 03f7 0B       		.uleb128 0xb
 5053 03f8 14000000 		.4byte	.LVL61
 5054 03fc 1C250000 		.4byte	0x251c
 5055 0400 0A040000 		.4byte	0x40a
 5056 0404 0C       		.uleb128 0xc
 5057 0405 01       		.uleb128 0x1
 5058 0406 50       		.byte	0x50
ARM GAS  C:\Users\weiro\AppData\Local\Temp\ccglHz8v.s 			page 114


 5059 0407 01       		.uleb128 0x1
 5060 0408 30       		.byte	0x30
 5061 0409 00       		.byte	0
 5062 040a 0B       		.uleb128 0xb
 5063 040b 1A000000 		.4byte	.LVL62
 5064 040f 27250000 		.4byte	0x2527
 5065 0413 1E040000 		.4byte	0x41e
 5066 0417 0C       		.uleb128 0xc
 5067 0418 01       		.uleb128 0x1
 5068 0419 50       		.byte	0x50
 5069 041a 02       		.uleb128 0x2
 5070 041b 74       		.byte	0x74
 5071 041c 00       		.sleb128 0
 5072 041d 00       		.byte	0
 5073 041e 0D       		.uleb128 0xd
 5074 041f 20000000 		.4byte	.LVL63
 5075 0423 32250000 		.4byte	0x2532
 5076 0427 0C       		.uleb128 0xc
 5077 0428 01       		.uleb128 0x1
 5078 0429 50       		.byte	0x50
 5079 042a 01       		.uleb128 0x1
 5080 042b 30       		.byte	0x30
 5081 042c 00       		.byte	0
 5082 042d 00       		.byte	0
 5083 042e 0F       		.uleb128 0xf
 5084 042f 130A0000 		.4byte	.LASF26
 5085 0433 01       		.byte	0x1
 5086 0434 2E01     		.2byte	0x12e
 5087 0436 00000000 		.4byte	.LFB72
 5088 043a 28000000 		.4byte	.LFE72-.LFB72
 5089 043e 01       		.uleb128 0x1
 5090 043f 9C       		.byte	0x9c
 5091 0440 8F040000 		.4byte	0x48f
 5092 0444 0B       		.uleb128 0xb
 5093 0445 0E000000 		.4byte	.LVL64
 5094 0449 11250000 		.4byte	0x2511
 5095 044d 57040000 		.4byte	0x457
 5096 0451 0C       		.uleb128 0xc
 5097 0452 01       		.uleb128 0x1
 5098 0453 50       		.byte	0x50
 5099 0454 01       		.uleb128 0x1
 5100 0455 30       		.byte	0x30
 5101 0456 00       		.byte	0
 5102 0457 0B       		.uleb128 0xb
 5103 0458 14000000 		.4byte	.LVL65
 5104 045c 1C250000 		.4byte	0x251c
 5105 0460 6B040000 		.4byte	0x46b
 5106 0464 0C       		.uleb128 0xc
 5107 0465 01       		.uleb128 0x1
 5108 0466 50       		.byte	0x50
 5109 0467 02       		.uleb128 0x2
 5110 0468 74       		.byte	0x74
 5111 0469 00       		.sleb128 0
 5112 046a 00       		.byte	0
 5113 046b 0B       		.uleb128 0xb
 5114 046c 1A000000 		.4byte	.LVL66
 5115 0470 27250000 		.4byte	0x2527
ARM GAS  C:\Users\weiro\AppData\Local\Temp\ccglHz8v.s 			page 115


 5116 0474 7F040000 		.4byte	0x47f
 5117 0478 0C       		.uleb128 0xc
 5118 0479 01       		.uleb128 0x1
 5119 047a 50       		.byte	0x50
 5120 047b 02       		.uleb128 0x2
 5121 047c 74       		.byte	0x74
 5122 047d 00       		.sleb128 0
 5123 047e 00       		.byte	0
 5124 047f 0D       		.uleb128 0xd
 5125 0480 20000000 		.4byte	.LVL67
 5126 0484 32250000 		.4byte	0x2532
 5127 0488 0C       		.uleb128 0xc
 5128 0489 01       		.uleb128 0x1
 5129 048a 50       		.byte	0x50
 5130 048b 01       		.uleb128 0x1
 5131 048c 30       		.byte	0x30
 5132 048d 00       		.byte	0
 5133 048e 00       		.byte	0
 5134 048f 0F       		.uleb128 0xf
 5135 0490 D8060000 		.4byte	.LASF27
 5136 0494 01       		.byte	0x1
 5137 0495 3701     		.2byte	0x137
 5138 0497 00000000 		.4byte	.LFB73
 5139 049b 28000000 		.4byte	.LFE73-.LFB73
 5140 049f 01       		.uleb128 0x1
 5141 04a0 9C       		.byte	0x9c
 5142 04a1 F0040000 		.4byte	0x4f0
 5143 04a5 0B       		.uleb128 0xb
 5144 04a6 0E000000 		.4byte	.LVL68
 5145 04aa 11250000 		.4byte	0x2511
 5146 04ae B9040000 		.4byte	0x4b9
 5147 04b2 0C       		.uleb128 0xc
 5148 04b3 01       		.uleb128 0x1
 5149 04b4 50       		.byte	0x50
 5150 04b5 02       		.uleb128 0x2
 5151 04b6 74       		.byte	0x74
 5152 04b7 00       		.sleb128 0
 5153 04b8 00       		.byte	0
 5154 04b9 0B       		.uleb128 0xb
 5155 04ba 14000000 		.4byte	.LVL69
 5156 04be 1C250000 		.4byte	0x251c
 5157 04c2 CC040000 		.4byte	0x4cc
 5158 04c6 0C       		.uleb128 0xc
 5159 04c7 01       		.uleb128 0x1
 5160 04c8 50       		.byte	0x50
 5161 04c9 01       		.uleb128 0x1
 5162 04ca 30       		.byte	0x30
 5163 04cb 00       		.byte	0
 5164 04cc 0B       		.uleb128 0xb
 5165 04cd 1A000000 		.4byte	.LVL70
 5166 04d1 27250000 		.4byte	0x2527
 5167 04d5 DF040000 		.4byte	0x4df
 5168 04d9 0C       		.uleb128 0xc
 5169 04da 01       		.uleb128 0x1
 5170 04db 50       		.byte	0x50
 5171 04dc 01       		.uleb128 0x1
 5172 04dd 30       		.byte	0x30
ARM GAS  C:\Users\weiro\AppData\Local\Temp\ccglHz8v.s 			page 116


 5173 04de 00       		.byte	0
 5174 04df 0D       		.uleb128 0xd
 5175 04e0 20000000 		.4byte	.LVL71
 5176 04e4 32250000 		.4byte	0x2532
 5177 04e8 0C       		.uleb128 0xc
 5178 04e9 01       		.uleb128 0x1
 5179 04ea 50       		.byte	0x50
 5180 04eb 02       		.uleb128 0x2
 5181 04ec 74       		.byte	0x74
 5182 04ed 00       		.sleb128 0
 5183 04ee 00       		.byte	0
 5184 04ef 00       		.byte	0
 5185 04f0 0F       		.uleb128 0xf
 5186 04f1 C8010000 		.4byte	.LASF28
 5187 04f5 01       		.byte	0x1
 5188 04f6 4001     		.2byte	0x140
 5189 04f8 00000000 		.4byte	.LFB74
 5190 04fc 1C000000 		.4byte	.LFE74-.LFB74
 5191 0500 01       		.uleb128 0x1
 5192 0501 9C       		.byte	0x9c
 5193 0502 29050000 		.4byte	0x529
 5194 0506 0B       		.uleb128 0xb
 5195 0507 08000000 		.4byte	.LVL72
 5196 050b 3D250000 		.4byte	0x253d
 5197 050f 19050000 		.4byte	0x519
 5198 0513 0C       		.uleb128 0xc
 5199 0514 01       		.uleb128 0x1
 5200 0515 50       		.byte	0x50
 5201 0516 01       		.uleb128 0x1
 5202 0517 30       		.byte	0x30
 5203 0518 00       		.byte	0
 5204 0519 0D       		.uleb128 0xd
 5205 051a 0E000000 		.4byte	.LVL73
 5206 051e 48250000 		.4byte	0x2548
 5207 0522 0C       		.uleb128 0xc
 5208 0523 01       		.uleb128 0x1
 5209 0524 50       		.byte	0x50
 5210 0525 01       		.uleb128 0x1
 5211 0526 30       		.byte	0x30
 5212 0527 00       		.byte	0
 5213 0528 00       		.byte	0
 5214 0529 10       		.uleb128 0x10
 5215 052a 05080000 		.4byte	.LASF29
 5216 052e 01       		.byte	0x1
 5217 052f 4801     		.2byte	0x148
 5218 0531 00000000 		.4byte	.LFB75
 5219 0535 A8000000 		.4byte	.LFE75-.LFB75
 5220 0539 01       		.uleb128 0x1
 5221 053a 9C       		.byte	0x9c
 5222 053b DA050000 		.4byte	0x5da
 5223 053f 11       		.uleb128 0x11
 5224 0540 3C040000 		.4byte	.LASF30
 5225 0544 01       		.byte	0x1
 5226 0545 4B01     		.2byte	0x14b
 5227 0547 6F000000 		.4byte	0x6f
 5228 054b 05       		.byte	0x5
 5229 054c 12       		.uleb128 0x12
ARM GAS  C:\Users\weiro\AppData\Local\Temp\ccglHz8v.s 			page 117


 5230 054d 2F050000 		.4byte	.LASF31
 5231 0551 01       		.byte	0x1
 5232 0552 4C01     		.2byte	0x14c
 5233 0554 6F000000 		.4byte	0x6f
 5234 0558 00000000 		.4byte	.LLST0
 5235 055c 13       		.uleb128 0x13
 5236 055d 00000000 		.4byte	.Ldebug_ranges0+0
 5237 0561 A1050000 		.4byte	0x5a1
 5238 0565 12       		.uleb128 0x12
 5239 0566 45080000 		.4byte	.LASF32
 5240 056a 01       		.byte	0x1
 5241 056b 6401     		.2byte	0x164
 5242 056d 6F000000 		.4byte	0x6f
 5243 0571 5D000000 		.4byte	.LLST1
 5244 0575 08       		.uleb128 0x8
 5245 0576 64000000 		.4byte	.LVL86
 5246 057a 09030000 		.4byte	0x309
 5247 057e 08       		.uleb128 0x8
 5248 057f 8E000000 		.4byte	.LVL94
 5249 0583 2E040000 		.4byte	0x42e
 5250 0587 08       		.uleb128 0x8
 5251 0588 94000000 		.4byte	.LVL96
 5252 058c 8F040000 		.4byte	0x48f
 5253 0590 0D       		.uleb128 0xd
 5254 0591 9A000000 		.4byte	.LVL97
 5255 0595 F0240000 		.4byte	0x24f0
 5256 0599 0C       		.uleb128 0xc
 5257 059a 01       		.uleb128 0x1
 5258 059b 50       		.byte	0x50
 5259 059c 02       		.uleb128 0x2
 5260 059d 08       		.byte	0x8
 5261 059e 32       		.byte	0x32
 5262 059f 00       		.byte	0
 5263 05a0 00       		.byte	0
 5264 05a1 08       		.uleb128 0x8
 5265 05a2 10000000 		.4byte	.LVL76
 5266 05a6 53250000 		.4byte	0x2553
 5267 05aa 08       		.uleb128 0x8
 5268 05ab 1C000000 		.4byte	.LVL78
 5269 05af 77240000 		.4byte	0x2477
 5270 05b3 0B       		.uleb128 0xb
 5271 05b4 6A000000 		.4byte	.LVL87
 5272 05b8 F0240000 		.4byte	0x24f0
 5273 05bc C7050000 		.4byte	0x5c7
 5274 05c0 0C       		.uleb128 0xc
 5275 05c1 01       		.uleb128 0x1
 5276 05c2 50       		.byte	0x50
 5277 05c3 02       		.uleb128 0x2
 5278 05c4 08       		.byte	0x8
 5279 05c5 C8       		.byte	0xc8
 5280 05c6 00       		.byte	0
 5281 05c7 08       		.uleb128 0x8
 5282 05c8 78000000 		.4byte	.LVL90
 5283 05cc 53250000 		.4byte	0x2553
 5284 05d0 08       		.uleb128 0x8
 5285 05d1 84000000 		.4byte	.LVL92
 5286 05d5 77240000 		.4byte	0x2477
ARM GAS  C:\Users\weiro\AppData\Local\Temp\ccglHz8v.s 			page 118


 5287 05d9 00       		.byte	0
 5288 05da 10       		.uleb128 0x10
 5289 05db 10080000 		.4byte	.LASF33
 5290 05df 01       		.byte	0x1
 5291 05e0 7A01     		.2byte	0x17a
 5292 05e2 00000000 		.4byte	.LFB76
 5293 05e6 A8000000 		.4byte	.LFE76-.LFB76
 5294 05ea 01       		.uleb128 0x1
 5295 05eb 9C       		.byte	0x9c
 5296 05ec 8B060000 		.4byte	0x68b
 5297 05f0 11       		.uleb128 0x11
 5298 05f1 3C040000 		.4byte	.LASF30
 5299 05f5 01       		.byte	0x1
 5300 05f6 7D01     		.2byte	0x17d
 5301 05f8 6F000000 		.4byte	0x6f
 5302 05fc 01       		.byte	0x1
 5303 05fd 12       		.uleb128 0x12
 5304 05fe 2F050000 		.4byte	.LASF31
 5305 0602 01       		.byte	0x1
 5306 0603 7E01     		.2byte	0x17e
 5307 0605 6F000000 		.4byte	0x6f
 5308 0609 86000000 		.4byte	.LLST2
 5309 060d 13       		.uleb128 0x13
 5310 060e 18000000 		.4byte	.Ldebug_ranges0+0x18
 5311 0612 52060000 		.4byte	0x652
 5312 0616 12       		.uleb128 0x12
 5313 0617 45080000 		.4byte	.LASF32
 5314 061b 01       		.byte	0x1
 5315 061c 9601     		.2byte	0x196
 5316 061e 6F000000 		.4byte	0x6f
 5317 0622 E3000000 		.4byte	.LLST3
 5318 0626 08       		.uleb128 0x8
 5319 0627 64000000 		.4byte	.LVL111
 5320 062b 09030000 		.4byte	0x309
 5321 062f 08       		.uleb128 0x8
 5322 0630 8E000000 		.4byte	.LVL119
 5323 0634 2E040000 		.4byte	0x42e
 5324 0638 08       		.uleb128 0x8
 5325 0639 94000000 		.4byte	.LVL121
 5326 063d 8F040000 		.4byte	0x48f
 5327 0641 0D       		.uleb128 0xd
 5328 0642 9A000000 		.4byte	.LVL122
 5329 0646 F0240000 		.4byte	0x24f0
 5330 064a 0C       		.uleb128 0xc
 5331 064b 01       		.uleb128 0x1
 5332 064c 50       		.byte	0x50
 5333 064d 02       		.uleb128 0x2
 5334 064e 08       		.byte	0x8
 5335 064f 32       		.byte	0x32
 5336 0650 00       		.byte	0
 5337 0651 00       		.byte	0
 5338 0652 08       		.uleb128 0x8
 5339 0653 10000000 		.4byte	.LVL101
 5340 0657 53250000 		.4byte	0x2553
 5341 065b 08       		.uleb128 0x8
 5342 065c 1C000000 		.4byte	.LVL103
 5343 0660 77240000 		.4byte	0x2477
ARM GAS  C:\Users\weiro\AppData\Local\Temp\ccglHz8v.s 			page 119


 5344 0664 0B       		.uleb128 0xb
 5345 0665 6A000000 		.4byte	.LVL112
 5346 0669 F0240000 		.4byte	0x24f0
 5347 066d 78060000 		.4byte	0x678
 5348 0671 0C       		.uleb128 0xc
 5349 0672 01       		.uleb128 0x1
 5350 0673 50       		.byte	0x50
 5351 0674 02       		.uleb128 0x2
 5352 0675 08       		.byte	0x8
 5353 0676 C8       		.byte	0xc8
 5354 0677 00       		.byte	0
 5355 0678 08       		.uleb128 0x8
 5356 0679 78000000 		.4byte	.LVL115
 5357 067d 53250000 		.4byte	0x2553
 5358 0681 08       		.uleb128 0x8
 5359 0682 84000000 		.4byte	.LVL117
 5360 0686 77240000 		.4byte	0x2477
 5361 068a 00       		.byte	0
 5362 068b 14       		.uleb128 0x14
 5363 068c CF050000 		.4byte	.LASF34
 5364 0690 01       		.byte	0x1
 5365 0691 AD01     		.2byte	0x1ad
 5366 0693 00000000 		.4byte	.LFB77
 5367 0697 1C010000 		.4byte	.LFE77-.LFB77
 5368 069b 01       		.uleb128 0x1
 5369 069c 9C       		.byte	0x9c
 5370 069d 43070000 		.4byte	0x743
 5371 06a1 15       		.uleb128 0x15
 5372 06a2 5B060000 		.4byte	.LASF35
 5373 06a6 01       		.byte	0x1
 5374 06a7 AD01     		.2byte	0x1ad
 5375 06a9 6F000000 		.4byte	0x6f
 5376 06ad 0C010000 		.4byte	.LLST4
 5377 06b1 15       		.uleb128 0x15
 5378 06b2 3D080000 		.4byte	.LASF36
 5379 06b6 01       		.byte	0x1
 5380 06b7 AD01     		.2byte	0x1ad
 5381 06b9 6F000000 		.4byte	0x6f
 5382 06bd 2D010000 		.4byte	.LLST5
 5383 06c1 12       		.uleb128 0x12
 5384 06c2 300A0000 		.4byte	.LASF37
 5385 06c6 01       		.byte	0x1
 5386 06c7 AF01     		.2byte	0x1af
 5387 06c9 25000000 		.4byte	0x25
 5388 06cd 59010000 		.4byte	.LLST6
 5389 06d1 12       		.uleb128 0x12
 5390 06d2 AB070000 		.4byte	.LASF38
 5391 06d6 01       		.byte	0x1
 5392 06d7 AF01     		.2byte	0x1af
 5393 06d9 25000000 		.4byte	0x25
 5394 06dd A1010000 		.4byte	.LLST7
 5395 06e1 12       		.uleb128 0x12
 5396 06e2 A1040000 		.4byte	.LASF39
 5397 06e6 01       		.byte	0x1
 5398 06e7 B001     		.2byte	0x1b0
 5399 06e9 6F000000 		.4byte	0x6f
 5400 06ed E9010000 		.4byte	.LLST8
ARM GAS  C:\Users\weiro\AppData\Local\Temp\ccglHz8v.s 			page 120


 5401 06f1 08       		.uleb128 0x8
 5402 06f2 1E000000 		.4byte	.LVL130
 5403 06f6 5E250000 		.4byte	0x255e
 5404 06fa 08       		.uleb128 0x8
 5405 06fb 26000000 		.4byte	.LVL131
 5406 06ff 69250000 		.4byte	0x2569
 5407 0703 08       		.uleb128 0x8
 5408 0704 30000000 		.4byte	.LVL132
 5409 0708 6C030000 		.4byte	0x36c
 5410 070c 08       		.uleb128 0x8
 5411 070d 36000000 		.4byte	.LVL133
 5412 0711 CD030000 		.4byte	0x3cd
 5413 0715 08       		.uleb128 0x8
 5414 0716 3A000000 		.4byte	.LVL134
 5415 071a 29050000 		.4byte	0x529
 5416 071e 08       		.uleb128 0x8
 5417 071f 5A000000 		.4byte	.LVL135
 5418 0723 09030000 		.4byte	0x309
 5419 0727 08       		.uleb128 0x8
 5420 0728 5E000000 		.4byte	.LVL136
 5421 072c 5E250000 		.4byte	0x255e
 5422 0730 08       		.uleb128 0x8
 5423 0731 64000000 		.4byte	.LVL137
 5424 0735 69250000 		.4byte	0x2569
 5425 0739 08       		.uleb128 0x8
 5426 073a F8000000 		.4byte	.LVL156
 5427 073e F0040000 		.4byte	0x4f0
 5428 0742 00       		.byte	0
 5429 0743 10       		.uleb128 0x10
 5430 0744 3B050000 		.4byte	.LASF40
 5431 0748 01       		.byte	0x1
 5432 0749 D801     		.2byte	0x1d8
 5433 074b 00000000 		.4byte	.LFB78
 5434 074f 00010000 		.4byte	.LFE78-.LFB78
 5435 0753 01       		.uleb128 0x1
 5436 0754 9C       		.byte	0x9c
 5437 0755 24080000 		.4byte	0x824
 5438 0759 12       		.uleb128 0x12
 5439 075a 300A0000 		.4byte	.LASF37
 5440 075e 01       		.byte	0x1
 5441 075f DA01     		.2byte	0x1da
 5442 0761 25000000 		.4byte	0x25
 5443 0765 07020000 		.4byte	.LLST9
 5444 0769 12       		.uleb128 0x12
 5445 076a AB070000 		.4byte	.LASF38
 5446 076e 01       		.byte	0x1
 5447 076f DA01     		.2byte	0x1da
 5448 0771 25000000 		.4byte	0x25
 5449 0775 4F020000 		.4byte	.LLST10
 5450 0779 0B       		.uleb128 0xb
 5451 077a 0C000000 		.4byte	.LVL158
 5452 077e 74250000 		.4byte	0x2574
 5453 0782 8C070000 		.4byte	0x78c
 5454 0786 0C       		.uleb128 0xc
 5455 0787 01       		.uleb128 0x1
 5456 0788 50       		.byte	0x50
 5457 0789 01       		.uleb128 0x1
ARM GAS  C:\Users\weiro\AppData\Local\Temp\ccglHz8v.s 			page 121


 5458 078a 31       		.byte	0x31
 5459 078b 00       		.byte	0
 5460 078c 0B       		.uleb128 0xb
 5461 078d 12000000 		.4byte	.LVL159
 5462 0791 F0240000 		.4byte	0x24f0
 5463 0795 A0070000 		.4byte	0x7a0
 5464 0799 0C       		.uleb128 0xc
 5465 079a 01       		.uleb128 0x1
 5466 079b 50       		.byte	0x50
 5467 079c 02       		.uleb128 0x2
 5468 079d 08       		.byte	0x8
 5469 079e 32       		.byte	0x32
 5470 079f 00       		.byte	0
 5471 07a0 08       		.uleb128 0x8
 5472 07a1 1C000000 		.4byte	.LVL160
 5473 07a5 6C030000 		.4byte	0x36c
 5474 07a9 0B       		.uleb128 0xb
 5475 07aa 22000000 		.4byte	.LVL161
 5476 07ae F0240000 		.4byte	0x24f0
 5477 07b2 BD070000 		.4byte	0x7bd
 5478 07b6 0C       		.uleb128 0xc
 5479 07b7 01       		.uleb128 0x1
 5480 07b8 50       		.byte	0x50
 5481 07b9 02       		.uleb128 0x2
 5482 07ba 08       		.byte	0x8
 5483 07bb 32       		.byte	0x32
 5484 07bc 00       		.byte	0
 5485 07bd 0B       		.uleb128 0xb
 5486 07be 28000000 		.4byte	.LVL162
 5487 07c2 7F250000 		.4byte	0x257f
 5488 07c6 D0070000 		.4byte	0x7d0
 5489 07ca 0C       		.uleb128 0xc
 5490 07cb 01       		.uleb128 0x1
 5491 07cc 50       		.byte	0x50
 5492 07cd 01       		.uleb128 0x1
 5493 07ce 31       		.byte	0x31
 5494 07cf 00       		.byte	0
 5495 07d0 0B       		.uleb128 0xb
 5496 07d1 2E000000 		.4byte	.LVL163
 5497 07d5 8A250000 		.4byte	0x258a
 5498 07d9 E3070000 		.4byte	0x7e3
 5499 07dd 0C       		.uleb128 0xc
 5500 07de 01       		.uleb128 0x1
 5501 07df 50       		.byte	0x50
 5502 07e0 01       		.uleb128 0x1
 5503 07e1 3A       		.byte	0x3a
 5504 07e2 00       		.byte	0
 5505 07e3 0B       		.uleb128 0xb
 5506 07e4 34000000 		.4byte	.LVL164
 5507 07e8 7F250000 		.4byte	0x257f
 5508 07ec F6070000 		.4byte	0x7f6
 5509 07f0 0C       		.uleb128 0xc
 5510 07f1 01       		.uleb128 0x1
 5511 07f2 50       		.byte	0x50
 5512 07f3 01       		.uleb128 0x1
 5513 07f4 30       		.byte	0x30
 5514 07f5 00       		.byte	0
ARM GAS  C:\Users\weiro\AppData\Local\Temp\ccglHz8v.s 			page 122


 5515 07f6 08       		.uleb128 0x8
 5516 07f7 38000000 		.4byte	.LVL165
 5517 07fb 29050000 		.4byte	0x529
 5518 07ff 08       		.uleb128 0x8
 5519 0800 44000000 		.4byte	.LVL166
 5520 0804 09030000 		.4byte	0x309
 5521 0808 08       		.uleb128 0x8
 5522 0809 48000000 		.4byte	.LVL167
 5523 080d 5E250000 		.4byte	0x255e
 5524 0811 08       		.uleb128 0x8
 5525 0812 4E000000 		.4byte	.LVL168
 5526 0816 69250000 		.4byte	0x2569
 5527 081a 08       		.uleb128 0x8
 5528 081b E2000000 		.4byte	.LVL187
 5529 081f F0040000 		.4byte	0x4f0
 5530 0823 00       		.byte	0
 5531 0824 10       		.uleb128 0x10
 5532 0825 31030000 		.4byte	.LASF41
 5533 0829 01       		.byte	0x1
 5534 082a 0102     		.2byte	0x201
 5535 082c 00000000 		.4byte	.LFB79
 5536 0830 30010000 		.4byte	.LFE79-.LFB79
 5537 0834 01       		.uleb128 0x1
 5538 0835 9C       		.byte	0x9c
 5539 0836 22090000 		.4byte	0x922
 5540 083a 12       		.uleb128 0x12
 5541 083b 300A0000 		.4byte	.LASF37
 5542 083f 01       		.byte	0x1
 5543 0840 0302     		.2byte	0x203
 5544 0842 25000000 		.4byte	0x25
 5545 0846 97020000 		.4byte	.LLST11
 5546 084a 12       		.uleb128 0x12
 5547 084b AB070000 		.4byte	.LASF38
 5548 084f 01       		.byte	0x1
 5549 0850 0302     		.2byte	0x203
 5550 0852 25000000 		.4byte	0x25
 5551 0856 DF020000 		.4byte	.LLST12
 5552 085a 0B       		.uleb128 0xb
 5553 085b 0C000000 		.4byte	.LVL188
 5554 085f 74250000 		.4byte	0x2574
 5555 0863 6D080000 		.4byte	0x86d
 5556 0867 0C       		.uleb128 0xc
 5557 0868 01       		.uleb128 0x1
 5558 0869 50       		.byte	0x50
 5559 086a 01       		.uleb128 0x1
 5560 086b 32       		.byte	0x32
 5561 086c 00       		.byte	0
 5562 086d 0B       		.uleb128 0xb
 5563 086e 12000000 		.4byte	.LVL189
 5564 0872 F0240000 		.4byte	0x24f0
 5565 0876 81080000 		.4byte	0x881
 5566 087a 0C       		.uleb128 0xc
 5567 087b 01       		.uleb128 0x1
 5568 087c 50       		.byte	0x50
 5569 087d 02       		.uleb128 0x2
 5570 087e 08       		.byte	0x8
 5571 087f 32       		.byte	0x32
ARM GAS  C:\Users\weiro\AppData\Local\Temp\ccglHz8v.s 			page 123


 5572 0880 00       		.byte	0
 5573 0881 08       		.uleb128 0x8
 5574 0882 18000000 		.4byte	.LVL190
 5575 0886 6C030000 		.4byte	0x36c
 5576 088a 0B       		.uleb128 0xb
 5577 088b 32000000 		.4byte	.LVL191
 5578 088f 06250000 		.4byte	0x2506
 5579 0893 9E080000 		.4byte	0x89e
 5580 0897 0C       		.uleb128 0xc
 5581 0898 01       		.uleb128 0x1
 5582 0899 50       		.byte	0x50
 5583 089a 02       		.uleb128 0x2
 5584 089b 74       		.byte	0x74
 5585 089c 00       		.sleb128 0
 5586 089d 00       		.byte	0
 5587 089e 0B       		.uleb128 0xb
 5588 089f 38000000 		.4byte	.LVL192
 5589 08a3 F0240000 		.4byte	0x24f0
 5590 08a7 B2080000 		.4byte	0x8b2
 5591 08ab 0C       		.uleb128 0xc
 5592 08ac 01       		.uleb128 0x1
 5593 08ad 50       		.byte	0x50
 5594 08ae 02       		.uleb128 0x2
 5595 08af 08       		.byte	0x8
 5596 08b0 64       		.byte	0x64
 5597 08b1 00       		.byte	0
 5598 08b2 0B       		.uleb128 0xb
 5599 08b3 40000000 		.4byte	.LVL193
 5600 08b7 7F250000 		.4byte	0x257f
 5601 08bb C5080000 		.4byte	0x8c5
 5602 08bf 0C       		.uleb128 0xc
 5603 08c0 01       		.uleb128 0x1
 5604 08c1 50       		.byte	0x50
 5605 08c2 01       		.uleb128 0x1
 5606 08c3 31       		.byte	0x31
 5607 08c4 00       		.byte	0
 5608 08c5 0B       		.uleb128 0xb
 5609 08c6 46000000 		.4byte	.LVL194
 5610 08ca 8A250000 		.4byte	0x258a
 5611 08ce D8080000 		.4byte	0x8d8
 5612 08d2 0C       		.uleb128 0xc
 5613 08d3 01       		.uleb128 0x1
 5614 08d4 50       		.byte	0x50
 5615 08d5 01       		.uleb128 0x1
 5616 08d6 3A       		.byte	0x3a
 5617 08d7 00       		.byte	0
 5618 08d8 0B       		.uleb128 0xb
 5619 08d9 4C000000 		.4byte	.LVL195
 5620 08dd 7F250000 		.4byte	0x257f
 5621 08e1 EB080000 		.4byte	0x8eb
 5622 08e5 0C       		.uleb128 0xc
 5623 08e6 01       		.uleb128 0x1
 5624 08e7 50       		.byte	0x50
 5625 08e8 01       		.uleb128 0x1
 5626 08e9 30       		.byte	0x30
 5627 08ea 00       		.byte	0
 5628 08eb 08       		.uleb128 0x8
ARM GAS  C:\Users\weiro\AppData\Local\Temp\ccglHz8v.s 			page 124


 5629 08ec 50000000 		.4byte	.LVL196
 5630 08f0 95250000 		.4byte	0x2595
 5631 08f4 08       		.uleb128 0x8
 5632 08f5 58000000 		.4byte	.LVL197
 5633 08f9 29050000 		.4byte	0x529
 5634 08fd 08       		.uleb128 0x8
 5635 08fe 64000000 		.4byte	.LVL198
 5636 0902 09030000 		.4byte	0x309
 5637 0906 08       		.uleb128 0x8
 5638 0907 68000000 		.4byte	.LVL199
 5639 090b 5E250000 		.4byte	0x255e
 5640 090f 08       		.uleb128 0x8
 5641 0910 6E000000 		.4byte	.LVL200
 5642 0914 69250000 		.4byte	0x2569
 5643 0918 08       		.uleb128 0x8
 5644 0919 02010000 		.4byte	.LVL219
 5645 091d F0040000 		.4byte	0x4f0
 5646 0921 00       		.byte	0
 5647 0922 10       		.uleb128 0x10
 5648 0923 33080000 		.4byte	.LASF42
 5649 0927 01       		.byte	0x1
 5650 0928 3102     		.2byte	0x231
 5651 092a 00000000 		.4byte	.LFB80
 5652 092e D8000000 		.4byte	.LFE80-.LFB80
 5653 0932 01       		.uleb128 0x1
 5654 0933 9C       		.byte	0x9c
 5655 0934 AD090000 		.4byte	0x9ad
 5656 0938 12       		.uleb128 0x12
 5657 0939 300A0000 		.4byte	.LASF37
 5658 093d 01       		.byte	0x1
 5659 093e 3302     		.2byte	0x233
 5660 0940 25000000 		.4byte	0x25
 5661 0944 27030000 		.4byte	.LLST13
 5662 0948 12       		.uleb128 0x12
 5663 0949 AB070000 		.4byte	.LASF38
 5664 094d 01       		.byte	0x1
 5665 094e 3302     		.2byte	0x233
 5666 0950 25000000 		.4byte	0x25
 5667 0954 6F030000 		.4byte	.LLST14
 5668 0958 08       		.uleb128 0x8
 5669 0959 08000000 		.4byte	.LVL220
 5670 095d 6C030000 		.4byte	0x36c
 5671 0961 08       		.uleb128 0x8
 5672 0962 0C000000 		.4byte	.LVL221
 5673 0966 29050000 		.4byte	0x529
 5674 096a 08       		.uleb128 0x8
 5675 096b 10000000 		.4byte	.LVL222
 5676 096f A0250000 		.4byte	0x25a0
 5677 0973 08       		.uleb128 0x8
 5678 0974 18000000 		.4byte	.LVL223
 5679 0978 09030000 		.4byte	0x309
 5680 097c 0B       		.uleb128 0xb
 5681 097d 20000000 		.4byte	.LVL224
 5682 0981 F0240000 		.4byte	0x24f0
 5683 0985 91090000 		.4byte	0x991
 5684 0989 0C       		.uleb128 0xc
 5685 098a 01       		.uleb128 0x1
ARM GAS  C:\Users\weiro\AppData\Local\Temp\ccglHz8v.s 			page 125


 5686 098b 50       		.byte	0x50
 5687 098c 03       		.uleb128 0x3
 5688 098d 0A       		.byte	0xa
 5689 098e F401     		.2byte	0x1f4
 5690 0990 00       		.byte	0
 5691 0991 08       		.uleb128 0x8
 5692 0992 24000000 		.4byte	.LVL225
 5693 0996 5E250000 		.4byte	0x255e
 5694 099a 08       		.uleb128 0x8
 5695 099b 2A000000 		.4byte	.LVL226
 5696 099f 69250000 		.4byte	0x2569
 5697 09a3 08       		.uleb128 0x8
 5698 09a4 BE000000 		.4byte	.LVL245
 5699 09a8 F0040000 		.4byte	0x4f0
 5700 09ac 00       		.byte	0
 5701 09ad 16       		.uleb128 0x16
 5702 09ae 435700   		.ascii	"CW\000"
 5703 09b1 01       		.byte	0x1
 5704 09b2 5402     		.2byte	0x254
 5705 09b4 00000000 		.4byte	.LFB81
 5706 09b8 94000000 		.4byte	.LFE81-.LFB81
 5707 09bc 01       		.uleb128 0x1
 5708 09bd 9C       		.byte	0x9c
 5709 09be 360A0000 		.4byte	0xa36
 5710 09c2 15       		.uleb128 0x15
 5711 09c3 90020000 		.4byte	.LASF43
 5712 09c7 01       		.byte	0x1
 5713 09c8 5402     		.2byte	0x254
 5714 09ca 6F000000 		.4byte	0x6f
 5715 09ce B7030000 		.4byte	.LLST15
 5716 09d2 15       		.uleb128 0x15
 5717 09d3 36060000 		.4byte	.LASF44
 5718 09d7 01       		.byte	0x1
 5719 09d8 5402     		.2byte	0x254
 5720 09da 6F000000 		.4byte	0x6f
 5721 09de E3030000 		.4byte	.LLST16
 5722 09e2 08       		.uleb128 0x8
 5723 09e3 0C000000 		.4byte	.LVL248
 5724 09e7 5E250000 		.4byte	0x255e
 5725 09eb 08       		.uleb128 0x8
 5726 09ec 14000000 		.4byte	.LVL249
 5727 09f0 69250000 		.4byte	0x2569
 5728 09f4 08       		.uleb128 0x8
 5729 09f5 1E000000 		.4byte	.LVL250
 5730 09f9 8F040000 		.4byte	0x48f
 5731 09fd 08       		.uleb128 0x8
 5732 09fe 24000000 		.4byte	.LVL251
 5733 0a02 2E040000 		.4byte	0x42e
 5734 0a06 08       		.uleb128 0x8
 5735 0a07 44000000 		.4byte	.LVL252
 5736 0a0b 09030000 		.4byte	0x309
 5737 0a0f 0B       		.uleb128 0xb
 5738 0a10 86000000 		.4byte	.LVL253
 5739 0a14 F0240000 		.4byte	0x24f0
 5740 0a18 230A0000 		.4byte	0xa23
 5741 0a1c 0C       		.uleb128 0xc
 5742 0a1d 01       		.uleb128 0x1
ARM GAS  C:\Users\weiro\AppData\Local\Temp\ccglHz8v.s 			page 126


 5743 0a1e 50       		.byte	0x50
 5744 0a1f 02       		.uleb128 0x2
 5745 0a20 08       		.byte	0x8
 5746 0a21 32       		.byte	0x32
 5747 0a22 00       		.byte	0
 5748 0a23 08       		.uleb128 0x8
 5749 0a24 8A000000 		.4byte	.LVL254
 5750 0a28 29050000 		.4byte	0x529
 5751 0a2c 08       		.uleb128 0x8
 5752 0a2d 8E000000 		.4byte	.LVL255
 5753 0a31 F0040000 		.4byte	0x4f0
 5754 0a35 00       		.byte	0
 5755 0a36 10       		.uleb128 0x10
 5756 0a37 AD080000 		.4byte	.LASF45
 5757 0a3b 01       		.byte	0x1
 5758 0a3c 8102     		.2byte	0x281
 5759 0a3e 00000000 		.4byte	.LFB82
 5760 0a42 50030000 		.4byte	.LFE82-.LFB82
 5761 0a46 01       		.uleb128 0x1
 5762 0a47 9C       		.byte	0x9c
 5763 0a48 7A100000 		.4byte	0x107a
 5764 0a4c 12       		.uleb128 0x12
 5765 0a4d A6010000 		.4byte	.LASF46
 5766 0a51 01       		.byte	0x1
 5767 0a52 8302     		.2byte	0x283
 5768 0a54 6F000000 		.4byte	0x6f
 5769 0a58 0F040000 		.4byte	.LLST17
 5770 0a5c 17       		.uleb128 0x17
 5771 0a5d DE020000 		.4byte	.LBB6
 5772 0a61 44000000 		.4byte	.LBE6-.LBB6
 5773 0a65 EE0A0000 		.4byte	0xaee
 5774 0a69 18       		.uleb128 0x18
 5775 0a6a 6100     		.ascii	"a\000"
 5776 0a6c 01       		.byte	0x1
 5777 0a6d 0D03     		.2byte	0x30d
 5778 0a6f 6F000000 		.4byte	0x6f
 5779 0a73 47040000 		.4byte	.LLST18
 5780 0a77 09       		.uleb128 0x9
 5781 0a78 21020000 		.4byte	.LASF47
 5782 0a7c 01       		.byte	0x1
 5783 0a7d 7A       		.byte	0x7a
 5784 0a7e 6F000000 		.4byte	0x6f
 5785 0a82 880A0000 		.4byte	0xa88
 5786 0a86 0A       		.uleb128 0xa
 5787 0a87 00       		.byte	0
 5788 0a88 0B       		.uleb128 0xb
 5789 0a89 00030000 		.4byte	.LVL342
 5790 0a8d 98240000 		.4byte	0x2498
 5791 0a91 A50A0000 		.4byte	0xaa5
 5792 0a95 0C       		.uleb128 0xc
 5793 0a96 01       		.uleb128 0x1
 5794 0a97 50       		.byte	0x50
 5795 0a98 02       		.uleb128 0x2
 5796 0a99 75       		.byte	0x75
 5797 0a9a 00       		.sleb128 0
 5798 0a9b 0C       		.uleb128 0xc
 5799 0a9c 01       		.uleb128 0x1
ARM GAS  C:\Users\weiro\AppData\Local\Temp\ccglHz8v.s 			page 127


 5800 0a9d 51       		.byte	0x51
 5801 0a9e 05       		.uleb128 0x5
 5802 0a9f 03       		.byte	0x3
 5803 0aa0 6C000000 		.4byte	.LC7
 5804 0aa4 00       		.byte	0
 5805 0aa5 0B       		.uleb128 0xb
 5806 0aa6 06030000 		.4byte	.LVL343
 5807 0aaa A3240000 		.4byte	0x24a3
 5808 0aae B90A0000 		.4byte	0xab9
 5809 0ab2 0C       		.uleb128 0xc
 5810 0ab3 01       		.uleb128 0x1
 5811 0ab4 50       		.byte	0x50
 5812 0ab5 02       		.uleb128 0x2
 5813 0ab6 75       		.byte	0x75
 5814 0ab7 00       		.sleb128 0
 5815 0ab8 00       		.byte	0
 5816 0ab9 0B       		.uleb128 0xb
 5817 0aba 14030000 		.4byte	.LVL344
 5818 0abe 8B060000 		.4byte	0x68b
 5819 0ac2 DC0A0000 		.4byte	0xadc
 5820 0ac6 0C       		.uleb128 0xc
 5821 0ac7 01       		.uleb128 0x1
 5822 0ac8 50       		.byte	0x50
 5823 0ac9 0C       		.uleb128 0xc
 5824 0aca 78       		.byte	0x78
 5825 0acb 00       		.sleb128 0
 5826 0acc 4F       		.byte	0x4f
 5827 0acd 26       		.byte	0x26
 5828 0ace 78       		.byte	0x78
 5829 0acf 00       		.sleb128 0
 5830 0ad0 27       		.byte	0x27
 5831 0ad1 78       		.byte	0x78
 5832 0ad2 00       		.sleb128 0
 5833 0ad3 4F       		.byte	0x4f
 5834 0ad4 26       		.byte	0x26
 5835 0ad5 1C       		.byte	0x1c
 5836 0ad6 0C       		.uleb128 0xc
 5837 0ad7 01       		.uleb128 0x1
 5838 0ad8 51       		.byte	0x51
 5839 0ad9 01       		.uleb128 0x1
 5840 0ada 30       		.byte	0x30
 5841 0adb 00       		.byte	0
 5842 0adc 0D       		.uleb128 0xd
 5843 0add 1C030000 		.4byte	.LVL345
 5844 0ae1 F0240000 		.4byte	0x24f0
 5845 0ae5 0C       		.uleb128 0xc
 5846 0ae6 01       		.uleb128 0x1
 5847 0ae7 50       		.byte	0x50
 5848 0ae8 03       		.uleb128 0x3
 5849 0ae9 0A       		.byte	0xa
 5850 0aea F401     		.2byte	0x1f4
 5851 0aec 00       		.byte	0
 5852 0aed 00       		.byte	0
 5853 0aee 0B       		.uleb128 0xb
 5854 0aef 0A000000 		.4byte	.LVL258
 5855 0af3 AB250000 		.4byte	0x25ab
 5856 0af7 010B0000 		.4byte	0xb01
ARM GAS  C:\Users\weiro\AppData\Local\Temp\ccglHz8v.s 			page 128


 5857 0afb 0C       		.uleb128 0xc
 5858 0afc 01       		.uleb128 0x1
 5859 0afd 50       		.byte	0x50
 5860 0afe 01       		.uleb128 0x1
 5861 0aff 31       		.byte	0x31
 5862 0b00 00       		.byte	0
 5863 0b01 0B       		.uleb128 0xb
 5864 0b02 10000000 		.4byte	.LVL259
 5865 0b06 B6250000 		.4byte	0x25b6
 5866 0b0a 140B0000 		.4byte	0xb14
 5867 0b0e 0C       		.uleb128 0xc
 5868 0b0f 01       		.uleb128 0x1
 5869 0b10 50       		.byte	0x50
 5870 0b11 01       		.uleb128 0x1
 5871 0b12 31       		.byte	0x31
 5872 0b13 00       		.byte	0
 5873 0b14 0B       		.uleb128 0xb
 5874 0b15 16000000 		.4byte	.LVL260
 5875 0b19 C1250000 		.4byte	0x25c1
 5876 0b1d 270B0000 		.4byte	0xb27
 5877 0b21 0C       		.uleb128 0xc
 5878 0b22 01       		.uleb128 0x1
 5879 0b23 50       		.byte	0x50
 5880 0b24 01       		.uleb128 0x1
 5881 0b25 31       		.byte	0x31
 5882 0b26 00       		.byte	0
 5883 0b27 0B       		.uleb128 0xb
 5884 0b28 1C000000 		.4byte	.LVL261
 5885 0b2c F0240000 		.4byte	0x24f0
 5886 0b30 3A0B0000 		.4byte	0xb3a
 5887 0b34 0C       		.uleb128 0xc
 5888 0b35 01       		.uleb128 0x1
 5889 0b36 50       		.byte	0x50
 5890 0b37 01       		.uleb128 0x1
 5891 0b38 3A       		.byte	0x3a
 5892 0b39 00       		.byte	0
 5893 0b3a 08       		.uleb128 0x8
 5894 0b3b 20000000 		.4byte	.LVL262
 5895 0b3f CC250000 		.4byte	0x25cc
 5896 0b43 0B       		.uleb128 0xb
 5897 0b44 2C000000 		.4byte	.LVL263
 5898 0b48 D7250000 		.4byte	0x25d7
 5899 0b4c 570B0000 		.4byte	0xb57
 5900 0b50 0C       		.uleb128 0xc
 5901 0b51 01       		.uleb128 0x1
 5902 0b52 50       		.byte	0x50
 5903 0b53 02       		.uleb128 0x2
 5904 0b54 74       		.byte	0x74
 5905 0b55 00       		.sleb128 0
 5906 0b56 00       		.byte	0
 5907 0b57 0B       		.uleb128 0xb
 5908 0b58 32000000 		.4byte	.LVL264
 5909 0b5c E2250000 		.4byte	0x25e2
 5910 0b60 6B0B0000 		.4byte	0xb6b
 5911 0b64 0C       		.uleb128 0xc
 5912 0b65 01       		.uleb128 0x1
 5913 0b66 50       		.byte	0x50
ARM GAS  C:\Users\weiro\AppData\Local\Temp\ccglHz8v.s 			page 129


 5914 0b67 02       		.uleb128 0x2
 5915 0b68 74       		.byte	0x74
 5916 0b69 00       		.sleb128 0
 5917 0b6a 00       		.byte	0
 5918 0b6b 0B       		.uleb128 0xb
 5919 0b6c 38000000 		.4byte	.LVL265
 5920 0b70 F0240000 		.4byte	0x24f0
 5921 0b74 7E0B0000 		.4byte	0xb7e
 5922 0b78 0C       		.uleb128 0xc
 5923 0b79 01       		.uleb128 0x1
 5924 0b7a 50       		.byte	0x50
 5925 0b7b 01       		.uleb128 0x1
 5926 0b7c 44       		.byte	0x44
 5927 0b7d 00       		.byte	0
 5928 0b7e 0B       		.uleb128 0xb
 5929 0b7f 3E000000 		.4byte	.LVL266
 5930 0b83 ED250000 		.4byte	0x25ed
 5931 0b87 910B0000 		.4byte	0xb91
 5932 0b8b 0C       		.uleb128 0xc
 5933 0b8c 01       		.uleb128 0x1
 5934 0b8d 50       		.byte	0x50
 5935 0b8e 01       		.uleb128 0x1
 5936 0b8f 31       		.byte	0x31
 5937 0b90 00       		.byte	0
 5938 0b91 0B       		.uleb128 0xb
 5939 0b92 44000000 		.4byte	.LVL267
 5940 0b96 F0240000 		.4byte	0x24f0
 5941 0b9a A40B0000 		.4byte	0xba4
 5942 0b9e 0C       		.uleb128 0xc
 5943 0b9f 01       		.uleb128 0x1
 5944 0ba0 50       		.byte	0x50
 5945 0ba1 01       		.uleb128 0x1
 5946 0ba2 31       		.byte	0x31
 5947 0ba3 00       		.byte	0
 5948 0ba4 0B       		.uleb128 0xb
 5949 0ba5 4A000000 		.4byte	.LVL268
 5950 0ba9 ED250000 		.4byte	0x25ed
 5951 0bad B80B0000 		.4byte	0xbb8
 5952 0bb1 0C       		.uleb128 0xc
 5953 0bb2 01       		.uleb128 0x1
 5954 0bb3 50       		.byte	0x50
 5955 0bb4 02       		.uleb128 0x2
 5956 0bb5 74       		.byte	0x74
 5957 0bb6 00       		.sleb128 0
 5958 0bb7 00       		.byte	0
 5959 0bb8 08       		.uleb128 0x8
 5960 0bb9 56000000 		.4byte	.LVL269
 5961 0bbd F8250000 		.4byte	0x25f8
 5962 0bc1 0B       		.uleb128 0xb
 5963 0bc2 68000000 		.4byte	.LVL270
 5964 0bc6 98240000 		.4byte	0x2498
 5965 0bca DE0B0000 		.4byte	0xbde
 5966 0bce 0C       		.uleb128 0xc
 5967 0bcf 01       		.uleb128 0x1
 5968 0bd0 50       		.byte	0x50
 5969 0bd1 02       		.uleb128 0x2
 5970 0bd2 74       		.byte	0x74
ARM GAS  C:\Users\weiro\AppData\Local\Temp\ccglHz8v.s 			page 130


 5971 0bd3 00       		.sleb128 0
 5972 0bd4 0C       		.uleb128 0xc
 5973 0bd5 01       		.uleb128 0x1
 5974 0bd6 51       		.byte	0x51
 5975 0bd7 05       		.uleb128 0x5
 5976 0bd8 03       		.byte	0x3
 5977 0bd9 48000000 		.4byte	.LC4
 5978 0bdd 00       		.byte	0
 5979 0bde 0B       		.uleb128 0xb
 5980 0bdf 6E000000 		.4byte	.LVL271
 5981 0be3 06250000 		.4byte	0x2506
 5982 0be7 F20B0000 		.4byte	0xbf2
 5983 0beb 0C       		.uleb128 0xc
 5984 0bec 01       		.uleb128 0x1
 5985 0bed 50       		.byte	0x50
 5986 0bee 02       		.uleb128 0x2
 5987 0bef 74       		.byte	0x74
 5988 0bf0 00       		.sleb128 0
 5989 0bf1 00       		.byte	0
 5990 0bf2 08       		.uleb128 0x8
 5991 0bf3 72000000 		.4byte	.LVL272
 5992 0bf7 03260000 		.4byte	0x2603
 5993 0bfb 0B       		.uleb128 0xb
 5994 0bfc 78000000 		.4byte	.LVL273
 5995 0c00 F0240000 		.4byte	0x24f0
 5996 0c04 0F0C0000 		.4byte	0xc0f
 5997 0c08 0C       		.uleb128 0xc
 5998 0c09 01       		.uleb128 0x1
 5999 0c0a 50       		.byte	0x50
 6000 0c0b 02       		.uleb128 0x2
 6001 0c0c 08       		.byte	0x8
 6002 0c0d 64       		.byte	0x64
 6003 0c0e 00       		.byte	0
 6004 0c0f 08       		.uleb128 0x8
 6005 0c10 7C000000 		.4byte	.LVL274
 6006 0c14 CC250000 		.4byte	0x25cc
 6007 0c18 0B       		.uleb128 0xb
 6008 0c19 86000000 		.4byte	.LVL275
 6009 0c1d D7250000 		.4byte	0x25d7
 6010 0c21 2B0C0000 		.4byte	0xc2b
 6011 0c25 0C       		.uleb128 0xc
 6012 0c26 01       		.uleb128 0x1
 6013 0c27 50       		.byte	0x50
 6014 0c28 01       		.uleb128 0x1
 6015 0c29 31       		.byte	0x31
 6016 0c2a 00       		.byte	0
 6017 0c2b 0B       		.uleb128 0xb
 6018 0c2c 8C000000 		.4byte	.LVL276
 6019 0c30 E2250000 		.4byte	0x25e2
 6020 0c34 3E0C0000 		.4byte	0xc3e
 6021 0c38 0C       		.uleb128 0xc
 6022 0c39 01       		.uleb128 0x1
 6023 0c3a 50       		.byte	0x50
 6024 0c3b 01       		.uleb128 0x1
 6025 0c3c 31       		.byte	0x31
 6026 0c3d 00       		.byte	0
 6027 0c3e 0B       		.uleb128 0xb
ARM GAS  C:\Users\weiro\AppData\Local\Temp\ccglHz8v.s 			page 131


 6028 0c3f 92000000 		.4byte	.LVL277
 6029 0c43 F0240000 		.4byte	0x24f0
 6030 0c47 510C0000 		.4byte	0xc51
 6031 0c4b 0C       		.uleb128 0xc
 6032 0c4c 01       		.uleb128 0x1
 6033 0c4d 50       		.byte	0x50
 6034 0c4e 01       		.uleb128 0x1
 6035 0c4f 44       		.byte	0x44
 6036 0c50 00       		.byte	0
 6037 0c51 0B       		.uleb128 0xb
 6038 0c52 98000000 		.4byte	.LVL278
 6039 0c56 ED250000 		.4byte	0x25ed
 6040 0c5a 640C0000 		.4byte	0xc64
 6041 0c5e 0C       		.uleb128 0xc
 6042 0c5f 01       		.uleb128 0x1
 6043 0c60 50       		.byte	0x50
 6044 0c61 01       		.uleb128 0x1
 6045 0c62 31       		.byte	0x31
 6046 0c63 00       		.byte	0
 6047 0c64 0B       		.uleb128 0xb
 6048 0c65 9E000000 		.4byte	.LVL279
 6049 0c69 F0240000 		.4byte	0x24f0
 6050 0c6d 770C0000 		.4byte	0xc77
 6051 0c71 0C       		.uleb128 0xc
 6052 0c72 01       		.uleb128 0x1
 6053 0c73 50       		.byte	0x50
 6054 0c74 01       		.uleb128 0x1
 6055 0c75 31       		.byte	0x31
 6056 0c76 00       		.byte	0
 6057 0c77 0B       		.uleb128 0xb
 6058 0c78 A4000000 		.4byte	.LVL280
 6059 0c7c ED250000 		.4byte	0x25ed
 6060 0c80 8B0C0000 		.4byte	0xc8b
 6061 0c84 0C       		.uleb128 0xc
 6062 0c85 01       		.uleb128 0x1
 6063 0c86 50       		.byte	0x50
 6064 0c87 02       		.uleb128 0x2
 6065 0c88 74       		.byte	0x74
 6066 0c89 00       		.sleb128 0
 6067 0c8a 00       		.byte	0
 6068 0c8b 08       		.uleb128 0x8
 6069 0c8c B0000000 		.4byte	.LVL281
 6070 0c90 F8250000 		.4byte	0x25f8
 6071 0c94 0B       		.uleb128 0xb
 6072 0c95 C2000000 		.4byte	.LVL282
 6073 0c99 98240000 		.4byte	0x2498
 6074 0c9d B10C0000 		.4byte	0xcb1
 6075 0ca1 0C       		.uleb128 0xc
 6076 0ca2 01       		.uleb128 0x1
 6077 0ca3 50       		.byte	0x50
 6078 0ca4 02       		.uleb128 0x2
 6079 0ca5 74       		.byte	0x74
 6080 0ca6 00       		.sleb128 0
 6081 0ca7 0C       		.uleb128 0xc
 6082 0ca8 01       		.uleb128 0x1
 6083 0ca9 51       		.byte	0x51
 6084 0caa 05       		.uleb128 0x5
ARM GAS  C:\Users\weiro\AppData\Local\Temp\ccglHz8v.s 			page 132


 6085 0cab 03       		.byte	0x3
 6086 0cac 54000000 		.4byte	.LC5
 6087 0cb0 00       		.byte	0
 6088 0cb1 0B       		.uleb128 0xb
 6089 0cb2 C8000000 		.4byte	.LVL283
 6090 0cb6 06250000 		.4byte	0x2506
 6091 0cba C50C0000 		.4byte	0xcc5
 6092 0cbe 0C       		.uleb128 0xc
 6093 0cbf 01       		.uleb128 0x1
 6094 0cc0 50       		.byte	0x50
 6095 0cc1 02       		.uleb128 0x2
 6096 0cc2 74       		.byte	0x74
 6097 0cc3 00       		.sleb128 0
 6098 0cc4 00       		.byte	0
 6099 0cc5 08       		.uleb128 0x8
 6100 0cc6 CC000000 		.4byte	.LVL284
 6101 0cca 03260000 		.4byte	0x2603
 6102 0cce 0B       		.uleb128 0xb
 6103 0ccf D2000000 		.4byte	.LVL285
 6104 0cd3 F0240000 		.4byte	0x24f0
 6105 0cd7 E20C0000 		.4byte	0xce2
 6106 0cdb 0C       		.uleb128 0xc
 6107 0cdc 01       		.uleb128 0x1
 6108 0cdd 50       		.byte	0x50
 6109 0cde 02       		.uleb128 0x2
 6110 0cdf 08       		.byte	0x8
 6111 0ce0 64       		.byte	0x64
 6112 0ce1 00       		.byte	0
 6113 0ce2 08       		.uleb128 0x8
 6114 0ce3 D6000000 		.4byte	.LVL286
 6115 0ce7 CC250000 		.4byte	0x25cc
 6116 0ceb 0B       		.uleb128 0xb
 6117 0cec E0000000 		.4byte	.LVL287
 6118 0cf0 D7250000 		.4byte	0x25d7
 6119 0cf4 FF0C0000 		.4byte	0xcff
 6120 0cf8 0C       		.uleb128 0xc
 6121 0cf9 01       		.uleb128 0x1
 6122 0cfa 50       		.byte	0x50
 6123 0cfb 02       		.uleb128 0x2
 6124 0cfc 74       		.byte	0x74
 6125 0cfd 00       		.sleb128 0
 6126 0cfe 00       		.byte	0
 6127 0cff 0B       		.uleb128 0xb
 6128 0d00 E6000000 		.4byte	.LVL288
 6129 0d04 E2250000 		.4byte	0x25e2
 6130 0d08 120D0000 		.4byte	0xd12
 6131 0d0c 0C       		.uleb128 0xc
 6132 0d0d 01       		.uleb128 0x1
 6133 0d0e 50       		.byte	0x50
 6134 0d0f 01       		.uleb128 0x1
 6135 0d10 31       		.byte	0x31
 6136 0d11 00       		.byte	0
 6137 0d12 0B       		.uleb128 0xb
 6138 0d13 EC000000 		.4byte	.LVL289
 6139 0d17 F0240000 		.4byte	0x24f0
 6140 0d1b 250D0000 		.4byte	0xd25
 6141 0d1f 0C       		.uleb128 0xc
ARM GAS  C:\Users\weiro\AppData\Local\Temp\ccglHz8v.s 			page 133


 6142 0d20 01       		.uleb128 0x1
 6143 0d21 50       		.byte	0x50
 6144 0d22 01       		.uleb128 0x1
 6145 0d23 44       		.byte	0x44
 6146 0d24 00       		.byte	0
 6147 0d25 0B       		.uleb128 0xb
 6148 0d26 F2000000 		.4byte	.LVL290
 6149 0d2a ED250000 		.4byte	0x25ed
 6150 0d2e 380D0000 		.4byte	0xd38
 6151 0d32 0C       		.uleb128 0xc
 6152 0d33 01       		.uleb128 0x1
 6153 0d34 50       		.byte	0x50
 6154 0d35 01       		.uleb128 0x1
 6155 0d36 31       		.byte	0x31
 6156 0d37 00       		.byte	0
 6157 0d38 0B       		.uleb128 0xb
 6158 0d39 F8000000 		.4byte	.LVL291
 6159 0d3d F0240000 		.4byte	0x24f0
 6160 0d41 4B0D0000 		.4byte	0xd4b
 6161 0d45 0C       		.uleb128 0xc
 6162 0d46 01       		.uleb128 0x1
 6163 0d47 50       		.byte	0x50
 6164 0d48 01       		.uleb128 0x1
 6165 0d49 31       		.byte	0x31
 6166 0d4a 00       		.byte	0
 6167 0d4b 0B       		.uleb128 0xb
 6168 0d4c FE000000 		.4byte	.LVL292
 6169 0d50 ED250000 		.4byte	0x25ed
 6170 0d54 5F0D0000 		.4byte	0xd5f
 6171 0d58 0C       		.uleb128 0xc
 6172 0d59 01       		.uleb128 0x1
 6173 0d5a 50       		.byte	0x50
 6174 0d5b 02       		.uleb128 0x2
 6175 0d5c 74       		.byte	0x74
 6176 0d5d 00       		.sleb128 0
 6177 0d5e 00       		.byte	0
 6178 0d5f 08       		.uleb128 0x8
 6179 0d60 0A010000 		.4byte	.LVL293
 6180 0d64 F8250000 		.4byte	0x25f8
 6181 0d68 0B       		.uleb128 0xb
 6182 0d69 1C010000 		.4byte	.LVL294
 6183 0d6d 98240000 		.4byte	0x2498
 6184 0d71 850D0000 		.4byte	0xd85
 6185 0d75 0C       		.uleb128 0xc
 6186 0d76 01       		.uleb128 0x1
 6187 0d77 50       		.byte	0x50
 6188 0d78 02       		.uleb128 0x2
 6189 0d79 75       		.byte	0x75
 6190 0d7a 00       		.sleb128 0
 6191 0d7b 0C       		.uleb128 0xc
 6192 0d7c 01       		.uleb128 0x1
 6193 0d7d 51       		.byte	0x51
 6194 0d7e 05       		.uleb128 0x5
 6195 0d7f 03       		.byte	0x3
 6196 0d80 60000000 		.4byte	.LC6
 6197 0d84 00       		.byte	0
 6198 0d85 0B       		.uleb128 0xb
ARM GAS  C:\Users\weiro\AppData\Local\Temp\ccglHz8v.s 			page 134


 6199 0d86 22010000 		.4byte	.LVL295
 6200 0d8a 06250000 		.4byte	0x2506
 6201 0d8e 990D0000 		.4byte	0xd99
 6202 0d92 0C       		.uleb128 0xc
 6203 0d93 01       		.uleb128 0x1
 6204 0d94 50       		.byte	0x50
 6205 0d95 02       		.uleb128 0x2
 6206 0d96 75       		.byte	0x75
 6207 0d97 00       		.sleb128 0
 6208 0d98 00       		.byte	0
 6209 0d99 08       		.uleb128 0x8
 6210 0d9a 26010000 		.4byte	.LVL296
 6211 0d9e 03260000 		.4byte	0x2603
 6212 0da2 0B       		.uleb128 0xb
 6213 0da3 44010000 		.4byte	.LVL297
 6214 0da7 0E260000 		.4byte	0x260e
 6215 0dab B50D0000 		.4byte	0xdb5
 6216 0daf 0C       		.uleb128 0xc
 6217 0db0 01       		.uleb128 0x1
 6218 0db1 50       		.byte	0x50
 6219 0db2 01       		.uleb128 0x1
 6220 0db3 31       		.byte	0x31
 6221 0db4 00       		.byte	0
 6222 0db5 0B       		.uleb128 0xb
 6223 0db6 4C010000 		.4byte	.LVL298
 6224 0dba F0240000 		.4byte	0x24f0
 6225 0dbe CA0D0000 		.4byte	0xdca
 6226 0dc2 0C       		.uleb128 0xc
 6227 0dc3 01       		.uleb128 0x1
 6228 0dc4 50       		.byte	0x50
 6229 0dc5 03       		.uleb128 0x3
 6230 0dc6 0A       		.byte	0xa
 6231 0dc7 E803     		.2byte	0x3e8
 6232 0dc9 00       		.byte	0
 6233 0dca 0B       		.uleb128 0xb
 6234 0dcb 52010000 		.4byte	.LVL299
 6235 0dcf 0E260000 		.4byte	0x260e
 6236 0dd3 DD0D0000 		.4byte	0xddd
 6237 0dd7 0C       		.uleb128 0xc
 6238 0dd8 01       		.uleb128 0x1
 6239 0dd9 50       		.byte	0x50
 6240 0dda 01       		.uleb128 0x1
 6241 0ddb 30       		.byte	0x30
 6242 0ddc 00       		.byte	0
 6243 0ddd 0B       		.uleb128 0xb
 6244 0dde 78010000 		.4byte	.LVL300
 6245 0de2 19260000 		.4byte	0x2619
 6246 0de6 F00D0000 		.4byte	0xdf0
 6247 0dea 0C       		.uleb128 0xc
 6248 0deb 01       		.uleb128 0x1
 6249 0dec 50       		.byte	0x50
 6250 0ded 01       		.uleb128 0x1
 6251 0dee 31       		.byte	0x31
 6252 0def 00       		.byte	0
 6253 0df0 0B       		.uleb128 0xb
 6254 0df1 80010000 		.4byte	.LVL301
 6255 0df5 F0240000 		.4byte	0x24f0
ARM GAS  C:\Users\weiro\AppData\Local\Temp\ccglHz8v.s 			page 135


 6256 0df9 050E0000 		.4byte	0xe05
 6257 0dfd 0C       		.uleb128 0xc
 6258 0dfe 01       		.uleb128 0x1
 6259 0dff 50       		.byte	0x50
 6260 0e00 03       		.uleb128 0x3
 6261 0e01 0A       		.byte	0xa
 6262 0e02 E803     		.2byte	0x3e8
 6263 0e04 00       		.byte	0
 6264 0e05 0B       		.uleb128 0xb
 6265 0e06 86010000 		.4byte	.LVL302
 6266 0e0a 19260000 		.4byte	0x2619
 6267 0e0e 180E0000 		.4byte	0xe18
 6268 0e12 0C       		.uleb128 0xc
 6269 0e13 01       		.uleb128 0x1
 6270 0e14 50       		.byte	0x50
 6271 0e15 01       		.uleb128 0x1
 6272 0e16 30       		.byte	0x30
 6273 0e17 00       		.byte	0
 6274 0e18 0B       		.uleb128 0xb
 6275 0e19 AC010000 		.4byte	.LVL303
 6276 0e1d 24260000 		.4byte	0x2624
 6277 0e21 2B0E0000 		.4byte	0xe2b
 6278 0e25 0C       		.uleb128 0xc
 6279 0e26 01       		.uleb128 0x1
 6280 0e27 50       		.byte	0x50
 6281 0e28 01       		.uleb128 0x1
 6282 0e29 31       		.byte	0x31
 6283 0e2a 00       		.byte	0
 6284 0e2b 0B       		.uleb128 0xb
 6285 0e2c B4010000 		.4byte	.LVL304
 6286 0e30 F0240000 		.4byte	0x24f0
 6287 0e34 400E0000 		.4byte	0xe40
 6288 0e38 0C       		.uleb128 0xc
 6289 0e39 01       		.uleb128 0x1
 6290 0e3a 50       		.byte	0x50
 6291 0e3b 03       		.uleb128 0x3
 6292 0e3c 0A       		.byte	0xa
 6293 0e3d E803     		.2byte	0x3e8
 6294 0e3f 00       		.byte	0
 6295 0e40 0B       		.uleb128 0xb
 6296 0e41 BA010000 		.4byte	.LVL305
 6297 0e45 24260000 		.4byte	0x2624
 6298 0e49 530E0000 		.4byte	0xe53
 6299 0e4d 0C       		.uleb128 0xc
 6300 0e4e 01       		.uleb128 0x1
 6301 0e4f 50       		.byte	0x50
 6302 0e50 01       		.uleb128 0x1
 6303 0e51 30       		.byte	0x30
 6304 0e52 00       		.byte	0
 6305 0e53 0B       		.uleb128 0xb
 6306 0e54 C0010000 		.4byte	.LVL306
 6307 0e58 C1250000 		.4byte	0x25c1
 6308 0e5c 660E0000 		.4byte	0xe66
 6309 0e60 0C       		.uleb128 0xc
 6310 0e61 01       		.uleb128 0x1
 6311 0e62 50       		.byte	0x50
 6312 0e63 01       		.uleb128 0x1
ARM GAS  C:\Users\weiro\AppData\Local\Temp\ccglHz8v.s 			page 136


 6313 0e64 30       		.byte	0x30
 6314 0e65 00       		.byte	0
 6315 0e66 0B       		.uleb128 0xb
 6316 0e67 C8010000 		.4byte	.LVL307
 6317 0e6b 7F250000 		.4byte	0x257f
 6318 0e6f 790E0000 		.4byte	0xe79
 6319 0e73 0C       		.uleb128 0xc
 6320 0e74 01       		.uleb128 0x1
 6321 0e75 50       		.byte	0x50
 6322 0e76 01       		.uleb128 0x1
 6323 0e77 31       		.byte	0x31
 6324 0e78 00       		.byte	0
 6325 0e79 0B       		.uleb128 0xb
 6326 0e7a CE010000 		.4byte	.LVL308
 6327 0e7e 8A250000 		.4byte	0x258a
 6328 0e82 8C0E0000 		.4byte	0xe8c
 6329 0e86 0C       		.uleb128 0xc
 6330 0e87 01       		.uleb128 0x1
 6331 0e88 50       		.byte	0x50
 6332 0e89 01       		.uleb128 0x1
 6333 0e8a 3A       		.byte	0x3a
 6334 0e8b 00       		.byte	0
 6335 0e8c 0B       		.uleb128 0xb
 6336 0e8d D4010000 		.4byte	.LVL309
 6337 0e91 7F250000 		.4byte	0x257f
 6338 0e95 9F0E0000 		.4byte	0xe9f
 6339 0e99 0C       		.uleb128 0xc
 6340 0e9a 01       		.uleb128 0x1
 6341 0e9b 50       		.byte	0x50
 6342 0e9c 01       		.uleb128 0x1
 6343 0e9d 30       		.byte	0x30
 6344 0e9e 00       		.byte	0
 6345 0e9f 08       		.uleb128 0x8
 6346 0ea0 D8010000 		.4byte	.LVL310
 6347 0ea4 2F260000 		.4byte	0x262f
 6348 0ea8 0B       		.uleb128 0xb
 6349 0ea9 F4010000 		.4byte	.LVL312
 6350 0ead 8B060000 		.4byte	0x68b
 6351 0eb1 C00E0000 		.4byte	0xec0
 6352 0eb5 0C       		.uleb128 0xc
 6353 0eb6 01       		.uleb128 0x1
 6354 0eb7 50       		.byte	0x50
 6355 0eb8 01       		.uleb128 0x1
 6356 0eb9 44       		.byte	0x44
 6357 0eba 0C       		.uleb128 0xc
 6358 0ebb 01       		.uleb128 0x1
 6359 0ebc 51       		.byte	0x51
 6360 0ebd 01       		.uleb128 0x1
 6361 0ebe 31       		.byte	0x31
 6362 0ebf 00       		.byte	0
 6363 0ec0 0B       		.uleb128 0xb
 6364 0ec1 1A020000 		.4byte	.LVL314
 6365 0ec5 AD090000 		.4byte	0x9ad
 6366 0ec9 D30E0000 		.4byte	0xed3
 6367 0ecd 0C       		.uleb128 0xc
 6368 0ece 01       		.uleb128 0x1
 6369 0ecf 51       		.byte	0x51
ARM GAS  C:\Users\weiro\AppData\Local\Temp\ccglHz8v.s 			page 137


 6370 0ed0 01       		.uleb128 0x1
 6371 0ed1 31       		.byte	0x31
 6372 0ed2 00       		.byte	0
 6373 0ed3 0B       		.uleb128 0xb
 6374 0ed4 22020000 		.4byte	.LVL315
 6375 0ed8 F0240000 		.4byte	0x24f0
 6376 0edc E80E0000 		.4byte	0xee8
 6377 0ee0 0C       		.uleb128 0xc
 6378 0ee1 01       		.uleb128 0x1
 6379 0ee2 50       		.byte	0x50
 6380 0ee3 03       		.uleb128 0x3
 6381 0ee4 0A       		.byte	0xa
 6382 0ee5 F401     		.2byte	0x1f4
 6383 0ee7 00       		.byte	0
 6384 0ee8 08       		.uleb128 0x8
 6385 0ee9 26020000 		.4byte	.LVL316
 6386 0eed 24080000 		.4byte	0x824
 6387 0ef1 0B       		.uleb128 0xb
 6388 0ef2 2E020000 		.4byte	.LVL317
 6389 0ef6 F0240000 		.4byte	0x24f0
 6390 0efa 060F0000 		.4byte	0xf06
 6391 0efe 0C       		.uleb128 0xc
 6392 0eff 01       		.uleb128 0x1
 6393 0f00 50       		.byte	0x50
 6394 0f01 03       		.uleb128 0x3
 6395 0f02 0A       		.byte	0xa
 6396 0f03 F401     		.2byte	0x1f4
 6397 0f05 00       		.byte	0
 6398 0f06 0B       		.uleb128 0xb
 6399 0f07 36020000 		.4byte	.LVL318
 6400 0f0b 8B060000 		.4byte	0x68b
 6401 0f0f 1E0F0000 		.4byte	0xf1e
 6402 0f13 0C       		.uleb128 0xc
 6403 0f14 01       		.uleb128 0x1
 6404 0f15 50       		.byte	0x50
 6405 0f16 01       		.uleb128 0x1
 6406 0f17 44       		.byte	0x44
 6407 0f18 0C       		.uleb128 0xc
 6408 0f19 01       		.uleb128 0x1
 6409 0f1a 51       		.byte	0x51
 6410 0f1b 01       		.uleb128 0x1
 6411 0f1c 31       		.byte	0x31
 6412 0f1d 00       		.byte	0
 6413 0f1e 0B       		.uleb128 0xb
 6414 0f1f 3E020000 		.4byte	.LVL319
 6415 0f23 F0240000 		.4byte	0x24f0
 6416 0f27 330F0000 		.4byte	0xf33
 6417 0f2b 0C       		.uleb128 0xc
 6418 0f2c 01       		.uleb128 0x1
 6419 0f2d 50       		.byte	0x50
 6420 0f2e 03       		.uleb128 0x3
 6421 0f2f 0A       		.byte	0xa
 6422 0f30 F401     		.2byte	0x1f4
 6423 0f32 00       		.byte	0
 6424 0f33 0B       		.uleb128 0xb
 6425 0f34 4C020000 		.4byte	.LVL321
 6426 0f38 AD090000 		.4byte	0x9ad
ARM GAS  C:\Users\weiro\AppData\Local\Temp\ccglHz8v.s 			page 138


 6427 0f3c 460F0000 		.4byte	0xf46
 6428 0f40 0C       		.uleb128 0xc
 6429 0f41 01       		.uleb128 0x1
 6430 0f42 51       		.byte	0x51
 6431 0f43 01       		.uleb128 0x1
 6432 0f44 30       		.byte	0x30
 6433 0f45 00       		.byte	0
 6434 0f46 0B       		.uleb128 0xb
 6435 0f47 54020000 		.4byte	.LVL322
 6436 0f4b F0240000 		.4byte	0x24f0
 6437 0f4f 5B0F0000 		.4byte	0xf5b
 6438 0f53 0C       		.uleb128 0xc
 6439 0f54 01       		.uleb128 0x1
 6440 0f55 50       		.byte	0x50
 6441 0f56 03       		.uleb128 0x3
 6442 0f57 0A       		.byte	0xa
 6443 0f58 F401     		.2byte	0x1f4
 6444 0f5a 00       		.byte	0
 6445 0f5b 0B       		.uleb128 0xb
 6446 0f5c 5C020000 		.4byte	.LVL323
 6447 0f60 8B060000 		.4byte	0x68b
 6448 0f64 730F0000 		.4byte	0xf73
 6449 0f68 0C       		.uleb128 0xc
 6450 0f69 01       		.uleb128 0x1
 6451 0f6a 50       		.byte	0x50
 6452 0f6b 01       		.uleb128 0x1
 6453 0f6c 4E       		.byte	0x4e
 6454 0f6d 0C       		.uleb128 0xc
 6455 0f6e 01       		.uleb128 0x1
 6456 0f6f 51       		.byte	0x51
 6457 0f70 01       		.uleb128 0x1
 6458 0f71 31       		.byte	0x31
 6459 0f72 00       		.byte	0
 6460 0f73 0B       		.uleb128 0xb
 6461 0f74 64020000 		.4byte	.LVL324
 6462 0f78 F0240000 		.4byte	0x24f0
 6463 0f7c 880F0000 		.4byte	0xf88
 6464 0f80 0C       		.uleb128 0xc
 6465 0f81 01       		.uleb128 0x1
 6466 0f82 50       		.byte	0x50
 6467 0f83 03       		.uleb128 0x3
 6468 0f84 0A       		.byte	0xa
 6469 0f85 F401     		.2byte	0x1f4
 6470 0f87 00       		.byte	0
 6471 0f88 08       		.uleb128 0x8
 6472 0f89 68020000 		.4byte	.LVL325
 6473 0f8d 24080000 		.4byte	0x824
 6474 0f91 0B       		.uleb128 0xb
 6475 0f92 70020000 		.4byte	.LVL326
 6476 0f96 F0240000 		.4byte	0x24f0
 6477 0f9a A60F0000 		.4byte	0xfa6
 6478 0f9e 0C       		.uleb128 0xc
 6479 0f9f 01       		.uleb128 0x1
 6480 0fa0 50       		.byte	0x50
 6481 0fa1 03       		.uleb128 0x3
 6482 0fa2 0A       		.byte	0xa
 6483 0fa3 F401     		.2byte	0x1f4
ARM GAS  C:\Users\weiro\AppData\Local\Temp\ccglHz8v.s 			page 139


 6484 0fa5 00       		.byte	0
 6485 0fa6 0B       		.uleb128 0xb
 6486 0fa7 78020000 		.4byte	.LVL327
 6487 0fab 8B060000 		.4byte	0x68b
 6488 0faf BE0F0000 		.4byte	0xfbe
 6489 0fb3 0C       		.uleb128 0xc
 6490 0fb4 01       		.uleb128 0x1
 6491 0fb5 50       		.byte	0x50
 6492 0fb6 01       		.uleb128 0x1
 6493 0fb7 44       		.byte	0x44
 6494 0fb8 0C       		.uleb128 0xc
 6495 0fb9 01       		.uleb128 0x1
 6496 0fba 51       		.byte	0x51
 6497 0fbb 01       		.uleb128 0x1
 6498 0fbc 31       		.byte	0x31
 6499 0fbd 00       		.byte	0
 6500 0fbe 0B       		.uleb128 0xb
 6501 0fbf 80020000 		.4byte	.LVL328
 6502 0fc3 F0240000 		.4byte	0x24f0
 6503 0fc7 D30F0000 		.4byte	0xfd3
 6504 0fcb 0C       		.uleb128 0xc
 6505 0fcc 01       		.uleb128 0x1
 6506 0fcd 50       		.byte	0x50
 6507 0fce 03       		.uleb128 0x3
 6508 0fcf 0A       		.byte	0xa
 6509 0fd0 F401     		.2byte	0x1f4
 6510 0fd2 00       		.byte	0
 6511 0fd3 0B       		.uleb128 0xb
 6512 0fd4 8E020000 		.4byte	.LVL330
 6513 0fd8 AD090000 		.4byte	0x9ad
 6514 0fdc E60F0000 		.4byte	0xfe6
 6515 0fe0 0C       		.uleb128 0xc
 6516 0fe1 01       		.uleb128 0x1
 6517 0fe2 51       		.byte	0x51
 6518 0fe3 01       		.uleb128 0x1
 6519 0fe4 30       		.byte	0x30
 6520 0fe5 00       		.byte	0
 6521 0fe6 0B       		.uleb128 0xb
 6522 0fe7 96020000 		.4byte	.LVL331
 6523 0feb F0240000 		.4byte	0x24f0
 6524 0fef FB0F0000 		.4byte	0xffb
 6525 0ff3 0C       		.uleb128 0xc
 6526 0ff4 01       		.uleb128 0x1
 6527 0ff5 50       		.byte	0x50
 6528 0ff6 03       		.uleb128 0x3
 6529 0ff7 0A       		.byte	0xa
 6530 0ff8 F401     		.2byte	0x1f4
 6531 0ffa 00       		.byte	0
 6532 0ffb 0B       		.uleb128 0xb
 6533 0ffc 9E020000 		.4byte	.LVL332
 6534 1000 8B060000 		.4byte	0x68b
 6535 1004 13100000 		.4byte	0x1013
 6536 1008 0C       		.uleb128 0xc
 6537 1009 01       		.uleb128 0x1
 6538 100a 50       		.byte	0x50
 6539 100b 01       		.uleb128 0x1
 6540 100c 44       		.byte	0x44
ARM GAS  C:\Users\weiro\AppData\Local\Temp\ccglHz8v.s 			page 140


 6541 100d 0C       		.uleb128 0xc
 6542 100e 01       		.uleb128 0x1
 6543 100f 51       		.byte	0x51
 6544 1010 01       		.uleb128 0x1
 6545 1011 31       		.byte	0x31
 6546 1012 00       		.byte	0
 6547 1013 0B       		.uleb128 0xb
 6548 1014 A6020000 		.4byte	.LVL333
 6549 1018 F0240000 		.4byte	0x24f0
 6550 101c 28100000 		.4byte	0x1028
 6551 1020 0C       		.uleb128 0xc
 6552 1021 01       		.uleb128 0x1
 6553 1022 50       		.byte	0x50
 6554 1023 03       		.uleb128 0x3
 6555 1024 0A       		.byte	0xa
 6556 1025 F401     		.2byte	0x1f4
 6557 1027 00       		.byte	0
 6558 1028 0B       		.uleb128 0xb
 6559 1029 B4020000 		.4byte	.LVL335
 6560 102d AD090000 		.4byte	0x9ad
 6561 1031 3B100000 		.4byte	0x103b
 6562 1035 0C       		.uleb128 0xc
 6563 1036 01       		.uleb128 0x1
 6564 1037 51       		.byte	0x51
 6565 1038 01       		.uleb128 0x1
 6566 1039 31       		.byte	0x31
 6567 103a 00       		.byte	0
 6568 103b 0B       		.uleb128 0xb
 6569 103c BC020000 		.4byte	.LVL336
 6570 1040 F0240000 		.4byte	0x24f0
 6571 1044 50100000 		.4byte	0x1050
 6572 1048 0C       		.uleb128 0xc
 6573 1049 01       		.uleb128 0x1
 6574 104a 50       		.byte	0x50
 6575 104b 03       		.uleb128 0x3
 6576 104c 0A       		.byte	0xa
 6577 104d F401     		.2byte	0x1f4
 6578 104f 00       		.byte	0
 6579 1050 0B       		.uleb128 0xb
 6580 1051 C4020000 		.4byte	.LVL337
 6581 1055 8B060000 		.4byte	0x68b
 6582 1059 68100000 		.4byte	0x1068
 6583 105d 0C       		.uleb128 0xc
 6584 105e 01       		.uleb128 0x1
 6585 105f 50       		.byte	0x50
 6586 1060 01       		.uleb128 0x1
 6587 1061 44       		.byte	0x44
 6588 1062 0C       		.uleb128 0xc
 6589 1063 01       		.uleb128 0x1
 6590 1064 51       		.byte	0x51
 6591 1065 01       		.uleb128 0x1
 6592 1066 31       		.byte	0x31
 6593 1067 00       		.byte	0
 6594 1068 0D       		.uleb128 0xd
 6595 1069 CC020000 		.4byte	.LVL338
 6596 106d F0240000 		.4byte	0x24f0
 6597 1071 0C       		.uleb128 0xc
ARM GAS  C:\Users\weiro\AppData\Local\Temp\ccglHz8v.s 			page 141


 6598 1072 01       		.uleb128 0x1
 6599 1073 50       		.byte	0x50
 6600 1074 03       		.uleb128 0x3
 6601 1075 0A       		.byte	0xa
 6602 1076 F401     		.2byte	0x1f4
 6603 1078 00       		.byte	0
 6604 1079 00       		.byte	0
 6605 107a 0F       		.uleb128 0xf
 6606 107b 8E040000 		.4byte	.LASF48
 6607 107f 01       		.byte	0x1
 6608 1080 1803     		.2byte	0x318
 6609 1082 00000000 		.4byte	.LFB83
 6610 1086 5E000000 		.4byte	.LFE83-.LFB83
 6611 108a 01       		.uleb128 0x1
 6612 108b 9C       		.byte	0x9c
 6613 108c 9F110000 		.4byte	0x119f
 6614 1090 0B       		.uleb128 0xb
 6615 1091 0A000000 		.4byte	.LVL347
 6616 1095 CF240000 		.4byte	0x24cf
 6617 1099 A9100000 		.4byte	0x10a9
 6618 109d 0C       		.uleb128 0xc
 6619 109e 01       		.uleb128 0x1
 6620 109f 50       		.byte	0x50
 6621 10a0 02       		.uleb128 0x2
 6622 10a1 08       		.byte	0x8
 6623 10a2 68       		.byte	0x68
 6624 10a3 0C       		.uleb128 0xc
 6625 10a4 01       		.uleb128 0x1
 6626 10a5 51       		.byte	0x51
 6627 10a6 01       		.uleb128 0x1
 6628 10a7 30       		.byte	0x30
 6629 10a8 00       		.byte	0
 6630 10a9 0B       		.uleb128 0xb
 6631 10aa 10000000 		.4byte	.LVL348
 6632 10ae DA240000 		.4byte	0x24da
 6633 10b2 BD100000 		.4byte	0x10bd
 6634 10b6 0C       		.uleb128 0xc
 6635 10b7 01       		.uleb128 0x1
 6636 10b8 50       		.byte	0x50
 6637 10b9 02       		.uleb128 0x2
 6638 10ba 08       		.byte	0x8
 6639 10bb 6B       		.byte	0x6b
 6640 10bc 00       		.byte	0
 6641 10bd 0B       		.uleb128 0xb
 6642 10be 16000000 		.4byte	.LVL349
 6643 10c2 DA240000 		.4byte	0x24da
 6644 10c6 D0100000 		.4byte	0x10d0
 6645 10ca 0C       		.uleb128 0xc
 6646 10cb 01       		.uleb128 0x1
 6647 10cc 50       		.byte	0x50
 6648 10cd 01       		.uleb128 0x1
 6649 10ce 30       		.byte	0x30
 6650 10cf 00       		.byte	0
 6651 10d0 08       		.uleb128 0x8
 6652 10d1 1A000000 		.4byte	.LVL350
 6653 10d5 E5240000 		.4byte	0x24e5
 6654 10d9 0B       		.uleb128 0xb
ARM GAS  C:\Users\weiro\AppData\Local\Temp\ccglHz8v.s 			page 142


 6655 10da 20000000 		.4byte	.LVL351
 6656 10de F0240000 		.4byte	0x24f0
 6657 10e2 EC100000 		.4byte	0x10ec
 6658 10e6 0C       		.uleb128 0xc
 6659 10e7 01       		.uleb128 0x1
 6660 10e8 50       		.byte	0x50
 6661 10e9 01       		.uleb128 0x1
 6662 10ea 31       		.byte	0x31
 6663 10eb 00       		.byte	0
 6664 10ec 0B       		.uleb128 0xb
 6665 10ed 28000000 		.4byte	.LVL352
 6666 10f1 CF240000 		.4byte	0x24cf
 6667 10f5 05110000 		.4byte	0x1105
 6668 10f9 0C       		.uleb128 0xc
 6669 10fa 01       		.uleb128 0x1
 6670 10fb 50       		.byte	0x50
 6671 10fc 02       		.uleb128 0x2
 6672 10fd 08       		.byte	0x8
 6673 10fe 68       		.byte	0x68
 6674 10ff 0C       		.uleb128 0xc
 6675 1100 01       		.uleb128 0x1
 6676 1101 51       		.byte	0x51
 6677 1102 01       		.uleb128 0x1
 6678 1103 30       		.byte	0x30
 6679 1104 00       		.byte	0
 6680 1105 0B       		.uleb128 0xb
 6681 1106 2E000000 		.4byte	.LVL353
 6682 110a DA240000 		.4byte	0x24da
 6683 110e 18110000 		.4byte	0x1118
 6684 1112 0C       		.uleb128 0xc
 6685 1113 01       		.uleb128 0x1
 6686 1114 50       		.byte	0x50
 6687 1115 01       		.uleb128 0x1
 6688 1116 4B       		.byte	0x4b
 6689 1117 00       		.byte	0
 6690 1118 0B       		.uleb128 0xb
 6691 1119 34000000 		.4byte	.LVL354
 6692 111d DA240000 		.4byte	0x24da
 6693 1121 2B110000 		.4byte	0x112b
 6694 1125 0C       		.uleb128 0xc
 6695 1126 01       		.uleb128 0x1
 6696 1127 50       		.byte	0x50
 6697 1128 01       		.uleb128 0x1
 6698 1129 38       		.byte	0x38
 6699 112a 00       		.byte	0
 6700 112b 08       		.uleb128 0x8
 6701 112c 38000000 		.4byte	.LVL355
 6702 1130 E5240000 		.4byte	0x24e5
 6703 1134 0B       		.uleb128 0xb
 6704 1135 3E000000 		.4byte	.LVL356
 6705 1139 F0240000 		.4byte	0x24f0
 6706 113d 47110000 		.4byte	0x1147
 6707 1141 0C       		.uleb128 0xc
 6708 1142 01       		.uleb128 0x1
 6709 1143 50       		.byte	0x50
 6710 1144 01       		.uleb128 0x1
 6711 1145 31       		.byte	0x31
ARM GAS  C:\Users\weiro\AppData\Local\Temp\ccglHz8v.s 			page 143


 6712 1146 00       		.byte	0
 6713 1147 0B       		.uleb128 0xb
 6714 1148 46000000 		.4byte	.LVL357
 6715 114c CF240000 		.4byte	0x24cf
 6716 1150 60110000 		.4byte	0x1160
 6717 1154 0C       		.uleb128 0xc
 6718 1155 01       		.uleb128 0x1
 6719 1156 50       		.byte	0x50
 6720 1157 02       		.uleb128 0x2
 6721 1158 08       		.byte	0x8
 6722 1159 68       		.byte	0x68
 6723 115a 0C       		.uleb128 0xc
 6724 115b 01       		.uleb128 0x1
 6725 115c 51       		.byte	0x51
 6726 115d 01       		.uleb128 0x1
 6727 115e 30       		.byte	0x30
 6728 115f 00       		.byte	0
 6729 1160 0B       		.uleb128 0xb
 6730 1161 4C000000 		.4byte	.LVL358
 6731 1165 DA240000 		.4byte	0x24da
 6732 1169 73110000 		.4byte	0x1173
 6733 116d 0C       		.uleb128 0xc
 6734 116e 01       		.uleb128 0x1
 6735 116f 50       		.byte	0x50
 6736 1170 01       		.uleb128 0x1
 6737 1171 4A       		.byte	0x4a
 6738 1172 00       		.byte	0
 6739 1173 0B       		.uleb128 0xb
 6740 1174 52000000 		.4byte	.LVL359
 6741 1178 DA240000 		.4byte	0x24da
 6742 117c 86110000 		.4byte	0x1186
 6743 1180 0C       		.uleb128 0xc
 6744 1181 01       		.uleb128 0x1
 6745 1182 50       		.byte	0x50
 6746 1183 01       		.uleb128 0x1
 6747 1184 35       		.byte	0x35
 6748 1185 00       		.byte	0
 6749 1186 08       		.uleb128 0x8
 6750 1187 56000000 		.4byte	.LVL360
 6751 118b E5240000 		.4byte	0x24e5
 6752 118f 0D       		.uleb128 0xd
 6753 1190 5C000000 		.4byte	.LVL361
 6754 1194 F0240000 		.4byte	0x24f0
 6755 1198 0C       		.uleb128 0xc
 6756 1199 01       		.uleb128 0x1
 6757 119a 50       		.byte	0x50
 6758 119b 01       		.uleb128 0x1
 6759 119c 31       		.byte	0x31
 6760 119d 00       		.byte	0
 6761 119e 00       		.byte	0
 6762 119f 0F       		.uleb128 0xf
 6763 11a0 1A040000 		.4byte	.LASF49
 6764 11a4 01       		.byte	0x1
 6765 11a5 3203     		.2byte	0x332
 6766 11a7 00000000 		.4byte	.LFB84
 6767 11ab 28000000 		.4byte	.LFE84-.LFB84
 6768 11af 01       		.uleb128 0x1
ARM GAS  C:\Users\weiro\AppData\Local\Temp\ccglHz8v.s 			page 144


 6769 11b0 9C       		.byte	0x9c
 6770 11b1 4E120000 		.4byte	0x124e
 6771 11b5 11       		.uleb128 0x11
 6772 11b6 3D080000 		.4byte	.LASF36
 6773 11ba 01       		.byte	0x1
 6774 11bb 3403     		.2byte	0x334
 6775 11bd 6F000000 		.4byte	0x6f
 6776 11c1 00       		.byte	0
 6777 11c2 19       		.uleb128 0x19
 6778 11c3 1C070000 		.4byte	.LASF50
 6779 11c7 01       		.byte	0x1
 6780 11c8 3503     		.2byte	0x335
 6781 11ca 25000000 		.4byte	0x25
 6782 11ce 08       		.byte	0x8
 6783 11cf 00000000 		.4byte	0
 6784 11d3 00001440 		.4byte	0x40140000
 6785 11d7 1A       		.uleb128 0x1a
 6786 11d8 6C050000 		.4byte	.LASF51
 6787 11dc 01       		.byte	0x1
 6788 11dd 3603     		.2byte	0x336
 6789 11df 6F000000 		.4byte	0x6f
 6790 11e3 E9110000 		.4byte	0x11e9
 6791 11e7 0A       		.uleb128 0xa
 6792 11e8 00       		.byte	0
 6793 11e9 0B       		.uleb128 0xb
 6794 11ea 08000000 		.4byte	.LVL363
 6795 11ee 3A260000 		.4byte	0x263a
 6796 11f2 FC110000 		.4byte	0x11fc
 6797 11f6 0C       		.uleb128 0xc
 6798 11f7 01       		.uleb128 0x1
 6799 11f8 50       		.byte	0x50
 6800 11f9 01       		.uleb128 0x1
 6801 11fa 31       		.byte	0x31
 6802 11fb 00       		.byte	0
 6803 11fc 0B       		.uleb128 0xb
 6804 11fd 10000000 		.4byte	.LVL364
 6805 1201 F0240000 		.4byte	0x24f0
 6806 1205 11120000 		.4byte	0x1211
 6807 1209 0C       		.uleb128 0xc
 6808 120a 01       		.uleb128 0x1
 6809 120b 50       		.byte	0x50
 6810 120c 03       		.uleb128 0x3
 6811 120d 0A       		.byte	0xa
 6812 120e 8813     		.2byte	0x1388
 6813 1210 00       		.byte	0
 6814 1211 0B       		.uleb128 0xb
 6815 1212 18000000 		.4byte	.LVL365
 6816 1216 8B060000 		.4byte	0x68b
 6817 121a 29120000 		.4byte	0x1229
 6818 121e 0C       		.uleb128 0xc
 6819 121f 01       		.uleb128 0x1
 6820 1220 50       		.byte	0x50
 6821 1221 01       		.uleb128 0x1
 6822 1222 35       		.byte	0x35
 6823 1223 0C       		.uleb128 0xc
 6824 1224 01       		.uleb128 0x1
 6825 1225 51       		.byte	0x51
ARM GAS  C:\Users\weiro\AppData\Local\Temp\ccglHz8v.s 			page 145


 6826 1226 01       		.uleb128 0x1
 6827 1227 30       		.byte	0x30
 6828 1228 00       		.byte	0
 6829 1229 0B       		.uleb128 0xb
 6830 122a 20000000 		.4byte	.LVL366
 6831 122e F0240000 		.4byte	0x24f0
 6832 1232 3E120000 		.4byte	0x123e
 6833 1236 0C       		.uleb128 0xc
 6834 1237 01       		.uleb128 0x1
 6835 1238 50       		.byte	0x50
 6836 1239 03       		.uleb128 0x3
 6837 123a 0A       		.byte	0xa
 6838 123b F401     		.2byte	0x1f4
 6839 123d 00       		.byte	0
 6840 123e 0D       		.uleb128 0xd
 6841 123f 26000000 		.4byte	.LVL367
 6842 1243 3A260000 		.4byte	0x263a
 6843 1247 0C       		.uleb128 0xc
 6844 1248 01       		.uleb128 0x1
 6845 1249 50       		.byte	0x50
 6846 124a 01       		.uleb128 0x1
 6847 124b 30       		.byte	0x30
 6848 124c 00       		.byte	0
 6849 124d 00       		.byte	0
 6850 124e 1B       		.uleb128 0x1b
 6851 124f F8080000 		.4byte	.LASF52
 6852 1253 01       		.byte	0x1
 6853 1254 3D03     		.2byte	0x33d
 6854 1256 A0000000 		.4byte	0xa0
 6855 125a 00000000 		.4byte	.LFB85
 6856 125e D4000000 		.4byte	.LFE85-.LFB85
 6857 1262 01       		.uleb128 0x1
 6858 1263 9C       		.byte	0x9c
 6859 1264 95130000 		.4byte	0x1395
 6860 1268 12       		.uleb128 0x12
 6861 1269 FE060000 		.4byte	.LASF53
 6862 126d 01       		.byte	0x1
 6863 126e 3F03     		.2byte	0x33f
 6864 1270 6F000000 		.4byte	0x6f
 6865 1274 65040000 		.4byte	.LLST19
 6866 1278 12       		.uleb128 0x12
 6867 1279 C0050000 		.4byte	.LASF54
 6868 127d 01       		.byte	0x1
 6869 127e 4003     		.2byte	0x340
 6870 1280 A0000000 		.4byte	0xa0
 6871 1284 94040000 		.4byte	.LLST20
 6872 1288 12       		.uleb128 0x12
 6873 1289 56000000 		.4byte	.LASF55
 6874 128d 01       		.byte	0x1
 6875 128e 4103     		.2byte	0x341
 6876 1290 A0000000 		.4byte	0xa0
 6877 1294 B7040000 		.4byte	.LLST21
 6878 1298 12       		.uleb128 0x12
 6879 1299 AC040000 		.4byte	.LASF56
 6880 129d 01       		.byte	0x1
 6881 129e 4203     		.2byte	0x342
 6882 12a0 6F000000 		.4byte	0x6f
ARM GAS  C:\Users\weiro\AppData\Local\Temp\ccglHz8v.s 			page 146


 6883 12a4 F0040000 		.4byte	.LLST22
 6884 12a8 12       		.uleb128 0x12
 6885 12a9 4C040000 		.4byte	.LASF57
 6886 12ad 01       		.byte	0x1
 6887 12ae 4303     		.2byte	0x343
 6888 12b0 A0000000 		.4byte	0xa0
 6889 12b4 0F050000 		.4byte	.LLST23
 6890 12b8 12       		.uleb128 0x12
 6891 12b9 85000000 		.4byte	.LASF58
 6892 12bd 01       		.byte	0x1
 6893 12be 4403     		.2byte	0x344
 6894 12c0 A0000000 		.4byte	0xa0
 6895 12c4 32050000 		.4byte	.LLST24
 6896 12c8 08       		.uleb128 0x8
 6897 12c9 0C000000 		.4byte	.LVL370
 6898 12cd 46260000 		.4byte	0x2646
 6899 12d1 0B       		.uleb128 0xb
 6900 12d2 12000000 		.4byte	.LVL371
 6901 12d6 51260000 		.4byte	0x2651
 6902 12da E4120000 		.4byte	0x12e4
 6903 12de 0C       		.uleb128 0xc
 6904 12df 01       		.uleb128 0x1
 6905 12e0 50       		.byte	0x50
 6906 12e1 01       		.uleb128 0x1
 6907 12e2 31       		.byte	0x31
 6908 12e3 00       		.byte	0
 6909 12e4 08       		.uleb128 0x8
 6910 12e5 1A000000 		.4byte	.LVL372
 6911 12e9 5C260000 		.4byte	0x265c
 6912 12ed 0B       		.uleb128 0xb
 6913 12ee 34000000 		.4byte	.LVL377
 6914 12f2 F0240000 		.4byte	0x24f0
 6915 12f6 00130000 		.4byte	0x1300
 6916 12fa 0C       		.uleb128 0xc
 6917 12fb 01       		.uleb128 0x1
 6918 12fc 50       		.byte	0x50
 6919 12fd 01       		.uleb128 0x1
 6920 12fe 44       		.byte	0x44
 6921 12ff 00       		.byte	0
 6922 1300 0B       		.uleb128 0xb
 6923 1301 6C000000 		.4byte	.LVL383
 6924 1305 67260000 		.4byte	0x2667
 6925 1309 22130000 		.4byte	0x1322
 6926 130d 0C       		.uleb128 0xc
 6927 130e 06       		.uleb128 0x6
 6928 130f 52       		.byte	0x52
 6929 1310 93       		.byte	0x93
 6930 1311 04       		.uleb128 0x4
 6931 1312 53       		.byte	0x53
 6932 1313 93       		.byte	0x93
 6933 1314 04       		.uleb128 0x4
 6934 1315 0B       		.uleb128 0xb
 6935 1316 F4       		.byte	0xf4
 6936 1317 25       		.uleb128 0x25
 6937 1318 08       		.byte	0x8
 6938 1319 1A578E1A 		.4byte	0x1a8e571a
 6939 131d 578EEABF 		.4byte	0xbfea8e57
ARM GAS  C:\Users\weiro\AppData\Local\Temp\ccglHz8v.s 			page 147


 6940 1321 00       		.byte	0
 6941 1322 0B       		.uleb128 0xb
 6942 1323 78000000 		.4byte	.LVL387
 6943 1327 F0240000 		.4byte	0x24f0
 6944 132b 36130000 		.4byte	0x1336
 6945 132f 0C       		.uleb128 0xc
 6946 1330 01       		.uleb128 0x1
 6947 1331 50       		.byte	0x50
 6948 1332 02       		.uleb128 0x2
 6949 1333 08       		.byte	0x8
 6950 1334 C8       		.byte	0xc8
 6951 1335 00       		.byte	0
 6952 1336 0B       		.uleb128 0xb
 6953 1337 86000000 		.4byte	.LVL389
 6954 133b 98240000 		.4byte	0x2498
 6955 133f 53130000 		.4byte	0x1353
 6956 1343 0C       		.uleb128 0xc
 6957 1344 01       		.uleb128 0x1
 6958 1345 50       		.byte	0x50
 6959 1346 02       		.uleb128 0x2
 6960 1347 74       		.byte	0x74
 6961 1348 00       		.sleb128 0
 6962 1349 0C       		.uleb128 0xc
 6963 134a 01       		.uleb128 0x1
 6964 134b 51       		.byte	0x51
 6965 134c 05       		.uleb128 0x5
 6966 134d 03       		.byte	0x3
 6967 134e 7C000000 		.4byte	.LC8
 6968 1352 00       		.byte	0
 6969 1353 0B       		.uleb128 0xb
 6970 1354 8C000000 		.4byte	.LVL390
 6971 1358 06250000 		.4byte	0x2506
 6972 135c 67130000 		.4byte	0x1367
 6973 1360 0C       		.uleb128 0xc
 6974 1361 01       		.uleb128 0x1
 6975 1362 50       		.byte	0x50
 6976 1363 02       		.uleb128 0x2
 6977 1364 74       		.byte	0x74
 6978 1365 00       		.sleb128 0
 6979 1366 00       		.byte	0
 6980 1367 0B       		.uleb128 0xb
 6981 1368 9E000000 		.4byte	.LVL392
 6982 136c 98240000 		.4byte	0x2498
 6983 1370 84130000 		.4byte	0x1384
 6984 1374 0C       		.uleb128 0xc
 6985 1375 01       		.uleb128 0x1
 6986 1376 50       		.byte	0x50
 6987 1377 02       		.uleb128 0x2
 6988 1378 74       		.byte	0x74
 6989 1379 00       		.sleb128 0
 6990 137a 0C       		.uleb128 0xc
 6991 137b 01       		.uleb128 0x1
 6992 137c 51       		.byte	0x51
 6993 137d 05       		.uleb128 0x5
 6994 137e 03       		.byte	0x3
 6995 137f 8C000000 		.4byte	.LC9
 6996 1383 00       		.byte	0
ARM GAS  C:\Users\weiro\AppData\Local\Temp\ccglHz8v.s 			page 148


 6997 1384 0D       		.uleb128 0xd
 6998 1385 A4000000 		.4byte	.LVL393
 6999 1389 06250000 		.4byte	0x2506
 7000 138d 0C       		.uleb128 0xc
 7001 138e 01       		.uleb128 0x1
 7002 138f 50       		.byte	0x50
 7003 1390 02       		.uleb128 0x2
 7004 1391 74       		.byte	0x74
 7005 1392 00       		.sleb128 0
 7006 1393 00       		.byte	0
 7007 1394 00       		.byte	0
 7008 1395 1C       		.uleb128 0x1c
 7009 1396 39020000 		.4byte	.LASF59
 7010 139a 01       		.byte	0x1
 7011 139b 6003     		.2byte	0x360
 7012 139d 00000000 		.4byte	.LFB86
 7013 13a1 A8000000 		.4byte	.LFE86-.LFB86
 7014 13a5 01       		.uleb128 0x1
 7015 13a6 9C       		.byte	0x9c
 7016 13a7 27150000 		.4byte	0x1527
 7017 13ab 15       		.uleb128 0x15
 7018 13ac 06040000 		.4byte	.LASF60
 7019 13b0 01       		.byte	0x1
 7020 13b1 6003     		.2byte	0x360
 7021 13b3 6F000000 		.4byte	0x6f
 7022 13b7 6B050000 		.4byte	.LLST25
 7023 13bb 12       		.uleb128 0x12
 7024 13bc 56070000 		.4byte	.LASF61
 7025 13c0 01       		.byte	0x1
 7026 13c1 6303     		.2byte	0x363
 7027 13c3 6F000000 		.4byte	0x6f
 7028 13c7 97050000 		.4byte	.LLST26
 7029 13cb 1D       		.uleb128 0x1d
 7030 13cc 08000000 		.4byte	.LBB7
 7031 13d0 88000000 		.4byte	.LBE7-.LBB7
 7032 13d4 12       		.uleb128 0x12
 7033 13d5 3D080000 		.4byte	.LASF36
 7034 13d9 01       		.byte	0x1
 7035 13da 6703     		.2byte	0x367
 7036 13dc 6F000000 		.4byte	0x6f
 7037 13e0 B6050000 		.4byte	.LLST27
 7038 13e4 12       		.uleb128 0x12
 7039 13e5 1C070000 		.4byte	.LASF50
 7040 13e9 01       		.byte	0x1
 7041 13ea 6803     		.2byte	0x368
 7042 13ec 6F000000 		.4byte	0x6f
 7043 13f0 CA050000 		.4byte	.LLST28
 7044 13f4 08       		.uleb128 0x8
 7045 13f5 0C000000 		.4byte	.LVL398
 7046 13f9 22090000 		.4byte	0x922
 7047 13fd 0B       		.uleb128 0xb
 7048 13fe 14000000 		.4byte	.LVL399
 7049 1402 8B060000 		.4byte	0x68b
 7050 1406 15140000 		.4byte	0x1415
 7051 140a 0C       		.uleb128 0xc
 7052 140b 01       		.uleb128 0x1
 7053 140c 50       		.byte	0x50
ARM GAS  C:\Users\weiro\AppData\Local\Temp\ccglHz8v.s 			page 149


 7054 140d 01       		.uleb128 0x1
 7055 140e 34       		.byte	0x34
 7056 140f 0C       		.uleb128 0xc
 7057 1410 01       		.uleb128 0x1
 7058 1411 51       		.byte	0x51
 7059 1412 01       		.uleb128 0x1
 7060 1413 31       		.byte	0x31
 7061 1414 00       		.byte	0
 7062 1415 0B       		.uleb128 0xb
 7063 1416 1C000000 		.4byte	.LVL400
 7064 141a F0240000 		.4byte	0x24f0
 7065 141e 2A140000 		.4byte	0x142a
 7066 1422 0C       		.uleb128 0xc
 7067 1423 01       		.uleb128 0x1
 7068 1424 50       		.byte	0x50
 7069 1425 03       		.uleb128 0x3
 7070 1426 0A       		.byte	0xa
 7071 1427 F401     		.2byte	0x1f4
 7072 1429 00       		.byte	0
 7073 142a 08       		.uleb128 0x8
 7074 142b 20000000 		.4byte	.LVL401
 7075 142f 360A0000 		.4byte	0xa36
 7076 1433 0B       		.uleb128 0xb
 7077 1434 30000000 		.4byte	.LVL402
 7078 1438 0E260000 		.4byte	0x260e
 7079 143c 46140000 		.4byte	0x1446
 7080 1440 0C       		.uleb128 0xc
 7081 1441 01       		.uleb128 0x1
 7082 1442 50       		.byte	0x50
 7083 1443 01       		.uleb128 0x1
 7084 1444 31       		.byte	0x31
 7085 1445 00       		.byte	0
 7086 1446 0B       		.uleb128 0xb
 7087 1447 38000000 		.4byte	.LVL403
 7088 144b F0240000 		.4byte	0x24f0
 7089 144f 5B140000 		.4byte	0x145b
 7090 1453 0C       		.uleb128 0xc
 7091 1454 01       		.uleb128 0x1
 7092 1455 50       		.byte	0x50
 7093 1456 03       		.uleb128 0x3
 7094 1457 0A       		.byte	0xa
 7095 1458 E803     		.2byte	0x3e8
 7096 145a 00       		.byte	0
 7097 145b 0B       		.uleb128 0xb
 7098 145c 3E000000 		.4byte	.LVL404
 7099 1460 0E260000 		.4byte	0x260e
 7100 1464 6E140000 		.4byte	0x146e
 7101 1468 0C       		.uleb128 0xc
 7102 1469 01       		.uleb128 0x1
 7103 146a 50       		.byte	0x50
 7104 146b 01       		.uleb128 0x1
 7105 146c 30       		.byte	0x30
 7106 146d 00       		.byte	0
 7107 146e 0B       		.uleb128 0xb
 7108 146f 44000000 		.4byte	.LVL405
 7109 1473 06250000 		.4byte	0x2506
 7110 1477 85140000 		.4byte	0x1485
ARM GAS  C:\Users\weiro\AppData\Local\Temp\ccglHz8v.s 			page 150


 7111 147b 0C       		.uleb128 0xc
 7112 147c 01       		.uleb128 0x1
 7113 147d 50       		.byte	0x50
 7114 147e 05       		.uleb128 0x5
 7115 147f 03       		.byte	0x3
 7116 1480 9C000000 		.4byte	.LC10
 7117 1484 00       		.byte	0
 7118 1485 0B       		.uleb128 0xb
 7119 1486 50000000 		.4byte	.LVL406
 7120 148a 19260000 		.4byte	0x2619
 7121 148e 98140000 		.4byte	0x1498
 7122 1492 0C       		.uleb128 0xc
 7123 1493 01       		.uleb128 0x1
 7124 1494 50       		.byte	0x50
 7125 1495 01       		.uleb128 0x1
 7126 1496 31       		.byte	0x31
 7127 1497 00       		.byte	0
 7128 1498 0B       		.uleb128 0xb
 7129 1499 58000000 		.4byte	.LVL407
 7130 149d F0240000 		.4byte	0x24f0
 7131 14a1 AD140000 		.4byte	0x14ad
 7132 14a5 0C       		.uleb128 0xc
 7133 14a6 01       		.uleb128 0x1
 7134 14a7 50       		.byte	0x50
 7135 14a8 03       		.uleb128 0x3
 7136 14a9 0A       		.byte	0xa
 7137 14aa E803     		.2byte	0x3e8
 7138 14ac 00       		.byte	0
 7139 14ad 0B       		.uleb128 0xb
 7140 14ae 5E000000 		.4byte	.LVL408
 7141 14b2 19260000 		.4byte	0x2619
 7142 14b6 C0140000 		.4byte	0x14c0
 7143 14ba 0C       		.uleb128 0xc
 7144 14bb 01       		.uleb128 0x1
 7145 14bc 50       		.byte	0x50
 7146 14bd 01       		.uleb128 0x1
 7147 14be 30       		.byte	0x30
 7148 14bf 00       		.byte	0
 7149 14c0 0B       		.uleb128 0xb
 7150 14c1 64000000 		.4byte	.LVL409
 7151 14c5 06250000 		.4byte	0x2506
 7152 14c9 D7140000 		.4byte	0x14d7
 7153 14cd 0C       		.uleb128 0xc
 7154 14ce 01       		.uleb128 0x1
 7155 14cf 50       		.byte	0x50
 7156 14d0 05       		.uleb128 0x5
 7157 14d1 03       		.byte	0x3
 7158 14d2 A4000000 		.4byte	.LC11
 7159 14d6 00       		.byte	0
 7160 14d7 0B       		.uleb128 0xb
 7161 14d8 70000000 		.4byte	.LVL410
 7162 14dc 24260000 		.4byte	0x2624
 7163 14e0 EA140000 		.4byte	0x14ea
 7164 14e4 0C       		.uleb128 0xc
 7165 14e5 01       		.uleb128 0x1
 7166 14e6 50       		.byte	0x50
 7167 14e7 01       		.uleb128 0x1
ARM GAS  C:\Users\weiro\AppData\Local\Temp\ccglHz8v.s 			page 151


 7168 14e8 31       		.byte	0x31
 7169 14e9 00       		.byte	0
 7170 14ea 0B       		.uleb128 0xb
 7171 14eb 78000000 		.4byte	.LVL411
 7172 14ef F0240000 		.4byte	0x24f0
 7173 14f3 FF140000 		.4byte	0x14ff
 7174 14f7 0C       		.uleb128 0xc
 7175 14f8 01       		.uleb128 0x1
 7176 14f9 50       		.byte	0x50
 7177 14fa 03       		.uleb128 0x3
 7178 14fb 0A       		.byte	0xa
 7179 14fc E803     		.2byte	0x3e8
 7180 14fe 00       		.byte	0
 7181 14ff 0B       		.uleb128 0xb
 7182 1500 7E000000 		.4byte	.LVL412
 7183 1504 24260000 		.4byte	0x2624
 7184 1508 12150000 		.4byte	0x1512
 7185 150c 0C       		.uleb128 0xc
 7186 150d 01       		.uleb128 0x1
 7187 150e 50       		.byte	0x50
 7188 150f 01       		.uleb128 0x1
 7189 1510 30       		.byte	0x30
 7190 1511 00       		.byte	0
 7191 1512 0D       		.uleb128 0xd
 7192 1513 84000000 		.4byte	.LVL413
 7193 1517 06250000 		.4byte	0x2506
 7194 151b 0C       		.uleb128 0xc
 7195 151c 01       		.uleb128 0x1
 7196 151d 50       		.byte	0x50
 7197 151e 05       		.uleb128 0x5
 7198 151f 03       		.byte	0x3
 7199 1520 B0000000 		.4byte	.LC12
 7200 1524 00       		.byte	0
 7201 1525 00       		.byte	0
 7202 1526 00       		.byte	0
 7203 1527 0F       		.uleb128 0xf
 7204 1528 340B0000 		.4byte	.LASF62
 7205 152c 01       		.byte	0x1
 7206 152d 8803     		.2byte	0x388
 7207 152f 00000000 		.4byte	.LFB87
 7208 1533 3C000000 		.4byte	.LFE87-.LFB87
 7209 1537 01       		.uleb128 0x1
 7210 1538 9C       		.byte	0x9c
 7211 1539 D2150000 		.4byte	0x15d2
 7212 153d 11       		.uleb128 0x11
 7213 153e 3D080000 		.4byte	.LASF36
 7214 1542 01       		.byte	0x1
 7215 1543 8A03     		.2byte	0x38a
 7216 1545 6F000000 		.4byte	0x6f
 7217 1549 01       		.byte	0x1
 7218 154a 19       		.uleb128 0x19
 7219 154b 1C070000 		.4byte	.LASF50
 7220 154f 01       		.byte	0x1
 7221 1550 8B03     		.2byte	0x38b
 7222 1552 25000000 		.4byte	0x25
 7223 1556 08       		.byte	0x8
 7224 1557 00000000 		.4byte	0
ARM GAS  C:\Users\weiro\AppData\Local\Temp\ccglHz8v.s 			page 152


 7225 155b 00003240 		.4byte	0x40320000
 7226 155f 0B       		.uleb128 0xb
 7227 1560 0A000000 		.4byte	.LVL417
 7228 1564 8B060000 		.4byte	0x68b
 7229 1568 77150000 		.4byte	0x1577
 7230 156c 0C       		.uleb128 0xc
 7231 156d 01       		.uleb128 0x1
 7232 156e 50       		.byte	0x50
 7233 156f 01       		.uleb128 0x1
 7234 1570 42       		.byte	0x42
 7235 1571 0C       		.uleb128 0xc
 7236 1572 01       		.uleb128 0x1
 7237 1573 51       		.byte	0x51
 7238 1574 01       		.uleb128 0x1
 7239 1575 31       		.byte	0x31
 7240 1576 00       		.byte	0
 7241 1577 0B       		.uleb128 0xb
 7242 1578 12000000 		.4byte	.LVL418
 7243 157c F0240000 		.4byte	0x24f0
 7244 1580 8C150000 		.4byte	0x158c
 7245 1584 0C       		.uleb128 0xc
 7246 1585 01       		.uleb128 0x1
 7247 1586 50       		.byte	0x50
 7248 1587 03       		.uleb128 0x3
 7249 1588 0A       		.byte	0xa
 7250 1589 F401     		.2byte	0x1f4
 7251 158b 00       		.byte	0
 7252 158c 08       		.uleb128 0x8
 7253 158d 1A000000 		.4byte	.LVL419
 7254 1591 72260000 		.4byte	0x2672
 7255 1595 0B       		.uleb128 0xb
 7256 1596 22000000 		.4byte	.LVL420
 7257 159a F0240000 		.4byte	0x24f0
 7258 159e AA150000 		.4byte	0x15aa
 7259 15a2 0C       		.uleb128 0xc
 7260 15a3 01       		.uleb128 0x1
 7261 15a4 50       		.byte	0x50
 7262 15a5 03       		.uleb128 0x3
 7263 15a6 0A       		.byte	0xa
 7264 15a7 E803     		.2byte	0x3e8
 7265 15a9 00       		.byte	0
 7266 15aa 08       		.uleb128 0x8
 7267 15ab 28000000 		.4byte	.LVL421
 7268 15af 7D260000 		.4byte	0x267d
 7269 15b3 0B       		.uleb128 0xb
 7270 15b4 30000000 		.4byte	.LVL422
 7271 15b8 F0240000 		.4byte	0x24f0
 7272 15bc C8150000 		.4byte	0x15c8
 7273 15c0 0C       		.uleb128 0xc
 7274 15c1 01       		.uleb128 0x1
 7275 15c2 50       		.byte	0x50
 7276 15c3 03       		.uleb128 0x3
 7277 15c4 0A       		.byte	0xa
 7278 15c5 E803     		.2byte	0x3e8
 7279 15c7 00       		.byte	0
 7280 15c8 08       		.uleb128 0x8
 7281 15c9 36000000 		.4byte	.LVL423
ARM GAS  C:\Users\weiro\AppData\Local\Temp\ccglHz8v.s 			page 153


 7282 15cd 72260000 		.4byte	0x2672
 7283 15d1 00       		.byte	0
 7284 15d2 0F       		.uleb128 0xf
 7285 15d3 13020000 		.4byte	.LASF63
 7286 15d7 01       		.byte	0x1
 7287 15d8 9503     		.2byte	0x395
 7288 15da 00000000 		.4byte	.LFB88
 7289 15de 3C000000 		.4byte	.LFE88-.LFB88
 7290 15e2 01       		.uleb128 0x1
 7291 15e3 9C       		.byte	0x9c
 7292 15e4 4C160000 		.4byte	0x164c
 7293 15e8 08       		.uleb128 0x8
 7294 15e9 0A000000 		.4byte	.LVL424
 7295 15ed 72260000 		.4byte	0x2672
 7296 15f1 0B       		.uleb128 0xb
 7297 15f2 12000000 		.4byte	.LVL425
 7298 15f6 F0240000 		.4byte	0x24f0
 7299 15fa 06160000 		.4byte	0x1606
 7300 15fe 0C       		.uleb128 0xc
 7301 15ff 01       		.uleb128 0x1
 7302 1600 50       		.byte	0x50
 7303 1601 03       		.uleb128 0x3
 7304 1602 0A       		.byte	0xa
 7305 1603 E803     		.2byte	0x3e8
 7306 1605 00       		.byte	0
 7307 1606 08       		.uleb128 0x8
 7308 1607 18000000 		.4byte	.LVL426
 7309 160b 7D260000 		.4byte	0x267d
 7310 160f 0B       		.uleb128 0xb
 7311 1610 20000000 		.4byte	.LVL427
 7312 1614 F0240000 		.4byte	0x24f0
 7313 1618 24160000 		.4byte	0x1624
 7314 161c 0C       		.uleb128 0xc
 7315 161d 01       		.uleb128 0x1
 7316 161e 50       		.byte	0x50
 7317 161f 03       		.uleb128 0x3
 7318 1620 0A       		.byte	0xa
 7319 1621 F401     		.2byte	0x1f4
 7320 1623 00       		.byte	0
 7321 1624 08       		.uleb128 0x8
 7322 1625 26000000 		.4byte	.LVL428
 7323 1629 72260000 		.4byte	0x2672
 7324 162d 0B       		.uleb128 0xb
 7325 162e 2E000000 		.4byte	.LVL429
 7326 1632 F0240000 		.4byte	0x24f0
 7327 1636 42160000 		.4byte	0x1642
 7328 163a 0C       		.uleb128 0xc
 7329 163b 01       		.uleb128 0x1
 7330 163c 50       		.byte	0x50
 7331 163d 03       		.uleb128 0x3
 7332 163e 0A       		.byte	0xa
 7333 163f F401     		.2byte	0x1f4
 7334 1641 00       		.byte	0
 7335 1642 08       		.uleb128 0x8
 7336 1643 34000000 		.4byte	.LVL430
 7337 1647 7D260000 		.4byte	0x267d
 7338 164b 00       		.byte	0
ARM GAS  C:\Users\weiro\AppData\Local\Temp\ccglHz8v.s 			page 154


 7339 164c 1E       		.uleb128 0x1e
 7340 164d B40A0000 		.4byte	.LASF195
 7341 1651 01       		.byte	0x1
 7342 1652 A003     		.2byte	0x3a0
 7343 1654 6F000000 		.4byte	0x6f
 7344 1658 00000000 		.4byte	.LFB89
 7345 165c 8C060000 		.4byte	.LFE89-.LFB89
 7346 1660 01       		.uleb128 0x1
 7347 1661 9C       		.byte	0x9c
 7348 1662 8F1F0000 		.4byte	0x1f8f
 7349 1666 1A       		.uleb128 0x1a
 7350 1667 6C050000 		.4byte	.LASF51
 7351 166b 01       		.byte	0x1
 7352 166c 3603     		.2byte	0x336
 7353 166e 6F000000 		.4byte	0x6f
 7354 1672 78160000 		.4byte	0x1678
 7355 1676 0A       		.uleb128 0xa
 7356 1677 00       		.byte	0
 7357 1678 1A       		.uleb128 0x1a
 7358 1679 0D040000 		.4byte	.LASF64
 7359 167d 01       		.byte	0x1
 7360 167e C103     		.2byte	0x3c1
 7361 1680 6F000000 		.4byte	0x6f
 7362 1684 8A160000 		.4byte	0x168a
 7363 1688 0A       		.uleb128 0xa
 7364 1689 00       		.byte	0
 7365 168a 12       		.uleb128 0x12
 7366 168b 3D080000 		.4byte	.LASF36
 7367 168f 01       		.byte	0x1
 7368 1690 C303     		.2byte	0x3c3
 7369 1692 6F000000 		.4byte	0x6f
 7370 1696 DE050000 		.4byte	.LLST29
 7371 169a 12       		.uleb128 0x12
 7372 169b 36060000 		.4byte	.LASF44
 7373 169f 01       		.byte	0x1
 7374 16a0 C403     		.2byte	0x3c4
 7375 16a2 6F000000 		.4byte	0x6f
 7376 16a6 76060000 		.4byte	.LLST30
 7377 16aa 12       		.uleb128 0x12
 7378 16ab 1C070000 		.4byte	.LASF50
 7379 16af 01       		.byte	0x1
 7380 16b0 C703     		.2byte	0x3c7
 7381 16b2 25000000 		.4byte	0x25
 7382 16b6 FD060000 		.4byte	.LLST31
 7383 16ba 17       		.uleb128 0x17
 7384 16bb 84020000 		.4byte	.LBB8
 7385 16bf 44000000 		.4byte	.LBE8-.LBB8
 7386 16c3 53170000 		.4byte	0x1753
 7387 16c7 12       		.uleb128 0x12
 7388 16c8 3D080000 		.4byte	.LASF36
 7389 16cc 01       		.byte	0x1
 7390 16cd 2004     		.2byte	0x420
 7391 16cf 6F000000 		.4byte	0x6f
 7392 16d3 E1070000 		.4byte	.LLST32
 7393 16d7 12       		.uleb128 0x12
 7394 16d8 1C070000 		.4byte	.LASF50
 7395 16dc 01       		.byte	0x1
ARM GAS  C:\Users\weiro\AppData\Local\Temp\ccglHz8v.s 			page 155


 7396 16dd 2104     		.2byte	0x421
 7397 16df 6F000000 		.4byte	0x6f
 7398 16e3 F5070000 		.4byte	.LLST33
 7399 16e7 0B       		.uleb128 0xb
 7400 16e8 8C020000 		.4byte	.LVL504
 7401 16ec 8B060000 		.4byte	0x68b
 7402 16f0 FF160000 		.4byte	0x16ff
 7403 16f4 0C       		.uleb128 0xc
 7404 16f5 01       		.uleb128 0x1
 7405 16f6 50       		.byte	0x50
 7406 16f7 01       		.uleb128 0x1
 7407 16f8 32       		.byte	0x32
 7408 16f9 0C       		.uleb128 0xc
 7409 16fa 01       		.uleb128 0x1
 7410 16fb 51       		.byte	0x51
 7411 16fc 01       		.uleb128 0x1
 7412 16fd 30       		.byte	0x30
 7413 16fe 00       		.byte	0
 7414 16ff 0B       		.uleb128 0xb
 7415 1700 94020000 		.4byte	.LVL505
 7416 1704 F0240000 		.4byte	0x24f0
 7417 1708 14170000 		.4byte	0x1714
 7418 170c 0C       		.uleb128 0xc
 7419 170d 01       		.uleb128 0x1
 7420 170e 50       		.byte	0x50
 7421 170f 03       		.uleb128 0x3
 7422 1710 0A       		.byte	0xa
 7423 1711 F401     		.2byte	0x1f4
 7424 1713 00       		.byte	0
 7425 1714 08       		.uleb128 0x8
 7426 1715 98020000 		.4byte	.LVL506
 7427 1719 360A0000 		.4byte	0xa36
 7428 171d 0B       		.uleb128 0xb
 7429 171e A8020000 		.4byte	.LVL507
 7430 1722 0E260000 		.4byte	0x260e
 7431 1726 30170000 		.4byte	0x1730
 7432 172a 0C       		.uleb128 0xc
 7433 172b 01       		.uleb128 0x1
 7434 172c 50       		.byte	0x50
 7435 172d 01       		.uleb128 0x1
 7436 172e 31       		.byte	0x31
 7437 172f 00       		.byte	0
 7438 1730 0B       		.uleb128 0xb
 7439 1731 B4020000 		.4byte	.LVL508
 7440 1735 19260000 		.4byte	0x2619
 7441 1739 43170000 		.4byte	0x1743
 7442 173d 0C       		.uleb128 0xc
 7443 173e 01       		.uleb128 0x1
 7444 173f 50       		.byte	0x50
 7445 1740 01       		.uleb128 0x1
 7446 1741 31       		.byte	0x31
 7447 1742 00       		.byte	0
 7448 1743 0D       		.uleb128 0xd
 7449 1744 C0020000 		.4byte	.LVL509
 7450 1748 24260000 		.4byte	0x2624
 7451 174c 0C       		.uleb128 0xc
 7452 174d 01       		.uleb128 0x1
ARM GAS  C:\Users\weiro\AppData\Local\Temp\ccglHz8v.s 			page 156


 7453 174e 50       		.byte	0x50
 7454 174f 01       		.uleb128 0x1
 7455 1750 31       		.byte	0x31
 7456 1751 00       		.byte	0
 7457 1752 00       		.byte	0
 7458 1753 0B       		.uleb128 0xb
 7459 1754 84000000 		.4byte	.LVL437
 7460 1758 88260000 		.4byte	0x2688
 7461 175c 6A170000 		.4byte	0x176a
 7462 1760 0C       		.uleb128 0xc
 7463 1761 01       		.uleb128 0x1
 7464 1762 50       		.byte	0x50
 7465 1763 05       		.uleb128 0x5
 7466 1764 03       		.byte	0x3
 7467 1765 00000000 		.4byte	Speed_Control
 7468 1769 00       		.byte	0
 7469 176a 0B       		.uleb128 0xb
 7470 176b 8A000000 		.4byte	.LVL438
 7471 176f 93260000 		.4byte	0x2693
 7472 1773 81170000 		.4byte	0x1781
 7473 1777 0C       		.uleb128 0xc
 7474 1778 01       		.uleb128 0x1
 7475 1779 50       		.byte	0x50
 7476 177a 05       		.uleb128 0x5
 7477 177b 03       		.byte	0x3
 7478 177c 00000000 		.4byte	Color_sensing
 7479 1780 00       		.byte	0
 7480 1781 08       		.uleb128 0x8
 7481 1782 8E000000 		.4byte	.LVL439
 7482 1786 9E260000 		.4byte	0x269e
 7483 178a 08       		.uleb128 0x8
 7484 178b 92000000 		.4byte	.LVL440
 7485 178f A9260000 		.4byte	0x26a9
 7486 1793 0B       		.uleb128 0xb
 7487 1794 98000000 		.4byte	.LVL441
 7488 1798 B4260000 		.4byte	0x26b4
 7489 179c AA170000 		.4byte	0x17aa
 7490 17a0 0C       		.uleb128 0xc
 7491 17a1 01       		.uleb128 0x1
 7492 17a2 50       		.byte	0x50
 7493 17a3 05       		.uleb128 0x5
 7494 17a4 03       		.byte	0x3
 7495 17a5 00000000 		.4byte	ultrasonic_echo
 7496 17a9 00       		.byte	0
 7497 17aa 08       		.uleb128 0x8
 7498 17ab 9C000000 		.4byte	.LVL442
 7499 17af BF260000 		.4byte	0x26bf
 7500 17b3 0B       		.uleb128 0xb
 7501 17b4 A2000000 		.4byte	.LVL443
 7502 17b8 CA260000 		.4byte	0x26ca
 7503 17bc CA170000 		.4byte	0x17ca
 7504 17c0 0C       		.uleb128 0xc
 7505 17c1 01       		.uleb128 0x1
 7506 17c2 50       		.byte	0x50
 7507 17c3 05       		.uleb128 0x5
 7508 17c4 03       		.byte	0x3
 7509 17c5 00000000 		.4byte	Bluetooth
ARM GAS  C:\Users\weiro\AppData\Local\Temp\ccglHz8v.s 			page 157


 7510 17c9 00       		.byte	0
 7511 17ca 0B       		.uleb128 0xb
 7512 17cb A8000000 		.4byte	.LVL444
 7513 17cf 3A260000 		.4byte	0x263a
 7514 17d3 DD170000 		.4byte	0x17dd
 7515 17d7 0C       		.uleb128 0xc
 7516 17d8 01       		.uleb128 0x1
 7517 17d9 50       		.byte	0x50
 7518 17da 01       		.uleb128 0x1
 7519 17db 30       		.byte	0x30
 7520 17dc 00       		.byte	0
 7521 17dd 0B       		.uleb128 0xb
 7522 17de AE000000 		.4byte	.LVL445
 7523 17e2 7F250000 		.4byte	0x257f
 7524 17e6 F0170000 		.4byte	0x17f0
 7525 17ea 0C       		.uleb128 0xc
 7526 17eb 01       		.uleb128 0x1
 7527 17ec 50       		.byte	0x50
 7528 17ed 01       		.uleb128 0x1
 7529 17ee 30       		.byte	0x30
 7530 17ef 00       		.byte	0
 7531 17f0 08       		.uleb128 0x8
 7532 17f1 B2000000 		.4byte	.LVL446
 7533 17f5 D5260000 		.4byte	0x26d5
 7534 17f9 08       		.uleb128 0x8
 7535 17fa B6000000 		.4byte	.LVL447
 7536 17fe E0260000 		.4byte	0x26e0
 7537 1802 08       		.uleb128 0x8
 7538 1803 BA000000 		.4byte	.LVL448
 7539 1807 EB260000 		.4byte	0x26eb
 7540 180b 08       		.uleb128 0x8
 7541 180c BE000000 		.4byte	.LVL449
 7542 1810 F6260000 		.4byte	0x26f6
 7543 1814 0B       		.uleb128 0xb
 7544 1815 C4000000 		.4byte	.LVL450
 7545 1819 3D250000 		.4byte	0x253d
 7546 181d 27180000 		.4byte	0x1827
 7547 1821 0C       		.uleb128 0xc
 7548 1822 01       		.uleb128 0x1
 7549 1823 50       		.byte	0x50
 7550 1824 01       		.uleb128 0x1
 7551 1825 30       		.byte	0x30
 7552 1826 00       		.byte	0
 7553 1827 08       		.uleb128 0x8
 7554 1828 C8000000 		.4byte	.LVL451
 7555 182c 01270000 		.4byte	0x2701
 7556 1830 0B       		.uleb128 0xb
 7557 1831 CE000000 		.4byte	.LVL452
 7558 1835 48250000 		.4byte	0x2548
 7559 1839 43180000 		.4byte	0x1843
 7560 183d 0C       		.uleb128 0xc
 7561 183e 01       		.uleb128 0x1
 7562 183f 50       		.byte	0x50
 7563 1840 01       		.uleb128 0x1
 7564 1841 30       		.byte	0x30
 7565 1842 00       		.byte	0
 7566 1843 08       		.uleb128 0x8
ARM GAS  C:\Users\weiro\AppData\Local\Temp\ccglHz8v.s 			page 158


 7567 1844 D2000000 		.4byte	.LVL453
 7568 1848 0C270000 		.4byte	0x270c
 7569 184c 0B       		.uleb128 0xb
 7570 184d D8000000 		.4byte	.LVL454
 7571 1851 C1250000 		.4byte	0x25c1
 7572 1855 5F180000 		.4byte	0x185f
 7573 1859 0C       		.uleb128 0xc
 7574 185a 01       		.uleb128 0x1
 7575 185b 50       		.byte	0x50
 7576 185c 01       		.uleb128 0x1
 7577 185d 30       		.byte	0x30
 7578 185e 00       		.byte	0
 7579 185f 08       		.uleb128 0x8
 7580 1860 DC000000 		.4byte	.LVL455
 7581 1864 17270000 		.4byte	0x2717
 7582 1868 08       		.uleb128 0x8
 7583 1869 E0000000 		.4byte	.LVL456
 7584 186d 22270000 		.4byte	0x2722
 7585 1871 0B       		.uleb128 0xb
 7586 1872 E6000000 		.4byte	.LVL457
 7587 1876 2D270000 		.4byte	0x272d
 7588 187a 88180000 		.4byte	0x1888
 7589 187e 0C       		.uleb128 0xc
 7590 187f 01       		.uleb128 0x1
 7591 1880 50       		.byte	0x50
 7592 1881 05       		.uleb128 0x5
 7593 1882 03       		.byte	0x3
 7594 1883 00000000 		.4byte	Gyroscope
 7595 1887 00       		.byte	0
 7596 1888 08       		.uleb128 0x8
 7597 1889 EA000000 		.4byte	.LVL458
 7598 188d 7A100000 		.4byte	0x107a
 7599 1891 08       		.uleb128 0x8
 7600 1892 F8000000 		.4byte	.LVL459
 7601 1896 38270000 		.4byte	0x2738
 7602 189a 08       		.uleb128 0x8
 7603 189b 06010000 		.4byte	.LVL461
 7604 189f 53250000 		.4byte	0x2553
 7605 18a3 08       		.uleb128 0x8
 7606 18a4 14010000 		.4byte	.LVL463
 7607 18a8 77240000 		.4byte	0x2477
 7608 18ac 0B       		.uleb128 0xb
 7609 18ad 24010000 		.4byte	.LVL464
 7610 18b1 44270000 		.4byte	0x2744
 7611 18b5 CC180000 		.4byte	0x18cc
 7612 18b9 0C       		.uleb128 0xc
 7613 18ba 01       		.uleb128 0x1
 7614 18bb 50       		.byte	0x50
 7615 18bc 05       		.uleb128 0x5
 7616 18bd 03       		.byte	0x3
 7617 18be 00000000 		.4byte	string_bt
 7618 18c2 0C       		.uleb128 0xc
 7619 18c3 01       		.uleb128 0x1
 7620 18c4 51       		.byte	0x51
 7621 18c5 05       		.uleb128 0x5
 7622 18c6 03       		.byte	0x3
 7623 18c7 B8000000 		.4byte	.LC13
ARM GAS  C:\Users\weiro\AppData\Local\Temp\ccglHz8v.s 			page 159


 7624 18cb 00       		.byte	0
 7625 18cc 0B       		.uleb128 0xb
 7626 18cd 2C010000 		.4byte	.LVL465
 7627 18d1 06250000 		.4byte	0x2506
 7628 18d5 E3180000 		.4byte	0x18e3
 7629 18d9 0C       		.uleb128 0xc
 7630 18da 01       		.uleb128 0x1
 7631 18db 50       		.byte	0x50
 7632 18dc 05       		.uleb128 0x5
 7633 18dd 03       		.byte	0x3
 7634 18de C8000000 		.4byte	.LC14
 7635 18e2 00       		.byte	0
 7636 18e3 0B       		.uleb128 0xb
 7637 18e4 36010000 		.4byte	.LVL466
 7638 18e8 44270000 		.4byte	0x2744
 7639 18ec 03190000 		.4byte	0x1903
 7640 18f0 0C       		.uleb128 0xc
 7641 18f1 01       		.uleb128 0x1
 7642 18f2 50       		.byte	0x50
 7643 18f3 05       		.uleb128 0x5
 7644 18f4 03       		.byte	0x3
 7645 18f5 00000000 		.4byte	string_bt
 7646 18f9 0C       		.uleb128 0xc
 7647 18fa 01       		.uleb128 0x1
 7648 18fb 51       		.byte	0x51
 7649 18fc 05       		.uleb128 0x5
 7650 18fd 03       		.byte	0x3
 7651 18fe D4000000 		.4byte	.LC15
 7652 1902 00       		.byte	0
 7653 1903 0B       		.uleb128 0xb
 7654 1904 42010000 		.4byte	.LVL467
 7655 1908 95130000 		.4byte	0x1395
 7656 190c 16190000 		.4byte	0x1916
 7657 1910 0C       		.uleb128 0xc
 7658 1911 01       		.uleb128 0x1
 7659 1912 50       		.byte	0x50
 7660 1913 01       		.uleb128 0x1
 7661 1914 32       		.byte	0x32
 7662 1915 00       		.byte	0
 7663 1916 0B       		.uleb128 0xb
 7664 1917 4A010000 		.4byte	.LVL468
 7665 191b F0240000 		.4byte	0x24f0
 7666 191f 2B190000 		.4byte	0x192b
 7667 1923 0C       		.uleb128 0xc
 7668 1924 01       		.uleb128 0x1
 7669 1925 50       		.byte	0x50
 7670 1926 03       		.uleb128 0x3
 7671 1927 0A       		.byte	0xa
 7672 1928 E803     		.2byte	0x3e8
 7673 192a 00       		.byte	0
 7674 192b 08       		.uleb128 0x8
 7675 192c 4E010000 		.4byte	.LVL469
 7676 1930 27150000 		.4byte	0x1527
 7677 1934 0B       		.uleb128 0xb
 7678 1935 56010000 		.4byte	.LVL470
 7679 1939 F0240000 		.4byte	0x24f0
 7680 193d 49190000 		.4byte	0x1949
ARM GAS  C:\Users\weiro\AppData\Local\Temp\ccglHz8v.s 			page 160


 7681 1941 0C       		.uleb128 0xc
 7682 1942 01       		.uleb128 0x1
 7683 1943 50       		.byte	0x50
 7684 1944 03       		.uleb128 0x3
 7685 1945 0A       		.byte	0xa
 7686 1946 E803     		.2byte	0x3e8
 7687 1948 00       		.byte	0
 7688 1949 0B       		.uleb128 0xb
 7689 194a 5E010000 		.4byte	.LVL471
 7690 194e 8B060000 		.4byte	0x68b
 7691 1952 61190000 		.4byte	0x1961
 7692 1956 0C       		.uleb128 0xc
 7693 1957 01       		.uleb128 0x1
 7694 1958 50       		.byte	0x50
 7695 1959 01       		.uleb128 0x1
 7696 195a 3A       		.byte	0x3a
 7697 195b 0C       		.uleb128 0xc
 7698 195c 01       		.uleb128 0x1
 7699 195d 51       		.byte	0x51
 7700 195e 01       		.uleb128 0x1
 7701 195f 30       		.byte	0x30
 7702 1960 00       		.byte	0
 7703 1961 0B       		.uleb128 0xb
 7704 1962 66010000 		.4byte	.LVL472
 7705 1966 F0240000 		.4byte	0x24f0
 7706 196a 76190000 		.4byte	0x1976
 7707 196e 0C       		.uleb128 0xc
 7708 196f 01       		.uleb128 0x1
 7709 1970 50       		.byte	0x50
 7710 1971 03       		.uleb128 0x3
 7711 1972 0A       		.byte	0xa
 7712 1973 E803     		.2byte	0x3e8
 7713 1975 00       		.byte	0
 7714 1976 08       		.uleb128 0x8
 7715 1977 6A010000 		.4byte	.LVL473
 7716 197b D2150000 		.4byte	0x15d2
 7717 197f 0B       		.uleb128 0xb
 7718 1980 72010000 		.4byte	.LVL474
 7719 1984 F0240000 		.4byte	0x24f0
 7720 1988 94190000 		.4byte	0x1994
 7721 198c 0C       		.uleb128 0xc
 7722 198d 01       		.uleb128 0x1
 7723 198e 50       		.byte	0x50
 7724 198f 03       		.uleb128 0x3
 7725 1990 0A       		.byte	0xa
 7726 1991 E803     		.2byte	0x3e8
 7727 1993 00       		.byte	0
 7728 1994 08       		.uleb128 0x8
 7729 1995 76010000 		.4byte	.LVL475
 7730 1999 9F110000 		.4byte	0x119f
 7731 199d 0B       		.uleb128 0xb
 7732 199e 80010000 		.4byte	.LVL477
 7733 19a2 8B060000 		.4byte	0x68b
 7734 19a6 B6190000 		.4byte	0x19b6
 7735 19aa 0C       		.uleb128 0xc
 7736 19ab 01       		.uleb128 0x1
 7737 19ac 50       		.byte	0x50
ARM GAS  C:\Users\weiro\AppData\Local\Temp\ccglHz8v.s 			page 161


 7738 19ad 02       		.uleb128 0x2
 7739 19ae 08       		.byte	0x8
 7740 19af 32       		.byte	0x32
 7741 19b0 0C       		.uleb128 0xc
 7742 19b1 01       		.uleb128 0x1
 7743 19b2 51       		.byte	0x51
 7744 19b3 01       		.uleb128 0x1
 7745 19b4 31       		.byte	0x31
 7746 19b5 00       		.byte	0
 7747 19b6 0B       		.uleb128 0xb
 7748 19b7 90010000 		.4byte	.LVL479
 7749 19bb AD090000 		.4byte	0x9ad
 7750 19bf C9190000 		.4byte	0x19c9
 7751 19c3 0C       		.uleb128 0xc
 7752 19c4 01       		.uleb128 0x1
 7753 19c5 51       		.byte	0x51
 7754 19c6 01       		.uleb128 0x1
 7755 19c7 30       		.byte	0x30
 7756 19c8 00       		.byte	0
 7757 19c9 08       		.uleb128 0x8
 7758 19ca 94010000 		.4byte	.LVL480
 7759 19ce 43070000 		.4byte	0x743
 7760 19d2 0B       		.uleb128 0xb
 7761 19d3 A2010000 		.4byte	.LVL482
 7762 19d7 AD090000 		.4byte	0x9ad
 7763 19db E5190000 		.4byte	0x19e5
 7764 19df 0C       		.uleb128 0xc
 7765 19e0 01       		.uleb128 0x1
 7766 19e1 51       		.byte	0x51
 7767 19e2 01       		.uleb128 0x1
 7768 19e3 31       		.byte	0x31
 7769 19e4 00       		.byte	0
 7770 19e5 0B       		.uleb128 0xb
 7771 19e6 C0010000 		.4byte	.LVL484
 7772 19ea F0240000 		.4byte	0x24f0
 7773 19ee FA190000 		.4byte	0x19fa
 7774 19f2 0C       		.uleb128 0xc
 7775 19f3 01       		.uleb128 0x1
 7776 19f4 50       		.byte	0x50
 7777 19f5 03       		.uleb128 0x3
 7778 19f6 0A       		.byte	0xa
 7779 19f7 F401     		.2byte	0x1f4
 7780 19f9 00       		.byte	0
 7781 19fa 08       		.uleb128 0x8
 7782 19fb C6010000 		.4byte	.LVL485
 7783 19ff 43070000 		.4byte	0x743
 7784 1a03 0B       		.uleb128 0xb
 7785 1a04 CE010000 		.4byte	.LVL486
 7786 1a08 F0240000 		.4byte	0x24f0
 7787 1a0c 181A0000 		.4byte	0x1a18
 7788 1a10 0C       		.uleb128 0xc
 7789 1a11 01       		.uleb128 0x1
 7790 1a12 50       		.byte	0x50
 7791 1a13 03       		.uleb128 0x3
 7792 1a14 0A       		.byte	0xa
 7793 1a15 F401     		.2byte	0x1f4
 7794 1a17 00       		.byte	0
ARM GAS  C:\Users\weiro\AppData\Local\Temp\ccglHz8v.s 			page 162


 7795 1a18 0B       		.uleb128 0xb
 7796 1a19 DE010000 		.4byte	.LVL488
 7797 1a1d AD090000 		.4byte	0x9ad
 7798 1a21 2B1A0000 		.4byte	0x1a2b
 7799 1a25 0C       		.uleb128 0xc
 7800 1a26 01       		.uleb128 0x1
 7801 1a27 51       		.byte	0x51
 7802 1a28 01       		.uleb128 0x1
 7803 1a29 31       		.byte	0x31
 7804 1a2a 00       		.byte	0
 7805 1a2b 0B       		.uleb128 0xb
 7806 1a2c F6010000 		.4byte	.LVL490
 7807 1a30 F0240000 		.4byte	0x24f0
 7808 1a34 401A0000 		.4byte	0x1a40
 7809 1a38 0C       		.uleb128 0xc
 7810 1a39 01       		.uleb128 0x1
 7811 1a3a 50       		.byte	0x50
 7812 1a3b 03       		.uleb128 0x3
 7813 1a3c 0A       		.byte	0xa
 7814 1a3d E803     		.2byte	0x3e8
 7815 1a3f 00       		.byte	0
 7816 1a40 08       		.uleb128 0x8
 7817 1a41 FC010000 		.4byte	.LVL491
 7818 1a45 24080000 		.4byte	0x824
 7819 1a49 0B       		.uleb128 0xb
 7820 1a4a 12020000 		.4byte	.LVL492
 7821 1a4e 06250000 		.4byte	0x2506
 7822 1a52 601A0000 		.4byte	0x1a60
 7823 1a56 0C       		.uleb128 0xc
 7824 1a57 01       		.uleb128 0x1
 7825 1a58 50       		.byte	0x50
 7826 1a59 05       		.uleb128 0x5
 7827 1a5a 03       		.byte	0x3
 7828 1a5b 00000000 		.4byte	string_1
 7829 1a5f 00       		.byte	0
 7830 1a60 0B       		.uleb128 0xb
 7831 1a61 1A020000 		.4byte	.LVL493
 7832 1a65 F0240000 		.4byte	0x24f0
 7833 1a69 751A0000 		.4byte	0x1a75
 7834 1a6d 0C       		.uleb128 0xc
 7835 1a6e 01       		.uleb128 0x1
 7836 1a6f 50       		.byte	0x50
 7837 1a70 03       		.uleb128 0x3
 7838 1a71 0A       		.byte	0xa
 7839 1a72 F401     		.2byte	0x1f4
 7840 1a74 00       		.byte	0
 7841 1a75 0B       		.uleb128 0xb
 7842 1a76 32020000 		.4byte	.LVL494
 7843 1a7a F0240000 		.4byte	0x24f0
 7844 1a7e 8A1A0000 		.4byte	0x1a8a
 7845 1a82 0C       		.uleb128 0xc
 7846 1a83 01       		.uleb128 0x1
 7847 1a84 50       		.byte	0x50
 7848 1a85 03       		.uleb128 0x3
 7849 1a86 0A       		.byte	0xa
 7850 1a87 F401     		.2byte	0x1f4
 7851 1a89 00       		.byte	0
ARM GAS  C:\Users\weiro\AppData\Local\Temp\ccglHz8v.s 			page 163


 7852 1a8a 0B       		.uleb128 0xb
 7853 1a8b 3C020000 		.4byte	.LVL496
 7854 1a8f 8B060000 		.4byte	0x68b
 7855 1a93 A21A0000 		.4byte	0x1aa2
 7856 1a97 0C       		.uleb128 0xc
 7857 1a98 01       		.uleb128 0x1
 7858 1a99 50       		.byte	0x50
 7859 1a9a 01       		.uleb128 0x1
 7860 1a9b 38       		.byte	0x38
 7861 1a9c 0C       		.uleb128 0xc
 7862 1a9d 01       		.uleb128 0x1
 7863 1a9e 51       		.byte	0x51
 7864 1a9f 01       		.uleb128 0x1
 7865 1aa0 31       		.byte	0x31
 7866 1aa1 00       		.byte	0
 7867 1aa2 0B       		.uleb128 0xb
 7868 1aa3 4C020000 		.4byte	.LVL498
 7869 1aa7 AD090000 		.4byte	0x9ad
 7870 1aab B51A0000 		.4byte	0x1ab5
 7871 1aaf 0C       		.uleb128 0xc
 7872 1ab0 01       		.uleb128 0x1
 7873 1ab1 51       		.byte	0x51
 7874 1ab2 01       		.uleb128 0x1
 7875 1ab3 30       		.byte	0x30
 7876 1ab4 00       		.byte	0
 7877 1ab5 0B       		.uleb128 0xb
 7878 1ab6 64020000 		.4byte	.LVL500
 7879 1aba F0240000 		.4byte	0x24f0
 7880 1abe CA1A0000 		.4byte	0x1aca
 7881 1ac2 0C       		.uleb128 0xc
 7882 1ac3 01       		.uleb128 0x1
 7883 1ac4 50       		.byte	0x50
 7884 1ac5 03       		.uleb128 0x3
 7885 1ac6 0A       		.byte	0xa
 7886 1ac7 F401     		.2byte	0x1f4
 7887 1ac9 00       		.byte	0
 7888 1aca 08       		.uleb128 0x8
 7889 1acb 6A020000 		.4byte	.LVL501
 7890 1acf 22090000 		.4byte	0x922
 7891 1ad3 0B       		.uleb128 0xb
 7892 1ad4 82020000 		.4byte	.LVL502
 7893 1ad8 F0240000 		.4byte	0x24f0
 7894 1adc E81A0000 		.4byte	0x1ae8
 7895 1ae0 0C       		.uleb128 0xc
 7896 1ae1 01       		.uleb128 0x1
 7897 1ae2 50       		.byte	0x50
 7898 1ae3 03       		.uleb128 0x3
 7899 1ae4 0A       		.byte	0xa
 7900 1ae5 F401     		.2byte	0x1f4
 7901 1ae7 00       		.byte	0
 7902 1ae8 0B       		.uleb128 0xb
 7903 1ae9 D8020000 		.4byte	.LVL511
 7904 1aed F0240000 		.4byte	0x24f0
 7905 1af1 FD1A0000 		.4byte	0x1afd
 7906 1af5 0C       		.uleb128 0xc
 7907 1af6 01       		.uleb128 0x1
 7908 1af7 50       		.byte	0x50
ARM GAS  C:\Users\weiro\AppData\Local\Temp\ccglHz8v.s 			page 164


 7909 1af8 03       		.uleb128 0x3
 7910 1af9 0A       		.byte	0xa
 7911 1afa F401     		.2byte	0x1f4
 7912 1afc 00       		.byte	0
 7913 1afd 0B       		.uleb128 0xb
 7914 1afe 2C030000 		.4byte	.LVL513
 7915 1b02 8B060000 		.4byte	0x68b
 7916 1b06 151B0000 		.4byte	0x1b15
 7917 1b0a 0C       		.uleb128 0xc
 7918 1b0b 01       		.uleb128 0x1
 7919 1b0c 50       		.byte	0x50
 7920 1b0d 01       		.uleb128 0x1
 7921 1b0e 42       		.byte	0x42
 7922 1b0f 0C       		.uleb128 0xc
 7923 1b10 01       		.uleb128 0x1
 7924 1b11 51       		.byte	0x51
 7925 1b12 01       		.uleb128 0x1
 7926 1b13 31       		.byte	0x31
 7927 1b14 00       		.byte	0
 7928 1b15 08       		.uleb128 0x8
 7929 1b16 34030000 		.4byte	.LVL514
 7930 1b1a 72260000 		.4byte	0x2672
 7931 1b1e 0B       		.uleb128 0xb
 7932 1b1f 3C030000 		.4byte	.LVL515
 7933 1b23 F0240000 		.4byte	0x24f0
 7934 1b27 331B0000 		.4byte	0x1b33
 7935 1b2b 0C       		.uleb128 0xc
 7936 1b2c 01       		.uleb128 0x1
 7937 1b2d 50       		.byte	0x50
 7938 1b2e 03       		.uleb128 0x3
 7939 1b2f 0A       		.byte	0xa
 7940 1b30 F401     		.2byte	0x1f4
 7941 1b32 00       		.byte	0
 7942 1b33 08       		.uleb128 0x8
 7943 1b34 42030000 		.4byte	.LVL516
 7944 1b38 7D260000 		.4byte	0x267d
 7945 1b3c 0B       		.uleb128 0xb
 7946 1b3d 4A030000 		.4byte	.LVL517
 7947 1b41 F0240000 		.4byte	0x24f0
 7948 1b45 511B0000 		.4byte	0x1b51
 7949 1b49 0C       		.uleb128 0xc
 7950 1b4a 01       		.uleb128 0x1
 7951 1b4b 50       		.byte	0x50
 7952 1b4c 03       		.uleb128 0x3
 7953 1b4d 0A       		.byte	0xa
 7954 1b4e F401     		.2byte	0x1f4
 7955 1b50 00       		.byte	0
 7956 1b51 08       		.uleb128 0x8
 7957 1b52 50030000 		.4byte	.LVL518
 7958 1b56 72260000 		.4byte	0x2672
 7959 1b5a 0B       		.uleb128 0xb
 7960 1b5b 66030000 		.4byte	.LVL520
 7961 1b5f F0240000 		.4byte	0x24f0
 7962 1b63 6F1B0000 		.4byte	0x1b6f
 7963 1b67 0C       		.uleb128 0xc
 7964 1b68 01       		.uleb128 0x1
 7965 1b69 50       		.byte	0x50
ARM GAS  C:\Users\weiro\AppData\Local\Temp\ccglHz8v.s 			page 165


 7966 1b6a 03       		.uleb128 0x3
 7967 1b6b 0A       		.byte	0xa
 7968 1b6c F401     		.2byte	0x1f4
 7969 1b6e 00       		.byte	0
 7970 1b6f 0B       		.uleb128 0xb
 7971 1b70 70030000 		.4byte	.LVL522
 7972 1b74 8B060000 		.4byte	0x68b
 7973 1b78 881B0000 		.4byte	0x1b88
 7974 1b7c 0C       		.uleb128 0xc
 7975 1b7d 01       		.uleb128 0x1
 7976 1b7e 50       		.byte	0x50
 7977 1b7f 02       		.uleb128 0x2
 7978 1b80 08       		.byte	0x8
 7979 1b81 32       		.byte	0x32
 7980 1b82 0C       		.uleb128 0xc
 7981 1b83 01       		.uleb128 0x1
 7982 1b84 51       		.byte	0x51
 7983 1b85 01       		.uleb128 0x1
 7984 1b86 30       		.byte	0x30
 7985 1b87 00       		.byte	0
 7986 1b88 0B       		.uleb128 0xb
 7987 1b89 78030000 		.4byte	.LVL523
 7988 1b8d F0240000 		.4byte	0x24f0
 7989 1b91 9D1B0000 		.4byte	0x1b9d
 7990 1b95 0C       		.uleb128 0xc
 7991 1b96 01       		.uleb128 0x1
 7992 1b97 50       		.byte	0x50
 7993 1b98 03       		.uleb128 0x3
 7994 1b99 0A       		.byte	0xa
 7995 1b9a F401     		.2byte	0x1f4
 7996 1b9c 00       		.byte	0
 7997 1b9d 0B       		.uleb128 0xb
 7998 1b9e 96030000 		.4byte	.LVL526
 7999 1ba2 AD090000 		.4byte	0x9ad
 8000 1ba6 B11B0000 		.4byte	0x1bb1
 8001 1baa 0C       		.uleb128 0xc
 8002 1bab 01       		.uleb128 0x1
 8003 1bac 51       		.byte	0x51
 8004 1bad 02       		.uleb128 0x2
 8005 1bae 74       		.byte	0x74
 8006 1baf 00       		.sleb128 0
 8007 1bb0 00       		.byte	0
 8008 1bb1 0B       		.uleb128 0xb
 8009 1bb2 AE030000 		.4byte	.LVL528
 8010 1bb6 F0240000 		.4byte	0x24f0
 8011 1bba C61B0000 		.4byte	0x1bc6
 8012 1bbe 0C       		.uleb128 0xc
 8013 1bbf 01       		.uleb128 0x1
 8014 1bc0 50       		.byte	0x50
 8015 1bc1 03       		.uleb128 0x3
 8016 1bc2 0A       		.byte	0xa
 8017 1bc3 F401     		.2byte	0x1f4
 8018 1bc5 00       		.byte	0
 8019 1bc6 08       		.uleb128 0x8
 8020 1bc7 BA030000 		.4byte	.LVL529
 8021 1bcb 43070000 		.4byte	0x743
 8022 1bcf 0B       		.uleb128 0xb
ARM GAS  C:\Users\weiro\AppData\Local\Temp\ccglHz8v.s 			page 166


 8023 1bd0 CA030000 		.4byte	.LVL531
 8024 1bd4 AD090000 		.4byte	0x9ad
 8025 1bd8 E21B0000 		.4byte	0x1be2
 8026 1bdc 0C       		.uleb128 0xc
 8027 1bdd 01       		.uleb128 0x1
 8028 1bde 51       		.byte	0x51
 8029 1bdf 01       		.uleb128 0x1
 8030 1be0 31       		.byte	0x31
 8031 1be1 00       		.byte	0
 8032 1be2 0B       		.uleb128 0xb
 8033 1be3 E2030000 		.4byte	.LVL533
 8034 1be7 F0240000 		.4byte	0x24f0
 8035 1beb F71B0000 		.4byte	0x1bf7
 8036 1bef 0C       		.uleb128 0xc
 8037 1bf0 01       		.uleb128 0x1
 8038 1bf1 50       		.byte	0x50
 8039 1bf2 03       		.uleb128 0x3
 8040 1bf3 0A       		.byte	0xa
 8041 1bf4 F401     		.2byte	0x1f4
 8042 1bf6 00       		.byte	0
 8043 1bf7 0B       		.uleb128 0xb
 8044 1bf8 F2030000 		.4byte	.LVL535
 8045 1bfc 8B060000 		.4byte	0x68b
 8046 1c00 101C0000 		.4byte	0x1c10
 8047 1c04 0C       		.uleb128 0xc
 8048 1c05 01       		.uleb128 0x1
 8049 1c06 50       		.byte	0x50
 8050 1c07 02       		.uleb128 0x2
 8051 1c08 08       		.byte	0x8
 8052 1c09 46       		.byte	0x46
 8053 1c0a 0C       		.uleb128 0xc
 8054 1c0b 01       		.uleb128 0x1
 8055 1c0c 51       		.byte	0x51
 8056 1c0d 01       		.uleb128 0x1
 8057 1c0e 30       		.byte	0x30
 8058 1c0f 00       		.byte	0
 8059 1c10 0B       		.uleb128 0xb
 8060 1c11 FA030000 		.4byte	.LVL536
 8061 1c15 F0240000 		.4byte	0x24f0
 8062 1c19 251C0000 		.4byte	0x1c25
 8063 1c1d 0C       		.uleb128 0xc
 8064 1c1e 01       		.uleb128 0x1
 8065 1c1f 50       		.byte	0x50
 8066 1c20 03       		.uleb128 0x3
 8067 1c21 0A       		.byte	0xa
 8068 1c22 F401     		.2byte	0x1f4
 8069 1c24 00       		.byte	0
 8070 1c25 0B       		.uleb128 0xb
 8071 1c26 14040000 		.4byte	.LVL539
 8072 1c2a 8B060000 		.4byte	0x68b
 8073 1c2e 3E1C0000 		.4byte	0x1c3e
 8074 1c32 0C       		.uleb128 0xc
 8075 1c33 01       		.uleb128 0x1
 8076 1c34 50       		.byte	0x50
 8077 1c35 02       		.uleb128 0x2
 8078 1c36 08       		.byte	0x8
 8079 1c37 32       		.byte	0x32
ARM GAS  C:\Users\weiro\AppData\Local\Temp\ccglHz8v.s 			page 167


 8080 1c38 0C       		.uleb128 0xc
 8081 1c39 01       		.uleb128 0x1
 8082 1c3a 51       		.byte	0x51
 8083 1c3b 01       		.uleb128 0x1
 8084 1c3c 30       		.byte	0x30
 8085 1c3d 00       		.byte	0
 8086 1c3e 0B       		.uleb128 0xb
 8087 1c3f 1C040000 		.4byte	.LVL540
 8088 1c43 F0240000 		.4byte	0x24f0
 8089 1c47 531C0000 		.4byte	0x1c53
 8090 1c4b 0C       		.uleb128 0xc
 8091 1c4c 01       		.uleb128 0x1
 8092 1c4d 50       		.byte	0x50
 8093 1c4e 03       		.uleb128 0x3
 8094 1c4f 0A       		.byte	0xa
 8095 1c50 F401     		.2byte	0x1f4
 8096 1c52 00       		.byte	0
 8097 1c53 0B       		.uleb128 0xb
 8098 1c54 3A040000 		.4byte	.LVL543
 8099 1c58 AD090000 		.4byte	0x9ad
 8100 1c5c 671C0000 		.4byte	0x1c67
 8101 1c60 0C       		.uleb128 0xc
 8102 1c61 01       		.uleb128 0x1
 8103 1c62 51       		.byte	0x51
 8104 1c63 02       		.uleb128 0x2
 8105 1c64 74       		.byte	0x74
 8106 1c65 00       		.sleb128 0
 8107 1c66 00       		.byte	0
 8108 1c67 0B       		.uleb128 0xb
 8109 1c68 42040000 		.4byte	.LVL544
 8110 1c6c F0240000 		.4byte	0x24f0
 8111 1c70 7C1C0000 		.4byte	0x1c7c
 8112 1c74 0C       		.uleb128 0xc
 8113 1c75 01       		.uleb128 0x1
 8114 1c76 50       		.byte	0x50
 8115 1c77 03       		.uleb128 0x3
 8116 1c78 0A       		.byte	0xa
 8117 1c79 F401     		.2byte	0x1f4
 8118 1c7b 00       		.byte	0
 8119 1c7c 0B       		.uleb128 0xb
 8120 1c7d 5A040000 		.4byte	.LVL546
 8121 1c81 F0240000 		.4byte	0x24f0
 8122 1c85 911C0000 		.4byte	0x1c91
 8123 1c89 0C       		.uleb128 0xc
 8124 1c8a 01       		.uleb128 0x1
 8125 1c8b 50       		.byte	0x50
 8126 1c8c 03       		.uleb128 0x3
 8127 1c8d 0A       		.byte	0xa
 8128 1c8e F401     		.2byte	0x1f4
 8129 1c90 00       		.byte	0
 8130 1c91 0B       		.uleb128 0xb
 8131 1c92 64040000 		.4byte	.LVL548
 8132 1c96 8B060000 		.4byte	0x68b
 8133 1c9a A91C0000 		.4byte	0x1ca9
 8134 1c9e 0C       		.uleb128 0xc
 8135 1c9f 01       		.uleb128 0x1
 8136 1ca0 50       		.byte	0x50
ARM GAS  C:\Users\weiro\AppData\Local\Temp\ccglHz8v.s 			page 168


 8137 1ca1 01       		.uleb128 0x1
 8138 1ca2 44       		.byte	0x44
 8139 1ca3 0C       		.uleb128 0xc
 8140 1ca4 01       		.uleb128 0x1
 8141 1ca5 51       		.byte	0x51
 8142 1ca6 01       		.uleb128 0x1
 8143 1ca7 30       		.byte	0x30
 8144 1ca8 00       		.byte	0
 8145 1ca9 0B       		.uleb128 0xb
 8146 1caa 6C040000 		.4byte	.LVL549
 8147 1cae F0240000 		.4byte	0x24f0
 8148 1cb2 BE1C0000 		.4byte	0x1cbe
 8149 1cb6 0C       		.uleb128 0xc
 8150 1cb7 01       		.uleb128 0x1
 8151 1cb8 50       		.byte	0x50
 8152 1cb9 03       		.uleb128 0x3
 8153 1cba 0A       		.byte	0xa
 8154 1cbb F401     		.2byte	0x1f4
 8155 1cbd 00       		.byte	0
 8156 1cbe 0B       		.uleb128 0xb
 8157 1cbf 8A040000 		.4byte	.LVL552
 8158 1cc3 AD090000 		.4byte	0x9ad
 8159 1cc7 D21C0000 		.4byte	0x1cd2
 8160 1ccb 0C       		.uleb128 0xc
 8161 1ccc 01       		.uleb128 0x1
 8162 1ccd 51       		.byte	0x51
 8163 1cce 02       		.uleb128 0x2
 8164 1ccf 74       		.byte	0x74
 8165 1cd0 00       		.sleb128 0
 8166 1cd1 00       		.byte	0
 8167 1cd2 0B       		.uleb128 0xb
 8168 1cd3 A2040000 		.4byte	.LVL554
 8169 1cd7 F0240000 		.4byte	0x24f0
 8170 1cdb E71C0000 		.4byte	0x1ce7
 8171 1cdf 0C       		.uleb128 0xc
 8172 1ce0 01       		.uleb128 0x1
 8173 1ce1 50       		.byte	0x50
 8174 1ce2 03       		.uleb128 0x3
 8175 1ce3 0A       		.byte	0xa
 8176 1ce4 F401     		.2byte	0x1f4
 8177 1ce6 00       		.byte	0
 8178 1ce7 08       		.uleb128 0x8
 8179 1ce8 AC040000 		.4byte	.LVL555
 8180 1cec 72260000 		.4byte	0x2672
 8181 1cf0 0B       		.uleb128 0xb
 8182 1cf1 B4040000 		.4byte	.LVL556
 8183 1cf5 F0240000 		.4byte	0x24f0
 8184 1cf9 051D0000 		.4byte	0x1d05
 8185 1cfd 0C       		.uleb128 0xc
 8186 1cfe 01       		.uleb128 0x1
 8187 1cff 50       		.byte	0x50
 8188 1d00 03       		.uleb128 0x3
 8189 1d01 0A       		.byte	0xa
 8190 1d02 E803     		.2byte	0x3e8
 8191 1d04 00       		.byte	0
 8192 1d05 08       		.uleb128 0x8
 8193 1d06 BA040000 		.4byte	.LVL557
ARM GAS  C:\Users\weiro\AppData\Local\Temp\ccglHz8v.s 			page 169


 8194 1d0a 7D260000 		.4byte	0x267d
 8195 1d0e 0B       		.uleb128 0xb
 8196 1d0f C2040000 		.4byte	.LVL558
 8197 1d13 F0240000 		.4byte	0x24f0
 8198 1d17 231D0000 		.4byte	0x1d23
 8199 1d1b 0C       		.uleb128 0xc
 8200 1d1c 01       		.uleb128 0x1
 8201 1d1d 50       		.byte	0x50
 8202 1d1e 03       		.uleb128 0x3
 8203 1d1f 0A       		.byte	0xa
 8204 1d20 F401     		.2byte	0x1f4
 8205 1d22 00       		.byte	0
 8206 1d23 08       		.uleb128 0x8
 8207 1d24 C8040000 		.4byte	.LVL559
 8208 1d28 72260000 		.4byte	0x2672
 8209 1d2c 0B       		.uleb128 0xb
 8210 1d2d D0040000 		.4byte	.LVL560
 8211 1d31 F0240000 		.4byte	0x24f0
 8212 1d35 411D0000 		.4byte	0x1d41
 8213 1d39 0C       		.uleb128 0xc
 8214 1d3a 01       		.uleb128 0x1
 8215 1d3b 50       		.byte	0x50
 8216 1d3c 03       		.uleb128 0x3
 8217 1d3d 0A       		.byte	0xa
 8218 1d3e F401     		.2byte	0x1f4
 8219 1d40 00       		.byte	0
 8220 1d41 08       		.uleb128 0x8
 8221 1d42 D6040000 		.4byte	.LVL561
 8222 1d46 7D260000 		.4byte	0x267d
 8223 1d4a 0B       		.uleb128 0xb
 8224 1d4b EC040000 		.4byte	.LVL562
 8225 1d4f F0240000 		.4byte	0x24f0
 8226 1d53 5F1D0000 		.4byte	0x1d5f
 8227 1d57 0C       		.uleb128 0xc
 8228 1d58 01       		.uleb128 0x1
 8229 1d59 50       		.byte	0x50
 8230 1d5a 03       		.uleb128 0x3
 8231 1d5b 0A       		.byte	0xa
 8232 1d5c F401     		.2byte	0x1f4
 8233 1d5e 00       		.byte	0
 8234 1d5f 0B       		.uleb128 0xb
 8235 1d60 F6040000 		.4byte	.LVL564
 8236 1d64 8B060000 		.4byte	0x68b
 8237 1d68 771D0000 		.4byte	0x1d77
 8238 1d6c 0C       		.uleb128 0xc
 8239 1d6d 01       		.uleb128 0x1
 8240 1d6e 50       		.byte	0x50
 8241 1d6f 01       		.uleb128 0x1
 8242 1d70 44       		.byte	0x44
 8243 1d71 0C       		.uleb128 0xc
 8244 1d72 01       		.uleb128 0x1
 8245 1d73 51       		.byte	0x51
 8246 1d74 01       		.uleb128 0x1
 8247 1d75 31       		.byte	0x31
 8248 1d76 00       		.byte	0
 8249 1d77 0B       		.uleb128 0xb
 8250 1d78 FE040000 		.4byte	.LVL565
ARM GAS  C:\Users\weiro\AppData\Local\Temp\ccglHz8v.s 			page 170


 8251 1d7c F0240000 		.4byte	0x24f0
 8252 1d80 8C1D0000 		.4byte	0x1d8c
 8253 1d84 0C       		.uleb128 0xc
 8254 1d85 01       		.uleb128 0x1
 8255 1d86 50       		.byte	0x50
 8256 1d87 03       		.uleb128 0x3
 8257 1d88 0A       		.byte	0xa
 8258 1d89 F401     		.2byte	0x1f4
 8259 1d8b 00       		.byte	0
 8260 1d8c 08       		.uleb128 0x8
 8261 1d8d 06050000 		.4byte	.LVL566
 8262 1d91 72260000 		.4byte	0x2672
 8263 1d95 0B       		.uleb128 0xb
 8264 1d96 0E050000 		.4byte	.LVL567
 8265 1d9a F0240000 		.4byte	0x24f0
 8266 1d9e AA1D0000 		.4byte	0x1daa
 8267 1da2 0C       		.uleb128 0xc
 8268 1da3 01       		.uleb128 0x1
 8269 1da4 50       		.byte	0x50
 8270 1da5 03       		.uleb128 0x3
 8271 1da6 0A       		.byte	0xa
 8272 1da7 F401     		.2byte	0x1f4
 8273 1da9 00       		.byte	0
 8274 1daa 0B       		.uleb128 0xb
 8275 1dab 24050000 		.4byte	.LVL569
 8276 1daf F0240000 		.4byte	0x24f0
 8277 1db3 BF1D0000 		.4byte	0x1dbf
 8278 1db7 0C       		.uleb128 0xc
 8279 1db8 01       		.uleb128 0x1
 8280 1db9 50       		.byte	0x50
 8281 1dba 03       		.uleb128 0x3
 8282 1dbb 0A       		.byte	0xa
 8283 1dbc F401     		.2byte	0x1f4
 8284 1dbe 00       		.byte	0
 8285 1dbf 0B       		.uleb128 0xb
 8286 1dc0 2E050000 		.4byte	.LVL571
 8287 1dc4 8B060000 		.4byte	0x68b
 8288 1dc8 D71D0000 		.4byte	0x1dd7
 8289 1dcc 0C       		.uleb128 0xc
 8290 1dcd 01       		.uleb128 0x1
 8291 1dce 50       		.byte	0x50
 8292 1dcf 01       		.uleb128 0x1
 8293 1dd0 44       		.byte	0x44
 8294 1dd1 0C       		.uleb128 0xc
 8295 1dd2 01       		.uleb128 0x1
 8296 1dd3 51       		.byte	0x51
 8297 1dd4 01       		.uleb128 0x1
 8298 1dd5 30       		.byte	0x30
 8299 1dd6 00       		.byte	0
 8300 1dd7 0B       		.uleb128 0xb
 8301 1dd8 36050000 		.4byte	.LVL572
 8302 1ddc F0240000 		.4byte	0x24f0
 8303 1de0 EC1D0000 		.4byte	0x1dec
 8304 1de4 0C       		.uleb128 0xc
 8305 1de5 01       		.uleb128 0x1
 8306 1de6 50       		.byte	0x50
 8307 1de7 03       		.uleb128 0x3
ARM GAS  C:\Users\weiro\AppData\Local\Temp\ccglHz8v.s 			page 171


 8308 1de8 0A       		.byte	0xa
 8309 1de9 F401     		.2byte	0x1f4
 8310 1deb 00       		.byte	0
 8311 1dec 08       		.uleb128 0x8
 8312 1ded 3E050000 		.4byte	.LVL573
 8313 1df1 72260000 		.4byte	0x2672
 8314 1df5 0B       		.uleb128 0xb
 8315 1df6 46050000 		.4byte	.LVL574
 8316 1dfa F0240000 		.4byte	0x24f0
 8317 1dfe 0A1E0000 		.4byte	0x1e0a
 8318 1e02 0C       		.uleb128 0xc
 8319 1e03 01       		.uleb128 0x1
 8320 1e04 50       		.byte	0x50
 8321 1e05 03       		.uleb128 0x3
 8322 1e06 0A       		.byte	0xa
 8323 1e07 F401     		.2byte	0x1f4
 8324 1e09 00       		.byte	0
 8325 1e0a 0B       		.uleb128 0xb
 8326 1e0b 5C050000 		.4byte	.LVL576
 8327 1e0f F0240000 		.4byte	0x24f0
 8328 1e13 1F1E0000 		.4byte	0x1e1f
 8329 1e17 0C       		.uleb128 0xc
 8330 1e18 01       		.uleb128 0x1
 8331 1e19 50       		.byte	0x50
 8332 1e1a 03       		.uleb128 0x3
 8333 1e1b 0A       		.byte	0xa
 8334 1e1c F401     		.2byte	0x1f4
 8335 1e1e 00       		.byte	0
 8336 1e1f 0B       		.uleb128 0xb
 8337 1e20 7C050000 		.4byte	.LVL579
 8338 1e24 AD090000 		.4byte	0x9ad
 8339 1e28 331E0000 		.4byte	0x1e33
 8340 1e2c 0C       		.uleb128 0xc
 8341 1e2d 01       		.uleb128 0x1
 8342 1e2e 51       		.byte	0x51
 8343 1e2f 02       		.uleb128 0x2
 8344 1e30 74       		.byte	0x74
 8345 1e31 00       		.sleb128 0
 8346 1e32 00       		.byte	0
 8347 1e33 0B       		.uleb128 0xb
 8348 1e34 84050000 		.4byte	.LVL580
 8349 1e38 F0240000 		.4byte	0x24f0
 8350 1e3c 481E0000 		.4byte	0x1e48
 8351 1e40 0C       		.uleb128 0xc
 8352 1e41 01       		.uleb128 0x1
 8353 1e42 50       		.byte	0x50
 8354 1e43 03       		.uleb128 0x3
 8355 1e44 0A       		.byte	0xa
 8356 1e45 F401     		.2byte	0x1f4
 8357 1e47 00       		.byte	0
 8358 1e48 0B       		.uleb128 0xb
 8359 1e49 8C050000 		.4byte	.LVL581
 8360 1e4d 8B060000 		.4byte	0x68b
 8361 1e51 611E0000 		.4byte	0x1e61
 8362 1e55 0C       		.uleb128 0xc
 8363 1e56 01       		.uleb128 0x1
 8364 1e57 50       		.byte	0x50
ARM GAS  C:\Users\weiro\AppData\Local\Temp\ccglHz8v.s 			page 172


 8365 1e58 02       		.uleb128 0x2
 8366 1e59 08       		.byte	0x8
 8367 1e5a 32       		.byte	0x32
 8368 1e5b 0C       		.uleb128 0xc
 8369 1e5c 01       		.uleb128 0x1
 8370 1e5d 51       		.byte	0x51
 8371 1e5e 01       		.uleb128 0x1
 8372 1e5f 31       		.byte	0x31
 8373 1e60 00       		.byte	0
 8374 1e61 0B       		.uleb128 0xb
 8375 1e62 94050000 		.4byte	.LVL582
 8376 1e66 F0240000 		.4byte	0x24f0
 8377 1e6a 761E0000 		.4byte	0x1e76
 8378 1e6e 0C       		.uleb128 0xc
 8379 1e6f 01       		.uleb128 0x1
 8380 1e70 50       		.byte	0x50
 8381 1e71 03       		.uleb128 0x3
 8382 1e72 0A       		.byte	0xa
 8383 1e73 F401     		.2byte	0x1f4
 8384 1e75 00       		.byte	0
 8385 1e76 0B       		.uleb128 0xb
 8386 1e77 AC050000 		.4byte	.LVL584
 8387 1e7b F0240000 		.4byte	0x24f0
 8388 1e7f 8B1E0000 		.4byte	0x1e8b
 8389 1e83 0C       		.uleb128 0xc
 8390 1e84 01       		.uleb128 0x1
 8391 1e85 50       		.byte	0x50
 8392 1e86 03       		.uleb128 0x3
 8393 1e87 0A       		.byte	0xa
 8394 1e88 F401     		.2byte	0x1f4
 8395 1e8a 00       		.byte	0
 8396 1e8b 0B       		.uleb128 0xb
 8397 1e8c CC050000 		.4byte	.LVL587
 8398 1e90 AD090000 		.4byte	0x9ad
 8399 1e94 9F1E0000 		.4byte	0x1e9f
 8400 1e98 0C       		.uleb128 0xc
 8401 1e99 01       		.uleb128 0x1
 8402 1e9a 51       		.byte	0x51
 8403 1e9b 02       		.uleb128 0x2
 8404 1e9c 74       		.byte	0x74
 8405 1e9d 00       		.sleb128 0
 8406 1e9e 00       		.byte	0
 8407 1e9f 0B       		.uleb128 0xb
 8408 1ea0 D4050000 		.4byte	.LVL588
 8409 1ea4 F0240000 		.4byte	0x24f0
 8410 1ea8 B41E0000 		.4byte	0x1eb4
 8411 1eac 0C       		.uleb128 0xc
 8412 1ead 01       		.uleb128 0x1
 8413 1eae 50       		.byte	0x50
 8414 1eaf 03       		.uleb128 0x3
 8415 1eb0 0A       		.byte	0xa
 8416 1eb1 F401     		.2byte	0x1f4
 8417 1eb3 00       		.byte	0
 8418 1eb4 0B       		.uleb128 0xb
 8419 1eb5 DC050000 		.4byte	.LVL589
 8420 1eb9 8B060000 		.4byte	0x68b
 8421 1ebd CD1E0000 		.4byte	0x1ecd
ARM GAS  C:\Users\weiro\AppData\Local\Temp\ccglHz8v.s 			page 173


 8422 1ec1 0C       		.uleb128 0xc
 8423 1ec2 01       		.uleb128 0x1
 8424 1ec3 50       		.byte	0x50
 8425 1ec4 02       		.uleb128 0x2
 8426 1ec5 08       		.byte	0x8
 8427 1ec6 32       		.byte	0x32
 8428 1ec7 0C       		.uleb128 0xc
 8429 1ec8 01       		.uleb128 0x1
 8430 1ec9 51       		.byte	0x51
 8431 1eca 01       		.uleb128 0x1
 8432 1ecb 31       		.byte	0x31
 8433 1ecc 00       		.byte	0
 8434 1ecd 0B       		.uleb128 0xb
 8435 1ece E4050000 		.4byte	.LVL590
 8436 1ed2 F0240000 		.4byte	0x24f0
 8437 1ed6 E21E0000 		.4byte	0x1ee2
 8438 1eda 0C       		.uleb128 0xc
 8439 1edb 01       		.uleb128 0x1
 8440 1edc 50       		.byte	0x50
 8441 1edd 03       		.uleb128 0x3
 8442 1ede 0A       		.byte	0xa
 8443 1edf F401     		.2byte	0x1f4
 8444 1ee1 00       		.byte	0
 8445 1ee2 0B       		.uleb128 0xb
 8446 1ee3 FE050000 		.4byte	.LVL592
 8447 1ee7 4F270000 		.4byte	0x274f
 8448 1eeb 021F0000 		.4byte	0x1f02
 8449 1eef 0C       		.uleb128 0xc
 8450 1ef0 01       		.uleb128 0x1
 8451 1ef1 50       		.byte	0x50
 8452 1ef2 05       		.uleb128 0x5
 8453 1ef3 03       		.byte	0x3
 8454 1ef4 00000000 		.4byte	string_bt
 8455 1ef8 0C       		.uleb128 0xc
 8456 1ef9 01       		.uleb128 0x1
 8457 1efa 51       		.byte	0x51
 8458 1efb 05       		.uleb128 0x5
 8459 1efc 03       		.byte	0x3
 8460 1efd E4000000 		.4byte	.LC17
 8461 1f01 00       		.byte	0
 8462 1f02 0B       		.uleb128 0xb
 8463 1f03 30060000 		.4byte	.LVL593
 8464 1f07 5A270000 		.4byte	0x275a
 8465 1f0b 231F0000 		.4byte	0x1f23
 8466 1f0f 0C       		.uleb128 0xc
 8467 1f10 01       		.uleb128 0x1
 8468 1f11 50       		.byte	0x50
 8469 1f12 0F       		.uleb128 0xf
 8470 1f13 74       		.byte	0x74
 8471 1f14 00       		.sleb128 0
 8472 1f15 32       		.byte	0x32
 8473 1f16 24       		.byte	0x24
 8474 1f17 74       		.byte	0x74
 8475 1f18 00       		.sleb128 0
 8476 1f19 22       		.byte	0x22
 8477 1f1a 32       		.byte	0x32
 8478 1f1b 24       		.byte	0x24
ARM GAS  C:\Users\weiro\AppData\Local\Temp\ccglHz8v.s 			page 174


 8479 1f1c 03       		.byte	0x3
 8480 1f1d 00000000 		.4byte	task_info
 8481 1f21 22       		.byte	0x22
 8482 1f22 00       		.byte	0
 8483 1f23 0B       		.uleb128 0xb
 8484 1f24 3E060000 		.4byte	.LVL594
 8485 1f28 4F270000 		.4byte	0x274f
 8486 1f2c 3F1F0000 		.4byte	0x1f3f
 8487 1f30 0C       		.uleb128 0xc
 8488 1f31 01       		.uleb128 0x1
 8489 1f32 50       		.byte	0x50
 8490 1f33 01       		.uleb128 0x1
 8491 1f34 30       		.byte	0x30
 8492 1f35 0C       		.uleb128 0xc
 8493 1f36 01       		.uleb128 0x1
 8494 1f37 51       		.byte	0x51
 8495 1f38 05       		.uleb128 0x5
 8496 1f39 03       		.byte	0x3
 8497 1f3a E4000000 		.4byte	.LC17
 8498 1f3e 00       		.byte	0
 8499 1f3f 0B       		.uleb128 0xb
 8500 1f40 52060000 		.4byte	.LVL595
 8501 1f44 06250000 		.4byte	0x2506
 8502 1f48 531F0000 		.4byte	0x1f53
 8503 1f4c 0C       		.uleb128 0xc
 8504 1f4d 01       		.uleb128 0x1
 8505 1f4e 50       		.byte	0x50
 8506 1f4f 02       		.uleb128 0x2
 8507 1f50 74       		.byte	0x74
 8508 1f51 00       		.sleb128 0
 8509 1f52 00       		.byte	0
 8510 1f53 0B       		.uleb128 0xb
 8511 1f54 5A060000 		.4byte	.LVL596
 8512 1f58 06250000 		.4byte	0x2506
 8513 1f5c 671F0000 		.4byte	0x1f67
 8514 1f60 0C       		.uleb128 0xc
 8515 1f61 01       		.uleb128 0x1
 8516 1f62 50       		.byte	0x50
 8517 1f63 02       		.uleb128 0x2
 8518 1f64 74       		.byte	0x74
 8519 1f65 14       		.sleb128 20
 8520 1f66 00       		.byte	0
 8521 1f67 0B       		.uleb128 0xb
 8522 1f68 62060000 		.4byte	.LVL597
 8523 1f6c 06250000 		.4byte	0x2506
 8524 1f70 7B1F0000 		.4byte	0x1f7b
 8525 1f74 0C       		.uleb128 0xc
 8526 1f75 01       		.uleb128 0x1
 8527 1f76 50       		.byte	0x50
 8528 1f77 02       		.uleb128 0x2
 8529 1f78 74       		.byte	0x74
 8530 1f79 28       		.sleb128 40
 8531 1f7a 00       		.byte	0
 8532 1f7b 0D       		.uleb128 0xd
 8533 1f7c 68060000 		.4byte	.LVL598
 8534 1f80 06250000 		.4byte	0x2506
 8535 1f84 0C       		.uleb128 0xc
ARM GAS  C:\Users\weiro\AppData\Local\Temp\ccglHz8v.s 			page 175


 8536 1f85 01       		.uleb128 0x1
 8537 1f86 50       		.byte	0x50
 8538 1f87 05       		.uleb128 0x5
 8539 1f88 03       		.byte	0x3
 8540 1f89 E8000000 		.4byte	.LC18
 8541 1f8d 00       		.byte	0
 8542 1f8e 00       		.byte	0
 8543 1f8f 1F       		.uleb128 0x1f
 8544 1f90 69070000 		.4byte	.LASF65
 8545 1f94 05       		.byte	0x5
 8546 1f95 1207     		.2byte	0x712
 8547 1f97 9B1F0000 		.4byte	0x1f9b
 8548 1f9b 20       		.uleb128 0x20
 8549 1f9c 7D000000 		.4byte	0x7d
 8550 1fa0 21       		.uleb128 0x21
 8551 1fa1 EE000000 		.4byte	.LASF66
 8552 1fa5 01       		.byte	0x1
 8553 1fa6 15       		.byte	0x15
 8554 1fa7 6F000000 		.4byte	0x6f
 8555 1fab 05       		.uleb128 0x5
 8556 1fac 03       		.byte	0x3
 8557 1fad 00000000 		.4byte	initial
 8558 1fb1 21       		.uleb128 0x21
 8559 1fb2 EF060000 		.4byte	.LASF67
 8560 1fb6 01       		.byte	0x1
 8561 1fb7 16       		.byte	0x16
 8562 1fb8 25000000 		.4byte	0x25
 8563 1fbc 05       		.uleb128 0x5
 8564 1fbd 03       		.byte	0x3
 8565 1fbe 00000000 		.4byte	WHEEL_DIAMETER
 8566 1fc2 21       		.uleb128 0x21
 8567 1fc3 EA010000 		.4byte	.LASF68
 8568 1fc7 01       		.byte	0x1
 8569 1fc8 17       		.byte	0x17
 8570 1fc9 25000000 		.4byte	0x25
 8571 1fcd 05       		.uleb128 0x5
 8572 1fce 03       		.byte	0x3
 8573 1fcf 00000000 		.4byte	WHEEL_CIRCUMFERENCE
 8574 1fd3 21       		.uleb128 0x21
 8575 1fd4 CB000000 		.4byte	.LASF69
 8576 1fd8 01       		.byte	0x1
 8577 1fd9 18       		.byte	0x18
 8578 1fda 6F000000 		.4byte	0x6f
 8579 1fde 05       		.uleb128 0x5
 8580 1fdf 03       		.byte	0x3
 8581 1fe0 00000000 		.4byte	CS_count_Red
 8582 1fe4 21       		.uleb128 0x21
 8583 1fe5 D4010000 		.4byte	.LASF70
 8584 1fe9 01       		.byte	0x1
 8585 1fea 19       		.byte	0x19
 8586 1feb 6F000000 		.4byte	0x6f
 8587 1fef 05       		.uleb128 0x5
 8588 1ff0 03       		.byte	0x3
 8589 1ff1 00000000 		.4byte	CS_count_Blue
 8590 1ff5 21       		.uleb128 0x21
 8591 1ff6 B9010000 		.4byte	.LASF71
 8592 1ffa 01       		.byte	0x1
ARM GAS  C:\Users\weiro\AppData\Local\Temp\ccglHz8v.s 			page 176


 8593 1ffb 1A       		.byte	0x1a
 8594 1ffc 6F000000 		.4byte	0x6f
 8595 2000 05       		.uleb128 0x5
 8596 2001 03       		.byte	0x3
 8597 2002 00000000 		.4byte	CS_count_Green
 8598 2006 21       		.uleb128 0x21
 8599 2007 FA030000 		.4byte	.LASF72
 8600 200b 01       		.byte	0x1
 8601 200c 1B       		.byte	0x1b
 8602 200d 25000000 		.4byte	0x25
 8603 2011 05       		.uleb128 0x5
 8604 2012 03       		.byte	0x3
 8605 2013 00000000 		.4byte	COUNT_WHEEL
 8606 2017 21       		.uleb128 0x21
 8607 2018 41000000 		.4byte	.LASF73
 8608 201c 01       		.byte	0x1
 8609 201d 1C       		.byte	0x1c
 8610 201e 25000000 		.4byte	0x25
 8611 2022 05       		.uleb128 0x5
 8612 2023 03       		.byte	0x3
 8613 2024 00000000 		.4byte	CM_COUNT_CONV
 8614 2028 21       		.uleb128 0x21
 8615 2029 DF050000 		.4byte	.LASF74
 8616 202d 01       		.byte	0x1
 8617 202e 1D       		.byte	0x1d
 8618 202f 25000000 		.4byte	0x25
 8619 2033 05       		.uleb128 0x5
 8620 2034 03       		.byte	0x3
 8621 2035 00000000 		.4byte	DISTANCE_BETW_WHEEL
 8622 2039 21       		.uleb128 0x21
 8623 203a 50020000 		.4byte	.LASF75
 8624 203e 01       		.byte	0x1
 8625 203f 1E       		.byte	0x1e
 8626 2040 25000000 		.4byte	0x25
 8627 2044 05       		.uleb128 0x5
 8628 2045 03       		.byte	0x3
 8629 2046 00000000 		.4byte	DISTANCE_PT_TURN
 8630 204a 21       		.uleb128 0x21
 8631 204b 90020000 		.4byte	.LASF43
 8632 204f 01       		.byte	0x1
 8633 2050 1F       		.byte	0x1f
 8634 2051 25000000 		.4byte	0x25
 8635 2055 05       		.uleb128 0x5
 8636 2056 03       		.byte	0x3
 8637 2057 00000000 		.4byte	PT_TURN_COUNT
 8638 205b 21       		.uleb128 0x21
 8639 205c 26080000 		.4byte	.LASF76
 8640 2060 01       		.byte	0x1
 8641 2061 20       		.byte	0x20
 8642 2062 6F000000 		.4byte	0x6f
 8643 2066 05       		.uleb128 0x5
 8644 2067 03       		.byte	0x3
 8645 2068 00000000 		.4byte	Count_Master
 8646 206c 21       		.uleb128 0x21
 8647 206d 10070000 		.4byte	.LASF77
 8648 2071 01       		.byte	0x1
 8649 2072 21       		.byte	0x21
ARM GAS  C:\Users\weiro\AppData\Local\Temp\ccglHz8v.s 			page 177


 8650 2073 6F000000 		.4byte	0x6f
 8651 2077 05       		.uleb128 0x5
 8652 2078 03       		.byte	0x3
 8653 2079 00000000 		.4byte	Count_Slave
 8654 207d 22       		.uleb128 0x22
 8655 207e A7000000 		.4byte	0xa7
 8656 2082 8D200000 		.4byte	0x208d
 8657 2086 23       		.uleb128 0x23
 8658 2087 B5000000 		.4byte	0xb5
 8659 208b C7       		.byte	0xc7
 8660 208c 00       		.byte	0
 8661 208d 21       		.uleb128 0x21
 8662 208e C00A0000 		.4byte	.LASF78
 8663 2092 01       		.byte	0x1
 8664 2093 22       		.byte	0x22
 8665 2094 7D200000 		.4byte	0x207d
 8666 2098 05       		.uleb128 0x5
 8667 2099 03       		.byte	0x3
 8668 209a 00000000 		.4byte	string_1
 8669 209e 21       		.uleb128 0x21
 8670 209f C90A0000 		.4byte	.LASF79
 8671 20a3 01       		.byte	0x1
 8672 20a4 23       		.byte	0x23
 8673 20a5 7D200000 		.4byte	0x207d
 8674 20a9 05       		.uleb128 0x5
 8675 20aa 03       		.byte	0x3
 8676 20ab 00000000 		.4byte	string_2
 8677 20af 21       		.uleb128 0x21
 8678 20b0 D20A0000 		.4byte	.LASF80
 8679 20b4 01       		.byte	0x1
 8680 20b5 24       		.byte	0x24
 8681 20b6 7D200000 		.4byte	0x207d
 8682 20ba 05       		.uleb128 0x5
 8683 20bb 03       		.byte	0x3
 8684 20bc 00000000 		.4byte	string_3
 8685 20c0 21       		.uleb128 0x21
 8686 20c1 A0010000 		.4byte	.LASF81
 8687 20c5 01       		.byte	0x1
 8688 20c6 25       		.byte	0x25
 8689 20c7 25000000 		.4byte	0x25
 8690 20cb 05       		.uleb128 0x5
 8691 20cc 03       		.byte	0x3
 8692 20cd 00000000 		.4byte	error
 8693 20d1 21       		.uleb128 0x21
 8694 20d2 E8030000 		.4byte	.LASF82
 8695 20d6 01       		.byte	0x1
 8696 20d7 26       		.byte	0x26
 8697 20d8 25000000 		.4byte	0x25
 8698 20dc 05       		.uleb128 0x5
 8699 20dd 03       		.byte	0x3
 8700 20de 00000000 		.4byte	accumulated_error
 8701 20e2 21       		.uleb128 0x21
 8702 20e3 C4080000 		.4byte	.LASF83
 8703 20e7 01       		.byte	0x1
 8704 20e8 27       		.byte	0x27
 8705 20e9 25000000 		.4byte	0x25
 8706 20ed 05       		.uleb128 0x5
ARM GAS  C:\Users\weiro\AppData\Local\Temp\ccglHz8v.s 			page 178


 8707 20ee 03       		.byte	0x3
 8708 20ef 00000000 		.4byte	last_error
 8709 20f3 21       		.uleb128 0x21
 8710 20f4 9C080000 		.4byte	.LASF84
 8711 20f8 01       		.byte	0x1
 8712 20f9 28       		.byte	0x28
 8713 20fa 25000000 		.4byte	0x25
 8714 20fe 05       		.uleb128 0x5
 8715 20ff 03       		.byte	0x3
 8716 2100 00000000 		.4byte	derivative_error
 8717 2104 21       		.uleb128 0x21
 8718 2105 49010000 		.4byte	.LASF85
 8719 2109 01       		.byte	0x1
 8720 210a 29       		.byte	0x29
 8721 210b 25000000 		.4byte	0x25
 8722 210f 05       		.uleb128 0x5
 8723 2110 03       		.byte	0x3
 8724 2111 00000000 		.4byte	timer_period
 8725 2115 24       		.uleb128 0x24
 8726 2116 4B5F7000 		.ascii	"K_p\000"
 8727 211a 01       		.byte	0x1
 8728 211b 2A       		.byte	0x2a
 8729 211c 25000000 		.4byte	0x25
 8730 2120 05       		.uleb128 0x5
 8731 2121 03       		.byte	0x3
 8732 2122 00000000 		.4byte	K_p
 8733 2126 24       		.uleb128 0x24
 8734 2127 4B5F6900 		.ascii	"K_i\000"
 8735 212b 01       		.byte	0x1
 8736 212c 2B       		.byte	0x2b
 8737 212d 25000000 		.4byte	0x25
 8738 2131 05       		.uleb128 0x5
 8739 2132 03       		.byte	0x3
 8740 2133 00000000 		.4byte	K_i
 8741 2137 24       		.uleb128 0x24
 8742 2138 4B5F6400 		.ascii	"K_d\000"
 8743 213c 01       		.byte	0x1
 8744 213d 2C       		.byte	0x2c
 8745 213e 25000000 		.4byte	0x25
 8746 2142 05       		.uleb128 0x5
 8747 2143 03       		.byte	0x3
 8748 2144 00000000 		.4byte	K_d
 8749 2148 21       		.uleb128 0x21
 8750 2149 1B000000 		.4byte	.LASF86
 8751 214d 01       		.byte	0x1
 8752 214e 2D       		.byte	0x2d
 8753 214f A0000000 		.4byte	0xa0
 8754 2153 05       		.uleb128 0x5
 8755 2154 03       		.byte	0x3
 8756 2155 00000000 		.4byte	PWM_Master
 8757 2159 21       		.uleb128 0x21
 8758 215a 3B090000 		.4byte	.LASF87
 8759 215e 01       		.byte	0x1
 8760 215f 2E       		.byte	0x2e
 8761 2160 A0000000 		.4byte	0xa0
 8762 2164 05       		.uleb128 0x5
 8763 2165 03       		.byte	0x3
ARM GAS  C:\Users\weiro\AppData\Local\Temp\ccglHz8v.s 			page 179


 8764 2166 00000000 		.4byte	PWM_Cal
 8765 216a 21       		.uleb128 0x21
 8766 216b 51090000 		.4byte	.LASF88
 8767 216f 01       		.byte	0x1
 8768 2170 30       		.byte	0x30
 8769 2171 A0000000 		.4byte	0xa0
 8770 2175 05       		.uleb128 0x5
 8771 2176 03       		.byte	0x3
 8772 2177 00000000 		.4byte	PWM_Slave
 8773 217b 21       		.uleb128 0x21
 8774 217c D3070000 		.4byte	.LASF89
 8775 2180 01       		.byte	0x1
 8776 2181 31       		.byte	0x31
 8777 2182 A0000000 		.4byte	0xa0
 8778 2186 05       		.uleb128 0x5
 8779 2187 03       		.byte	0x3
 8780 2188 00000000 		.4byte	PWM_Master_puck
 8781 218c 21       		.uleb128 0x21
 8782 218d 78090000 		.4byte	.LASF90
 8783 2191 01       		.byte	0x1
 8784 2192 32       		.byte	0x32
 8785 2193 A0000000 		.4byte	0xa0
 8786 2197 05       		.uleb128 0x5
 8787 2198 03       		.byte	0x3
 8788 2199 00000000 		.4byte	PWM_Slave_puck
 8789 219d 21       		.uleb128 0x21
 8790 219e FE020000 		.4byte	.LASF91
 8791 21a2 01       		.byte	0x1
 8792 21a3 33       		.byte	0x33
 8793 21a4 6F000000 		.4byte	0x6f
 8794 21a8 05       		.uleb128 0x5
 8795 21a9 03       		.byte	0x3
 8796 21aa 00000000 		.4byte	is_moving
 8797 21ae 21       		.uleb128 0x21
 8798 21af DB0A0000 		.4byte	.LASF92
 8799 21b3 01       		.byte	0x1
 8800 21b4 34       		.byte	0x34
 8801 21b5 6F000000 		.4byte	0x6f
 8802 21b9 05       		.uleb128 0x5
 8803 21ba 03       		.byte	0x3
 8804 21bb 00000000 		.4byte	ultrasonic_count
 8805 21bf 21       		.uleb128 0x21
 8806 21c0 45050000 		.4byte	.LASF93
 8807 21c4 01       		.byte	0x1
 8808 21c5 35       		.byte	0x35
 8809 21c6 25000000 		.4byte	0x25
 8810 21ca 05       		.uleb128 0x5
 8811 21cb 03       		.byte	0x3
 8812 21cc 00000000 		.4byte	ultrasonic_measure
 8813 21d0 21       		.uleb128 0x21
 8814 21d1 E3070000 		.4byte	.LASF94
 8815 21d5 01       		.byte	0x1
 8816 21d6 36       		.byte	0x36
 8817 21d7 25000000 		.4byte	0x25
 8818 21db 05       		.uleb128 0x5
 8819 21dc 03       		.byte	0x3
 8820 21dd 00000000 		.4byte	front_measured_1
ARM GAS  C:\Users\weiro\AppData\Local\Temp\ccglHz8v.s 			page 180


 8821 21e1 21       		.uleb128 0x21
 8822 21e2 F4070000 		.4byte	.LASF95
 8823 21e6 01       		.byte	0x1
 8824 21e7 36       		.byte	0x36
 8825 21e8 25000000 		.4byte	0x25
 8826 21ec 05       		.uleb128 0x5
 8827 21ed 03       		.byte	0x3
 8828 21ee 00000000 		.4byte	front_measured_2
 8829 21f2 21       		.uleb128 0x21
 8830 21f3 3A010000 		.4byte	.LASF96
 8831 21f7 01       		.byte	0x1
 8832 21f8 36       		.byte	0x36
 8833 21f9 25000000 		.4byte	0x25
 8834 21fd 05       		.uleb128 0x5
 8835 21fe 03       		.byte	0x3
 8836 21ff 00000000 		.4byte	right_measured
 8837 2203 21       		.uleb128 0x21
 8838 2204 DA020000 		.4byte	.LASF97
 8839 2208 01       		.byte	0x1
 8840 2209 36       		.byte	0x36
 8841 220a 25000000 		.4byte	0x25
 8842 220e 05       		.uleb128 0x5
 8843 220f 03       		.byte	0x3
 8844 2210 00000000 		.4byte	left_measured
 8845 2214 21       		.uleb128 0x21
 8846 2215 55080000 		.4byte	.LASF98
 8847 2219 01       		.byte	0x1
 8848 221a 37       		.byte	0x37
 8849 221b 6F000000 		.4byte	0x6f
 8850 221f 05       		.uleb128 0x5
 8851 2220 03       		.byte	0x3
 8852 2221 00000000 		.4byte	echo_select
 8853 2225 21       		.uleb128 0x21
 8854 2226 43020000 		.4byte	.LASF99
 8855 222a 01       		.byte	0x1
 8856 222b 38       		.byte	0x38
 8857 222c 25000000 		.4byte	0x25
 8858 2230 05       		.uleb128 0x5
 8859 2231 03       		.byte	0x3
 8860 2232 00000000 		.4byte	x_coord
 8861 2236 21       		.uleb128 0x21
 8862 2237 E7060000 		.4byte	.LASF100
 8863 223b 01       		.byte	0x1
 8864 223c 39       		.byte	0x39
 8865 223d 25000000 		.4byte	0x25
 8866 2241 05       		.uleb128 0x5
 8867 2242 03       		.byte	0x3
 8868 2243 00000000 		.4byte	y_coord
 8869 2247 21       		.uleb128 0x21
 8870 2248 00000000 		.4byte	.LASF101
 8871 224c 01       		.byte	0x1
 8872 224d 3A       		.byte	0x3a
 8873 224e 6F000000 		.4byte	0x6f
 8874 2252 05       		.uleb128 0x5
 8875 2253 03       		.byte	0x3
 8876 2254 00000000 		.4byte	direction
 8877 2258 21       		.uleb128 0x21
ARM GAS  C:\Users\weiro\AppData\Local\Temp\ccglHz8v.s 			page 181


 8878 2259 46060000 		.4byte	.LASF102
 8879 225d 01       		.byte	0x1
 8880 225e 3B       		.byte	0x3b
 8881 225f 6F000000 		.4byte	0x6f
 8882 2263 05       		.uleb128 0x5
 8883 2264 03       		.byte	0x3
 8884 2265 00000000 		.4byte	step
 8885 2269 21       		.uleb128 0x21
 8886 226a 78060000 		.4byte	.LASF103
 8887 226e 01       		.byte	0x1
 8888 226f 3C       		.byte	0x3c
 8889 2270 6F000000 		.4byte	0x6f
 8890 2274 05       		.uleb128 0x5
 8891 2275 03       		.byte	0x3
 8892 2276 00000000 		.4byte	compare_ready
 8893 227a 21       		.uleb128 0x21
 8894 227b 5B090000 		.4byte	.LASF104
 8895 227f 01       		.byte	0x1
 8896 2280 3D       		.byte	0x3d
 8897 2281 6F000000 		.4byte	0x6f
 8898 2285 05       		.uleb128 0x5
 8899 2286 03       		.byte	0x3
 8900 2287 00000000 		.4byte	color_detected
 8901 228b 21       		.uleb128 0x21
 8902 228c 230B0000 		.4byte	.LASF105
 8903 2290 01       		.byte	0x1
 8904 2291 3E       		.byte	0x3e
 8905 2292 6F000000 		.4byte	0x6f
 8906 2296 05       		.uleb128 0x5
 8907 2297 03       		.byte	0x3
 8908 2298 00000000 		.4byte	wall_detected_10
 8909 229c 21       		.uleb128 0x21
 8910 229d AB010000 		.4byte	.LASF106
 8911 22a1 01       		.byte	0x1
 8912 22a2 3F       		.byte	0x3f
 8913 22a3 6F000000 		.4byte	0x6f
 8914 22a7 05       		.uleb128 0x5
 8915 22a8 03       		.byte	0x3
 8916 22a9 00000000 		.4byte	slit_detected
 8917 22ad 21       		.uleb128 0x21
 8918 22ae 0A000000 		.4byte	.LASF107
 8919 22b2 01       		.byte	0x1
 8920 22b3 40       		.byte	0x40
 8921 22b4 6F000000 		.4byte	0x6f
 8922 22b8 05       		.uleb128 0x5
 8923 22b9 03       		.byte	0x3
 8924 22ba 00000000 		.4byte	down_big
 8925 22be 21       		.uleb128 0x21
 8926 22bf B90A0000 		.4byte	.LASF108
 8927 22c3 01       		.byte	0x1
 8928 22c4 41       		.byte	0x41
 8929 22c5 6F000000 		.4byte	0x6f
 8930 22c9 05       		.uleb128 0x5
 8931 22ca 03       		.byte	0x3
 8932 22cb 00000000 		.4byte	up_big
 8933 22cf 21       		.uleb128 0x21
 8934 22d0 1B080000 		.4byte	.LASF109
ARM GAS  C:\Users\weiro\AppData\Local\Temp\ccglHz8v.s 			page 182


 8935 22d4 01       		.byte	0x1
 8936 22d5 42       		.byte	0x42
 8937 22d6 6F000000 		.4byte	0x6f
 8938 22da 05       		.uleb128 0x5
 8939 22db 03       		.byte	0x3
 8940 22dc 00000000 		.4byte	open_small
 8941 22e0 21       		.uleb128 0x21
 8942 22e1 84020000 		.4byte	.LASF110
 8943 22e5 01       		.byte	0x1
 8944 22e6 43       		.byte	0x43
 8945 22e7 6F000000 		.4byte	0x6f
 8946 22eb 05       		.uleb128 0x5
 8947 22ec 03       		.byte	0x3
 8948 22ed 00000000 		.4byte	close_small
 8949 22f1 24       		.uleb128 0x24
 8950 22f2 527800   		.ascii	"Rx\000"
 8951 22f5 01       		.byte	0x1
 8952 22f6 45       		.byte	0x45
 8953 22f7 A7000000 		.4byte	0xa7
 8954 22fb 05       		.uleb128 0x5
 8955 22fc 03       		.byte	0x3
 8956 22fd 00000000 		.4byte	Rx
 8957 2301 24       		.uleb128 0x24
 8958 2302 6900     		.ascii	"i\000"
 8959 2304 01       		.byte	0x1
 8960 2305 46       		.byte	0x46
 8961 2306 6F000000 		.4byte	0x6f
 8962 230a 05       		.uleb128 0x5
 8963 230b 03       		.byte	0x3
 8964 230c 00000000 		.4byte	i
 8965 2310 21       		.uleb128 0x21
 8966 2311 C0060000 		.4byte	.LASF111
 8967 2315 01       		.byte	0x1
 8968 2316 47       		.byte	0x47
 8969 2317 7D200000 		.4byte	0x207d
 8970 231b 05       		.uleb128 0x5
 8971 231c 03       		.byte	0x3
 8972 231d 00000000 		.4byte	string_bt
 8973 2321 21       		.uleb128 0x21
 8974 2322 EC0A0000 		.4byte	.LASF112
 8975 2326 01       		.byte	0x1
 8976 2327 48       		.byte	0x48
 8977 2328 6F000000 		.4byte	0x6f
 8978 232c 05       		.uleb128 0x5
 8979 232d 03       		.byte	0x3
 8980 232e 00000000 		.4byte	stop_bt
 8981 2332 21       		.uleb128 0x21
 8982 2333 F40A0000 		.4byte	.LASF113
 8983 2337 01       		.byte	0x1
 8984 2338 49       		.byte	0x49
 8985 2339 BC000000 		.4byte	0xbc
 8986 233d 05       		.uleb128 0x5
 8987 233e 03       		.byte	0x3
 8988 233f 00000000 		.4byte	tokenPtr
 8989 2343 22       		.uleb128 0x22
 8990 2344 A7000000 		.4byte	0xa7
 8991 2348 59230000 		.4byte	0x2359
ARM GAS  C:\Users\weiro\AppData\Local\Temp\ccglHz8v.s 			page 183


 8992 234c 23       		.uleb128 0x23
 8993 234d B5000000 		.4byte	0xb5
 8994 2351 02       		.byte	0x2
 8995 2352 23       		.uleb128 0x23
 8996 2353 B5000000 		.4byte	0xb5
 8997 2357 13       		.byte	0x13
 8998 2358 00       		.byte	0
 8999 2359 21       		.uleb128 0x21
 9000 235a CB090000 		.4byte	.LASF114
 9001 235e 01       		.byte	0x1
 9002 235f 4A       		.byte	0x4a
 9003 2360 43230000 		.4byte	0x2343
 9004 2364 05       		.uleb128 0x5
 9005 2365 03       		.byte	0x3
 9006 2366 00000000 		.4byte	task_info
 9007 236a 24       		.uleb128 0x24
 9008 236b 6A00     		.ascii	"j\000"
 9009 236d 01       		.byte	0x1
 9010 236e 4B       		.byte	0x4b
 9011 236f 6F000000 		.4byte	0x6f
 9012 2373 05       		.uleb128 0x5
 9013 2374 03       		.byte	0x3
 9014 2375 00000000 		.4byte	j
 9015 2379 22       		.uleb128 0x22
 9016 237a 88000000 		.4byte	0x88
 9017 237e 89230000 		.4byte	0x2389
 9018 2382 23       		.uleb128 0x23
 9019 2383 B5000000 		.4byte	0xb5
 9020 2387 05       		.byte	0x5
 9021 2388 00       		.byte	0
 9022 2389 21       		.uleb128 0x21
 9023 238a E6000000 		.4byte	.LASF115
 9024 238e 01       		.byte	0x1
 9025 238f 4D       		.byte	0x4d
 9026 2390 79230000 		.4byte	0x2379
 9027 2394 05       		.uleb128 0x5
 9028 2395 03       		.byte	0x3
 9029 2396 00000000 		.4byte	array_1
 9030 239a 21       		.uleb128 0x21
 9031 239b B4070000 		.4byte	.LASF116
 9032 239f 01       		.byte	0x1
 9033 23a0 4E       		.byte	0x4e
 9034 23a1 94000000 		.4byte	0x94
 9035 23a5 05       		.uleb128 0x5
 9036 23a6 03       		.byte	0x3
 9037 23a7 00000000 		.4byte	temp
 9038 23ab 21       		.uleb128 0x21
 9039 23ac E2040000 		.4byte	.LASF117
 9040 23b0 01       		.byte	0x1
 9041 23b1 4F       		.byte	0x4f
 9042 23b2 25000000 		.4byte	0x25
 9043 23b6 05       		.uleb128 0x5
 9044 23b7 03       		.byte	0x3
 9045 23b8 00000000 		.4byte	yaw_rate
 9046 23bc 21       		.uleb128 0x21
 9047 23bd 60060000 		.4byte	.LASF118
 9048 23c1 01       		.byte	0x1
ARM GAS  C:\Users\weiro\AppData\Local\Temp\ccglHz8v.s 			page 184


 9049 23c2 50       		.byte	0x50
 9050 23c3 25000000 		.4byte	0x25
 9051 23c7 05       		.uleb128 0x5
 9052 23c8 03       		.byte	0x3
 9053 23c9 00000000 		.4byte	yaw_angle
 9054 23cd 21       		.uleb128 0x21
 9055 23ce 410B0000 		.4byte	.LASF119
 9056 23d2 01       		.byte	0x1
 9057 23d3 51       		.byte	0x51
 9058 23d4 25000000 		.4byte	0x25
 9059 23d8 05       		.uleb128 0x5
 9060 23d9 03       		.byte	0x3
 9061 23da 00000000 		.4byte	previous_reading
 9062 23de 21       		.uleb128 0x21
 9063 23df 4A030000 		.4byte	.LASF120
 9064 23e3 01       		.byte	0x1
 9065 23e4 52       		.byte	0x52
 9066 23e5 25000000 		.4byte	0x25
 9067 23e9 05       		.uleb128 0x5
 9068 23ea 03       		.byte	0x3
 9069 23eb 00000000 		.4byte	current_reading
 9070 23ef 21       		.uleb128 0x21
 9071 23f0 9C050000 		.4byte	.LASF121
 9072 23f4 01       		.byte	0x1
 9073 23f5 53       		.byte	0x53
 9074 23f6 25000000 		.4byte	0x25
 9075 23fa 05       		.uleb128 0x5
 9076 23fb 03       		.byte	0x3
 9077 23fc 00000000 		.4byte	heading
 9078 2400 21       		.uleb128 0x21
 9079 2401 26000000 		.4byte	.LASF122
 9080 2405 01       		.byte	0x1
 9081 2406 54       		.byte	0x54
 9082 2407 6F000000 		.4byte	0x6f
 9083 240b 05       		.uleb128 0x5
 9084 240c 03       		.byte	0x3
 9085 240d 00000000 		.4byte	cycles
 9086 2411 21       		.uleb128 0x21
 9087 2412 070A0000 		.4byte	.LASF123
 9088 2416 01       		.byte	0x1
 9089 2417 55       		.byte	0x55
 9090 2418 7D200000 		.4byte	0x207d
 9091 241c 05       		.uleb128 0x5
 9092 241d 03       		.byte	0x3
 9093 241e 00000000 		.4byte	string_gyro
 9094 2422 24       		.uleb128 0x24
 9095 2423 63616C00 		.ascii	"cal\000"
 9096 2427 01       		.byte	0x1
 9097 2428 56       		.byte	0x56
 9098 2429 6F000000 		.4byte	0x6f
 9099 242d 05       		.uleb128 0x5
 9100 242e 03       		.byte	0x3
 9101 242f 00000000 		.4byte	cal
 9102 2433 21       		.uleb128 0x21
 9103 2434 7E020000 		.4byte	.LASF124
 9104 2438 01       		.byte	0x1
 9105 2439 57       		.byte	0x57
ARM GAS  C:\Users\weiro\AppData\Local\Temp\ccglHz8v.s 			page 185


 9106 243a 6F000000 		.4byte	0x6f
 9107 243e 05       		.uleb128 0x5
 9108 243f 03       		.byte	0x3
 9109 2440 00000000 		.4byte	count
 9110 2444 21       		.uleb128 0x21
 9111 2445 11010000 		.4byte	.LASF125
 9112 2449 01       		.byte	0x1
 9113 244a 58       		.byte	0x58
 9114 244b 94000000 		.4byte	0x94
 9115 244f 05       		.uleb128 0x5
 9116 2450 03       		.byte	0x3
 9117 2451 00000000 		.4byte	error_gyro
 9118 2455 21       		.uleb128 0x21
 9119 2456 81010000 		.4byte	.LASF126
 9120 245a 01       		.byte	0x1
 9121 245b 59       		.byte	0x59
 9122 245c 94000000 		.4byte	0x94
 9123 2460 05       		.uleb128 0x5
 9124 2461 03       		.byte	0x3
 9125 2462 00000000 		.4byte	error_gyro_avg
 9126 2466 21       		.uleb128 0x21
 9127 2467 260A0000 		.4byte	.LASF127
 9128 246b 01       		.byte	0x1
 9129 246c 5A       		.byte	0x5a
 9130 246d 25000000 		.4byte	0x25
 9131 2471 05       		.uleb128 0x5
 9132 2472 03       		.byte	0x3
 9133 2473 00000000 		.4byte	threshold
 9134 2477 25       		.uleb128 0x25
 9135 2478 1A090000 		.4byte	.LASF128
 9136 247c 1A090000 		.4byte	.LASF128
 9137 2480 06       		.byte	0x6
 9138 2481 CA       		.byte	0xca
 9139 2482 25       		.uleb128 0x25
 9140 2483 56010000 		.4byte	.LASF129
 9141 2487 56010000 		.4byte	.LASF129
 9142 248b 07       		.byte	0x7
 9143 248c 5E       		.byte	0x5e
 9144 248d 25       		.uleb128 0x25
 9145 248e 88050000 		.4byte	.LASF130
 9146 2492 88050000 		.4byte	.LASF130
 9147 2496 07       		.byte	0x7
 9148 2497 69       		.byte	0x69
 9149 2498 25       		.uleb128 0x25
 9150 2499 86060000 		.4byte	.LASF131
 9151 249d 86060000 		.4byte	.LASF131
 9152 24a1 08       		.byte	0x8
 9153 24a2 E7       		.byte	0xe7
 9154 24a3 25       		.uleb128 0x25
 9155 24a4 21020000 		.4byte	.LASF47
 9156 24a8 21020000 		.4byte	.LASF47
 9157 24ac 01       		.byte	0x1
 9158 24ad 7A       		.byte	0x7a
 9159 24ae 25       		.uleb128 0x25
 9160 24af FE040000 		.4byte	.LASF132
 9161 24b3 FE040000 		.4byte	.LASF132
 9162 24b7 09       		.byte	0x9
ARM GAS  C:\Users\weiro\AppData\Local\Temp\ccglHz8v.s 			page 186


 9163 24b8 97       		.byte	0x97
 9164 24b9 25       		.uleb128 0x25
 9165 24ba 0A0B0000 		.4byte	.LASF133
 9166 24be 0A0B0000 		.4byte	.LASF133
 9167 24c2 0A       		.byte	0xa
 9168 24c3 71       		.byte	0x71
 9169 24c4 25       		.uleb128 0x25
 9170 24c5 A8020000 		.4byte	.LASF134
 9171 24c9 A8020000 		.4byte	.LASF134
 9172 24cd 0B       		.byte	0xb
 9173 24ce 5E       		.byte	0x5e
 9174 24cf 25       		.uleb128 0x25
 9175 24d0 40070000 		.4byte	.LASF135
 9176 24d4 40070000 		.4byte	.LASF135
 9177 24d8 0C       		.byte	0xc
 9178 24d9 B1       		.byte	0xb1
 9179 24da 25       		.uleb128 0x25
 9180 24db F1090000 		.4byte	.LASF136
 9181 24df F1090000 		.4byte	.LASF136
 9182 24e3 0C       		.byte	0xc
 9183 24e4 B6       		.byte	0xb6
 9184 24e5 25       		.uleb128 0x25
 9185 24e6 FE010000 		.4byte	.LASF137
 9186 24ea FE010000 		.4byte	.LASF137
 9187 24ee 0C       		.byte	0xc
 9188 24ef B5       		.byte	0xb5
 9189 24f0 25       		.uleb128 0x25
 9190 24f1 13000000 		.4byte	.LASF138
 9191 24f5 13000000 		.4byte	.LASF138
 9192 24f9 0D       		.byte	0xd
 9193 24fa 76       		.byte	0x76
 9194 24fb 25       		.uleb128 0x25
 9195 24fc 01060000 		.4byte	.LASF139
 9196 2500 01060000 		.4byte	.LASF139
 9197 2504 0C       		.byte	0xc
 9198 2505 B7       		.byte	0xb7
 9199 2506 25       		.uleb128 0x25
 9200 2507 2B040000 		.4byte	.LASF140
 9201 250b 2B040000 		.4byte	.LASF140
 9202 250f 0A       		.byte	0xa
 9203 2510 8B       		.byte	0x8b
 9204 2511 25       		.uleb128 0x25
 9205 2512 CF040000 		.4byte	.LASF141
 9206 2516 CF040000 		.4byte	.LASF141
 9207 251a 0E       		.byte	0xe
 9208 251b 26       		.byte	0x26
 9209 251c 25       		.uleb128 0x25
 9210 251d 9A090000 		.4byte	.LASF142
 9211 2521 9A090000 		.4byte	.LASF142
 9212 2525 0F       		.byte	0xf
 9213 2526 26       		.byte	0x26
 9214 2527 25       		.uleb128 0x25
 9215 2528 87090000 		.4byte	.LASF143
 9216 252c 87090000 		.4byte	.LASF143
 9217 2530 10       		.byte	0x10
 9218 2531 26       		.byte	0x26
 9219 2532 25       		.uleb128 0x25
ARM GAS  C:\Users\weiro\AppData\Local\Temp\ccglHz8v.s 			page 187


 9220 2533 EB040000 		.4byte	.LASF144
 9221 2537 EB040000 		.4byte	.LASF144
 9222 253b 11       		.byte	0x11
 9223 253c 26       		.byte	0x26
 9224 253d 25       		.uleb128 0x25
 9225 253e DC090000 		.4byte	.LASF145
 9226 2542 DC090000 		.4byte	.LASF145
 9227 2546 12       		.byte	0x12
 9228 2547 4F       		.byte	0x4f
 9229 2548 25       		.uleb128 0x25
 9230 2549 B6090000 		.4byte	.LASF146
 9231 254d B6090000 		.4byte	.LASF146
 9232 2551 13       		.byte	0x13
 9233 2552 4F       		.byte	0x4f
 9234 2553 25       		.uleb128 0x25
 9235 2554 01090000 		.4byte	.LASF147
 9236 2558 01090000 		.4byte	.LASF147
 9237 255c 06       		.byte	0x6
 9238 255d C7       		.byte	0xc7
 9239 255e 25       		.uleb128 0x25
 9240 255f B6000000 		.4byte	.LASF148
 9241 2563 B6000000 		.4byte	.LASF148
 9242 2567 12       		.byte	0x12
 9243 2568 4E       		.byte	0x4e
 9244 2569 25       		.uleb128 0x25
 9245 256a BA040000 		.4byte	.LASF149
 9246 256e BA040000 		.4byte	.LASF149
 9247 2572 13       		.byte	0x13
 9248 2573 4E       		.byte	0x4e
 9249 2574 25       		.uleb128 0x25
 9250 2575 2D000000 		.4byte	.LASF150
 9251 2579 2D000000 		.4byte	.LASF150
 9252 257d 14       		.byte	0x14
 9253 257e 2F       		.byte	0x2f
 9254 257f 25       		.uleb128 0x25
 9255 2580 11030000 		.4byte	.LASF151
 9256 2584 11030000 		.4byte	.LASF151
 9257 2588 15       		.byte	0x15
 9258 2589 26       		.byte	0x26
 9259 258a 25       		.uleb128 0x25
 9260 258b 9E020000 		.4byte	.LASF152
 9261 258f 9E020000 		.4byte	.LASF152
 9262 2593 0D       		.byte	0xd
 9263 2594 77       		.byte	0x77
 9264 2595 25       		.uleb128 0x25
 9265 2596 76070000 		.4byte	.LASF153
 9266 259a 76070000 		.4byte	.LASF153
 9267 259e 16       		.byte	0x16
 9268 259f 29       		.byte	0x29
 9269 25a0 25       		.uleb128 0x25
 9270 25a1 2C010000 		.4byte	.LASF154
 9271 25a5 2C010000 		.4byte	.LASF154
 9272 25a9 17       		.byte	0x17
 9273 25aa 29       		.byte	0x29
 9274 25ab 25       		.uleb128 0x25
 9275 25ac CA070000 		.4byte	.LASF155
 9276 25b0 CA070000 		.4byte	.LASF155
ARM GAS  C:\Users\weiro\AppData\Local\Temp\ccglHz8v.s 			page 188


 9277 25b4 18       		.byte	0x18
 9278 25b5 26       		.byte	0x26
 9279 25b6 25       		.uleb128 0x25
 9280 25b7 08030000 		.4byte	.LASF156
 9281 25bb 08030000 		.4byte	.LASF156
 9282 25bf 19       		.byte	0x19
 9283 25c0 26       		.byte	0x26
 9284 25c1 25       		.uleb128 0x25
 9285 25c2 78000000 		.4byte	.LASF157
 9286 25c6 78000000 		.4byte	.LASF157
 9287 25ca 1A       		.byte	0x1a
 9288 25cb 26       		.byte	0x26
 9289 25cc 25       		.uleb128 0x25
 9290 25cd 91070000 		.4byte	.LASF158
 9291 25d1 91070000 		.4byte	.LASF158
 9292 25d5 1B       		.byte	0x1b
 9293 25d6 4F       		.byte	0x4f
 9294 25d7 25       		.uleb128 0x25
 9295 25d8 AD090000 		.4byte	.LASF159
 9296 25dc AD090000 		.4byte	.LASF159
 9297 25e0 1C       		.byte	0x1c
 9298 25e1 26       		.byte	0x26
 9299 25e2 25       		.uleb128 0x25
 9300 25e3 21050000 		.4byte	.LASF160
 9301 25e7 21050000 		.4byte	.LASF160
 9302 25eb 1D       		.byte	0x1d
 9303 25ec 26       		.byte	0x26
 9304 25ed 25       		.uleb128 0x25
 9305 25ee 58050000 		.4byte	.LASF161
 9306 25f2 58050000 		.4byte	.LASF161
 9307 25f6 1E       		.byte	0x1e
 9308 25f7 2F       		.byte	0x2f
 9309 25f8 25       		.uleb128 0x25
 9310 25f9 16060000 		.4byte	.LASF162
 9311 25fd 16060000 		.4byte	.LASF162
 9312 2601 1B       		.byte	0x1b
 9313 2602 5E       		.byte	0x5e
 9314 2603 25       		.uleb128 0x25
 9315 2604 61080000 		.4byte	.LASF163
 9316 2608 61080000 		.4byte	.LASF163
 9317 260c 1B       		.byte	0x1b
 9318 260d 50       		.byte	0x50
 9319 260e 25       		.uleb128 0x25
 9320 260f 43090000 		.4byte	.LASF164
 9321 2613 43090000 		.4byte	.LASF164
 9322 2617 1F       		.byte	0x1f
 9323 2618 26       		.byte	0x26
 9324 2619 25       		.uleb128 0x25
 9325 261a 90010000 		.4byte	.LASF165
 9326 261e 90010000 		.4byte	.LASF165
 9327 2622 20       		.byte	0x20
 9328 2623 26       		.byte	0x26
 9329 2624 25       		.uleb128 0x25
 9330 2625 3B030000 		.4byte	.LASF166
 9331 2629 3B030000 		.4byte	.LASF166
 9332 262d 21       		.byte	0x21
 9333 262e 26       		.byte	0x26
ARM GAS  C:\Users\weiro\AppData\Local\Temp\ccglHz8v.s 			page 189


 9334 262f 25       		.uleb128 0x25
 9335 2630 1F030000 		.4byte	.LASF167
 9336 2634 1F030000 		.4byte	.LASF167
 9337 2638 22       		.byte	0x22
 9338 2639 29       		.byte	0x29
 9339 263a 26       		.uleb128 0x26
 9340 263b 6C050000 		.4byte	.LASF51
 9341 263f 6C050000 		.4byte	.LASF51
 9342 2643 01       		.byte	0x1
 9343 2644 3603     		.2byte	0x336
 9344 2646 25       		.uleb128 0x25
 9345 2647 67020000 		.4byte	.LASF168
 9346 264b 67020000 		.4byte	.LASF168
 9347 264f 23       		.byte	0x23
 9348 2650 D1       		.byte	0xd1
 9349 2651 25       		.uleb128 0x25
 9350 2652 5A040000 		.4byte	.LASF169
 9351 2656 5A040000 		.4byte	.LASF169
 9352 265a 23       		.byte	0x23
 9353 265b 39       		.byte	0x39
 9354 265c 25       		.uleb128 0x25
 9355 265d 7A080000 		.4byte	.LASF170
 9356 2661 7A080000 		.4byte	.LASF170
 9357 2665 23       		.byte	0x23
 9358 2666 3A       		.byte	0x3a
 9359 2667 27       		.uleb128 0x27
 9360 2668 706F7700 		.ascii	"pow\000"
 9361 266c 706F7700 		.ascii	"pow\000"
 9362 2670 2D       		.byte	0x2d
 9363 2671 86       		.byte	0x86
 9364 2672 25       		.uleb128 0x25
 9365 2673 74040000 		.4byte	.LASF171
 9366 2677 74040000 		.4byte	.LASF171
 9367 267b 24       		.byte	0x24
 9368 267c C3       		.byte	0xc3
 9369 267d 25       		.uleb128 0x25
 9370 267e 98060000 		.4byte	.LASF172
 9371 2682 98060000 		.4byte	.LASF172
 9372 2686 25       		.byte	0x25
 9373 2687 C3       		.byte	0xc3
 9374 2688 25       		.uleb128 0x25
 9375 2689 D8000000 		.4byte	.LASF173
 9376 268d D8000000 		.4byte	.LASF173
 9377 2691 26       		.byte	0x26
 9378 2692 18       		.byte	0x18
 9379 2693 25       		.uleb128 0x25
 9380 2694 A4050000 		.4byte	.LASF174
 9381 2698 A4050000 		.4byte	.LASF174
 9382 269c 27       		.byte	0x27
 9383 269d 18       		.byte	0x18
 9384 269e 25       		.uleb128 0x25
 9385 269f 870A0000 		.4byte	.LASF175
 9386 26a3 870A0000 		.4byte	.LASF175
 9387 26a7 28       		.byte	0x28
 9388 26a8 5A       		.byte	0x5a
 9389 26a9 25       		.uleb128 0x25
 9390 26aa 93000000 		.4byte	.LASF176
ARM GAS  C:\Users\weiro\AppData\Local\Temp\ccglHz8v.s 			page 190


 9391 26ae 93000000 		.4byte	.LASF176
 9392 26b2 07       		.byte	0x7
 9393 26b3 5A       		.byte	0x5a
 9394 26b4 25       		.uleb128 0x25
 9395 26b5 CA060000 		.4byte	.LASF177
 9396 26b9 CA060000 		.4byte	.LASF177
 9397 26bd 29       		.byte	0x29
 9398 26be 18       		.byte	0x18
 9399 26bf 25       		.uleb128 0x25
 9400 26c0 E8020000 		.4byte	.LASF178
 9401 26c4 E8020000 		.4byte	.LASF178
 9402 26c8 09       		.byte	0x9
 9403 26c9 92       		.byte	0x92
 9404 26ca 25       		.uleb128 0x25
 9405 26cb D8080000 		.4byte	.LASF179
 9406 26cf D8080000 		.4byte	.LASF179
 9407 26d3 2A       		.byte	0x2a
 9408 26d4 18       		.byte	0x18
 9409 26d5 25       		.uleb128 0x25
 9410 26d6 B9070000 		.4byte	.LASF180
 9411 26da B9070000 		.4byte	.LASF180
 9412 26de 06       		.byte	0x6
 9413 26df 92       		.byte	0x92
 9414 26e0 25       		.uleb128 0x25
 9415 26e1 A1000000 		.4byte	.LASF181
 9416 26e5 A1000000 		.4byte	.LASF181
 9417 26e9 25       		.byte	0x25
 9418 26ea 92       		.byte	0x92
 9419 26eb 25       		.uleb128 0x25
 9420 26ec 65000000 		.4byte	.LASF182
 9421 26f0 65000000 		.4byte	.LASF182
 9422 26f4 24       		.byte	0x24
 9423 26f5 92       		.byte	0x92
 9424 26f6 25       		.uleb128 0x25
 9425 26f7 71010000 		.4byte	.LASF183
 9426 26fb 71010000 		.4byte	.LASF183
 9427 26ff 12       		.byte	0x12
 9428 2700 48       		.byte	0x48
 9429 2701 25       		.uleb128 0x25
 9430 2702 26070000 		.4byte	.LASF184
 9431 2706 26070000 		.4byte	.LASF184
 9432 270a 13       		.byte	0x13
 9433 270b 48       		.byte	0x48
 9434 270c 25       		.uleb128 0x25
 9435 270d 8F080000 		.4byte	.LASF185
 9436 2711 8F080000 		.4byte	.LASF185
 9437 2715 0A       		.byte	0xa
 9438 2716 54       		.byte	0x54
 9439 2717 25       		.uleb128 0x25
 9440 2718 85070000 		.4byte	.LASF186
 9441 271c 85070000 		.4byte	.LASF186
 9442 2720 0C       		.byte	0xc
 9443 2721 93       		.byte	0x93
 9444 2722 25       		.uleb128 0x25
 9445 2723 7A050000 		.4byte	.LASF187
 9446 2727 7A050000 		.4byte	.LASF187
 9447 272b 0B       		.byte	0xb
ARM GAS  C:\Users\weiro\AppData\Local\Temp\ccglHz8v.s 			page 191


 9448 272c 5A       		.byte	0x5a
 9449 272d 25       		.uleb128 0x25
 9450 272e F3050000 		.4byte	.LASF188
 9451 2732 F3050000 		.4byte	.LASF188
 9452 2736 2B       		.byte	0x2b
 9453 2737 18       		.byte	0x18
 9454 2738 26       		.uleb128 0x26
 9455 2739 0D040000 		.4byte	.LASF64
 9456 273d 0D040000 		.4byte	.LASF64
 9457 2741 01       		.byte	0x1
 9458 2742 C103     		.2byte	0x3c1
 9459 2744 25       		.uleb128 0x25
 9460 2745 520B0000 		.4byte	.LASF189
 9461 2749 520B0000 		.4byte	.LASF189
 9462 274d 2C       		.byte	0x2c
 9463 274e 1C       		.byte	0x1c
 9464 274f 25       		.uleb128 0x25
 9465 2750 D5090000 		.4byte	.LASF190
 9466 2754 D5090000 		.4byte	.LASF190
 9467 2758 2C       		.byte	0x2c
 9468 2759 2A       		.byte	0x2a
 9469 275a 25       		.uleb128 0x25
 9470 275b 32020000 		.4byte	.LASF191
 9471 275f 32020000 		.4byte	.LASF191
 9472 2763 2C       		.byte	0x2c
 9473 2764 1E       		.byte	0x1e
 9474 2765 00       		.byte	0
 9475              		.section	.debug_abbrev,"",%progbits
 9476              	.Ldebug_abbrev0:
 9477 0000 01       		.uleb128 0x1
 9478 0001 11       		.uleb128 0x11
 9479 0002 01       		.byte	0x1
 9480 0003 25       		.uleb128 0x25
 9481 0004 0E       		.uleb128 0xe
 9482 0005 13       		.uleb128 0x13
 9483 0006 0B       		.uleb128 0xb
 9484 0007 03       		.uleb128 0x3
 9485 0008 0E       		.uleb128 0xe
 9486 0009 1B       		.uleb128 0x1b
 9487 000a 0E       		.uleb128 0xe
 9488 000b 55       		.uleb128 0x55
 9489 000c 17       		.uleb128 0x17
 9490 000d 11       		.uleb128 0x11
 9491 000e 01       		.uleb128 0x1
 9492 000f 10       		.uleb128 0x10
 9493 0010 17       		.uleb128 0x17
 9494 0011 00       		.byte	0
 9495 0012 00       		.byte	0
 9496 0013 02       		.uleb128 0x2
 9497 0014 24       		.uleb128 0x24
 9498 0015 00       		.byte	0
 9499 0016 0B       		.uleb128 0xb
 9500 0017 0B       		.uleb128 0xb
 9501 0018 3E       		.uleb128 0x3e
 9502 0019 0B       		.uleb128 0xb
 9503 001a 03       		.uleb128 0x3
 9504 001b 0E       		.uleb128 0xe
ARM GAS  C:\Users\weiro\AppData\Local\Temp\ccglHz8v.s 			page 192


 9505 001c 00       		.byte	0
 9506 001d 00       		.byte	0
 9507 001e 03       		.uleb128 0x3
 9508 001f 16       		.uleb128 0x16
 9509 0020 00       		.byte	0
 9510 0021 03       		.uleb128 0x3
 9511 0022 0E       		.uleb128 0xe
 9512 0023 3A       		.uleb128 0x3a
 9513 0024 0B       		.uleb128 0xb
 9514 0025 3B       		.uleb128 0x3b
 9515 0026 0B       		.uleb128 0xb
 9516 0027 49       		.uleb128 0x49
 9517 0028 13       		.uleb128 0x13
 9518 0029 00       		.byte	0
 9519 002a 00       		.byte	0
 9520 002b 04       		.uleb128 0x4
 9521 002c 24       		.uleb128 0x24
 9522 002d 00       		.byte	0
 9523 002e 0B       		.uleb128 0xb
 9524 002f 0B       		.uleb128 0xb
 9525 0030 3E       		.uleb128 0x3e
 9526 0031 0B       		.uleb128 0xb
 9527 0032 03       		.uleb128 0x3
 9528 0033 08       		.uleb128 0x8
 9529 0034 00       		.byte	0
 9530 0035 00       		.byte	0
 9531 0036 05       		.uleb128 0x5
 9532 0037 16       		.uleb128 0x16
 9533 0038 00       		.byte	0
 9534 0039 03       		.uleb128 0x3
 9535 003a 0E       		.uleb128 0xe
 9536 003b 3A       		.uleb128 0x3a
 9537 003c 0B       		.uleb128 0xb
 9538 003d 3B       		.uleb128 0x3b
 9539 003e 05       		.uleb128 0x5
 9540 003f 49       		.uleb128 0x49
 9541 0040 13       		.uleb128 0x13
 9542 0041 00       		.byte	0
 9543 0042 00       		.byte	0
 9544 0043 06       		.uleb128 0x6
 9545 0044 0F       		.uleb128 0xf
 9546 0045 00       		.byte	0
 9547 0046 0B       		.uleb128 0xb
 9548 0047 0B       		.uleb128 0xb
 9549 0048 49       		.uleb128 0x49
 9550 0049 13       		.uleb128 0x13
 9551 004a 00       		.byte	0
 9552 004b 00       		.byte	0
 9553 004c 07       		.uleb128 0x7
 9554 004d 2E       		.uleb128 0x2e
 9555 004e 01       		.byte	0x1
 9556 004f 3F       		.uleb128 0x3f
 9557 0050 19       		.uleb128 0x19
 9558 0051 03       		.uleb128 0x3
 9559 0052 0E       		.uleb128 0xe
 9560 0053 3A       		.uleb128 0x3a
 9561 0054 0B       		.uleb128 0xb
ARM GAS  C:\Users\weiro\AppData\Local\Temp\ccglHz8v.s 			page 193


 9562 0055 3B       		.uleb128 0x3b
 9563 0056 0B       		.uleb128 0xb
 9564 0057 27       		.uleb128 0x27
 9565 0058 19       		.uleb128 0x19
 9566 0059 11       		.uleb128 0x11
 9567 005a 01       		.uleb128 0x1
 9568 005b 12       		.uleb128 0x12
 9569 005c 06       		.uleb128 0x6
 9570 005d 40       		.uleb128 0x40
 9571 005e 18       		.uleb128 0x18
 9572 005f 9642     		.uleb128 0x2116
 9573 0061 19       		.uleb128 0x19
 9574 0062 01       		.uleb128 0x1
 9575 0063 13       		.uleb128 0x13
 9576 0064 00       		.byte	0
 9577 0065 00       		.byte	0
 9578 0066 08       		.uleb128 0x8
 9579 0067 898201   		.uleb128 0x4109
 9580 006a 00       		.byte	0
 9581 006b 11       		.uleb128 0x11
 9582 006c 01       		.uleb128 0x1
 9583 006d 31       		.uleb128 0x31
 9584 006e 13       		.uleb128 0x13
 9585 006f 00       		.byte	0
 9586 0070 00       		.byte	0
 9587 0071 09       		.uleb128 0x9
 9588 0072 2E       		.uleb128 0x2e
 9589 0073 01       		.byte	0x1
 9590 0074 3F       		.uleb128 0x3f
 9591 0075 19       		.uleb128 0x19
 9592 0076 03       		.uleb128 0x3
 9593 0077 0E       		.uleb128 0xe
 9594 0078 3A       		.uleb128 0x3a
 9595 0079 0B       		.uleb128 0xb
 9596 007a 3B       		.uleb128 0x3b
 9597 007b 0B       		.uleb128 0xb
 9598 007c 49       		.uleb128 0x49
 9599 007d 13       		.uleb128 0x13
 9600 007e 3C       		.uleb128 0x3c
 9601 007f 19       		.uleb128 0x19
 9602 0080 01       		.uleb128 0x1
 9603 0081 13       		.uleb128 0x13
 9604 0082 00       		.byte	0
 9605 0083 00       		.byte	0
 9606 0084 0A       		.uleb128 0xa
 9607 0085 18       		.uleb128 0x18
 9608 0086 00       		.byte	0
 9609 0087 00       		.byte	0
 9610 0088 00       		.byte	0
 9611 0089 0B       		.uleb128 0xb
 9612 008a 898201   		.uleb128 0x4109
 9613 008d 01       		.byte	0x1
 9614 008e 11       		.uleb128 0x11
 9615 008f 01       		.uleb128 0x1
 9616 0090 31       		.uleb128 0x31
 9617 0091 13       		.uleb128 0x13
 9618 0092 01       		.uleb128 0x1
ARM GAS  C:\Users\weiro\AppData\Local\Temp\ccglHz8v.s 			page 194


 9619 0093 13       		.uleb128 0x13
 9620 0094 00       		.byte	0
 9621 0095 00       		.byte	0
 9622 0096 0C       		.uleb128 0xc
 9623 0097 8A8201   		.uleb128 0x410a
 9624 009a 00       		.byte	0
 9625 009b 02       		.uleb128 0x2
 9626 009c 18       		.uleb128 0x18
 9627 009d 9142     		.uleb128 0x2111
 9628 009f 18       		.uleb128 0x18
 9629 00a0 00       		.byte	0
 9630 00a1 00       		.byte	0
 9631 00a2 0D       		.uleb128 0xd
 9632 00a3 898201   		.uleb128 0x4109
 9633 00a6 01       		.byte	0x1
 9634 00a7 11       		.uleb128 0x11
 9635 00a8 01       		.uleb128 0x1
 9636 00a9 31       		.uleb128 0x31
 9637 00aa 13       		.uleb128 0x13
 9638 00ab 00       		.byte	0
 9639 00ac 00       		.byte	0
 9640 00ad 0E       		.uleb128 0xe
 9641 00ae 2E       		.uleb128 0x2e
 9642 00af 01       		.byte	0x1
 9643 00b0 3F       		.uleb128 0x3f
 9644 00b1 19       		.uleb128 0x19
 9645 00b2 03       		.uleb128 0x3
 9646 00b3 0E       		.uleb128 0xe
 9647 00b4 3A       		.uleb128 0x3a
 9648 00b5 0B       		.uleb128 0xb
 9649 00b6 3B       		.uleb128 0x3b
 9650 00b7 0B       		.uleb128 0xb
 9651 00b8 27       		.uleb128 0x27
 9652 00b9 19       		.uleb128 0x19
 9653 00ba 11       		.uleb128 0x11
 9654 00bb 01       		.uleb128 0x1
 9655 00bc 12       		.uleb128 0x12
 9656 00bd 06       		.uleb128 0x6
 9657 00be 40       		.uleb128 0x40
 9658 00bf 18       		.uleb128 0x18
 9659 00c0 9742     		.uleb128 0x2117
 9660 00c2 19       		.uleb128 0x19
 9661 00c3 01       		.uleb128 0x1
 9662 00c4 13       		.uleb128 0x13
 9663 00c5 00       		.byte	0
 9664 00c6 00       		.byte	0
 9665 00c7 0F       		.uleb128 0xf
 9666 00c8 2E       		.uleb128 0x2e
 9667 00c9 01       		.byte	0x1
 9668 00ca 3F       		.uleb128 0x3f
 9669 00cb 19       		.uleb128 0x19
 9670 00cc 03       		.uleb128 0x3
 9671 00cd 0E       		.uleb128 0xe
 9672 00ce 3A       		.uleb128 0x3a
 9673 00cf 0B       		.uleb128 0xb
 9674 00d0 3B       		.uleb128 0x3b
 9675 00d1 05       		.uleb128 0x5
ARM GAS  C:\Users\weiro\AppData\Local\Temp\ccglHz8v.s 			page 195


 9676 00d2 11       		.uleb128 0x11
 9677 00d3 01       		.uleb128 0x1
 9678 00d4 12       		.uleb128 0x12
 9679 00d5 06       		.uleb128 0x6
 9680 00d6 40       		.uleb128 0x40
 9681 00d7 18       		.uleb128 0x18
 9682 00d8 9742     		.uleb128 0x2117
 9683 00da 19       		.uleb128 0x19
 9684 00db 01       		.uleb128 0x1
 9685 00dc 13       		.uleb128 0x13
 9686 00dd 00       		.byte	0
 9687 00de 00       		.byte	0
 9688 00df 10       		.uleb128 0x10
 9689 00e0 2E       		.uleb128 0x2e
 9690 00e1 01       		.byte	0x1
 9691 00e2 3F       		.uleb128 0x3f
 9692 00e3 19       		.uleb128 0x19
 9693 00e4 03       		.uleb128 0x3
 9694 00e5 0E       		.uleb128 0xe
 9695 00e6 3A       		.uleb128 0x3a
 9696 00e7 0B       		.uleb128 0xb
 9697 00e8 3B       		.uleb128 0x3b
 9698 00e9 05       		.uleb128 0x5
 9699 00ea 11       		.uleb128 0x11
 9700 00eb 01       		.uleb128 0x1
 9701 00ec 12       		.uleb128 0x12
 9702 00ed 06       		.uleb128 0x6
 9703 00ee 40       		.uleb128 0x40
 9704 00ef 18       		.uleb128 0x18
 9705 00f0 9642     		.uleb128 0x2116
 9706 00f2 19       		.uleb128 0x19
 9707 00f3 01       		.uleb128 0x1
 9708 00f4 13       		.uleb128 0x13
 9709 00f5 00       		.byte	0
 9710 00f6 00       		.byte	0
 9711 00f7 11       		.uleb128 0x11
 9712 00f8 34       		.uleb128 0x34
 9713 00f9 00       		.byte	0
 9714 00fa 03       		.uleb128 0x3
 9715 00fb 0E       		.uleb128 0xe
 9716 00fc 3A       		.uleb128 0x3a
 9717 00fd 0B       		.uleb128 0xb
 9718 00fe 3B       		.uleb128 0x3b
 9719 00ff 05       		.uleb128 0x5
 9720 0100 49       		.uleb128 0x49
 9721 0101 13       		.uleb128 0x13
 9722 0102 1C       		.uleb128 0x1c
 9723 0103 0B       		.uleb128 0xb
 9724 0104 00       		.byte	0
 9725 0105 00       		.byte	0
 9726 0106 12       		.uleb128 0x12
 9727 0107 34       		.uleb128 0x34
 9728 0108 00       		.byte	0
 9729 0109 03       		.uleb128 0x3
 9730 010a 0E       		.uleb128 0xe
 9731 010b 3A       		.uleb128 0x3a
 9732 010c 0B       		.uleb128 0xb
ARM GAS  C:\Users\weiro\AppData\Local\Temp\ccglHz8v.s 			page 196


 9733 010d 3B       		.uleb128 0x3b
 9734 010e 05       		.uleb128 0x5
 9735 010f 49       		.uleb128 0x49
 9736 0110 13       		.uleb128 0x13
 9737 0111 02       		.uleb128 0x2
 9738 0112 17       		.uleb128 0x17
 9739 0113 00       		.byte	0
 9740 0114 00       		.byte	0
 9741 0115 13       		.uleb128 0x13
 9742 0116 0B       		.uleb128 0xb
 9743 0117 01       		.byte	0x1
 9744 0118 55       		.uleb128 0x55
 9745 0119 17       		.uleb128 0x17
 9746 011a 01       		.uleb128 0x1
 9747 011b 13       		.uleb128 0x13
 9748 011c 00       		.byte	0
 9749 011d 00       		.byte	0
 9750 011e 14       		.uleb128 0x14
 9751 011f 2E       		.uleb128 0x2e
 9752 0120 01       		.byte	0x1
 9753 0121 3F       		.uleb128 0x3f
 9754 0122 19       		.uleb128 0x19
 9755 0123 03       		.uleb128 0x3
 9756 0124 0E       		.uleb128 0xe
 9757 0125 3A       		.uleb128 0x3a
 9758 0126 0B       		.uleb128 0xb
 9759 0127 3B       		.uleb128 0x3b
 9760 0128 05       		.uleb128 0x5
 9761 0129 27       		.uleb128 0x27
 9762 012a 19       		.uleb128 0x19
 9763 012b 11       		.uleb128 0x11
 9764 012c 01       		.uleb128 0x1
 9765 012d 12       		.uleb128 0x12
 9766 012e 06       		.uleb128 0x6
 9767 012f 40       		.uleb128 0x40
 9768 0130 18       		.uleb128 0x18
 9769 0131 9642     		.uleb128 0x2116
 9770 0133 19       		.uleb128 0x19
 9771 0134 01       		.uleb128 0x1
 9772 0135 13       		.uleb128 0x13
 9773 0136 00       		.byte	0
 9774 0137 00       		.byte	0
 9775 0138 15       		.uleb128 0x15
 9776 0139 05       		.uleb128 0x5
 9777 013a 00       		.byte	0
 9778 013b 03       		.uleb128 0x3
 9779 013c 0E       		.uleb128 0xe
 9780 013d 3A       		.uleb128 0x3a
 9781 013e 0B       		.uleb128 0xb
 9782 013f 3B       		.uleb128 0x3b
 9783 0140 05       		.uleb128 0x5
 9784 0141 49       		.uleb128 0x49
 9785 0142 13       		.uleb128 0x13
 9786 0143 02       		.uleb128 0x2
 9787 0144 17       		.uleb128 0x17
 9788 0145 00       		.byte	0
 9789 0146 00       		.byte	0
ARM GAS  C:\Users\weiro\AppData\Local\Temp\ccglHz8v.s 			page 197


 9790 0147 16       		.uleb128 0x16
 9791 0148 2E       		.uleb128 0x2e
 9792 0149 01       		.byte	0x1
 9793 014a 3F       		.uleb128 0x3f
 9794 014b 19       		.uleb128 0x19
 9795 014c 03       		.uleb128 0x3
 9796 014d 08       		.uleb128 0x8
 9797 014e 3A       		.uleb128 0x3a
 9798 014f 0B       		.uleb128 0xb
 9799 0150 3B       		.uleb128 0x3b
 9800 0151 05       		.uleb128 0x5
 9801 0152 27       		.uleb128 0x27
 9802 0153 19       		.uleb128 0x19
 9803 0154 11       		.uleb128 0x11
 9804 0155 01       		.uleb128 0x1
 9805 0156 12       		.uleb128 0x12
 9806 0157 06       		.uleb128 0x6
 9807 0158 40       		.uleb128 0x40
 9808 0159 18       		.uleb128 0x18
 9809 015a 9742     		.uleb128 0x2117
 9810 015c 19       		.uleb128 0x19
 9811 015d 01       		.uleb128 0x1
 9812 015e 13       		.uleb128 0x13
 9813 015f 00       		.byte	0
 9814 0160 00       		.byte	0
 9815 0161 17       		.uleb128 0x17
 9816 0162 0B       		.uleb128 0xb
 9817 0163 01       		.byte	0x1
 9818 0164 11       		.uleb128 0x11
 9819 0165 01       		.uleb128 0x1
 9820 0166 12       		.uleb128 0x12
 9821 0167 06       		.uleb128 0x6
 9822 0168 01       		.uleb128 0x1
 9823 0169 13       		.uleb128 0x13
 9824 016a 00       		.byte	0
 9825 016b 00       		.byte	0
 9826 016c 18       		.uleb128 0x18
 9827 016d 34       		.uleb128 0x34
 9828 016e 00       		.byte	0
 9829 016f 03       		.uleb128 0x3
 9830 0170 08       		.uleb128 0x8
 9831 0171 3A       		.uleb128 0x3a
 9832 0172 0B       		.uleb128 0xb
 9833 0173 3B       		.uleb128 0x3b
 9834 0174 05       		.uleb128 0x5
 9835 0175 49       		.uleb128 0x49
 9836 0176 13       		.uleb128 0x13
 9837 0177 02       		.uleb128 0x2
 9838 0178 17       		.uleb128 0x17
 9839 0179 00       		.byte	0
 9840 017a 00       		.byte	0
 9841 017b 19       		.uleb128 0x19
 9842 017c 34       		.uleb128 0x34
 9843 017d 00       		.byte	0
 9844 017e 03       		.uleb128 0x3
 9845 017f 0E       		.uleb128 0xe
 9846 0180 3A       		.uleb128 0x3a
ARM GAS  C:\Users\weiro\AppData\Local\Temp\ccglHz8v.s 			page 198


 9847 0181 0B       		.uleb128 0xb
 9848 0182 3B       		.uleb128 0x3b
 9849 0183 05       		.uleb128 0x5
 9850 0184 49       		.uleb128 0x49
 9851 0185 13       		.uleb128 0x13
 9852 0186 1C       		.uleb128 0x1c
 9853 0187 0A       		.uleb128 0xa
 9854 0188 00       		.byte	0
 9855 0189 00       		.byte	0
 9856 018a 1A       		.uleb128 0x1a
 9857 018b 2E       		.uleb128 0x2e
 9858 018c 01       		.byte	0x1
 9859 018d 3F       		.uleb128 0x3f
 9860 018e 19       		.uleb128 0x19
 9861 018f 03       		.uleb128 0x3
 9862 0190 0E       		.uleb128 0xe
 9863 0191 3A       		.uleb128 0x3a
 9864 0192 0B       		.uleb128 0xb
 9865 0193 3B       		.uleb128 0x3b
 9866 0194 05       		.uleb128 0x5
 9867 0195 49       		.uleb128 0x49
 9868 0196 13       		.uleb128 0x13
 9869 0197 3C       		.uleb128 0x3c
 9870 0198 19       		.uleb128 0x19
 9871 0199 01       		.uleb128 0x1
 9872 019a 13       		.uleb128 0x13
 9873 019b 00       		.byte	0
 9874 019c 00       		.byte	0
 9875 019d 1B       		.uleb128 0x1b
 9876 019e 2E       		.uleb128 0x2e
 9877 019f 01       		.byte	0x1
 9878 01a0 3F       		.uleb128 0x3f
 9879 01a1 19       		.uleb128 0x19
 9880 01a2 03       		.uleb128 0x3
 9881 01a3 0E       		.uleb128 0xe
 9882 01a4 3A       		.uleb128 0x3a
 9883 01a5 0B       		.uleb128 0xb
 9884 01a6 3B       		.uleb128 0x3b
 9885 01a7 05       		.uleb128 0x5
 9886 01a8 49       		.uleb128 0x49
 9887 01a9 13       		.uleb128 0x13
 9888 01aa 11       		.uleb128 0x11
 9889 01ab 01       		.uleb128 0x1
 9890 01ac 12       		.uleb128 0x12
 9891 01ad 06       		.uleb128 0x6
 9892 01ae 40       		.uleb128 0x40
 9893 01af 18       		.uleb128 0x18
 9894 01b0 9642     		.uleb128 0x2116
 9895 01b2 19       		.uleb128 0x19
 9896 01b3 01       		.uleb128 0x1
 9897 01b4 13       		.uleb128 0x13
 9898 01b5 00       		.byte	0
 9899 01b6 00       		.byte	0
 9900 01b7 1C       		.uleb128 0x1c
 9901 01b8 2E       		.uleb128 0x2e
 9902 01b9 01       		.byte	0x1
 9903 01ba 3F       		.uleb128 0x3f
ARM GAS  C:\Users\weiro\AppData\Local\Temp\ccglHz8v.s 			page 199


 9904 01bb 19       		.uleb128 0x19
 9905 01bc 03       		.uleb128 0x3
 9906 01bd 0E       		.uleb128 0xe
 9907 01be 3A       		.uleb128 0x3a
 9908 01bf 0B       		.uleb128 0xb
 9909 01c0 3B       		.uleb128 0x3b
 9910 01c1 05       		.uleb128 0x5
 9911 01c2 27       		.uleb128 0x27
 9912 01c3 19       		.uleb128 0x19
 9913 01c4 11       		.uleb128 0x11
 9914 01c5 01       		.uleb128 0x1
 9915 01c6 12       		.uleb128 0x12
 9916 01c7 06       		.uleb128 0x6
 9917 01c8 40       		.uleb128 0x40
 9918 01c9 18       		.uleb128 0x18
 9919 01ca 9742     		.uleb128 0x2117
 9920 01cc 19       		.uleb128 0x19
 9921 01cd 01       		.uleb128 0x1
 9922 01ce 13       		.uleb128 0x13
 9923 01cf 00       		.byte	0
 9924 01d0 00       		.byte	0
 9925 01d1 1D       		.uleb128 0x1d
 9926 01d2 0B       		.uleb128 0xb
 9927 01d3 01       		.byte	0x1
 9928 01d4 11       		.uleb128 0x11
 9929 01d5 01       		.uleb128 0x1
 9930 01d6 12       		.uleb128 0x12
 9931 01d7 06       		.uleb128 0x6
 9932 01d8 00       		.byte	0
 9933 01d9 00       		.byte	0
 9934 01da 1E       		.uleb128 0x1e
 9935 01db 2E       		.uleb128 0x2e
 9936 01dc 01       		.byte	0x1
 9937 01dd 3F       		.uleb128 0x3f
 9938 01de 19       		.uleb128 0x19
 9939 01df 03       		.uleb128 0x3
 9940 01e0 0E       		.uleb128 0xe
 9941 01e1 3A       		.uleb128 0x3a
 9942 01e2 0B       		.uleb128 0xb
 9943 01e3 3B       		.uleb128 0x3b
 9944 01e4 05       		.uleb128 0x5
 9945 01e5 27       		.uleb128 0x27
 9946 01e6 19       		.uleb128 0x19
 9947 01e7 49       		.uleb128 0x49
 9948 01e8 13       		.uleb128 0x13
 9949 01e9 8701     		.uleb128 0x87
 9950 01eb 19       		.uleb128 0x19
 9951 01ec 11       		.uleb128 0x11
 9952 01ed 01       		.uleb128 0x1
 9953 01ee 12       		.uleb128 0x12
 9954 01ef 06       		.uleb128 0x6
 9955 01f0 40       		.uleb128 0x40
 9956 01f1 18       		.uleb128 0x18
 9957 01f2 9642     		.uleb128 0x2116
 9958 01f4 19       		.uleb128 0x19
 9959 01f5 01       		.uleb128 0x1
 9960 01f6 13       		.uleb128 0x13
ARM GAS  C:\Users\weiro\AppData\Local\Temp\ccglHz8v.s 			page 200


 9961 01f7 00       		.byte	0
 9962 01f8 00       		.byte	0
 9963 01f9 1F       		.uleb128 0x1f
 9964 01fa 34       		.uleb128 0x34
 9965 01fb 00       		.byte	0
 9966 01fc 03       		.uleb128 0x3
 9967 01fd 0E       		.uleb128 0xe
 9968 01fe 3A       		.uleb128 0x3a
 9969 01ff 0B       		.uleb128 0xb
 9970 0200 3B       		.uleb128 0x3b
 9971 0201 05       		.uleb128 0x5
 9972 0202 49       		.uleb128 0x49
 9973 0203 13       		.uleb128 0x13
 9974 0204 3F       		.uleb128 0x3f
 9975 0205 19       		.uleb128 0x19
 9976 0206 3C       		.uleb128 0x3c
 9977 0207 19       		.uleb128 0x19
 9978 0208 00       		.byte	0
 9979 0209 00       		.byte	0
 9980 020a 20       		.uleb128 0x20
 9981 020b 35       		.uleb128 0x35
 9982 020c 00       		.byte	0
 9983 020d 49       		.uleb128 0x49
 9984 020e 13       		.uleb128 0x13
 9985 020f 00       		.byte	0
 9986 0210 00       		.byte	0
 9987 0211 21       		.uleb128 0x21
 9988 0212 34       		.uleb128 0x34
 9989 0213 00       		.byte	0
 9990 0214 03       		.uleb128 0x3
 9991 0215 0E       		.uleb128 0xe
 9992 0216 3A       		.uleb128 0x3a
 9993 0217 0B       		.uleb128 0xb
 9994 0218 3B       		.uleb128 0x3b
 9995 0219 0B       		.uleb128 0xb
 9996 021a 49       		.uleb128 0x49
 9997 021b 13       		.uleb128 0x13
 9998 021c 3F       		.uleb128 0x3f
 9999 021d 19       		.uleb128 0x19
 10000 021e 02       		.uleb128 0x2
 10001 021f 18       		.uleb128 0x18
 10002 0220 00       		.byte	0
 10003 0221 00       		.byte	0
 10004 0222 22       		.uleb128 0x22
 10005 0223 01       		.uleb128 0x1
 10006 0224 01       		.byte	0x1
 10007 0225 49       		.uleb128 0x49
 10008 0226 13       		.uleb128 0x13
 10009 0227 01       		.uleb128 0x1
 10010 0228 13       		.uleb128 0x13
 10011 0229 00       		.byte	0
 10012 022a 00       		.byte	0
 10013 022b 23       		.uleb128 0x23
 10014 022c 21       		.uleb128 0x21
 10015 022d 00       		.byte	0
 10016 022e 49       		.uleb128 0x49
 10017 022f 13       		.uleb128 0x13
ARM GAS  C:\Users\weiro\AppData\Local\Temp\ccglHz8v.s 			page 201


 10018 0230 2F       		.uleb128 0x2f
 10019 0231 0B       		.uleb128 0xb
 10020 0232 00       		.byte	0
 10021 0233 00       		.byte	0
 10022 0234 24       		.uleb128 0x24
 10023 0235 34       		.uleb128 0x34
 10024 0236 00       		.byte	0
 10025 0237 03       		.uleb128 0x3
 10026 0238 08       		.uleb128 0x8
 10027 0239 3A       		.uleb128 0x3a
 10028 023a 0B       		.uleb128 0xb
 10029 023b 3B       		.uleb128 0x3b
 10030 023c 0B       		.uleb128 0xb
 10031 023d 49       		.uleb128 0x49
 10032 023e 13       		.uleb128 0x13
 10033 023f 3F       		.uleb128 0x3f
 10034 0240 19       		.uleb128 0x19
 10035 0241 02       		.uleb128 0x2
 10036 0242 18       		.uleb128 0x18
 10037 0243 00       		.byte	0
 10038 0244 00       		.byte	0
 10039 0245 25       		.uleb128 0x25
 10040 0246 2E       		.uleb128 0x2e
 10041 0247 00       		.byte	0
 10042 0248 3F       		.uleb128 0x3f
 10043 0249 19       		.uleb128 0x19
 10044 024a 3C       		.uleb128 0x3c
 10045 024b 19       		.uleb128 0x19
 10046 024c 6E       		.uleb128 0x6e
 10047 024d 0E       		.uleb128 0xe
 10048 024e 03       		.uleb128 0x3
 10049 024f 0E       		.uleb128 0xe
 10050 0250 3A       		.uleb128 0x3a
 10051 0251 0B       		.uleb128 0xb
 10052 0252 3B       		.uleb128 0x3b
 10053 0253 0B       		.uleb128 0xb
 10054 0254 00       		.byte	0
 10055 0255 00       		.byte	0
 10056 0256 26       		.uleb128 0x26
 10057 0257 2E       		.uleb128 0x2e
 10058 0258 00       		.byte	0
 10059 0259 3F       		.uleb128 0x3f
 10060 025a 19       		.uleb128 0x19
 10061 025b 3C       		.uleb128 0x3c
 10062 025c 19       		.uleb128 0x19
 10063 025d 6E       		.uleb128 0x6e
 10064 025e 0E       		.uleb128 0xe
 10065 025f 03       		.uleb128 0x3
 10066 0260 0E       		.uleb128 0xe
 10067 0261 3A       		.uleb128 0x3a
 10068 0262 0B       		.uleb128 0xb
 10069 0263 3B       		.uleb128 0x3b
 10070 0264 05       		.uleb128 0x5
 10071 0265 00       		.byte	0
 10072 0266 00       		.byte	0
 10073 0267 27       		.uleb128 0x27
 10074 0268 2E       		.uleb128 0x2e
ARM GAS  C:\Users\weiro\AppData\Local\Temp\ccglHz8v.s 			page 202


 10075 0269 00       		.byte	0
 10076 026a 3F       		.uleb128 0x3f
 10077 026b 19       		.uleb128 0x19
 10078 026c 3C       		.uleb128 0x3c
 10079 026d 19       		.uleb128 0x19
 10080 026e 6E       		.uleb128 0x6e
 10081 026f 08       		.uleb128 0x8
 10082 0270 03       		.uleb128 0x3
 10083 0271 08       		.uleb128 0x8
 10084 0272 3A       		.uleb128 0x3a
 10085 0273 0B       		.uleb128 0xb
 10086 0274 3B       		.uleb128 0x3b
 10087 0275 0B       		.uleb128 0xb
 10088 0276 00       		.byte	0
 10089 0277 00       		.byte	0
 10090 0278 00       		.byte	0
 10091              		.section	.debug_loc,"",%progbits
 10092              	.Ldebug_loc0:
 10093              	.LLST0:
 10094 0000 02000000 		.4byte	.LVL74
 10095 0004 32000000 		.4byte	.LVL79
 10096 0008 0200     		.2byte	0x2
 10097 000a 30       		.byte	0x30
 10098 000b 9F       		.byte	0x9f
 10099 000c 32000000 		.4byte	.LVL79
 10100 0010 36000000 		.4byte	.LVL80
 10101 0014 0300     		.2byte	0x3
 10102 0016 08       		.byte	0x8
 10103 0017 B4       		.byte	0xb4
 10104 0018 9F       		.byte	0x9f
 10105 0019 36000000 		.4byte	.LVL80
 10106 001d 3C000000 		.4byte	.LVL81
 10107 0021 0400     		.2byte	0x4
 10108 0023 0A       		.byte	0xa
 10109 0024 0E01     		.2byte	0x10e
 10110 0026 9F       		.byte	0x9f
 10111 0027 3C000000 		.4byte	.LVL81
 10112 002b 3E000000 		.4byte	.LVL82
 10113 002f 0200     		.2byte	0x2
 10114 0031 30       		.byte	0x30
 10115 0032 9F       		.byte	0x9f
 10116 0033 3E000000 		.4byte	.LVL82
 10117 0037 6C000000 		.4byte	.LVL88
 10118 003b 0100     		.2byte	0x1
 10119 003d 54       		.byte	0x54
 10120 003e 86000000 		.4byte	.LVL93
 10121 0042 9C000000 		.4byte	.LVL98
 10122 0046 0100     		.2byte	0x1
 10123 0048 54       		.byte	0x54
 10124 0049 9C000000 		.4byte	.LVL98
 10125 004d A8000000 		.4byte	.LFE75
 10126 0051 0200     		.2byte	0x2
 10127 0053 30       		.byte	0x30
 10128 0054 9F       		.byte	0x9f
 10129 0055 00000000 		.4byte	0
 10130 0059 00000000 		.4byte	0
 10131              	.LLST1:
ARM GAS  C:\Users\weiro\AppData\Local\Temp\ccglHz8v.s 			page 203


 10132 005d 56000000 		.4byte	.LVL85
 10133 0061 63000000 		.4byte	.LVL86-1
 10134 0065 0100     		.2byte	0x1
 10135 0067 50       		.byte	0x50
 10136 0068 86000000 		.4byte	.LVL93
 10137 006c 8D000000 		.4byte	.LVL94-1
 10138 0070 0100     		.2byte	0x1
 10139 0072 50       		.byte	0x50
 10140 0073 90000000 		.4byte	.LVL95
 10141 0077 93000000 		.4byte	.LVL96-1
 10142 007b 0100     		.2byte	0x1
 10143 007d 50       		.byte	0x50
 10144 007e 00000000 		.4byte	0
 10145 0082 00000000 		.4byte	0
 10146              	.LLST2:
 10147 0086 02000000 		.4byte	.LVL99
 10148 008a 32000000 		.4byte	.LVL104
 10149 008e 0200     		.2byte	0x2
 10150 0090 30       		.byte	0x30
 10151 0091 9F       		.byte	0x9f
 10152 0092 32000000 		.4byte	.LVL104
 10153 0096 36000000 		.4byte	.LVL105
 10154 009a 0300     		.2byte	0x3
 10155 009c 08       		.byte	0x8
 10156 009d B4       		.byte	0xb4
 10157 009e 9F       		.byte	0x9f
 10158 009f 36000000 		.4byte	.LVL105
 10159 00a3 3C000000 		.4byte	.LVL106
 10160 00a7 0400     		.2byte	0x4
 10161 00a9 0A       		.byte	0xa
 10162 00aa 0E01     		.2byte	0x10e
 10163 00ac 9F       		.byte	0x9f
 10164 00ad 3C000000 		.4byte	.LVL106
 10165 00b1 3E000000 		.4byte	.LVL107
 10166 00b5 0200     		.2byte	0x2
 10167 00b7 30       		.byte	0x30
 10168 00b8 9F       		.byte	0x9f
 10169 00b9 3E000000 		.4byte	.LVL107
 10170 00bd 6C000000 		.4byte	.LVL113
 10171 00c1 0100     		.2byte	0x1
 10172 00c3 54       		.byte	0x54
 10173 00c4 86000000 		.4byte	.LVL118
 10174 00c8 9C000000 		.4byte	.LVL123
 10175 00cc 0100     		.2byte	0x1
 10176 00ce 54       		.byte	0x54
 10177 00cf 9C000000 		.4byte	.LVL123
 10178 00d3 A8000000 		.4byte	.LFE76
 10179 00d7 0200     		.2byte	0x2
 10180 00d9 30       		.byte	0x30
 10181 00da 9F       		.byte	0x9f
 10182 00db 00000000 		.4byte	0
 10183 00df 00000000 		.4byte	0
 10184              	.LLST3:
 10185 00e3 56000000 		.4byte	.LVL110
 10186 00e7 63000000 		.4byte	.LVL111-1
 10187 00eb 0100     		.2byte	0x1
 10188 00ed 50       		.byte	0x50
ARM GAS  C:\Users\weiro\AppData\Local\Temp\ccglHz8v.s 			page 204


 10189 00ee 86000000 		.4byte	.LVL118
 10190 00f2 8D000000 		.4byte	.LVL119-1
 10191 00f6 0100     		.2byte	0x1
 10192 00f8 50       		.byte	0x50
 10193 00f9 90000000 		.4byte	.LVL120
 10194 00fd 93000000 		.4byte	.LVL121-1
 10195 0101 0100     		.2byte	0x1
 10196 0103 50       		.byte	0x50
 10197 0104 00000000 		.4byte	0
 10198 0108 00000000 		.4byte	0
 10199              	.LLST4:
 10200 010c 00000000 		.4byte	.LVL124
 10201 0110 07000000 		.4byte	.LVL125-1
 10202 0114 0100     		.2byte	0x1
 10203 0116 50       		.byte	0x50
 10204 0117 07000000 		.4byte	.LVL125-1
 10205 011b 1C010000 		.4byte	.LFE77
 10206 011f 0400     		.2byte	0x4
 10207 0121 F3       		.byte	0xf3
 10208 0122 01       		.uleb128 0x1
 10209 0123 50       		.byte	0x50
 10210 0124 9F       		.byte	0x9f
 10211 0125 00000000 		.4byte	0
 10212 0129 00000000 		.4byte	0
 10213              	.LLST5:
 10214 012d 00000000 		.4byte	.LVL124
 10215 0131 07000000 		.4byte	.LVL125-1
 10216 0135 0100     		.2byte	0x1
 10217 0137 51       		.byte	0x51
 10218 0138 07000000 		.4byte	.LVL125-1
 10219 013c FA000000 		.4byte	.LVL157
 10220 0140 0100     		.2byte	0x1
 10221 0142 56       		.byte	0x56
 10222 0143 FA000000 		.4byte	.LVL157
 10223 0147 1C010000 		.4byte	.LFE77
 10224 014b 0400     		.2byte	0x4
 10225 014d F3       		.byte	0xf3
 10226 014e 01       		.uleb128 0x1
 10227 014f 51       		.byte	0x51
 10228 0150 9F       		.byte	0x9f
 10229 0151 00000000 		.4byte	0
 10230 0155 00000000 		.4byte	0
 10231              	.LLST6:
 10232 0159 74000000 		.4byte	.LVL139
 10233 015d A4000000 		.4byte	.LVL143
 10234 0161 0600     		.2byte	0x6
 10235 0163 54       		.byte	0x54
 10236 0164 93       		.byte	0x93
 10237 0165 04       		.uleb128 0x4
 10238 0166 55       		.byte	0x55
 10239 0167 93       		.byte	0x93
 10240 0168 04       		.uleb128 0x4
 10241 0169 B2000000 		.4byte	.LVL145
 10242 016d B8000000 		.4byte	.LVL146
 10243 0171 0600     		.2byte	0x6
 10244 0173 54       		.byte	0x54
 10245 0174 93       		.byte	0x93
ARM GAS  C:\Users\weiro\AppData\Local\Temp\ccglHz8v.s 			page 205


 10246 0175 04       		.uleb128 0x4
 10247 0176 55       		.byte	0x55
 10248 0177 93       		.byte	0x93
 10249 0178 04       		.uleb128 0x4
 10250 0179 C6000000 		.4byte	.LVL148
 10251 017d CC000000 		.4byte	.LVL149
 10252 0181 0600     		.2byte	0x6
 10253 0183 54       		.byte	0x54
 10254 0184 93       		.byte	0x93
 10255 0185 04       		.uleb128 0x4
 10256 0186 55       		.byte	0x55
 10257 0187 93       		.byte	0x93
 10258 0188 04       		.uleb128 0x4
 10259 0189 DE000000 		.4byte	.LVL152
 10260 018d E4000000 		.4byte	.LVL153
 10261 0191 0600     		.2byte	0x6
 10262 0193 54       		.byte	0x54
 10263 0194 93       		.byte	0x93
 10264 0195 04       		.uleb128 0x4
 10265 0196 55       		.byte	0x55
 10266 0197 93       		.byte	0x93
 10267 0198 04       		.uleb128 0x4
 10268 0199 00000000 		.4byte	0
 10269 019d 00000000 		.4byte	0
 10270              	.LLST7:
 10271 01a1 9A000000 		.4byte	.LVL142
 10272 01a5 AB000000 		.4byte	.LVL144-1
 10273 01a9 0600     		.2byte	0x6
 10274 01ab 50       		.byte	0x50
 10275 01ac 93       		.byte	0x93
 10276 01ad 04       		.uleb128 0x4
 10277 01ae 51       		.byte	0x51
 10278 01af 93       		.byte	0x93
 10279 01b0 04       		.uleb128 0x4
 10280 01b1 B2000000 		.4byte	.LVL145
 10281 01b5 BF000000 		.4byte	.LVL147-1
 10282 01b9 0600     		.2byte	0x6
 10283 01bb 50       		.byte	0x50
 10284 01bc 93       		.byte	0x93
 10285 01bd 04       		.uleb128 0x4
 10286 01be 51       		.byte	0x51
 10287 01bf 93       		.byte	0x93
 10288 01c0 04       		.uleb128 0x4
 10289 01c1 C6000000 		.4byte	.LVL148
 10290 01c5 D4000000 		.4byte	.LVL150
 10291 01c9 0600     		.2byte	0x6
 10292 01cb 50       		.byte	0x50
 10293 01cc 93       		.byte	0x93
 10294 01cd 04       		.uleb128 0x4
 10295 01ce 51       		.byte	0x51
 10296 01cf 93       		.byte	0x93
 10297 01d0 04       		.uleb128 0x4
 10298 01d1 DE000000 		.4byte	.LVL152
 10299 01d5 EC000000 		.4byte	.LVL154
 10300 01d9 0600     		.2byte	0x6
 10301 01db 50       		.byte	0x50
 10302 01dc 93       		.byte	0x93
ARM GAS  C:\Users\weiro\AppData\Local\Temp\ccglHz8v.s 			page 206


 10303 01dd 04       		.uleb128 0x4
 10304 01de 51       		.byte	0x51
 10305 01df 93       		.byte	0x93
 10306 01e0 04       		.uleb128 0x4
 10307 01e1 00000000 		.4byte	0
 10308 01e5 00000000 		.4byte	0
 10309              	.LLST8:
 10310 01e9 18000000 		.4byte	.LVL128
 10311 01ed 1A000000 		.4byte	.LVL129
 10312 01f1 0100     		.2byte	0x1
 10313 01f3 50       		.byte	0x50
 10314 01f4 1A000000 		.4byte	.LVL129
 10315 01f8 74000000 		.4byte	.LVL139
 10316 01fc 0100     		.2byte	0x1
 10317 01fe 55       		.byte	0x55
 10318 01ff 00000000 		.4byte	0
 10319 0203 00000000 		.4byte	0
 10320              	.LLST9:
 10321 0207 5E000000 		.4byte	.LVL170
 10322 020b 8E000000 		.4byte	.LVL174
 10323 020f 0600     		.2byte	0x6
 10324 0211 54       		.byte	0x54
 10325 0212 93       		.byte	0x93
 10326 0213 04       		.uleb128 0x4
 10327 0214 55       		.byte	0x55
 10328 0215 93       		.byte	0x93
 10329 0216 04       		.uleb128 0x4
 10330 0217 9C000000 		.4byte	.LVL176
 10331 021b A2000000 		.4byte	.LVL177
 10332 021f 0600     		.2byte	0x6
 10333 0221 54       		.byte	0x54
 10334 0222 93       		.byte	0x93
 10335 0223 04       		.uleb128 0x4
 10336 0224 55       		.byte	0x55
 10337 0225 93       		.byte	0x93
 10338 0226 04       		.uleb128 0x4
 10339 0227 B0000000 		.4byte	.LVL179
 10340 022b B6000000 		.4byte	.LVL180
 10341 022f 0600     		.2byte	0x6
 10342 0231 54       		.byte	0x54
 10343 0232 93       		.byte	0x93
 10344 0233 04       		.uleb128 0x4
 10345 0234 55       		.byte	0x55
 10346 0235 93       		.byte	0x93
 10347 0236 04       		.uleb128 0x4
 10348 0237 C8000000 		.4byte	.LVL183
 10349 023b CE000000 		.4byte	.LVL184
 10350 023f 0600     		.2byte	0x6
 10351 0241 54       		.byte	0x54
 10352 0242 93       		.byte	0x93
 10353 0243 04       		.uleb128 0x4
 10354 0244 55       		.byte	0x55
 10355 0245 93       		.byte	0x93
 10356 0246 04       		.uleb128 0x4
 10357 0247 00000000 		.4byte	0
 10358 024b 00000000 		.4byte	0
 10359              	.LLST10:
ARM GAS  C:\Users\weiro\AppData\Local\Temp\ccglHz8v.s 			page 207


 10360 024f 84000000 		.4byte	.LVL173
 10361 0253 95000000 		.4byte	.LVL175-1
 10362 0257 0600     		.2byte	0x6
 10363 0259 50       		.byte	0x50
 10364 025a 93       		.byte	0x93
 10365 025b 04       		.uleb128 0x4
 10366 025c 51       		.byte	0x51
 10367 025d 93       		.byte	0x93
 10368 025e 04       		.uleb128 0x4
 10369 025f 9C000000 		.4byte	.LVL176
 10370 0263 A9000000 		.4byte	.LVL178-1
 10371 0267 0600     		.2byte	0x6
 10372 0269 50       		.byte	0x50
 10373 026a 93       		.byte	0x93
 10374 026b 04       		.uleb128 0x4
 10375 026c 51       		.byte	0x51
 10376 026d 93       		.byte	0x93
 10377 026e 04       		.uleb128 0x4
 10378 026f B0000000 		.4byte	.LVL179
 10379 0273 BE000000 		.4byte	.LVL181
 10380 0277 0600     		.2byte	0x6
 10381 0279 50       		.byte	0x50
 10382 027a 93       		.byte	0x93
 10383 027b 04       		.uleb128 0x4
 10384 027c 51       		.byte	0x51
 10385 027d 93       		.byte	0x93
 10386 027e 04       		.uleb128 0x4
 10387 027f C8000000 		.4byte	.LVL183
 10388 0283 D6000000 		.4byte	.LVL185
 10389 0287 0600     		.2byte	0x6
 10390 0289 50       		.byte	0x50
 10391 028a 93       		.byte	0x93
 10392 028b 04       		.uleb128 0x4
 10393 028c 51       		.byte	0x51
 10394 028d 93       		.byte	0x93
 10395 028e 04       		.uleb128 0x4
 10396 028f 00000000 		.4byte	0
 10397 0293 00000000 		.4byte	0
 10398              	.LLST11:
 10399 0297 7E000000 		.4byte	.LVL202
 10400 029b AE000000 		.4byte	.LVL206
 10401 029f 0600     		.2byte	0x6
 10402 02a1 54       		.byte	0x54
 10403 02a2 93       		.byte	0x93
 10404 02a3 04       		.uleb128 0x4
 10405 02a4 55       		.byte	0x55
 10406 02a5 93       		.byte	0x93
 10407 02a6 04       		.uleb128 0x4
 10408 02a7 BC000000 		.4byte	.LVL208
 10409 02ab C2000000 		.4byte	.LVL209
 10410 02af 0600     		.2byte	0x6
 10411 02b1 54       		.byte	0x54
 10412 02b2 93       		.byte	0x93
 10413 02b3 04       		.uleb128 0x4
 10414 02b4 55       		.byte	0x55
 10415 02b5 93       		.byte	0x93
 10416 02b6 04       		.uleb128 0x4
ARM GAS  C:\Users\weiro\AppData\Local\Temp\ccglHz8v.s 			page 208


 10417 02b7 D0000000 		.4byte	.LVL211
 10418 02bb D6000000 		.4byte	.LVL212
 10419 02bf 0600     		.2byte	0x6
 10420 02c1 54       		.byte	0x54
 10421 02c2 93       		.byte	0x93
 10422 02c3 04       		.uleb128 0x4
 10423 02c4 55       		.byte	0x55
 10424 02c5 93       		.byte	0x93
 10425 02c6 04       		.uleb128 0x4
 10426 02c7 E8000000 		.4byte	.LVL215
 10427 02cb EE000000 		.4byte	.LVL216
 10428 02cf 0600     		.2byte	0x6
 10429 02d1 54       		.byte	0x54
 10430 02d2 93       		.byte	0x93
 10431 02d3 04       		.uleb128 0x4
 10432 02d4 55       		.byte	0x55
 10433 02d5 93       		.byte	0x93
 10434 02d6 04       		.uleb128 0x4
 10435 02d7 00000000 		.4byte	0
 10436 02db 00000000 		.4byte	0
 10437              	.LLST12:
 10438 02df A4000000 		.4byte	.LVL205
 10439 02e3 B5000000 		.4byte	.LVL207-1
 10440 02e7 0600     		.2byte	0x6
 10441 02e9 50       		.byte	0x50
 10442 02ea 93       		.byte	0x93
 10443 02eb 04       		.uleb128 0x4
 10444 02ec 51       		.byte	0x51
 10445 02ed 93       		.byte	0x93
 10446 02ee 04       		.uleb128 0x4
 10447 02ef BC000000 		.4byte	.LVL208
 10448 02f3 C9000000 		.4byte	.LVL210-1
 10449 02f7 0600     		.2byte	0x6
 10450 02f9 50       		.byte	0x50
 10451 02fa 93       		.byte	0x93
 10452 02fb 04       		.uleb128 0x4
 10453 02fc 51       		.byte	0x51
 10454 02fd 93       		.byte	0x93
 10455 02fe 04       		.uleb128 0x4
 10456 02ff D0000000 		.4byte	.LVL211
 10457 0303 DE000000 		.4byte	.LVL213
 10458 0307 0600     		.2byte	0x6
 10459 0309 50       		.byte	0x50
 10460 030a 93       		.byte	0x93
 10461 030b 04       		.uleb128 0x4
 10462 030c 51       		.byte	0x51
 10463 030d 93       		.byte	0x93
 10464 030e 04       		.uleb128 0x4
 10465 030f E8000000 		.4byte	.LVL215
 10466 0313 F6000000 		.4byte	.LVL217
 10467 0317 0600     		.2byte	0x6
 10468 0319 50       		.byte	0x50
 10469 031a 93       		.byte	0x93
 10470 031b 04       		.uleb128 0x4
 10471 031c 51       		.byte	0x51
 10472 031d 93       		.byte	0x93
 10473 031e 04       		.uleb128 0x4
ARM GAS  C:\Users\weiro\AppData\Local\Temp\ccglHz8v.s 			page 209


 10474 031f 00000000 		.4byte	0
 10475 0323 00000000 		.4byte	0
 10476              	.LLST13:
 10477 0327 3A000000 		.4byte	.LVL228
 10478 032b 6A000000 		.4byte	.LVL232
 10479 032f 0600     		.2byte	0x6
 10480 0331 54       		.byte	0x54
 10481 0332 93       		.byte	0x93
 10482 0333 04       		.uleb128 0x4
 10483 0334 55       		.byte	0x55
 10484 0335 93       		.byte	0x93
 10485 0336 04       		.uleb128 0x4
 10486 0337 78000000 		.4byte	.LVL234
 10487 033b 7E000000 		.4byte	.LVL235
 10488 033f 0600     		.2byte	0x6
 10489 0341 54       		.byte	0x54
 10490 0342 93       		.byte	0x93
 10491 0343 04       		.uleb128 0x4
 10492 0344 55       		.byte	0x55
 10493 0345 93       		.byte	0x93
 10494 0346 04       		.uleb128 0x4
 10495 0347 8C000000 		.4byte	.LVL237
 10496 034b 92000000 		.4byte	.LVL238
 10497 034f 0600     		.2byte	0x6
 10498 0351 54       		.byte	0x54
 10499 0352 93       		.byte	0x93
 10500 0353 04       		.uleb128 0x4
 10501 0354 55       		.byte	0x55
 10502 0355 93       		.byte	0x93
 10503 0356 04       		.uleb128 0x4
 10504 0357 A4000000 		.4byte	.LVL241
 10505 035b AA000000 		.4byte	.LVL242
 10506 035f 0600     		.2byte	0x6
 10507 0361 54       		.byte	0x54
 10508 0362 93       		.byte	0x93
 10509 0363 04       		.uleb128 0x4
 10510 0364 55       		.byte	0x55
 10511 0365 93       		.byte	0x93
 10512 0366 04       		.uleb128 0x4
 10513 0367 00000000 		.4byte	0
 10514 036b 00000000 		.4byte	0
 10515              	.LLST14:
 10516 036f 60000000 		.4byte	.LVL231
 10517 0373 71000000 		.4byte	.LVL233-1
 10518 0377 0600     		.2byte	0x6
 10519 0379 50       		.byte	0x50
 10520 037a 93       		.byte	0x93
 10521 037b 04       		.uleb128 0x4
 10522 037c 51       		.byte	0x51
 10523 037d 93       		.byte	0x93
 10524 037e 04       		.uleb128 0x4
 10525 037f 78000000 		.4byte	.LVL234
 10526 0383 85000000 		.4byte	.LVL236-1
 10527 0387 0600     		.2byte	0x6
 10528 0389 50       		.byte	0x50
 10529 038a 93       		.byte	0x93
 10530 038b 04       		.uleb128 0x4
ARM GAS  C:\Users\weiro\AppData\Local\Temp\ccglHz8v.s 			page 210


 10531 038c 51       		.byte	0x51
 10532 038d 93       		.byte	0x93
 10533 038e 04       		.uleb128 0x4
 10534 038f 8C000000 		.4byte	.LVL237
 10535 0393 9A000000 		.4byte	.LVL239
 10536 0397 0600     		.2byte	0x6
 10537 0399 50       		.byte	0x50
 10538 039a 93       		.byte	0x93
 10539 039b 04       		.uleb128 0x4
 10540 039c 51       		.byte	0x51
 10541 039d 93       		.byte	0x93
 10542 039e 04       		.uleb128 0x4
 10543 039f A4000000 		.4byte	.LVL241
 10544 03a3 B2000000 		.4byte	.LVL243
 10545 03a7 0600     		.2byte	0x6
 10546 03a9 50       		.byte	0x50
 10547 03aa 93       		.byte	0x93
 10548 03ab 04       		.uleb128 0x4
 10549 03ac 51       		.byte	0x51
 10550 03ad 93       		.byte	0x93
 10551 03ae 04       		.uleb128 0x4
 10552 03af 00000000 		.4byte	0
 10553 03b3 00000000 		.4byte	0
 10554              	.LLST15:
 10555 03b7 00000000 		.4byte	.LVL246
 10556 03bb 08000000 		.4byte	.LVL247
 10557 03bf 0100     		.2byte	0x1
 10558 03c1 50       		.byte	0x50
 10559 03c2 08000000 		.4byte	.LVL247
 10560 03c6 90000000 		.4byte	.LVL256
 10561 03ca 0100     		.2byte	0x1
 10562 03cc 55       		.byte	0x55
 10563 03cd 90000000 		.4byte	.LVL256
 10564 03d1 94000000 		.4byte	.LFE81
 10565 03d5 0400     		.2byte	0x4
 10566 03d7 F3       		.byte	0xf3
 10567 03d8 01       		.uleb128 0x1
 10568 03d9 50       		.byte	0x50
 10569 03da 9F       		.byte	0x9f
 10570 03db 00000000 		.4byte	0
 10571 03df 00000000 		.4byte	0
 10572              	.LLST16:
 10573 03e3 00000000 		.4byte	.LVL246
 10574 03e7 08000000 		.4byte	.LVL247
 10575 03eb 0100     		.2byte	0x1
 10576 03ed 51       		.byte	0x51
 10577 03ee 08000000 		.4byte	.LVL247
 10578 03f2 90000000 		.4byte	.LVL256
 10579 03f6 0100     		.2byte	0x1
 10580 03f8 56       		.byte	0x56
 10581 03f9 90000000 		.4byte	.LVL256
 10582 03fd 94000000 		.4byte	.LFE81
 10583 0401 0400     		.2byte	0x4
 10584 0403 F3       		.byte	0xf3
 10585 0404 01       		.uleb128 0x1
 10586 0405 51       		.byte	0x51
 10587 0406 9F       		.byte	0x9f
ARM GAS  C:\Users\weiro\AppData\Local\Temp\ccglHz8v.s 			page 211


 10588 0407 00000000 		.4byte	0
 10589 040b 00000000 		.4byte	0
 10590              	.LLST17:
 10591 040f 04000000 		.4byte	.LVL257
 10592 0413 6E000000 		.4byte	.LVL271
 10593 0417 0200     		.2byte	0x2
 10594 0419 31       		.byte	0x31
 10595 041a 9F       		.byte	0x9f
 10596 041b 6E000000 		.4byte	.LVL271
 10597 041f C8000000 		.4byte	.LVL283
 10598 0423 0200     		.2byte	0x2
 10599 0425 32       		.byte	0x32
 10600 0426 9F       		.byte	0x9f
 10601 0427 C8000000 		.4byte	.LVL283
 10602 042b 22010000 		.4byte	.LVL295
 10603 042f 0200     		.2byte	0x2
 10604 0431 33       		.byte	0x33
 10605 0432 9F       		.byte	0x9f
 10606 0433 22010000 		.4byte	.LVL295
 10607 0437 50030000 		.4byte	.LFE82
 10608 043b 0200     		.2byte	0x2
 10609 043d 30       		.byte	0x30
 10610 043e 9F       		.byte	0x9f
 10611 043f 00000000 		.4byte	0
 10612 0443 00000000 		.4byte	0
 10613              	.LLST18:
 10614 0447 F2020000 		.4byte	.LVL340
 10615 044b FC020000 		.4byte	.LVL341
 10616 044f 0100     		.2byte	0x1
 10617 0451 50       		.byte	0x50
 10618 0452 FC020000 		.4byte	.LVL341
 10619 0456 22030000 		.4byte	.LVL346
 10620 045a 0100     		.2byte	0x1
 10621 045c 58       		.byte	0x58
 10622 045d 00000000 		.4byte	0
 10623 0461 00000000 		.4byte	0
 10624              	.LLST19:
 10625 0465 02000000 		.4byte	.LVL368
 10626 0469 08000000 		.4byte	.LVL369
 10627 046d 0200     		.2byte	0x2
 10628 046f 30       		.byte	0x30
 10629 0470 9F       		.byte	0x9f
 10630 0471 12000000 		.4byte	.LVL371
 10631 0475 19000000 		.4byte	.LVL372-1
 10632 0479 0600     		.2byte	0x6
 10633 047b 70       		.byte	0x70
 10634 047c 00       		.sleb128 0
 10635 047d 08       		.byte	0x8
 10636 047e FF       		.byte	0xff
 10637 047f 1A       		.byte	0x1a
 10638 0480 9F       		.byte	0x9f
 10639 0481 1A000000 		.4byte	.LVL372
 10640 0485 21000000 		.4byte	.LVL373-1
 10641 0489 0100     		.2byte	0x1
 10642 048b 50       		.byte	0x50
 10643 048c 00000000 		.4byte	0
 10644 0490 00000000 		.4byte	0
ARM GAS  C:\Users\weiro\AppData\Local\Temp\ccglHz8v.s 			page 212


 10645              	.LLST20:
 10646 0494 02000000 		.4byte	.LVL368
 10647 0498 40000000 		.4byte	.LVL378
 10648 049c 0600     		.2byte	0x6
 10649 049e 9E       		.byte	0x9e
 10650 049f 04       		.uleb128 0x4
 10651 04a0 00000000 		.4byte	0
 10652 04a4 40000000 		.4byte	.LVL378
 10653 04a8 45000000 		.4byte	.LVL379-1
 10654 04ac 0100     		.2byte	0x1
 10655 04ae 50       		.byte	0x50
 10656 04af 00000000 		.4byte	0
 10657 04b3 00000000 		.4byte	0
 10658              	.LLST21:
 10659 04b7 02000000 		.4byte	.LVL368
 10660 04bb 08000000 		.4byte	.LVL369
 10661 04bf 0600     		.2byte	0x6
 10662 04c1 9E       		.byte	0x9e
 10663 04c2 04       		.uleb128 0x4
 10664 04c3 00000000 		.4byte	0
 10665 04c7 08000000 		.4byte	.LVL369
 10666 04cb 2C000000 		.4byte	.LVL375
 10667 04cf 0100     		.2byte	0x1
 10668 04d1 55       		.byte	0x55
 10669 04d2 2C000000 		.4byte	.LVL375
 10670 04d6 2E000000 		.4byte	.LVL376
 10671 04da 0100     		.2byte	0x1
 10672 04dc 50       		.byte	0x50
 10673 04dd 2E000000 		.4byte	.LVL376
 10674 04e1 72000000 		.4byte	.LVL385
 10675 04e5 0100     		.2byte	0x1
 10676 04e7 55       		.byte	0x55
 10677 04e8 00000000 		.4byte	0
 10678 04ec 00000000 		.4byte	0
 10679              	.LLST22:
 10680 04f0 02000000 		.4byte	.LVL368
 10681 04f4 08000000 		.4byte	.LVL369
 10682 04f8 0200     		.2byte	0x2
 10683 04fa 30       		.byte	0x30
 10684 04fb 9F       		.byte	0x9f
 10685 04fc 08000000 		.4byte	.LVL369
 10686 0500 7A000000 		.4byte	.LVL388
 10687 0504 0100     		.2byte	0x1
 10688 0506 54       		.byte	0x54
 10689 0507 00000000 		.4byte	0
 10690 050b 00000000 		.4byte	0
 10691              	.LLST23:
 10692 050f 02000000 		.4byte	.LVL368
 10693 0513 46000000 		.4byte	.LVL379
 10694 0517 0600     		.2byte	0x6
 10695 0519 9E       		.byte	0x9e
 10696 051a 04       		.uleb128 0x4
 10697 051b 00000000 		.4byte	0
 10698 051f 46000000 		.4byte	.LVL379
 10699 0523 49000000 		.4byte	.LVL380-1
 10700 0527 0100     		.2byte	0x1
 10701 0529 50       		.byte	0x50
ARM GAS  C:\Users\weiro\AppData\Local\Temp\ccglHz8v.s 			page 213


 10702 052a 00000000 		.4byte	0
 10703 052e 00000000 		.4byte	0
 10704              	.LLST24:
 10705 0532 02000000 		.4byte	.LVL368
 10706 0536 72000000 		.4byte	.LVL385
 10707 053a 0600     		.2byte	0x6
 10708 053c 9E       		.byte	0x9e
 10709 053d 04       		.uleb128 0x4
 10710 053e 00000000 		.4byte	0
 10711 0542 72000000 		.4byte	.LVL385
 10712 0546 74000000 		.4byte	.LVL386
 10713 054a 0100     		.2byte	0x1
 10714 054c 50       		.byte	0x50
 10715 054d 74000000 		.4byte	.LVL386
 10716 0551 A8000000 		.4byte	.LVL394
 10717 0555 0100     		.2byte	0x1
 10718 0557 55       		.byte	0x55
 10719 0558 A8000000 		.4byte	.LVL394
 10720 055c D4000000 		.4byte	.LFE85
 10721 0560 0100     		.2byte	0x1
 10722 0562 50       		.byte	0x50
 10723 0563 00000000 		.4byte	0
 10724 0567 00000000 		.4byte	0
 10725              	.LLST25:
 10726 056b 00000000 		.4byte	.LVL395
 10727 056f 08000000 		.4byte	.LVL397
 10728 0573 0100     		.2byte	0x1
 10729 0575 50       		.byte	0x50
 10730 0576 08000000 		.4byte	.LVL397
 10731 057a 96000000 		.4byte	.LVL415
 10732 057e 0100     		.2byte	0x1
 10733 0580 55       		.byte	0x55
 10734 0581 96000000 		.4byte	.LVL415
 10735 0585 A8000000 		.4byte	.LFE86
 10736 0589 0400     		.2byte	0x4
 10737 058b F3       		.byte	0xf3
 10738 058c 01       		.uleb128 0x1
 10739 058d 50       		.byte	0x50
 10740 058e 9F       		.byte	0x9f
 10741 058f 00000000 		.4byte	0
 10742 0593 00000000 		.4byte	0
 10743              	.LLST26:
 10744 0597 04000000 		.4byte	.LVL396
 10745 059b 08000000 		.4byte	.LVL397
 10746 059f 0200     		.2byte	0x2
 10747 05a1 30       		.byte	0x30
 10748 05a2 9F       		.byte	0x9f
 10749 05a3 08000000 		.4byte	.LVL397
 10750 05a7 96000000 		.4byte	.LVL415
 10751 05ab 0100     		.2byte	0x1
 10752 05ad 54       		.byte	0x54
 10753 05ae 00000000 		.4byte	0
 10754 05b2 00000000 		.4byte	0
 10755              	.LLST27:
 10756 05b6 0C000000 		.4byte	.LVL398
 10757 05ba 90000000 		.4byte	.LVL414
 10758 05be 0200     		.2byte	0x2
ARM GAS  C:\Users\weiro\AppData\Local\Temp\ccglHz8v.s 			page 214


 10759 05c0 31       		.byte	0x31
 10760 05c1 9F       		.byte	0x9f
 10761 05c2 00000000 		.4byte	0
 10762 05c6 00000000 		.4byte	0
 10763              	.LLST28:
 10764 05ca 0C000000 		.4byte	.LVL398
 10765 05ce 90000000 		.4byte	.LVL414
 10766 05d2 0200     		.2byte	0x2
 10767 05d4 34       		.byte	0x34
 10768 05d5 9F       		.byte	0x9f
 10769 05d6 00000000 		.4byte	0
 10770 05da 00000000 		.4byte	0
 10771              	.LLST29:
 10772 05de F8000000 		.4byte	.LVL459
 10773 05e2 14010000 		.4byte	.LVL463
 10774 05e6 0200     		.2byte	0x2
 10775 05e8 31       		.byte	0x31
 10776 05e9 9F       		.byte	0x9f
 10777 05ea 78010000 		.4byte	.LVL476
 10778 05ee AA010000 		.4byte	.LVL483
 10779 05f2 0200     		.2byte	0x2
 10780 05f4 31       		.byte	0x31
 10781 05f5 9F       		.byte	0x9f
 10782 05f6 34020000 		.4byte	.LVL495
 10783 05fa 54020000 		.4byte	.LVL499
 10784 05fe 0200     		.2byte	0x2
 10785 0600 31       		.byte	0x31
 10786 0601 9F       		.byte	0x9f
 10787 0602 24030000 		.4byte	.LVL512
 10788 0606 56030000 		.4byte	.LVL519
 10789 060a 0200     		.2byte	0x2
 10790 060c 31       		.byte	0x31
 10791 060d 9F       		.byte	0x9f
 10792 060e 68030000 		.4byte	.LVL521
 10793 0612 9E030000 		.4byte	.LVL527
 10794 0616 0200     		.2byte	0x2
 10795 0618 30       		.byte	0x30
 10796 0619 9F       		.byte	0x9f
 10797 061a EA030000 		.4byte	.LVL534
 10798 061e 02040000 		.4byte	.LVL537
 10799 0622 0200     		.2byte	0x2
 10800 0624 30       		.byte	0x30
 10801 0625 9F       		.byte	0x9f
 10802 0626 0C040000 		.4byte	.LVL538
 10803 062a 4A040000 		.4byte	.LVL545
 10804 062e 0200     		.2byte	0x2
 10805 0630 30       		.byte	0x30
 10806 0631 9F       		.byte	0x9f
 10807 0632 5C040000 		.4byte	.LVL547
 10808 0636 92040000 		.4byte	.LVL553
 10809 063a 0200     		.2byte	0x2
 10810 063c 30       		.byte	0x30
 10811 063d 9F       		.byte	0x9f
 10812 063e EE040000 		.4byte	.LVL563
 10813 0642 14050000 		.4byte	.LVL568
 10814 0646 0200     		.2byte	0x2
 10815 0648 31       		.byte	0x31
ARM GAS  C:\Users\weiro\AppData\Local\Temp\ccglHz8v.s 			page 215


 10816 0649 9F       		.byte	0x9f
 10817 064a 26050000 		.4byte	.LVL570
 10818 064e 4C050000 		.4byte	.LVL575
 10819 0652 0200     		.2byte	0x2
 10820 0654 30       		.byte	0x30
 10821 0655 9F       		.byte	0x9f
 10822 0656 84050000 		.4byte	.LVL580
 10823 065a 9C050000 		.4byte	.LVL583
 10824 065e 0200     		.2byte	0x2
 10825 0660 31       		.byte	0x31
 10826 0661 9F       		.byte	0x9f
 10827 0662 D4050000 		.4byte	.LVL588
 10828 0666 EC050000 		.4byte	.LVL591
 10829 066a 0200     		.2byte	0x2
 10830 066c 31       		.byte	0x31
 10831 066d 9F       		.byte	0x9f
 10832 066e 00000000 		.4byte	0
 10833 0672 00000000 		.4byte	0
 10834              	.LLST30:
 10835 0676 F8000000 		.4byte	.LVL459
 10836 067a 14010000 		.4byte	.LVL463
 10837 067e 0200     		.2byte	0x2
 10838 0680 31       		.byte	0x31
 10839 0681 9F       		.byte	0x9f
 10840 0682 80010000 		.4byte	.LVL477
 10841 0686 94010000 		.4byte	.LVL480
 10842 068a 0200     		.2byte	0x2
 10843 068c 30       		.byte	0x30
 10844 068d 9F       		.byte	0x9f
 10845 068e 94010000 		.4byte	.LVL480
 10846 0692 AA010000 		.4byte	.LVL483
 10847 0696 0200     		.2byte	0x2
 10848 0698 31       		.byte	0x31
 10849 0699 9F       		.byte	0x9f
 10850 069a CE010000 		.4byte	.LVL486
 10851 069e E6010000 		.4byte	.LVL489
 10852 06a2 0200     		.2byte	0x2
 10853 06a4 31       		.byte	0x31
 10854 06a5 9F       		.byte	0x9f
 10855 06a6 3C020000 		.4byte	.LVL496
 10856 06aa 54020000 		.4byte	.LVL499
 10857 06ae 0200     		.2byte	0x2
 10858 06b0 30       		.byte	0x30
 10859 06b1 9F       		.byte	0x9f
 10860 06b2 86030000 		.4byte	.LVL524
 10861 06b6 9E030000 		.4byte	.LVL527
 10862 06ba 0100     		.2byte	0x1
 10863 06bc 54       		.byte	0x54
 10864 06bd BA030000 		.4byte	.LVL529
 10865 06c1 D2030000 		.4byte	.LVL532
 10866 06c5 0200     		.2byte	0x2
 10867 06c7 31       		.byte	0x31
 10868 06c8 9F       		.byte	0x9f
 10869 06c9 2A040000 		.4byte	.LVL541
 10870 06cd 4A040000 		.4byte	.LVL545
 10871 06d1 0100     		.2byte	0x1
 10872 06d3 54       		.byte	0x54
ARM GAS  C:\Users\weiro\AppData\Local\Temp\ccglHz8v.s 			page 216


 10873 06d4 7A040000 		.4byte	.LVL550
 10874 06d8 92040000 		.4byte	.LVL553
 10875 06dc 0100     		.2byte	0x1
 10876 06de 54       		.byte	0x54
 10877 06df 6C050000 		.4byte	.LVL577
 10878 06e3 9C050000 		.4byte	.LVL583
 10879 06e7 0100     		.2byte	0x1
 10880 06e9 54       		.byte	0x54
 10881 06ea BC050000 		.4byte	.LVL585
 10882 06ee EC050000 		.4byte	.LVL591
 10883 06f2 0100     		.2byte	0x1
 10884 06f4 54       		.byte	0x54
 10885 06f5 00000000 		.4byte	0
 10886 06f9 00000000 		.4byte	0
 10887              	.LLST31:
 10888 06fd 78010000 		.4byte	.LVL476
 10889 0701 AA010000 		.4byte	.LVL483
 10890 0705 0A00     		.2byte	0xa
 10891 0707 9E       		.byte	0x9e
 10892 0708 08       		.uleb128 0x8
 10893 0709 00000000 		.4byte	0
 10894 070d 00004940 		.4byte	0x40490000
 10895 0711 34020000 		.4byte	.LVL495
 10896 0715 54020000 		.4byte	.LVL499
 10897 0719 0A00     		.2byte	0xa
 10898 071b 9E       		.byte	0x9e
 10899 071c 08       		.uleb128 0x8
 10900 071d 00000000 		.4byte	0
 10901 0721 00002140 		.4byte	0x40210000
 10902 0725 24030000 		.4byte	.LVL512
 10903 0729 56030000 		.4byte	.LVL519
 10904 072d 0A00     		.2byte	0xa
 10905 072f 9E       		.byte	0x9e
 10906 0730 08       		.uleb128 0x8
 10907 0731 00000000 		.4byte	0
 10908 0735 00003240 		.4byte	0x40320000
 10909 0739 68030000 		.4byte	.LVL521
 10910 073d 9E030000 		.4byte	.LVL527
 10911 0741 0A00     		.2byte	0xa
 10912 0743 9E       		.byte	0x9e
 10913 0744 08       		.uleb128 0x8
 10914 0745 00000000 		.4byte	0
 10915 0749 00004940 		.4byte	0x40490000
 10916 074d EA030000 		.4byte	.LVL534
 10917 0751 02040000 		.4byte	.LVL537
 10918 0755 0A00     		.2byte	0xa
 10919 0757 9E       		.byte	0x9e
 10920 0758 08       		.uleb128 0x8
 10921 0759 00000000 		.4byte	0
 10922 075d 00805140 		.4byte	0x40518000
 10923 0761 0C040000 		.4byte	.LVL538
 10924 0765 4A040000 		.4byte	.LVL545
 10925 0769 0A00     		.2byte	0xa
 10926 076b 9E       		.byte	0x9e
 10927 076c 08       		.uleb128 0x8
 10928 076d 00000000 		.4byte	0
 10929 0771 00004940 		.4byte	0x40490000
ARM GAS  C:\Users\weiro\AppData\Local\Temp\ccglHz8v.s 			page 217


 10930 0775 5C040000 		.4byte	.LVL547
 10931 0779 92040000 		.4byte	.LVL553
 10932 077d 0A00     		.2byte	0xa
 10933 077f 9E       		.byte	0x9e
 10934 0780 08       		.uleb128 0x8
 10935 0781 00000000 		.4byte	0
 10936 0785 00003440 		.4byte	0x40340000
 10937 0789 EE040000 		.4byte	.LVL563
 10938 078d 14050000 		.4byte	.LVL568
 10939 0791 0A00     		.2byte	0xa
 10940 0793 9E       		.byte	0x9e
 10941 0794 08       		.uleb128 0x8
 10942 0795 00000000 		.4byte	0
 10943 0799 00003440 		.4byte	0x40340000
 10944 079d 26050000 		.4byte	.LVL570
 10945 07a1 4C050000 		.4byte	.LVL575
 10946 07a5 0A00     		.2byte	0xa
 10947 07a7 9E       		.byte	0x9e
 10948 07a8 08       		.uleb128 0x8
 10949 07a9 00000000 		.4byte	0
 10950 07ad 00003440 		.4byte	0x40340000
 10951 07b1 84050000 		.4byte	.LVL580
 10952 07b5 9C050000 		.4byte	.LVL583
 10953 07b9 0A00     		.2byte	0xa
 10954 07bb 9E       		.byte	0x9e
 10955 07bc 08       		.uleb128 0x8
 10956 07bd 00000000 		.4byte	0
 10957 07c1 00004940 		.4byte	0x40490000
 10958 07c5 D4050000 		.4byte	.LVL588
 10959 07c9 EC050000 		.4byte	.LVL591
 10960 07cd 0A00     		.2byte	0xa
 10961 07cf 9E       		.byte	0x9e
 10962 07d0 08       		.uleb128 0x8
 10963 07d1 00000000 		.4byte	0
 10964 07d5 00004940 		.4byte	0x40490000
 10965 07d9 00000000 		.4byte	0
 10966 07dd 00000000 		.4byte	0
 10967              	.LLST32:
 10968 07e1 84020000 		.4byte	.LVL503
 10969 07e5 C8020000 		.4byte	.LVL510
 10970 07e9 0200     		.2byte	0x2
 10971 07eb 30       		.byte	0x30
 10972 07ec 9F       		.byte	0x9f
 10973 07ed 00000000 		.4byte	0
 10974 07f1 00000000 		.4byte	0
 10975              	.LLST33:
 10976 07f5 84020000 		.4byte	.LVL503
 10977 07f9 C8020000 		.4byte	.LVL510
 10978 07fd 0200     		.2byte	0x2
 10979 07ff 32       		.byte	0x32
 10980 0800 9F       		.byte	0x9f
 10981 0801 00000000 		.4byte	0
 10982 0805 00000000 		.4byte	0
 10983              		.section	.debug_aranges,"",%progbits
 10984 0000 E4000000 		.4byte	0xe4
 10985 0004 0200     		.2byte	0x2
 10986 0006 00000000 		.4byte	.Ldebug_info0
ARM GAS  C:\Users\weiro\AppData\Local\Temp\ccglHz8v.s 			page 218


 10987 000a 04       		.byte	0x4
 10988 000b 00       		.byte	0
 10989 000c 0000     		.2byte	0
 10990 000e 0000     		.2byte	0
 10991 0010 00000000 		.4byte	.LFB64
 10992 0014 78000000 		.4byte	.LFE64-.LFB64
 10993 0018 00000000 		.4byte	.LFB65
 10994 001c E4000000 		.4byte	.LFE65-.LFB65
 10995 0020 00000000 		.4byte	.LFB66
 10996 0024 14000000 		.4byte	.LFE66-.LFB66
 10997 0028 00000000 		.4byte	.LFB67
 10998 002c 38000000 		.4byte	.LFE67-.LFB67
 10999 0030 00000000 		.4byte	.LFB68
 11000 0034 58020000 		.4byte	.LFE68-.LFB68
 11001 0038 00000000 		.4byte	.LFB69
 11002 003c 28000000 		.4byte	.LFE69-.LFB69
 11003 0040 00000000 		.4byte	.LFB70
 11004 0044 28000000 		.4byte	.LFE70-.LFB70
 11005 0048 00000000 		.4byte	.LFB71
 11006 004c 28000000 		.4byte	.LFE71-.LFB71
 11007 0050 00000000 		.4byte	.LFB72
 11008 0054 28000000 		.4byte	.LFE72-.LFB72
 11009 0058 00000000 		.4byte	.LFB73
 11010 005c 28000000 		.4byte	.LFE73-.LFB73
 11011 0060 00000000 		.4byte	.LFB74
 11012 0064 1C000000 		.4byte	.LFE74-.LFB74
 11013 0068 00000000 		.4byte	.LFB75
 11014 006c A8000000 		.4byte	.LFE75-.LFB75
 11015 0070 00000000 		.4byte	.LFB76
 11016 0074 A8000000 		.4byte	.LFE76-.LFB76
 11017 0078 00000000 		.4byte	.LFB77
 11018 007c 1C010000 		.4byte	.LFE77-.LFB77
 11019 0080 00000000 		.4byte	.LFB78
 11020 0084 00010000 		.4byte	.LFE78-.LFB78
 11021 0088 00000000 		.4byte	.LFB79
 11022 008c 30010000 		.4byte	.LFE79-.LFB79
 11023 0090 00000000 		.4byte	.LFB80
 11024 0094 D8000000 		.4byte	.LFE80-.LFB80
 11025 0098 00000000 		.4byte	.LFB81
 11026 009c 94000000 		.4byte	.LFE81-.LFB81
 11027 00a0 00000000 		.4byte	.LFB82
 11028 00a4 50030000 		.4byte	.LFE82-.LFB82
 11029 00a8 00000000 		.4byte	.LFB83
 11030 00ac 5E000000 		.4byte	.LFE83-.LFB83
 11031 00b0 00000000 		.4byte	.LFB84
 11032 00b4 28000000 		.4byte	.LFE84-.LFB84
 11033 00b8 00000000 		.4byte	.LFB85
 11034 00bc D4000000 		.4byte	.LFE85-.LFB85
 11035 00c0 00000000 		.4byte	.LFB86
 11036 00c4 A8000000 		.4byte	.LFE86-.LFB86
 11037 00c8 00000000 		.4byte	.LFB87
 11038 00cc 3C000000 		.4byte	.LFE87-.LFB87
 11039 00d0 00000000 		.4byte	.LFB88
 11040 00d4 3C000000 		.4byte	.LFE88-.LFB88
 11041 00d8 00000000 		.4byte	.LFB89
 11042 00dc 8C060000 		.4byte	.LFE89-.LFB89
 11043 00e0 00000000 		.4byte	0
ARM GAS  C:\Users\weiro\AppData\Local\Temp\ccglHz8v.s 			page 219


 11044 00e4 00000000 		.4byte	0
 11045              		.section	.debug_ranges,"",%progbits
 11046              	.Ldebug_ranges0:
 11047 0000 3E000000 		.4byte	.LBB2
 11048 0004 64000000 		.4byte	.LBE2
 11049 0008 86000000 		.4byte	.LBB3
 11050 000c 9A000000 		.4byte	.LBE3
 11051 0010 00000000 		.4byte	0
 11052 0014 00000000 		.4byte	0
 11053 0018 3E000000 		.4byte	.LBB4
 11054 001c 64000000 		.4byte	.LBE4
 11055 0020 86000000 		.4byte	.LBB5
 11056 0024 9A000000 		.4byte	.LBE5
 11057 0028 00000000 		.4byte	0
 11058 002c 00000000 		.4byte	0
 11059 0030 00000000 		.4byte	.LFB64
 11060 0034 78000000 		.4byte	.LFE64
 11061 0038 00000000 		.4byte	.LFB65
 11062 003c E4000000 		.4byte	.LFE65
 11063 0040 00000000 		.4byte	.LFB66
 11064 0044 14000000 		.4byte	.LFE66
 11065 0048 00000000 		.4byte	.LFB67
 11066 004c 38000000 		.4byte	.LFE67
 11067 0050 00000000 		.4byte	.LFB68
 11068 0054 58020000 		.4byte	.LFE68
 11069 0058 00000000 		.4byte	.LFB69
 11070 005c 28000000 		.4byte	.LFE69
 11071 0060 00000000 		.4byte	.LFB70
 11072 0064 28000000 		.4byte	.LFE70
 11073 0068 00000000 		.4byte	.LFB71
 11074 006c 28000000 		.4byte	.LFE71
 11075 0070 00000000 		.4byte	.LFB72
 11076 0074 28000000 		.4byte	.LFE72
 11077 0078 00000000 		.4byte	.LFB73
 11078 007c 28000000 		.4byte	.LFE73
 11079 0080 00000000 		.4byte	.LFB74
 11080 0084 1C000000 		.4byte	.LFE74
 11081 0088 00000000 		.4byte	.LFB75
 11082 008c A8000000 		.4byte	.LFE75
 11083 0090 00000000 		.4byte	.LFB76
 11084 0094 A8000000 		.4byte	.LFE76
 11085 0098 00000000 		.4byte	.LFB77
 11086 009c 1C010000 		.4byte	.LFE77
 11087 00a0 00000000 		.4byte	.LFB78
 11088 00a4 00010000 		.4byte	.LFE78
 11089 00a8 00000000 		.4byte	.LFB79
 11090 00ac 30010000 		.4byte	.LFE79
 11091 00b0 00000000 		.4byte	.LFB80
 11092 00b4 D8000000 		.4byte	.LFE80
 11093 00b8 00000000 		.4byte	.LFB81
 11094 00bc 94000000 		.4byte	.LFE81
 11095 00c0 00000000 		.4byte	.LFB82
 11096 00c4 50030000 		.4byte	.LFE82
 11097 00c8 00000000 		.4byte	.LFB83
 11098 00cc 5E000000 		.4byte	.LFE83
 11099 00d0 00000000 		.4byte	.LFB84
 11100 00d4 28000000 		.4byte	.LFE84
ARM GAS  C:\Users\weiro\AppData\Local\Temp\ccglHz8v.s 			page 220


 11101 00d8 00000000 		.4byte	.LFB85
 11102 00dc D4000000 		.4byte	.LFE85
 11103 00e0 00000000 		.4byte	.LFB86
 11104 00e4 A8000000 		.4byte	.LFE86
 11105 00e8 00000000 		.4byte	.LFB87
 11106 00ec 3C000000 		.4byte	.LFE87
 11107 00f0 00000000 		.4byte	.LFB88
 11108 00f4 3C000000 		.4byte	.LFE88
 11109 00f8 00000000 		.4byte	.LFB89
 11110 00fc 8C060000 		.4byte	.LFE89
 11111 0100 00000000 		.4byte	0
 11112 0104 00000000 		.4byte	0
 11113              		.section	.debug_line,"",%progbits
 11114              	.Ldebug_line0:
 11115 0000 DB080000 		.section	.debug_str,"MS",%progbits,1
 11115      0200E603 
 11115      00000201 
 11115      FB0E0D00 
 11115      01010101 
 11116              	.LASF101:
 11117 0000 64697265 		.ascii	"direction\000"
 11117      6374696F 
 11117      6E00
 11118              	.LASF107:
 11119 000a 646F776E 		.ascii	"down_big\000"
 11119      5F626967 
 11119      00
 11120              	.LASF138:
 11121 0013 43794465 		.ascii	"CyDelay\000"
 11121      6C617900 
 11122              	.LASF86:
 11123 001b 50574D5F 		.ascii	"PWM_Master\000"
 11123      4D617374 
 11123      657200
 11124              	.LASF122:
 11125 0026 6379636C 		.ascii	"cycles\000"
 11125      657300
 11126              	.LASF150:
 11127 002d 436F6E74 		.ascii	"Control_Reg_2_Write\000"
 11127      726F6C5F 
 11127      5265675F 
 11127      325F5772 
 11127      69746500 
 11128              	.LASF73:
 11129 0041 434D5F43 		.ascii	"CM_COUNT_CONV\000"
 11129      4F554E54 
 11129      5F434F4E 
 11129      5600
 11130              	.LASF193:
 11131 004f 6D61696E 		.ascii	"main.c\000"
 11131      2E6300
 11132              	.LASF55:
 11133 0056 53686172 		.ascii	"Sharp_IR_sum_a\000"
 11133      705F4952 
 11133      5F73756D 
 11133      5F6100
 11134              	.LASF182:
ARM GAS  C:\Users\weiro\AppData\Local\Temp\ccglHz8v.s 			page 221


 11135 0065 50574D5F 		.ascii	"PWM_BigServo_Start\000"
 11135      42696753 
 11135      6572766F 
 11135      5F537461 
 11135      727400
 11136              	.LASF157:
 11137 0078 43535F4C 		.ascii	"CS_LED_Write\000"
 11137      45445F57 
 11137      72697465 
 11137      00
 11138              	.LASF58:
 11139 0085 53686172 		.ascii	"Sharp_IR_dist\000"
 11139      705F4952 
 11139      5F646973 
 11139      7400
 11140              	.LASF176:
 11141 0093 54696D65 		.ascii	"Timer_3_Start\000"
 11141      725F335F 
 11141      53746172 
 11141      7400
 11142              	.LASF181:
 11143 00a1 50574D5F 		.ascii	"PWM_SmallServo_Start\000"
 11143      536D616C 
 11143      6C536572 
 11143      766F5F53 
 11143      74617274 
 11144              	.LASF148:
 11145 00b6 51756164 		.ascii	"QuadDec_1_GetCounter\000"
 11145      4465635F 
 11145      315F4765 
 11145      74436F75 
 11145      6E746572 
 11146              	.LASF69:
 11147 00cb 43535F63 		.ascii	"CS_count_Red\000"
 11147      6F756E74 
 11147      5F526564 
 11147      00
 11148              	.LASF173:
 11149 00d8 6973725F 		.ascii	"isr_1_StartEx\000"
 11149      315F5374 
 11149      61727445 
 11149      7800
 11150              	.LASF115:
 11151 00e6 61727261 		.ascii	"array_1\000"
 11151      795F3100 
 11152              	.LASF66:
 11153 00ee 696E6974 		.ascii	"initial\000"
 11153      69616C00 
 11154              	.LASF9:
 11155 00f6 756E7369 		.ascii	"unsigned int\000"
 11155      676E6564 
 11155      20696E74 
 11155      00
 11156              	.LASF18:
 11157 0103 53706565 		.ascii	"Speed_Control\000"
 11157      645F436F 
 11157      6E74726F 
ARM GAS  C:\Users\weiro\AppData\Local\Temp\ccglHz8v.s 			page 222


 11157      6C00
 11158              	.LASF125:
 11159 0111 6572726F 		.ascii	"error_gyro\000"
 11159      725F6779 
 11159      726F00
 11160              	.LASF10:
 11161 011c 5F5F696E 		.ascii	"__int32_t\000"
 11161      7433325F 
 11161      7400
 11162              	.LASF13:
 11163 0126 696E7431 		.ascii	"int16\000"
 11163      3600
 11164              	.LASF154:
 11165 012c 49525F69 		.ascii	"IR_input_Read\000"
 11165      6E707574 
 11165      5F526561 
 11165      6400
 11166              	.LASF96:
 11167 013a 72696768 		.ascii	"right_measured\000"
 11167      745F6D65 
 11167      61737572 
 11167      656400
 11168              	.LASF85:
 11169 0149 74696D65 		.ascii	"timer_period\000"
 11169      725F7065 
 11169      72696F64 
 11169      00
 11170              	.LASF129:
 11171 0156 54696D65 		.ascii	"Timer_3_ReadStatusRegister\000"
 11171      725F335F 
 11171      52656164 
 11171      53746174 
 11171      75735265 
 11172              	.LASF183:
 11173 0171 51756164 		.ascii	"QuadDec_1_Start\000"
 11173      4465635F 
 11173      315F5374 
 11173      61727400 
 11174              	.LASF126:
 11175 0181 6572726F 		.ascii	"error_gyro_avg\000"
 11175      725F6779 
 11175      726F5F61 
 11175      766700
 11176              	.LASF165:
 11177 0190 6C65645F 		.ascii	"led_green_Write\000"
 11177      67726565 
 11177      6E5F5772 
 11177      69746500 
 11178              	.LASF81:
 11179 01a0 6572726F 		.ascii	"error\000"
 11179      7200
 11180              	.LASF46:
 11181 01a6 6D6F6465 		.ascii	"mode\000"
 11181      00
 11182              	.LASF106:
 11183 01ab 736C6974 		.ascii	"slit_detected\000"
 11183      5F646574 
ARM GAS  C:\Users\weiro\AppData\Local\Temp\ccglHz8v.s 			page 223


 11183      65637465 
 11183      6400
 11184              	.LASF71:
 11185 01b9 43535F63 		.ascii	"CS_count_Green\000"
 11185      6F756E74 
 11185      5F477265 
 11185      656E00
 11186              	.LASF28:
 11187 01c8 72657365 		.ascii	"reset_count\000"
 11187      745F636F 
 11187      756E7400 
 11188              	.LASF70:
 11189 01d4 43535F63 		.ascii	"CS_count_Blue\000"
 11189      6F756E74 
 11189      5F426C75 
 11189      6500
 11190              	.LASF25:
 11191 01e2 72657665 		.ascii	"reverse\000"
 11191      72736500 
 11192              	.LASF68:
 11193 01ea 57484545 		.ascii	"WHEEL_CIRCUMFERENCE\000"
 11193      4C5F4349 
 11193      5243554D 
 11193      46455245 
 11193      4E434500 
 11194              	.LASF137:
 11195 01fe 4932435F 		.ascii	"I2C_1_MasterSendStop\000"
 11195      315F4D61 
 11195      73746572 
 11195      53656E64 
 11195      53746F70 
 11196              	.LASF63:
 11197 0213 5075745F 		.ascii	"Put_Down_Puck\000"
 11197      446F776E 
 11197      5F507563 
 11197      6B00
 11198              	.LASF47:
 11199 0221 55415254 		.ascii	"UART_2_PutString\000"
 11199      5F325F50 
 11199      75745374 
 11199      72696E67 
 11199      00
 11200              	.LASF191:
 11201 0232 73747263 		.ascii	"strcpy\000"
 11201      707900
 11202              	.LASF59:
 11203 0239 46696E64 		.ascii	"Find_Puck\000"
 11203      5F507563 
 11203      6B00
 11204              	.LASF99:
 11205 0243 785F636F 		.ascii	"x_coord\000"
 11205      6F726400 
 11206              	.LASF23:
 11207 024b 73746F70 		.ascii	"stop\000"
 11207      00
 11208              	.LASF75:
 11209 0250 44495354 		.ascii	"DISTANCE_PT_TURN\000"
ARM GAS  C:\Users\weiro\AppData\Local\Temp\ccglHz8v.s 			page 224


 11209      414E4345 
 11209      5F50545F 
 11209      5455524E 
 11209      00
 11210              	.LASF14:
 11211 0261 666C6F61 		.ascii	"float\000"
 11211      7400
 11212              	.LASF168:
 11213 0267 4144435F 		.ascii	"ADC_SAR_1_StartConvert\000"
 11213      5341525F 
 11213      315F5374 
 11213      61727443 
 11213      6F6E7665 
 11214              	.LASF124:
 11215 027e 636F756E 		.ascii	"count\000"
 11215      7400
 11216              	.LASF110:
 11217 0284 636C6F73 		.ascii	"close_small\000"
 11217      655F736D 
 11217      616C6C00 
 11218              	.LASF43:
 11219 0290 50545F54 		.ascii	"PT_TURN_COUNT\000"
 11219      55524E5F 
 11219      434F554E 
 11219      5400
 11220              	.LASF152:
 11221 029e 43794465 		.ascii	"CyDelayUs\000"
 11221      6C617955 
 11221      7300
 11222              	.LASF134:
 11223 02a8 54696D65 		.ascii	"Timer_2_ReadStatusRegister\000"
 11223      725F325F 
 11223      52656164 
 11223      53746174 
 11223      75735265 
 11224              	.LASF8:
 11225 02c3 6C6F6E67 		.ascii	"long long unsigned int\000"
 11225      206C6F6E 
 11225      6720756E 
 11225      7369676E 
 11225      65642069 
 11226              	.LASF97:
 11227 02da 6C656674 		.ascii	"left_measured\000"
 11227      5F6D6561 
 11227      73757265 
 11227      6400
 11228              	.LASF178:
 11229 02e8 50574D5F 		.ascii	"PWM_ColorSensor_Start\000"
 11229      436F6C6F 
 11229      7253656E 
 11229      736F725F 
 11229      53746172 
 11230              	.LASF91:
 11231 02fe 69735F6D 		.ascii	"is_moving\000"
 11231      6F76696E 
 11231      6700
 11232              	.LASF156:
ARM GAS  C:\Users\weiro\AppData\Local\Temp\ccglHz8v.s 			page 225


 11233 0308 53315F57 		.ascii	"S1_Write\000"
 11233      72697465 
 11233      00
 11234              	.LASF151:
 11235 0311 54726967 		.ascii	"Trigger_Write\000"
 11235      6765725F 
 11235      57726974 
 11235      6500
 11236              	.LASF167:
 11237 031f 46726F6E 		.ascii	"Front_Echo_2_Read\000"
 11237      745F4563 
 11237      686F5F32 
 11237      5F526561 
 11237      6400
 11238              	.LASF41:
 11239 0331 6D6F7665 		.ascii	"move2slit\000"
 11239      32736C69 
 11239      7400
 11240              	.LASF166:
 11241 033b 6C65645F 		.ascii	"led_blue_Write\000"
 11241      626C7565 
 11241      5F577269 
 11241      746500
 11242              	.LASF120:
 11243 034a 63757272 		.ascii	"current_reading\000"
 11243      656E745F 
 11243      72656164 
 11243      696E6700 
 11244              	.LASF192:
 11245 035a 474E5520 		.ascii	"GNU C11 5.4.1 20160609 (release) [ARM/embedded-5-br"
 11245      43313120 
 11245      352E342E 
 11245      31203230 
 11245      31363036 
 11246 038d 616E6368 		.ascii	"anch revision 237715] -mcpu=cortex-m3 -mthumb -g -O"
 11246      20726576 
 11246      6973696F 
 11246      6E203233 
 11246      37373135 
 11247 03c0 67202D66 		.ascii	"g -ffunction-sections -ffat-lto-objects\000"
 11247      66756E63 
 11247      74696F6E 
 11247      2D736563 
 11247      74696F6E 
 11248              	.LASF82:
 11249 03e8 61636375 		.ascii	"accumulated_error\000"
 11249      6D756C61 
 11249      7465645F 
 11249      6572726F 
 11249      7200
 11250              	.LASF72:
 11251 03fa 434F554E 		.ascii	"COUNT_WHEEL\000"
 11251      545F5748 
 11251      45454C00 
 11252              	.LASF60:
 11253 0406 74617267 		.ascii	"target\000"
 11253      657400
ARM GAS  C:\Users\weiro\AppData\Local\Temp\ccglHz8v.s 			page 226


 11254              	.LASF64:
 11255 040d 55415254 		.ascii	"UART_2_Start\000"
 11255      5F325F53 
 11255      74617274 
 11255      00
 11256              	.LASF49:
 11257 041a 466C6963 		.ascii	"Flicker_Function\000"
 11257      6B65725F 
 11257      46756E63 
 11257      74696F6E 
 11257      00
 11258              	.LASF140:
 11259 042b 55415254 		.ascii	"UART_1_PutString\000"
 11259      5F315F50 
 11259      75745374 
 11259      72696E67 
 11259      00
 11260              	.LASF30:
 11261 043c 414E474C 		.ascii	"ANGLE_TOLERANCE\000"
 11261      455F544F 
 11261      4C455241 
 11261      4E434500 
 11262              	.LASF57:
 11263 044c 53686172 		.ascii	"Sharp_IR_volt\000"
 11263      705F4952 
 11263      5F766F6C 
 11263      7400
 11264              	.LASF169:
 11265 045a 4144435F 		.ascii	"ADC_SAR_1_IsEndConversion\000"
 11265      5341525F 
 11265      315F4973 
 11265      456E6443 
 11265      6F6E7665 
 11266              	.LASF171:
 11267 0474 50574D5F 		.ascii	"PWM_BigServo_WriteCompare\000"
 11267      42696753 
 11267      6572766F 
 11267      5F577269 
 11267      7465436F 
 11268              	.LASF48:
 11269 048e 4779726F 		.ascii	"Gyroscope_Function\000"
 11269      73636F70 
 11269      655F4675 
 11269      6E637469 
 11269      6F6E00
 11270              	.LASF39:
 11271 04a1 64697374 		.ascii	"dist_count\000"
 11271      5F636F75 
 11271      6E7400
 11272              	.LASF56:
 11273 04ac 53686172 		.ascii	"Sharp_IR_iter\000"
 11273      705F4952 
 11273      5F697465 
 11273      7200
 11274              	.LASF149:
 11275 04ba 51756164 		.ascii	"QuadDec_2_GetCounter\000"
 11275      4465635F 
ARM GAS  C:\Users\weiro\AppData\Local\Temp\ccglHz8v.s 			page 227


 11275      325F4765 
 11275      74436F75 
 11275      6E746572 
 11276              	.LASF141:
 11277 04cf 4D6F746F 		.ascii	"Motor_1_IN_1_Write\000"
 11277      725F315F 
 11277      494E5F31 
 11277      5F577269 
 11277      746500
 11278              	.LASF117:
 11279 04e2 7961775F 		.ascii	"yaw_rate\000"
 11279      72617465 
 11279      00
 11280              	.LASF144:
 11281 04eb 4D6F746F 		.ascii	"Motor_2_IN_4_Write\000"
 11281      725F325F 
 11281      494E5F34 
 11281      5F577269 
 11281      746500
 11282              	.LASF132:
 11283 04fe 50574D5F 		.ascii	"PWM_ColorSensor_ReadStatusRegister\000"
 11283      436F6C6F 
 11283      7253656E 
 11283      736F725F 
 11283      52656164 
 11284              	.LASF160:
 11285 0521 53335F57 		.ascii	"S3_Write\000"
 11285      72697465 
 11285      00
 11286              	.LASF15:
 11287 052a 63686172 		.ascii	"char\000"
 11287      00
 11288              	.LASF31:
 11289 052f 74617267 		.ascii	"targetAngle\000"
 11289      6574416E 
 11289      676C6500 
 11290              	.LASF40:
 11291 053b 6D6F7665 		.ascii	"move2wall\000"
 11291      3277616C 
 11291      6C00
 11292              	.LASF93:
 11293 0545 756C7472 		.ascii	"ultrasonic_measure\000"
 11293      61736F6E 
 11293      69635F6D 
 11293      65617375 
 11293      726500
 11294              	.LASF161:
 11295 0558 436F6E74 		.ascii	"Control_Reg_1_Write\000"
 11295      726F6C5F 
 11295      5265675F 
 11295      315F5772 
 11295      69746500 
 11296              	.LASF51:
 11297 056c 466C6963 		.ascii	"Flicker_Write\000"
 11297      6B65725F 
 11297      57726974 
 11297      6500
ARM GAS  C:\Users\weiro\AppData\Local\Temp\ccglHz8v.s 			page 228


 11298              	.LASF187:
 11299 057a 54696D65 		.ascii	"Timer_2_Start\000"
 11299      725F325F 
 11299      53746172 
 11299      7400
 11300              	.LASF130:
 11301 0588 54696D65 		.ascii	"Timer_3_ReadCounter\000"
 11301      725F335F 
 11301      52656164 
 11301      436F756E 
 11301      74657200 
 11302              	.LASF121:
 11303 059c 68656164 		.ascii	"heading\000"
 11303      696E6700 
 11304              	.LASF174:
 11305 05a4 6973725F 		.ascii	"isr_6_StartEx\000"
 11305      365F5374 
 11305      61727445 
 11305      7800
 11306              	.LASF7:
 11307 05b2 6C6F6E67 		.ascii	"long long int\000"
 11307      206C6F6E 
 11307      6720696E 
 11307      7400
 11308              	.LASF54:
 11309 05c0 53686172 		.ascii	"Sharp_IR_avg_a\000"
 11309      705F4952 
 11309      5F617667 
 11309      5F6100
 11310              	.LASF34:
 11311 05cf 6D6F7665 		.ascii	"move_fixed_dist\000"
 11311      5F666978 
 11311      65645F64 
 11311      69737400 
 11312              	.LASF74:
 11313 05df 44495354 		.ascii	"DISTANCE_BETW_WHEEL\000"
 11313      414E4345 
 11313      5F424554 
 11313      575F5748 
 11313      45454C00 
 11314              	.LASF188:
 11315 05f3 6973725F 		.ascii	"isr_2_StartEx\000"
 11315      325F5374 
 11315      61727445 
 11315      7800
 11316              	.LASF139:
 11317 0601 4932435F 		.ascii	"I2C_1_MasterReadByte\000"
 11317      315F4D61 
 11317      73746572 
 11317      52656164 
 11317      42797465 
 11318              	.LASF162:
 11319 0616 436F756E 		.ascii	"Counter_ColorSensor_ReadCapture\000"
 11319      7465725F 
 11319      436F6C6F 
 11319      7253656E 
 11319      736F725F 
ARM GAS  C:\Users\weiro\AppData\Local\Temp\ccglHz8v.s 			page 229


 11320              	.LASF44:
 11321 0636 666C6167 		.ascii	"flag_CW\000"
 11321      5F435700 
 11322              	.LASF24:
 11323 063e 666F7277 		.ascii	"forward\000"
 11323      61726400 
 11324              	.LASF102:
 11325 0646 73746570 		.ascii	"step\000"
 11325      00
 11326              	.LASF19:
 11327 064b 756C7472 		.ascii	"ultrasonic_echo\000"
 11327      61736F6E 
 11327      69635F65 
 11327      63686F00 
 11328              	.LASF35:
 11329 065b 64697374 		.ascii	"dist\000"
 11329      00
 11330              	.LASF118:
 11331 0660 7961775F 		.ascii	"yaw_angle\000"
 11331      616E676C 
 11331      6500
 11332              	.LASF20:
 11333 066a 436F6C6F 		.ascii	"Color_sensing\000"
 11333      725F7365 
 11333      6E73696E 
 11333      6700
 11334              	.LASF103:
 11335 0678 636F6D70 		.ascii	"compare_ready\000"
 11335      6172655F 
 11335      72656164 
 11335      7900
 11336              	.LASF131:
 11337 0686 73707269 		.ascii	"sprintf\000"
 11337      6E746600 
 11338              	.LASF22:
 11339 068e 4779726F 		.ascii	"Gyroscope\000"
 11339      73636F70 
 11339      6500
 11340              	.LASF172:
 11341 0698 50574D5F 		.ascii	"PWM_SmallServo_WriteCompare\000"
 11341      536D616C 
 11341      6C536572 
 11341      766F5F57 
 11341      72697465 
 11342              	.LASF16:
 11343 06b4 6C6F6E67 		.ascii	"long double\000"
 11343      20646F75 
 11343      626C6500 
 11344              	.LASF111:
 11345 06c0 73747269 		.ascii	"string_bt\000"
 11345      6E675F62 
 11345      7400
 11346              	.LASF177:
 11347 06ca 6973725F 		.ascii	"isr_3_StartEx\000"
 11347      335F5374 
 11347      61727445 
 11347      7800
ARM GAS  C:\Users\weiro\AppData\Local\Temp\ccglHz8v.s 			page 230


 11348              	.LASF27:
 11349 06d8 7475726E 		.ascii	"turn_clockwise\000"
 11349      5F636C6F 
 11349      636B7769 
 11349      736500
 11350              	.LASF100:
 11351 06e7 795F636F 		.ascii	"y_coord\000"
 11351      6F726400 
 11352              	.LASF67:
 11353 06ef 57484545 		.ascii	"WHEEL_DIAMETER\000"
 11353      4C5F4449 
 11353      414D4554 
 11353      455200
 11354              	.LASF53:
 11355 06fe 53686172 		.ascii	"Sharp_IR_analogue\000"
 11355      705F4952 
 11355      5F616E61 
 11355      6C6F6775 
 11355      6500
 11356              	.LASF77:
 11357 0710 436F756E 		.ascii	"Count_Slave\000"
 11357      745F536C 
 11357      61766500 
 11358              	.LASF50:
 11359 071c 64697374 		.ascii	"dist_trav\000"
 11359      5F747261 
 11359      7600
 11360              	.LASF184:
 11361 0726 51756164 		.ascii	"QuadDec_2_Start\000"
 11361      4465635F 
 11361      325F5374 
 11361      61727400 
 11362              	.LASF3:
 11363 0736 73686F72 		.ascii	"short int\000"
 11363      7420696E 
 11363      7400
 11364              	.LASF135:
 11365 0740 4932435F 		.ascii	"I2C_1_MasterSendStart\000"
 11365      315F4D61 
 11365      73746572 
 11365      53656E64 
 11365      53746172 
 11366              	.LASF61:
 11367 0756 6F626A65 		.ascii	"objective\000"
 11367      63746976 
 11367      6500
 11368              	.LASF5:
 11369 0760 6C6F6E67 		.ascii	"long int\000"
 11369      20696E74 
 11369      00
 11370              	.LASF65:
 11371 0769 49544D5F 		.ascii	"ITM_RxBuffer\000"
 11371      52784275 
 11371      66666572 
 11371      00
 11372              	.LASF153:
 11373 0776 4C656674 		.ascii	"Left_Echo_Read\000"
ARM GAS  C:\Users\weiro\AppData\Local\Temp\ccglHz8v.s 			page 231


 11373      5F456368 
 11373      6F5F5265 
 11373      616400
 11374              	.LASF186:
 11375 0785 4932435F 		.ascii	"I2C_1_Start\000"
 11375      315F5374 
 11375      61727400 
 11376              	.LASF158:
 11377 0791 436F756E 		.ascii	"Counter_ColorSensor_Start\000"
 11377      7465725F 
 11377      436F6C6F 
 11377      7253656E 
 11377      736F725F 
 11378              	.LASF38:
 11379 07ab 6176675F 		.ascii	"avg_dist\000"
 11379      64697374 
 11379      00
 11380              	.LASF116:
 11381 07b4 74656D70 		.ascii	"temp\000"
 11381      00
 11382              	.LASF180:
 11383 07b9 50574D5F 		.ascii	"PWM_Wheels_Start\000"
 11383      57686565 
 11383      6C735F53 
 11383      74617274 
 11383      00
 11384              	.LASF155:
 11385 07ca 53305F57 		.ascii	"S0_Write\000"
 11385      72697465 
 11385      00
 11386              	.LASF89:
 11387 07d3 50574D5F 		.ascii	"PWM_Master_puck\000"
 11387      4D617374 
 11387      65725F70 
 11387      75636B00 
 11388              	.LASF94:
 11389 07e3 66726F6E 		.ascii	"front_measured_1\000"
 11389      745F6D65 
 11389      61737572 
 11389      65645F31 
 11389      00
 11390              	.LASF95:
 11391 07f4 66726F6E 		.ascii	"front_measured_2\000"
 11391      745F6D65 
 11391      61737572 
 11391      65645F32 
 11391      00
 11392              	.LASF29:
 11393 0805 6779726F 		.ascii	"gyro_cal_1\000"
 11393      5F63616C 
 11393      5F3100
 11394              	.LASF33:
 11395 0810 6779726F 		.ascii	"gyro_cal_2\000"
 11395      5F63616C 
 11395      5F3200
 11396              	.LASF109:
 11397 081b 6F70656E 		.ascii	"open_small\000"
ARM GAS  C:\Users\weiro\AppData\Local\Temp\ccglHz8v.s 			page 232


 11397      5F736D61 
 11397      6C6C00
 11398              	.LASF76:
 11399 0826 436F756E 		.ascii	"Count_Master\000"
 11399      745F4D61 
 11399      73746572 
 11399      00
 11400              	.LASF42:
 11401 0833 6D6F7665 		.ascii	"move2puck\000"
 11401      32707563 
 11401      6B00
 11402              	.LASF36:
 11403 083d 666C6167 		.ascii	"flag_FR\000"
 11403      5F465200 
 11404              	.LASF32:
 11405 0845 616E676C 		.ascii	"angleDifference\000"
 11405      65446966 
 11405      66657265 
 11405      6E636500 
 11406              	.LASF98:
 11407 0855 6563686F 		.ascii	"echo_select\000"
 11407      5F73656C 
 11407      65637400 
 11408              	.LASF163:
 11409 0861 436F756E 		.ascii	"Counter_ColorSensor_Stop\000"
 11409      7465725F 
 11409      436F6C6F 
 11409      7253656E 
 11409      736F725F 
 11410              	.LASF170:
 11411 087a 4144435F 		.ascii	"ADC_SAR_1_GetResult8\000"
 11411      5341525F 
 11411      315F4765 
 11411      74526573 
 11411      756C7438 
 11412              	.LASF185:
 11413 088f 55415254 		.ascii	"UART_1_Start\000"
 11413      5F315F53 
 11413      74617274 
 11413      00
 11414              	.LASF84:
 11415 089c 64657269 		.ascii	"derivative_error\000"
 11415      76617469 
 11415      76655F65 
 11415      72726F72 
 11415      00
 11416              	.LASF45:
 11417 08ad 436F6C6F 		.ascii	"Color_Sensing_Function\000"
 11417      725F5365 
 11417      6E73696E 
 11417      675F4675 
 11417      6E637469 
 11418              	.LASF83:
 11419 08c4 6C617374 		.ascii	"last_error\000"
 11419      5F657272 
 11419      6F7200
 11420              	.LASF17:
ARM GAS  C:\Users\weiro\AppData\Local\Temp\ccglHz8v.s 			page 233


 11421 08cf 73697A65 		.ascii	"sizetype\000"
 11421      74797065 
 11421      00
 11422              	.LASF179:
 11423 08d8 6973725F 		.ascii	"isr_7_StartEx\000"
 11423      375F5374 
 11423      61727445 
 11423      7800
 11424              	.LASF6:
 11425 08e6 6C6F6E67 		.ascii	"long unsigned int\000"
 11425      20756E73 
 11425      69676E65 
 11425      6420696E 
 11425      7400
 11426              	.LASF52:
 11427 08f8 53686172 		.ascii	"Sharp_IR\000"
 11427      705F4952 
 11427      00
 11428              	.LASF147:
 11429 0901 50574D5F 		.ascii	"PWM_Wheels_WriteCompare1\000"
 11429      57686565 
 11429      6C735F57 
 11429      72697465 
 11429      436F6D70 
 11430              	.LASF128:
 11431 091a 50574D5F 		.ascii	"PWM_Wheels_WriteCompare2\000"
 11431      57686565 
 11431      6C735F57 
 11431      72697465 
 11431      436F6D70 
 11432              	.LASF11:
 11433 0933 696E7433 		.ascii	"int32_t\000"
 11433      325F7400 
 11434              	.LASF87:
 11435 093b 50574D5F 		.ascii	"PWM_Cal\000"
 11435      43616C00 
 11436              	.LASF164:
 11437 0943 6C65645F 		.ascii	"led_red_Write\000"
 11437      7265645F 
 11437      57726974 
 11437      6500
 11438              	.LASF88:
 11439 0951 50574D5F 		.ascii	"PWM_Slave\000"
 11439      536C6176 
 11439      6500
 11440              	.LASF104:
 11441 095b 636F6C6F 		.ascii	"color_detected\000"
 11441      725F6465 
 11441      74656374 
 11441      656400
 11442              	.LASF2:
 11443 096a 756E7369 		.ascii	"unsigned char\000"
 11443      676E6564 
 11443      20636861 
 11443      7200
 11444              	.LASF90:
 11445 0978 50574D5F 		.ascii	"PWM_Slave_puck\000"
ARM GAS  C:\Users\weiro\AppData\Local\Temp\ccglHz8v.s 			page 234


 11445      536C6176 
 11445      655F7075 
 11445      636B00
 11446              	.LASF143:
 11447 0987 4D6F746F 		.ascii	"Motor_2_IN_3_Write\000"
 11447      725F325F 
 11447      494E5F33 
 11447      5F577269 
 11447      746500
 11448              	.LASF142:
 11449 099a 4D6F746F 		.ascii	"Motor_1_IN_2_Write\000"
 11449      725F315F 
 11449      494E5F32 
 11449      5F577269 
 11449      746500
 11450              	.LASF159:
 11451 09ad 53325F57 		.ascii	"S2_Write\000"
 11451      72697465 
 11451      00
 11452              	.LASF146:
 11453 09b6 51756164 		.ascii	"QuadDec_2_SetCounter\000"
 11453      4465635F 
 11453      325F5365 
 11453      74436F75 
 11453      6E746572 
 11454              	.LASF114:
 11455 09cb 7461736B 		.ascii	"task_info\000"
 11455      5F696E66 
 11455      6F00
 11456              	.LASF190:
 11457 09d5 73747274 		.ascii	"strtok\000"
 11457      6F6B00
 11458              	.LASF145:
 11459 09dc 51756164 		.ascii	"QuadDec_1_SetCounter\000"
 11459      4465635F 
 11459      315F5365 
 11459      74436F75 
 11459      6E746572 
 11460              	.LASF136:
 11461 09f1 4932435F 		.ascii	"I2C_1_MasterWriteByte\000"
 11461      315F4D61 
 11461      73746572 
 11461      57726974 
 11461      65427974 
 11462              	.LASF123:
 11463 0a07 73747269 		.ascii	"string_gyro\000"
 11463      6E675F67 
 11463      79726F00 
 11464              	.LASF26:
 11465 0a13 7475726E 		.ascii	"turn_anticlockwise\000"
 11465      5F616E74 
 11465      69636C6F 
 11465      636B7769 
 11465      736500
 11466              	.LASF127:
 11467 0a26 74687265 		.ascii	"threshold\000"
 11467      73686F6C 
ARM GAS  C:\Users\weiro\AppData\Local\Temp\ccglHz8v.s 			page 235


 11467      6400
 11468              	.LASF37:
 11469 0a30 6176675F 		.ascii	"avg_count\000"
 11469      636F756E 
 11469      7400
 11470              	.LASF194:
 11471 0a3a 433A5C55 		.ascii	"C:\\Users\\weiro\\code repository for ece4191\\ece4"
 11471      73657273 
 11471      5C776569 
 11471      726F5C63 
 11471      6F646520 
 11472 0a69 3139315C 		.ascii	"191\\DC_Motor_1\\Design01.cydsn\000"
 11472      44435F4D 
 11472      6F746F72 
 11472      5F315C44 
 11472      65736967 
 11473              	.LASF175:
 11474 0a87 54696D65 		.ascii	"Timer_1_Start\000"
 11474      725F315F 
 11474      53746172 
 11474      7400
 11475              	.LASF1:
 11476 0a95 7369676E 		.ascii	"signed char\000"
 11476      65642063 
 11476      68617200 
 11477              	.LASF4:
 11478 0aa1 73686F72 		.ascii	"short unsigned int\000"
 11478      7420756E 
 11478      7369676E 
 11478      65642069 
 11478      6E7400
 11479              	.LASF195:
 11480 0ab4 6D61696E 		.ascii	"main\000"
 11480      00
 11481              	.LASF108:
 11482 0ab9 75705F62 		.ascii	"up_big\000"
 11482      696700
 11483              	.LASF78:
 11484 0ac0 73747269 		.ascii	"string_1\000"
 11484      6E675F31 
 11484      00
 11485              	.LASF79:
 11486 0ac9 73747269 		.ascii	"string_2\000"
 11486      6E675F32 
 11486      00
 11487              	.LASF80:
 11488 0ad2 73747269 		.ascii	"string_3\000"
 11488      6E675F33 
 11488      00
 11489              	.LASF92:
 11490 0adb 756C7472 		.ascii	"ultrasonic_count\000"
 11490      61736F6E 
 11490      69635F63 
 11490      6F756E74 
 11490      00
 11491              	.LASF112:
 11492 0aec 73746F70 		.ascii	"stop_bt\000"
ARM GAS  C:\Users\weiro\AppData\Local\Temp\ccglHz8v.s 			page 236


 11492      5F627400 
 11493              	.LASF113:
 11494 0af4 746F6B65 		.ascii	"tokenPtr\000"
 11494      6E507472 
 11494      00
 11495              	.LASF12:
 11496 0afd 75696E74 		.ascii	"uint8\000"
 11496      3800
 11497              	.LASF0:
 11498 0b03 646F7562 		.ascii	"double\000"
 11498      6C6500
 11499              	.LASF133:
 11500 0b0a 55415254 		.ascii	"UART_1_GetChar\000"
 11500      5F315F47 
 11500      65744368 
 11500      617200
 11501              	.LASF21:
 11502 0b19 426C7565 		.ascii	"Bluetooth\000"
 11502      746F6F74 
 11502      6800
 11503              	.LASF105:
 11504 0b23 77616C6C 		.ascii	"wall_detected_10\000"
 11504      5F646574 
 11504      65637465 
 11504      645F3130 
 11504      00
 11505              	.LASF62:
 11506 0b34 5069636B 		.ascii	"Pick_Up_Puck\000"
 11506      5F55705F 
 11506      5075636B 
 11506      00
 11507              	.LASF119:
 11508 0b41 70726576 		.ascii	"previous_reading\000"
 11508      696F7573 
 11508      5F726561 
 11508      64696E67 
 11508      00
 11509              	.LASF189:
 11510 0b52 73747263 		.ascii	"strcmp\000"
 11510      6D7000
 11511              		.ident	"GCC: (GNU Tools for ARM Embedded Processors) 5.4.1 20160609 (release) [ARM/embedded-5-bran
