ARM GAS  C:\Users\weiro\AppData\Local\Temp\ccpp9Q4b.s 			page 1


   1              		.syntax unified
   2              		.cpu cortex-m3
   3              		.fpu softvfp
   4              		.eabi_attribute 20, 1
   5              		.eabi_attribute 21, 1
   6              		.eabi_attribute 23, 3
   7              		.eabi_attribute 24, 1
   8              		.eabi_attribute 25, 1
   9              		.eabi_attribute 26, 1
  10              		.eabi_attribute 30, 1
  11              		.eabi_attribute 34, 1
  12              		.eabi_attribute 18, 4
  13              		.thumb
  14              		.syntax unified
  15              		.file	"main.c"
  16              		.text
  17              	.Ltext0:
  18              		.cfi_sections	.debug_frame
  19              		.global	__aeabi_i2d
  20              		.global	__aeabi_dmul
  21              		.global	__aeabi_f2d
  22              		.global	__aeabi_dadd
  23              		.global	__aeabi_d2f
  24              		.global	__aeabi_f2uiz
  25              		.section	.text.Speed_Control,"ax",%progbits
  26              		.align	2
  27              		.global	Speed_Control
  28              		.thumb
  29              		.thumb_func
  30              		.type	Speed_Control, %function
  31              	Speed_Control:
  32              	.LFB64:
  33              		.file 1 "main.c"
   1:main.c        **** /* ========================================
   2:main.c        ****  *
   3:main.c        ****  * Copyright YOUR COMPANY, THE YEAR
   4:main.c        ****  * All Rights Reserved
   5:main.c        ****  * UNPUBLISHED, LICENSED SOFTWARE.
   6:main.c        ****  *
   7:main.c        ****  * CONFIDENTIAL AND PROPRIETARY INFORMATION
   8:main.c        ****  * WHICH IS THE PROPERTY OF your company.
   9:main.c        ****  *
  10:main.c        ****  * ========================================
  11:main.c        **** */
  12:main.c        **** // ECE4191 Group 3
  13:main.c        **** 
  14:main.c        **** #include "project.h"
  15:main.c        **** #include <stdio.h>
  16:main.c        **** #include <stdlib.h>
  17:main.c        **** #include <math.h> 
  18:main.c        **** #include <string.h>
  19:main.c        **** #define MPU6050 0x68
  20:main.c        **** 
  21:main.c        **** int initial = 0; /// 0 --> initial position at left side, 1 --> inital position at right side
  22:main.c        **** double WHEEL_DIAMETER = 5.4; //cm
  23:main.c        **** double WHEEL_CIRCUMFERENCE = 0;
  24:main.c        **** int CS_count_Red = 0;
ARM GAS  C:\Users\weiro\AppData\Local\Temp\ccpp9Q4b.s 			page 2


  25:main.c        **** int CS_count_Blue = 0;
  26:main.c        **** int CS_count_Green = 0;
  27:main.c        **** double COUNT_WHEEL = 3667; // Count per rotation
  28:main.c        **** double CM_COUNT_CONV = 0;
  29:main.c        **** double DISTANCE_BETW_WHEEL = 22.30;
  30:main.c        **** double DISTANCE_PT_TURN = 0;
  31:main.c        **** double PT_TURN_COUNT = 0;
  32:main.c        **** int Count_Master = 0;
  33:main.c        **** int Count_Slave = 0;
  34:main.c        **** char string_1[200];
  35:main.c        **** char string_2[200];
  36:main.c        **** char string_3[200];
  37:main.c        **** double error = 0;
  38:main.c        **** double accumulated_error = 0;
  39:main.c        **** double last_error = 0;
  40:main.c        **** double derivative_error = 0;
  41:main.c        **** double timer_period = 5;
  42:main.c        **** double K_p = 5;
  43:main.c        **** double K_i = 0;
  44:main.c        **** double K_d = 0;
  45:main.c        **** float PWM_Master = 20000;
  46:main.c        **** float PWM_Cal = 10000;
  47:main.c        **** 
  48:main.c        **** float PWM_Slave = 20000;
  49:main.c        **** float PWM_Master_puck = 5000;
  50:main.c        **** float PWM_Slave_puck = 5000;
  51:main.c        **** int is_moving = 0;
  52:main.c        **** int ultrasonic_count = 0;
  53:main.c        **** double ultrasonic_measure = 0;
  54:main.c        **** double front_measured_1, front_measured_2, right_measured, left_measured = 0;
  55:main.c        **** int echo_select = 0;
  56:main.c        **** double x_coord = 0;
  57:main.c        **** double y_coord = 0;
  58:main.c        **** int direction = 0; // 0(front[0]), 1(right[90]),  2(back[180]),  3(left[270])
  59:main.c        **** int step = -1;
  60:main.c        **** int compare_ready = 0;
  61:main.c        **** int color_detected = 0; // 1-red, 2-green, 3-blue
  62:main.c        **** int wall_detected_10 = 0;
  63:main.c        **** int slit_detected = 0;
  64:main.c        **** int down_big = 615;
  65:main.c        **** int up_big = 525;
  66:main.c        **** int open_small = 980;
  67:main.c        **** int close_small  = 940;
  68:main.c        **** // bluetooth
  69:main.c        **** char Rx;
  70:main.c        **** int i = 0;
  71:main.c        **** char string_bt[200];
  72:main.c        **** int stop_bt = 0;
  73:main.c        **** char* tokenPtr;
  74:main.c        **** char task_info[3][20];
  75:main.c        **** int j = 0;
  76:main.c        **** // gyroscope
  77:main.c        **** uint8 array_1[6] = {0};
  78:main.c        **** int16 temp = 0;
  79:main.c        **** double yaw_rate = 0;
  80:main.c        **** double yaw_angle = 0;
  81:main.c        **** double previous_reading = 0;
ARM GAS  C:\Users\weiro\AppData\Local\Temp\ccpp9Q4b.s 			page 3


  82:main.c        **** double current_reading = 0;
  83:main.c        **** double heading = 0;
  84:main.c        **** int cycles = 0;
  85:main.c        **** char string_gyro[200] = "\0";
  86:main.c        **** int cal = 1;
  87:main.c        **** int count = 0;
  88:main.c        **** int16 error_gyro = 0; //to find the error in gyroscope readings when stationary
  89:main.c        **** int16 error_gyro_avg = 0; //average error in gyroscope readings when stationary
  90:main.c        **** double threshold = 0.1; //to prevent accumulation of error due to integration
  91:main.c        **** 
  92:main.c        **** CY_ISR (Speed_Control)
  93:main.c        **** {
  34              		.loc 1 93 0
  35              		.cfi_startproc
  36              		@ args = 0, pretend = 0, frame = 0
  37              		@ frame_needed = 0, uses_anonymous_args = 0
  38 0000 F8B5     		push	{r3, r4, r5, r6, r7, lr}
  39              		.cfi_def_cfa_offset 24
  40              		.cfi_offset 3, -24
  41              		.cfi_offset 4, -20
  42              		.cfi_offset 5, -16
  43              		.cfi_offset 6, -12
  44              		.cfi_offset 7, -8
  45              		.cfi_offset 14, -4
  94:main.c        ****     if(is_moving == 1)
  46              		.loc 1 94 0
  47 0002 1B4B     		ldr	r3, .L4+8
  48 0004 1B68     		ldr	r3, [r3]
  49 0006 012B     		cmp	r3, #1
  50 0008 2CD1     		bne	.L1
  95:main.c        ****     {
  96:main.c        ****         error = abs(Count_Master) - abs(Count_Slave);
  51              		.loc 1 96 0
  52 000a 194C     		ldr	r4, .L4+8
  53 000c 6068     		ldr	r0, [r4, #4]
  54 000e 0028     		cmp	r0, #0
  55 0010 B8BF     		it	lt
  56 0012 4042     		rsblt	r0, r0, #0
  57 0014 A368     		ldr	r3, [r4, #8]
  58 0016 002B     		cmp	r3, #0
  59 0018 B8BF     		it	lt
  60 001a 5B42     		rsblt	r3, r3, #0
  61 001c C01A     		subs	r0, r0, r3
  62 001e FFF7FEFF 		bl	__aeabi_i2d
  63              	.LVL0:
  64 0022 C4E90401 		strd	r0, [r4, #16]
  97:main.c        ****     	//accumulated_error = accumulated_error + (error*timer_period);
  98:main.c        ****         //derivative_error = (error - last_error)/timer_period;
  99:main.c        ****         //K_i = 1.2 * K_p / timer_period;
 100:main.c        ****         //K_d = 0.075 * K_p * timer_period;
 101:main.c        ****         //PWM_Slave = 25000 - (K_p*error + K_i*accumulated_error + K_d*derivative_error);
 102:main.c        ****         PWM_Slave = 0.8 * (PWM_Master + K_p*error);
  65              		.loc 1 102 0
  66 0026 134D     		ldr	r5, .L4+12
  67 0028 D5E90023 		ldrd	r2, [r5]
  68 002c FFF7FEFF 		bl	__aeabi_dmul
  69              	.LVL1:
ARM GAS  C:\Users\weiro\AppData\Local\Temp\ccpp9Q4b.s 			page 4


  70 0030 0646     		mov	r6, r0
  71 0032 0F46     		mov	r7, r1
  72 0034 A868     		ldr	r0, [r5, #8]	@ float
  73 0036 FFF7FEFF 		bl	__aeabi_f2d
  74              	.LVL2:
  75 003a 3246     		mov	r2, r6
  76 003c 3B46     		mov	r3, r7
  77 003e FFF7FEFF 		bl	__aeabi_dadd
  78              	.LVL3:
  79 0042 09A3     		adr	r3, .L4
  80 0044 D3E90023 		ldrd	r2, [r3]
  81 0048 FFF7FEFF 		bl	__aeabi_dmul
  82              	.LVL4:
  83 004c FFF7FEFF 		bl	__aeabi_d2f
  84              	.LVL5:
  85 0050 E860     		str	r0, [r5, #12]	@ float
 103:main.c        ****         //if (PWM_Slave>25000)
 104:main.c        ****         //{
 105:main.c        ****         //    PWM_Slave = 23000;
 106:main.c        ****         //}
 107:main.c        ****     
 108:main.c        ****         PWM_Wheels_WriteCompare2(PWM_Slave);
  86              		.loc 1 108 0
  87 0052 FFF7FEFF 		bl	__aeabi_f2uiz
  88              	.LVL6:
  89 0056 80B2     		uxth	r0, r0
  90 0058 FFF7FEFF 		bl	PWM_Wheels_WriteCompare2
  91              	.LVL7:
 109:main.c        ****         last_error = error;
  92              		.loc 1 109 0
  93 005c D4E90423 		ldrd	r2, [r4, #16]
  94 0060 C4E90623 		strd	r2, [r4, #24]
  95              	.L1:
  96 0064 F8BD     		pop	{r3, r4, r5, r6, r7, pc}
  97              	.L5:
  98 0066 00BF     		.align	3
  99              	.L4:
 100 0068 9A999999 		.word	-1717986918
 101 006c 9999E93F 		.word	1072273817
 102 0070 00000000 		.word	.LANCHOR0
 103 0074 00000000 		.word	.LANCHOR1
 104              		.cfi_endproc
 105              	.LFE64:
 106              		.size	Speed_Control, .-Speed_Control
 107              		.global	__aeabi_dcmple
 108              		.global	__aeabi_dcmpge
 109              		.section	.text.ultrasonic_echo,"ax",%progbits
 110              		.align	2
 111              		.global	ultrasonic_echo
 112              		.thumb
 113              		.thumb_func
 114              		.type	ultrasonic_echo, %function
 115              	ultrasonic_echo:
 116              	.LFB65:
 110:main.c        ****     }
 111:main.c        **** 
 112:main.c        ****     //sprintf(string_3, "PWM_Slave: %f\n", PWM_Slave);
ARM GAS  C:\Users\weiro\AppData\Local\Temp\ccpp9Q4b.s 			page 5


 113:main.c        ****     //UART_1_PutString(string_3);
 114:main.c        **** }
 115:main.c        **** 
 116:main.c        **** CY_ISR(ultrasonic_echo)
 117:main.c        **** {
 117              		.loc 1 117 0
 118              		.cfi_startproc
 119              		@ args = 0, pretend = 0, frame = 0
 120              		@ frame_needed = 0, uses_anonymous_args = 0
 121 0000 38B5     		push	{r3, r4, r5, lr}
 122              		.cfi_def_cfa_offset 16
 123              		.cfi_offset 3, -16
 124              		.cfi_offset 4, -12
 125              		.cfi_offset 5, -8
 126              		.cfi_offset 14, -4
 118:main.c        ****     Timer_3_ReadStatusRegister();
 127              		.loc 1 118 0
 128 0002 FFF7FEFF 		bl	Timer_3_ReadStatusRegister
 129              	.LVL8:
 119:main.c        ****     ultrasonic_count = Timer_3_ReadCounter();
 130              		.loc 1 119 0
 131 0006 FFF7FEFF 		bl	Timer_3_ReadCounter
 132              	.LVL9:
 133 000a 2D4C     		ldr	r4, .L22
 134 000c 2062     		str	r0, [r4, #32]
 120:main.c        ****     ultrasonic_measure = (65535-ultrasonic_count)/58;
 135              		.loc 1 120 0
 136 000e C0F57F43 		rsb	r3, r0, #65280
 137 0012 FF33     		adds	r3, r3, #255
 138 0014 2B48     		ldr	r0, .L22+4
 139 0016 80FB0320 		smull	r2, r0, r0, r3
 140 001a 1844     		add	r0, r0, r3
 141 001c DB17     		asrs	r3, r3, #31
 142 001e C3EB6010 		rsb	r0, r3, r0, asr #5
 143 0022 FFF7FEFF 		bl	__aeabi_i2d
 144              	.LVL10:
 145 0026 0246     		mov	r2, r0
 146 0028 0B46     		mov	r3, r1
 147 002a C4E90A23 		strd	r2, [r4, #40]
 121:main.c        ****     sprintf(string_1, "Front dist 1: %lf  \n", ultrasonic_measure);
 148              		.loc 1 121 0
 149 002e 264D     		ldr	r5, .L22+8
 150 0030 2649     		ldr	r1, .L22+12
 151 0032 2846     		mov	r0, r5
 152 0034 FFF7FEFF 		bl	sprintf
 153              	.LVL11:
 122:main.c        ****     UART_2_PutString(string_1);
 154              		.loc 1 122 0
 155 0038 2846     		mov	r0, r5
 156 003a FFF7FEFF 		bl	UART_2_PutString
 157              	.LVL12:
 123:main.c        ****     
 124:main.c        ****     if (echo_select == 0)
 158              		.loc 1 124 0
 159 003e 236B     		ldr	r3, [r4, #48]
 160 0040 2BB9     		cbnz	r3, .L7
 125:main.c        ****     {
ARM GAS  C:\Users\weiro\AppData\Local\Temp\ccpp9Q4b.s 			page 6


 126:main.c        ****         // front 1
 127:main.c        ****         front_measured_1 = ultrasonic_measure;
 161              		.loc 1 127 0
 162 0042 D4E90A01 		ldrd	r0, [r4, #40]
 163 0046 224B     		ldr	r3, .L22+16
 164 0048 C3E90001 		strd	r0, [r3]
 165 004c 18E0     		b	.L8
 166              	.L7:
 128:main.c        ****     }
 129:main.c        ****     else if (echo_select == 1)
 167              		.loc 1 129 0
 168 004e 012B     		cmp	r3, #1
 169 0050 06D1     		bne	.L9
 130:main.c        ****     {
 131:main.c        ****         // front 2
 132:main.c        ****         front_measured_2 = ultrasonic_measure;
 170              		.loc 1 132 0
 171 0052 1B4B     		ldr	r3, .L22
 172 0054 D3E90A01 		ldrd	r0, [r3, #40]
 173 0058 1E4B     		ldr	r3, .L22+20
 174 005a C3E90001 		strd	r0, [r3]
 175 005e 0FE0     		b	.L8
 176              	.L9:
 133:main.c        ****     }
 134:main.c        ****     else if (echo_select == 2)
 177              		.loc 1 134 0
 178 0060 022B     		cmp	r3, #2
 179 0062 05D1     		bne	.L10
 135:main.c        ****     {
 136:main.c        ****         // left
 137:main.c        ****         left_measured = ultrasonic_measure;
 180              		.loc 1 137 0
 181 0064 164B     		ldr	r3, .L22
 182 0066 D3E90A01 		ldrd	r0, [r3, #40]
 183 006a C3E90E01 		strd	r0, [r3, #56]
 184 006e 07E0     		b	.L8
 185              	.L10:
 138:main.c        ****     }
 139:main.c        ****     else if (echo_select == 3)
 186              		.loc 1 139 0
 187 0070 032B     		cmp	r3, #3
 188 0072 05D1     		bne	.L8
 140:main.c        ****     {
 141:main.c        ****         // right
 142:main.c        ****         right_measured = ultrasonic_measure;
 189              		.loc 1 142 0
 190 0074 124B     		ldr	r3, .L22
 191 0076 D3E90A01 		ldrd	r0, [r3, #40]
 192 007a 174B     		ldr	r3, .L22+24
 193 007c C3E90001 		strd	r0, [r3]
 194              	.L8:
 143:main.c        ****     }
 144:main.c        ****     
 145:main.c        ****     if(front_measured_2 <= 5)
 195              		.loc 1 145 0
 196 0080 0022     		movs	r2, #0
 197 0082 164B     		ldr	r3, .L22+28
ARM GAS  C:\Users\weiro\AppData\Local\Temp\ccpp9Q4b.s 			page 7


 198 0084 1349     		ldr	r1, .L22+20
 199 0086 D1E90001 		ldrd	r0, [r1]
 200 008a FFF7FEFF 		bl	__aeabi_dcmple
 201              	.LVL13:
 202 008e 18B1     		cbz	r0, .L19
 146:main.c        ****     {
 147:main.c        ****         wall_detected_10 = 1;
 203              		.loc 1 147 0
 204 0090 0122     		movs	r2, #1
 205 0092 0B4B     		ldr	r3, .L22
 206 0094 1A64     		str	r2, [r3, #64]
 207 0096 02E0     		b	.L13
 208              	.L19:
 148:main.c        ****     }
 149:main.c        ****     else
 150:main.c        ****     {
 151:main.c        ****         wall_detected_10 = 0;
 209              		.loc 1 151 0
 210 0098 0022     		movs	r2, #0
 211 009a 094B     		ldr	r3, .L22
 212 009c 1A64     		str	r2, [r3, #64]
 213              	.L13:
 152:main.c        ****     }
 153:main.c        ****     
 154:main.c        ****     if (left_measured >= 20)
 214              		.loc 1 154 0
 215 009e 0022     		movs	r2, #0
 216 00a0 0F4B     		ldr	r3, .L22+32
 217 00a2 0749     		ldr	r1, .L22
 218 00a4 D1E90E01 		ldrd	r0, [r1, #56]
 219 00a8 FFF7FEFF 		bl	__aeabi_dcmpge
 220              	.LVL14:
 221 00ac 18B1     		cbz	r0, .L20
 155:main.c        ****     {
 156:main.c        ****         slit_detected = 1;
 222              		.loc 1 156 0
 223 00ae 0122     		movs	r2, #1
 224 00b0 034B     		ldr	r3, .L22
 225 00b2 5A64     		str	r2, [r3, #68]
 226 00b4 38BD     		pop	{r3, r4, r5, pc}
 227              	.L20:
 157:main.c        ****     }
 158:main.c        ****     else
 159:main.c        ****     {
 160:main.c        ****         slit_detected = 0;
 228              		.loc 1 160 0
 229 00b6 0022     		movs	r2, #0
 230 00b8 014B     		ldr	r3, .L22
 231 00ba 5A64     		str	r2, [r3, #68]
 232 00bc 38BD     		pop	{r3, r4, r5, pc}
 233              	.L23:
 234 00be 00BF     		.align	2
 235              	.L22:
 236 00c0 00000000 		.word	.LANCHOR0
 237 00c4 09CB3D8D 		.word	-1925330167
 238 00c8 00000000 		.word	string_1
 239 00cc 00000000 		.word	.LC0
ARM GAS  C:\Users\weiro\AppData\Local\Temp\ccpp9Q4b.s 			page 8


 240 00d0 00000000 		.word	front_measured_1
 241 00d4 00000000 		.word	front_measured_2
 242 00d8 00000000 		.word	right_measured
 243 00dc 00001440 		.word	1075052544
 244 00e0 00003440 		.word	1077149696
 245              		.cfi_endproc
 246              	.LFE65:
 247              		.size	ultrasonic_echo, .-ultrasonic_echo
 248              		.section	.text.Color_sensing,"ax",%progbits
 249              		.align	2
 250              		.global	Color_sensing
 251              		.thumb
 252              		.thumb_func
 253              		.type	Color_sensing, %function
 254              	Color_sensing:
 255              	.LFB66:
 161:main.c        ****     }
 162:main.c        **** }
 163:main.c        **** 
 164:main.c        **** CY_ISR(Color_sensing)
 165:main.c        **** {
 256              		.loc 1 165 0
 257              		.cfi_startproc
 258              		@ args = 0, pretend = 0, frame = 0
 259              		@ frame_needed = 0, uses_anonymous_args = 0
 260 0000 08B5     		push	{r3, lr}
 261              		.cfi_def_cfa_offset 8
 262              		.cfi_offset 3, -8
 263              		.cfi_offset 14, -4
 166:main.c        ****     // Ready to do the capture --> to count the pulse
 167:main.c        ****     PWM_ColorSensor_ReadStatusRegister();
 264              		.loc 1 167 0
 265 0002 FFF7FEFF 		bl	PWM_ColorSensor_ReadStatusRegister
 266              	.LVL15:
 168:main.c        ****     compare_ready = 1;
 267              		.loc 1 168 0
 268 0006 0122     		movs	r2, #1
 269 0008 014B     		ldr	r3, .L26
 270 000a 9A64     		str	r2, [r3, #72]
 271 000c 08BD     		pop	{r3, pc}
 272              	.L27:
 273 000e 00BF     		.align	2
 274              	.L26:
 275 0010 00000000 		.word	.LANCHOR0
 276              		.cfi_endproc
 277              	.LFE66:
 278              		.size	Color_sensing, .-Color_sensing
 279              		.section	.text.Bluetooth,"ax",%progbits
 280              		.align	2
 281              		.global	Bluetooth
 282              		.thumb
 283              		.thumb_func
 284              		.type	Bluetooth, %function
 285              	Bluetooth:
 286              	.LFB67:
 169:main.c        **** }
 170:main.c        **** 
ARM GAS  C:\Users\weiro\AppData\Local\Temp\ccpp9Q4b.s 			page 9


 171:main.c        **** CY_ISR(Bluetooth)
 172:main.c        **** {
 287              		.loc 1 172 0
 288              		.cfi_startproc
 289              		@ args = 0, pretend = 0, frame = 0
 290              		@ frame_needed = 0, uses_anonymous_args = 0
 291 0000 08B5     		push	{r3, lr}
 292              		.cfi_def_cfa_offset 8
 293              		.cfi_offset 3, -8
 294              		.cfi_offset 14, -4
 173:main.c        ****     Rx = UART_1_GetChar();
 295              		.loc 1 173 0
 296 0002 FFF7FEFF 		bl	UART_1_GetChar
 297              	.LVL16:
 298 0006 094B     		ldr	r3, .L32
 299 0008 1870     		strb	r0, [r3]
 174:main.c        ****     if (Rx != '!')
 300              		.loc 1 174 0
 301 000a 2128     		cmp	r0, #33
 302 000c 06D0     		beq	.L29
 175:main.c        ****     {
 176:main.c        ****         string_bt[i] = Rx;
 303              		.loc 1 176 0
 304 000e 084A     		ldr	r2, .L32+4
 305 0010 D36C     		ldr	r3, [r2, #76]
 306 0012 0849     		ldr	r1, .L32+8
 307 0014 C854     		strb	r0, [r1, r3]
 177:main.c        ****         i++;
 308              		.loc 1 177 0
 309 0016 0133     		adds	r3, r3, #1
 310 0018 D364     		str	r3, [r2, #76]
 311 001a 08BD     		pop	{r3, pc}
 312              	.L29:
 178:main.c        ****     }
 179:main.c        ****     else
 180:main.c        ****     {
 181:main.c        ****         string_bt[i] = '\0'; // terminate
 313              		.loc 1 181 0
 314 001c 044B     		ldr	r3, .L32+4
 315 001e DA6C     		ldr	r2, [r3, #76]
 316 0020 0020     		movs	r0, #0
 317 0022 0449     		ldr	r1, .L32+8
 318 0024 8854     		strb	r0, [r1, r2]
 182:main.c        ****         stop_bt = 1;
 319              		.loc 1 182 0
 320 0026 0122     		movs	r2, #1
 321 0028 1A65     		str	r2, [r3, #80]
 322 002a 08BD     		pop	{r3, pc}
 323              	.L33:
 324              		.align	2
 325              	.L32:
 326 002c 00000000 		.word	Rx
 327 0030 00000000 		.word	.LANCHOR0
 328 0034 00000000 		.word	string_bt
 329              		.cfi_endproc
 330              	.LFE67:
 331              		.size	Bluetooth, .-Bluetooth
ARM GAS  C:\Users\weiro\AppData\Local\Temp\ccpp9Q4b.s 			page 10


 332              		.global	__aeabi_ddiv
 333              		.global	__aeabi_dsub
 334              		.global	__aeabi_dcmpgt
 335              		.global	__aeabi_d2iz
 336              		.global	__aeabi_dcmplt
 337              		.section	.text.Gyroscope,"ax",%progbits
 338              		.align	2
 339              		.global	Gyroscope
 340              		.thumb
 341              		.thumb_func
 342              		.type	Gyroscope, %function
 343              	Gyroscope:
 344              	.LFB68:
 183:main.c        ****     }
 184:main.c        **** }
 185:main.c        **** 
 186:main.c        **** CY_ISR(Gyroscope)
 187:main.c        **** {
 345              		.loc 1 187 0
 346              		.cfi_startproc
 347              		@ args = 0, pretend = 0, frame = 0
 348              		@ frame_needed = 0, uses_anonymous_args = 0
 349 0000 2DE9F041 		push	{r4, r5, r6, r7, r8, lr}
 350              		.cfi_def_cfa_offset 24
 351              		.cfi_offset 4, -24
 352              		.cfi_offset 5, -20
 353              		.cfi_offset 6, -16
 354              		.cfi_offset 7, -12
 355              		.cfi_offset 8, -8
 356              		.cfi_offset 14, -4
 188:main.c        ****     Timer_2_ReadStatusRegister();
 357              		.loc 1 188 0
 358 0004 FFF7FEFF 		bl	Timer_2_ReadStatusRegister
 359              	.LVL17:
 189:main.c        ****     //Timer_2_ReadStatusRegister();
 190:main.c        ****     
 191:main.c        ****     //Writing the register number from where the read operation starts
 192:main.c        ****     I2C_1_MasterSendStart(MPU6050,0); //Steps 1-2
 360              		.loc 1 192 0
 361 0008 0021     		movs	r1, #0
 362 000a 6820     		movs	r0, #104
 363 000c FFF7FEFF 		bl	I2C_1_MasterSendStart
 364              	.LVL18:
 193:main.c        ****     I2C_1_MasterWriteByte(0x43); //Step 3
 365              		.loc 1 193 0
 366 0010 4320     		movs	r0, #67
 367 0012 FFF7FEFF 		bl	I2C_1_MasterWriteByte
 368              	.LVL19:
 194:main.c        ****     I2C_1_MasterSendStop(); //Step 4
 369              		.loc 1 194 0
 370 0016 FFF7FEFF 		bl	I2C_1_MasterSendStop
 371              	.LVL20:
 195:main.c        ****     CyDelay(1);
 372              		.loc 1 195 0
 373 001a 0120     		movs	r0, #1
 374 001c FFF7FEFF 		bl	CyDelay
 375              	.LVL21:
ARM GAS  C:\Users\weiro\AppData\Local\Temp\ccpp9Q4b.s 			page 11


 196:main.c        ****     
 197:main.c        ****     //Read data starting from register 0x43
 198:main.c        ****     I2C_1_MasterSendStart(MPU6050,1); //Steps 5-6
 376              		.loc 1 198 0
 377 0020 0121     		movs	r1, #1
 378 0022 6820     		movs	r0, #104
 379 0024 FFF7FEFF 		bl	I2C_1_MasterSendStart
 380              	.LVL22:
 199:main.c        ****     
 200:main.c        ****     //Step 7
 201:main.c        ****     array_1[0] = I2C_1_MasterReadByte(I2C_1_ACK_DATA); //GYRO_XOUT_H
 381              		.loc 1 201 0
 382 0028 0120     		movs	r0, #1
 383 002a FFF7FEFF 		bl	I2C_1_MasterReadByte
 384              	.LVL23:
 385 002e 844C     		ldr	r4, .L52+16
 386 0030 84F85400 		strb	r0, [r4, #84]
 202:main.c        ****     array_1[1] = I2C_1_MasterReadByte(I2C_1_ACK_DATA); //GYRO_XOUT_L
 387              		.loc 1 202 0
 388 0034 0120     		movs	r0, #1
 389 0036 FFF7FEFF 		bl	I2C_1_MasterReadByte
 390              	.LVL24:
 391 003a 84F85500 		strb	r0, [r4, #85]
 203:main.c        ****     array_1[2] = I2C_1_MasterReadByte(I2C_1_ACK_DATA); //GYRO_YOUT_H
 392              		.loc 1 203 0
 393 003e 0120     		movs	r0, #1
 394 0040 FFF7FEFF 		bl	I2C_1_MasterReadByte
 395              	.LVL25:
 396 0044 84F85600 		strb	r0, [r4, #86]
 204:main.c        ****     array_1[3] = I2C_1_MasterReadByte(I2C_1_ACK_DATA); //GYRO_YOUT_L
 397              		.loc 1 204 0
 398 0048 0120     		movs	r0, #1
 399 004a FFF7FEFF 		bl	I2C_1_MasterReadByte
 400              	.LVL26:
 401 004e 84F85700 		strb	r0, [r4, #87]
 205:main.c        ****     array_1[4] = I2C_1_MasterReadByte(I2C_1_ACK_DATA); //GYRO_ZOUT_H
 402              		.loc 1 205 0
 403 0052 0120     		movs	r0, #1
 404 0054 FFF7FEFF 		bl	I2C_1_MasterReadByte
 405              	.LVL27:
 406 0058 84F85800 		strb	r0, [r4, #88]
 206:main.c        ****     array_1[5] = I2C_1_MasterReadByte(I2C_1_NAK_DATA); //GYRO_ZOUT_L
 407              		.loc 1 206 0
 408 005c 0020     		movs	r0, #0
 409 005e FFF7FEFF 		bl	I2C_1_MasterReadByte
 410              	.LVL28:
 411 0062 84F85900 		strb	r0, [r4, #89]
 207:main.c        ****     
 208:main.c        ****     I2C_1_MasterSendStop(); //Step 8
 412              		.loc 1 208 0
 413 0066 FFF7FEFF 		bl	I2C_1_MasterSendStop
 414              	.LVL29:
 209:main.c        ****     CyDelay(1);
 415              		.loc 1 209 0
 416 006a 0120     		movs	r0, #1
 417 006c FFF7FEFF 		bl	CyDelay
 418              	.LVL30:
ARM GAS  C:\Users\weiro\AppData\Local\Temp\ccpp9Q4b.s 			page 12


 210:main.c        ****     
 211:main.c        ****     temp = array_1[4] << 8 | array_1[5];
 419              		.loc 1 211 0
 420 0070 94F85800 		ldrb	r0, [r4, #88]	@ zero_extendqisi2
 421 0074 94F85930 		ldrb	r3, [r4, #89]	@ zero_extendqisi2
 422 0078 43EA0023 		orr	r3, r3, r0, lsl #8
 423 007c 1BB2     		sxth	r3, r3
 424 007e A4F85A30 		strh	r3, [r4, #90]	@ movhi
 212:main.c        ****         
 213:main.c        ****     if (cal == 1 && count < 20) //while calibrating
 425              		.loc 1 213 0
 426 0082 704A     		ldr	r2, .L52+20
 427 0084 1269     		ldr	r2, [r2, #16]
 428 0086 012A     		cmp	r2, #1
 429 0088 11D1     		bne	.L35
 430              		.loc 1 213 0 is_stmt 0 discriminator 1
 431 008a E16D     		ldr	r1, [r4, #92]
 432 008c 1329     		cmp	r1, #19
 433 008e 0EDC     		bgt	.L35
 214:main.c        ****     {
 215:main.c        ****         UART_1_PutString("Calibrating\n");
 434              		.loc 1 215 0 is_stmt 1
 435 0090 6D48     		ldr	r0, .L52+24
 436 0092 FFF7FEFF 		bl	UART_1_PutString
 437              	.LVL31:
 216:main.c        ****         error_gyro += temp;
 438              		.loc 1 216 0
 439 0096 B4F86010 		ldrh	r1, [r4, #96]
 440 009a B4F85A20 		ldrh	r2, [r4, #90]
 441 009e 0A44     		add	r2, r2, r1
 442 00a0 A4F86020 		strh	r2, [r4, #96]	@ movhi
 217:main.c        ****         count++;
 443              		.loc 1 217 0
 444 00a4 E26D     		ldr	r2, [r4, #92]
 445 00a6 0132     		adds	r2, r2, #1
 446 00a8 E265     		str	r2, [r4, #92]
 447 00aa BDE8F081 		pop	{r4, r5, r6, r7, r8, pc}
 448              	.L35:
 218:main.c        ****     }
 219:main.c        ****     else if (cal == 1 && count == 20) //end of calibration and computation of average error
 449              		.loc 1 219 0
 450 00ae 012A     		cmp	r2, #1
 451 00b0 13D1     		bne	.L37
 452              		.loc 1 219 0 is_stmt 0 discriminator 1
 453 00b2 634A     		ldr	r2, .L52+16
 454 00b4 D26D     		ldr	r2, [r2, #92]
 455 00b6 142A     		cmp	r2, #20
 456 00b8 0FD1     		bne	.L37
 220:main.c        ****     {
 221:main.c        ****         error_gyro_avg = error_gyro/20;
 457              		.loc 1 221 0 is_stmt 1
 458 00ba 6149     		ldr	r1, .L52+16
 459 00bc B1F96030 		ldrsh	r3, [r1, #96]
 460 00c0 624A     		ldr	r2, .L52+28
 461 00c2 82FB0302 		smull	r0, r2, r2, r3
 462 00c6 DB17     		asrs	r3, r3, #31
 463 00c8 C3EBE203 		rsb	r3, r3, r2, asr #3
ARM GAS  C:\Users\weiro\AppData\Local\Temp\ccpp9Q4b.s 			page 13


 464 00cc A1F86230 		strh	r3, [r1, #98]	@ movhi
 222:main.c        ****         cal = 0;
 465              		.loc 1 222 0
 466 00d0 0022     		movs	r2, #0
 467 00d2 5C4B     		ldr	r3, .L52+20
 468 00d4 1A61     		str	r2, [r3, #16]
 469 00d6 BDE8F081 		pop	{r4, r5, r6, r7, r8, pc}
 470              	.L37:
 223:main.c        ****     }
 224:main.c        ****     else //after calibration and with average error computed
 225:main.c        ****     {
 226:main.c        ****         temp = temp - error_gyro_avg;
 471              		.loc 1 226 0
 472 00da 594C     		ldr	r4, .L52+16
 473 00dc B4F86200 		ldrh	r0, [r4, #98]
 474 00e0 181A     		subs	r0, r3, r0
 475 00e2 00B2     		sxth	r0, r0
 476 00e4 A4F85A00 		strh	r0, [r4, #90]	@ movhi
 227:main.c        ****         yaw_rate = temp/65.535;
 477              		.loc 1 227 0
 478 00e8 FFF7FEFF 		bl	__aeabi_i2d
 479              	.LVL32:
 480 00ec 50A3     		adr	r3, .L52
 481 00ee D3E90023 		ldrd	r2, [r3]
 482 00f2 FFF7FEFF 		bl	__aeabi_ddiv
 483              	.LVL33:
 484 00f6 0646     		mov	r6, r0
 485 00f8 0F46     		mov	r7, r1
 486 00fa C4E91A67 		strd	r6, [r4, #104]
 228:main.c        **** 
 229:main.c        ****         current_reading = yaw_rate;   
 487              		.loc 1 229 0
 488 00fe C4E91C67 		strd	r6, [r4, #112]
 230:main.c        ****        
 231:main.c        ****         if (fabs(current_reading - previous_reading) > threshold)
 489              		.loc 1 231 0
 490 0102 04F17805 		add	r5, r4, #120
 491 0106 D5E90045 		ldrd	r4, [r5]
 492 010a 2246     		mov	r2, r4
 493 010c 2B46     		mov	r3, r5
 494 010e FFF7FEFF 		bl	__aeabi_dsub
 495              	.LVL34:
 496 0112 8446     		mov	ip, r0
 497 0114 8E46     		mov	lr, r1
 498 0116 4B4B     		ldr	r3, .L52+20
 499 0118 D3E90623 		ldrd	r2, [r3, #24]
 500 011c 6046     		mov	r0, ip
 501 011e 2EF00041 		bic	r1, lr, #-2147483648
 502 0122 FFF7FEFF 		bl	__aeabi_dcmpgt
 503              	.LVL35:
 504 0126 0028     		cmp	r0, #0
 505 0128 70D0     		beq	.L49
 232:main.c        ****         {
 233:main.c        ****             //integration of yaw_rate
 234:main.c        ****             yaw_angle = yaw_angle + 0.5*0.1*(previous_reading + current_reading);
 506              		.loc 1 234 0
 507 012a 2246     		mov	r2, r4
ARM GAS  C:\Users\weiro\AppData\Local\Temp\ccpp9Q4b.s 			page 14


 508 012c 2B46     		mov	r3, r5
 509 012e 3046     		mov	r0, r6
 510 0130 3946     		mov	r1, r7
 511 0132 FFF7FEFF 		bl	__aeabi_dadd
 512              	.LVL36:
 513 0136 40A3     		adr	r3, .L52+8
 514 0138 D3E90023 		ldrd	r2, [r3]
 515 013c FFF7FEFF 		bl	__aeabi_dmul
 516              	.LVL37:
 517 0140 DFF8FC80 		ldr	r8, .L52+16
 518 0144 D8E92023 		ldrd	r2, [r8, #128]
 519 0148 FFF7FEFF 		bl	__aeabi_dadd
 520              	.LVL38:
 521 014c 0546     		mov	r5, r0
 522 014e 0C46     		mov	r4, r1
 523 0150 0246     		mov	r2, r0
 524 0152 0B46     		mov	r3, r1
 525 0154 C8E92023 		strd	r2, [r8, #128]
 235:main.c        ****             previous_reading = current_reading;
 526              		.loc 1 235 0
 527 0158 C8E91E67 		strd	r6, [r8, #120]
 236:main.c        ****             
 237:main.c        ****             //counting cycles beyond +360 or -360
 238:main.c        ****             cycles = fabs(yaw_angle)/360;
 528              		.loc 1 238 0
 529 015c 0022     		movs	r2, #0
 530 015e 3C4B     		ldr	r3, .L52+32
 531 0160 2846     		mov	r0, r5
 532 0162 24F00041 		bic	r1, r4, #-2147483648
 533 0166 FFF7FEFF 		bl	__aeabi_ddiv
 534              	.LVL39:
 535 016a FFF7FEFF 		bl	__aeabi_d2iz
 536              	.LVL40:
 537 016e 0646     		mov	r6, r0
 538 0170 C8F88800 		str	r0, [r8, #136]
 239:main.c        ****             
 240:main.c        ****             if (cycles > 0)
 539              		.loc 1 240 0
 540 0174 0028     		cmp	r0, #0
 541 0176 23DD     		ble	.L40
 241:main.c        ****             {
 242:main.c        ****                 if (yaw_angle < 0)
 542              		.loc 1 242 0
 543 0178 0022     		movs	r2, #0
 544 017a 0023     		movs	r3, #0
 545 017c 2846     		mov	r0, r5
 546 017e 2146     		mov	r1, r4
 547 0180 FFF7FEFF 		bl	__aeabi_dcmplt
 548              	.LVL41:
 549 0184 60B1     		cbz	r0, .L50
 243:main.c        ****                 {
 244:main.c        ****                     heading = yaw_angle + cycles*360;
 550              		.loc 1 244 0
 551 0186 4FF4B470 		mov	r0, #360
 552 018a 00FB06F0 		mul	r0, r0, r6
 553 018e FFF7FEFF 		bl	__aeabi_i2d
 554              	.LVL42:
ARM GAS  C:\Users\weiro\AppData\Local\Temp\ccpp9Q4b.s 			page 15


 555 0192 2A46     		mov	r2, r5
 556 0194 2346     		mov	r3, r4
 557 0196 FFF7FEFF 		bl	__aeabi_dadd
 558              	.LVL43:
 559 019a C8E92401 		strd	r0, [r8, #144]
 560 019e 14E0     		b	.L43
 561              	.L50:
 245:main.c        ****                 }
 246:main.c        ****                 else
 247:main.c        ****                 {
 248:main.c        ****                     heading = yaw_angle - cycles*360;
 562              		.loc 1 248 0
 563 01a0 4FF4B470 		mov	r0, #360
 564 01a4 00FB06F0 		mul	r0, r0, r6
 565 01a8 FFF7FEFF 		bl	__aeabi_i2d
 566              	.LVL44:
 567 01ac 0246     		mov	r2, r0
 568 01ae 0B46     		mov	r3, r1
 569 01b0 2846     		mov	r0, r5
 570 01b2 2146     		mov	r1, r4
 571 01b4 FFF7FEFF 		bl	__aeabi_dsub
 572              	.LVL45:
 573 01b8 214B     		ldr	r3, .L52+16
 574 01ba C3E92401 		strd	r0, [r3, #144]
 575 01be 04E0     		b	.L43
 576              	.L40:
 249:main.c        ****                 }
 250:main.c        ****             }
 251:main.c        ****             else
 252:main.c        ****             {
 253:main.c        ****                 heading = yaw_angle;
 577              		.loc 1 253 0
 578 01c0 2A46     		mov	r2, r5
 579 01c2 2346     		mov	r3, r4
 580 01c4 1E49     		ldr	r1, .L52+16
 581 01c6 C1E92423 		strd	r2, [r1, #144]
 582              	.L43:
 254:main.c        ****             }
 255:main.c        ****             
 256:main.c        ****             //wrapping the heading within 0 - 360 degrees
 257:main.c        ****             if (heading < 0)
 583              		.loc 1 257 0
 584 01ca 1D4B     		ldr	r3, .L52+16
 585 01cc D3E92445 		ldrd	r4, [r3, #144]
 586 01d0 0022     		movs	r2, #0
 587 01d2 0023     		movs	r3, #0
 588 01d4 2046     		mov	r0, r4
 589 01d6 2946     		mov	r1, r5
 590 01d8 FFF7FEFF 		bl	__aeabi_dcmplt
 591              	.LVL46:
 592 01dc 40B1     		cbz	r0, .L44
 258:main.c        ****             {
 259:main.c        ****                 heading = heading + 360;
 593              		.loc 1 259 0
 594 01de 0022     		movs	r2, #0
 595 01e0 1B4B     		ldr	r3, .L52+32
 596 01e2 2046     		mov	r0, r4
ARM GAS  C:\Users\weiro\AppData\Local\Temp\ccpp9Q4b.s 			page 16


 597 01e4 2946     		mov	r1, r5
 598 01e6 FFF7FEFF 		bl	__aeabi_dadd
 599              	.LVL47:
 600 01ea 154B     		ldr	r3, .L52+16
 601 01ec C3E92401 		strd	r0, [r3, #144]
 602              	.L44:
 260:main.c        ****             }
 261:main.c        ****             
 262:main.c        ****             sprintf(string_gyro,"Heading: %lf\n",heading);
 603              		.loc 1 262 0
 604 01f0 134B     		ldr	r3, .L52+16
 605 01f2 03F19804 		add	r4, r3, #152
 606 01f6 D3E92423 		ldrd	r2, [r3, #144]
 607 01fa 1649     		ldr	r1, .L52+36
 608 01fc 2046     		mov	r0, r4
 609 01fe FFF7FEFF 		bl	sprintf
 610              	.LVL48:
 263:main.c        ****             UART_1_PutString(string_gyro);
 611              		.loc 1 263 0
 612 0202 2046     		mov	r0, r4
 613 0204 FFF7FEFF 		bl	UART_1_PutString
 614              	.LVL49:
 615 0208 BDE8F081 		pop	{r4, r5, r6, r7, r8, pc}
 616              	.L49:
 264:main.c        ****         }
 265:main.c        ****         else
 266:main.c        ****         {
 267:main.c        ****             previous_reading = current_reading;
 617              		.loc 1 267 0
 618 020c 0C4B     		ldr	r3, .L52+16
 619 020e C3E91E67 		strd	r6, [r3, #120]
 268:main.c        ****             sprintf(string_gyro,"Heading: %lf\n",heading);
 620              		.loc 1 268 0
 621 0212 03F19804 		add	r4, r3, #152
 622 0216 D3E92423 		ldrd	r2, [r3, #144]
 623 021a 0E49     		ldr	r1, .L52+36
 624 021c 2046     		mov	r0, r4
 625 021e FFF7FEFF 		bl	sprintf
 626              	.LVL50:
 269:main.c        ****             UART_1_PutString(string_gyro);
 627              		.loc 1 269 0
 628 0222 2046     		mov	r0, r4
 629 0224 FFF7FEFF 		bl	UART_1_PutString
 630              	.LVL51:
 631 0228 BDE8F081 		pop	{r4, r5, r6, r7, r8, pc}
 632              	.L53:
 633 022c AFF30080 		.align	3
 634              	.L52:
 635 0230 0AD7A370 		.word	1889785610
 636 0234 3D625040 		.word	1079009853
 637 0238 9A999999 		.word	-1717986918
 638 023c 9999A93F 		.word	1068079513
 639 0240 00000000 		.word	.LANCHOR0
 640 0244 00000000 		.word	.LANCHOR1
 641 0248 18000000 		.word	.LC1
 642 024c 67666666 		.word	1717986919
 643 0250 00807640 		.word	1081507840
ARM GAS  C:\Users\weiro\AppData\Local\Temp\ccpp9Q4b.s 			page 17


 644 0254 28000000 		.word	.LC2
 645              		.cfi_endproc
 646              	.LFE68:
 647              		.size	Gyroscope, .-Gyroscope
 648              		.section	.text.stop,"ax",%progbits
 649              		.align	2
 650              		.global	stop
 651              		.thumb
 652              		.thumb_func
 653              		.type	stop, %function
 654              	stop:
 655              	.LFB69:
 270:main.c        ****         }
 271:main.c        ****             
 272:main.c        ****     }
 273:main.c        **** }
 274:main.c        **** 
 275:main.c        **** void stop()
 276:main.c        **** {
 656              		.loc 1 276 0
 657              		.cfi_startproc
 658              		@ args = 0, pretend = 0, frame = 0
 659              		@ frame_needed = 0, uses_anonymous_args = 0
 660 0000 10B5     		push	{r4, lr}
 661              		.cfi_def_cfa_offset 8
 662              		.cfi_offset 4, -8
 663              		.cfi_offset 14, -4
 277:main.c        ****     is_moving = 0;
 664              		.loc 1 277 0
 665 0002 0024     		movs	r4, #0
 666 0004 074B     		ldr	r3, .L56
 667 0006 1C60     		str	r4, [r3]
 278:main.c        ****     Motor_1_IN_1_Write(0);
 668              		.loc 1 278 0
 669 0008 2046     		mov	r0, r4
 670 000a FFF7FEFF 		bl	Motor_1_IN_1_Write
 671              	.LVL52:
 279:main.c        ****     Motor_1_IN_2_Write(0);
 672              		.loc 1 279 0
 673 000e 2046     		mov	r0, r4
 674 0010 FFF7FEFF 		bl	Motor_1_IN_2_Write
 675              	.LVL53:
 280:main.c        ****     Motor_2_IN_3_Write(0);
 676              		.loc 1 280 0
 677 0014 2046     		mov	r0, r4
 678 0016 FFF7FEFF 		bl	Motor_2_IN_3_Write
 679              	.LVL54:
 281:main.c        ****     Motor_2_IN_4_Write(0);
 680              		.loc 1 281 0
 681 001a 2046     		mov	r0, r4
 682 001c FFF7FEFF 		bl	Motor_2_IN_4_Write
 683              	.LVL55:
 684 0020 10BD     		pop	{r4, pc}
 685              	.L57:
 686 0022 00BF     		.align	2
 687              	.L56:
 688 0024 00000000 		.word	.LANCHOR0
ARM GAS  C:\Users\weiro\AppData\Local\Temp\ccpp9Q4b.s 			page 18


 689              		.cfi_endproc
 690              	.LFE69:
 691              		.size	stop, .-stop
 692              		.section	.text.forward,"ax",%progbits
 693              		.align	2
 694              		.global	forward
 695              		.thumb
 696              		.thumb_func
 697              		.type	forward, %function
 698              	forward:
 699              	.LFB70:
 282:main.c        **** }
 283:main.c        **** 
 284:main.c        **** void forward()
 285:main.c        **** {
 700              		.loc 1 285 0
 701              		.cfi_startproc
 702              		@ args = 0, pretend = 0, frame = 0
 703              		@ frame_needed = 0, uses_anonymous_args = 0
 704 0000 10B5     		push	{r4, lr}
 705              		.cfi_def_cfa_offset 8
 706              		.cfi_offset 4, -8
 707              		.cfi_offset 14, -4
 286:main.c        ****     is_moving = 1;
 708              		.loc 1 286 0
 709 0002 0124     		movs	r4, #1
 710 0004 074B     		ldr	r3, .L60
 711 0006 1C60     		str	r4, [r3]
 287:main.c        ****     Motor_1_IN_1_Write(0);
 712              		.loc 1 287 0
 713 0008 0020     		movs	r0, #0
 714 000a FFF7FEFF 		bl	Motor_1_IN_1_Write
 715              	.LVL56:
 288:main.c        ****     Motor_1_IN_2_Write(1);
 716              		.loc 1 288 0
 717 000e 2046     		mov	r0, r4
 718 0010 FFF7FEFF 		bl	Motor_1_IN_2_Write
 719              	.LVL57:
 289:main.c        ****     Motor_2_IN_3_Write(0);
 720              		.loc 1 289 0
 721 0014 0020     		movs	r0, #0
 722 0016 FFF7FEFF 		bl	Motor_2_IN_3_Write
 723              	.LVL58:
 290:main.c        ****     Motor_2_IN_4_Write(1);
 724              		.loc 1 290 0
 725 001a 2046     		mov	r0, r4
 726 001c FFF7FEFF 		bl	Motor_2_IN_4_Write
 727              	.LVL59:
 728 0020 10BD     		pop	{r4, pc}
 729              	.L61:
 730 0022 00BF     		.align	2
 731              	.L60:
 732 0024 00000000 		.word	.LANCHOR0
 733              		.cfi_endproc
 734              	.LFE70:
 735              		.size	forward, .-forward
 736              		.section	.text.reverse,"ax",%progbits
ARM GAS  C:\Users\weiro\AppData\Local\Temp\ccpp9Q4b.s 			page 19


 737              		.align	2
 738              		.global	reverse
 739              		.thumb
 740              		.thumb_func
 741              		.type	reverse, %function
 742              	reverse:
 743              	.LFB71:
 291:main.c        **** }
 292:main.c        **** 
 293:main.c        **** void reverse()
 294:main.c        **** {
 744              		.loc 1 294 0
 745              		.cfi_startproc
 746              		@ args = 0, pretend = 0, frame = 0
 747              		@ frame_needed = 0, uses_anonymous_args = 0
 748 0000 10B5     		push	{r4, lr}
 749              		.cfi_def_cfa_offset 8
 750              		.cfi_offset 4, -8
 751              		.cfi_offset 14, -4
 295:main.c        ****     is_moving = 1;
 752              		.loc 1 295 0
 753 0002 0124     		movs	r4, #1
 754 0004 074B     		ldr	r3, .L64
 755 0006 1C60     		str	r4, [r3]
 296:main.c        ****     Motor_1_IN_1_Write(1);
 756              		.loc 1 296 0
 757 0008 2046     		mov	r0, r4
 758 000a FFF7FEFF 		bl	Motor_1_IN_1_Write
 759              	.LVL60:
 297:main.c        ****     Motor_1_IN_2_Write(0);
 760              		.loc 1 297 0
 761 000e 0020     		movs	r0, #0
 762 0010 FFF7FEFF 		bl	Motor_1_IN_2_Write
 763              	.LVL61:
 298:main.c        ****     Motor_2_IN_3_Write(1);
 764              		.loc 1 298 0
 765 0014 2046     		mov	r0, r4
 766 0016 FFF7FEFF 		bl	Motor_2_IN_3_Write
 767              	.LVL62:
 299:main.c        ****     Motor_2_IN_4_Write(0);
 768              		.loc 1 299 0
 769 001a 0020     		movs	r0, #0
 770 001c FFF7FEFF 		bl	Motor_2_IN_4_Write
 771              	.LVL63:
 772 0020 10BD     		pop	{r4, pc}
 773              	.L65:
 774 0022 00BF     		.align	2
 775              	.L64:
 776 0024 00000000 		.word	.LANCHOR0
 777              		.cfi_endproc
 778              	.LFE71:
 779              		.size	reverse, .-reverse
 780              		.section	.text.turn_anticlockwise,"ax",%progbits
 781              		.align	2
 782              		.global	turn_anticlockwise
 783              		.thumb
 784              		.thumb_func
ARM GAS  C:\Users\weiro\AppData\Local\Temp\ccpp9Q4b.s 			page 20


 785              		.type	turn_anticlockwise, %function
 786              	turn_anticlockwise:
 787              	.LFB72:
 300:main.c        **** }
 301:main.c        **** 
 302:main.c        **** void turn_anticlockwise()
 303:main.c        **** {
 788              		.loc 1 303 0
 789              		.cfi_startproc
 790              		@ args = 0, pretend = 0, frame = 0
 791              		@ frame_needed = 0, uses_anonymous_args = 0
 792 0000 10B5     		push	{r4, lr}
 793              		.cfi_def_cfa_offset 8
 794              		.cfi_offset 4, -8
 795              		.cfi_offset 14, -4
 304:main.c        ****     is_moving = 1;
 796              		.loc 1 304 0
 797 0002 0124     		movs	r4, #1
 798 0004 074B     		ldr	r3, .L68
 799 0006 1C60     		str	r4, [r3]
 305:main.c        ****     Motor_1_IN_1_Write(0);
 800              		.loc 1 305 0
 801 0008 0020     		movs	r0, #0
 802 000a FFF7FEFF 		bl	Motor_1_IN_1_Write
 803              	.LVL64:
 306:main.c        ****     Motor_1_IN_2_Write(1);
 804              		.loc 1 306 0
 805 000e 2046     		mov	r0, r4
 806 0010 FFF7FEFF 		bl	Motor_1_IN_2_Write
 807              	.LVL65:
 307:main.c        ****     Motor_2_IN_3_Write(1);
 808              		.loc 1 307 0
 809 0014 2046     		mov	r0, r4
 810 0016 FFF7FEFF 		bl	Motor_2_IN_3_Write
 811              	.LVL66:
 308:main.c        ****     Motor_2_IN_4_Write(0);
 812              		.loc 1 308 0
 813 001a 0020     		movs	r0, #0
 814 001c FFF7FEFF 		bl	Motor_2_IN_4_Write
 815              	.LVL67:
 816 0020 10BD     		pop	{r4, pc}
 817              	.L69:
 818 0022 00BF     		.align	2
 819              	.L68:
 820 0024 00000000 		.word	.LANCHOR0
 821              		.cfi_endproc
 822              	.LFE72:
 823              		.size	turn_anticlockwise, .-turn_anticlockwise
 824              		.section	.text.turn_clockwise,"ax",%progbits
 825              		.align	2
 826              		.global	turn_clockwise
 827              		.thumb
 828              		.thumb_func
 829              		.type	turn_clockwise, %function
 830              	turn_clockwise:
 831              	.LFB73:
 309:main.c        **** }
ARM GAS  C:\Users\weiro\AppData\Local\Temp\ccpp9Q4b.s 			page 21


 310:main.c        **** 
 311:main.c        **** void turn_clockwise()
 312:main.c        **** {
 832              		.loc 1 312 0
 833              		.cfi_startproc
 834              		@ args = 0, pretend = 0, frame = 0
 835              		@ frame_needed = 0, uses_anonymous_args = 0
 836 0000 10B5     		push	{r4, lr}
 837              		.cfi_def_cfa_offset 8
 838              		.cfi_offset 4, -8
 839              		.cfi_offset 14, -4
 313:main.c        ****     is_moving = 1;
 840              		.loc 1 313 0
 841 0002 0124     		movs	r4, #1
 842 0004 074B     		ldr	r3, .L72
 843 0006 1C60     		str	r4, [r3]
 314:main.c        ****     Motor_1_IN_1_Write(1);
 844              		.loc 1 314 0
 845 0008 2046     		mov	r0, r4
 846 000a FFF7FEFF 		bl	Motor_1_IN_1_Write
 847              	.LVL68:
 315:main.c        ****     Motor_1_IN_2_Write(0);
 848              		.loc 1 315 0
 849 000e 0020     		movs	r0, #0
 850 0010 FFF7FEFF 		bl	Motor_1_IN_2_Write
 851              	.LVL69:
 316:main.c        ****     Motor_2_IN_3_Write(0);
 852              		.loc 1 316 0
 853 0014 0020     		movs	r0, #0
 854 0016 FFF7FEFF 		bl	Motor_2_IN_3_Write
 855              	.LVL70:
 317:main.c        ****     Motor_2_IN_4_Write(1);
 856              		.loc 1 317 0
 857 001a 2046     		mov	r0, r4
 858 001c FFF7FEFF 		bl	Motor_2_IN_4_Write
 859              	.LVL71:
 860 0020 10BD     		pop	{r4, pc}
 861              	.L73:
 862 0022 00BF     		.align	2
 863              	.L72:
 864 0024 00000000 		.word	.LANCHOR0
 865              		.cfi_endproc
 866              	.LFE73:
 867              		.size	turn_clockwise, .-turn_clockwise
 868              		.section	.text.reset_count,"ax",%progbits
 869              		.align	2
 870              		.global	reset_count
 871              		.thumb
 872              		.thumb_func
 873              		.type	reset_count, %function
 874              	reset_count:
 875              	.LFB74:
 318:main.c        **** }
 319:main.c        **** 
 320:main.c        **** void reset_count()
 321:main.c        **** {
 876              		.loc 1 321 0
ARM GAS  C:\Users\weiro\AppData\Local\Temp\ccpp9Q4b.s 			page 22


 877              		.cfi_startproc
 878              		@ args = 0, pretend = 0, frame = 0
 879              		@ frame_needed = 0, uses_anonymous_args = 0
 880 0000 08B5     		push	{r3, lr}
 881              		.cfi_def_cfa_offset 8
 882              		.cfi_offset 3, -8
 883              		.cfi_offset 14, -4
 322:main.c        ****     QuadDec_1_SetCounter(0);
 884              		.loc 1 322 0
 885 0002 0020     		movs	r0, #0
 886 0004 FFF7FEFF 		bl	QuadDec_1_SetCounter
 887              	.LVL72:
 323:main.c        ****     QuadDec_2_SetCounter(0);
 888              		.loc 1 323 0
 889 0008 0020     		movs	r0, #0
 890 000a FFF7FEFF 		bl	QuadDec_2_SetCounter
 891              	.LVL73:
 324:main.c        ****     Count_Master = 0;
 892              		.loc 1 324 0
 893 000e 024B     		ldr	r3, .L76
 894 0010 0022     		movs	r2, #0
 895 0012 5A60     		str	r2, [r3, #4]
 325:main.c        ****     Count_Slave = 0;
 896              		.loc 1 325 0
 897 0014 9A60     		str	r2, [r3, #8]
 898 0016 08BD     		pop	{r3, pc}
 899              	.L77:
 900              		.align	2
 901              	.L76:
 902 0018 00000000 		.word	.LANCHOR0
 903              		.cfi_endproc
 904              	.LFE74:
 905              		.size	reset_count, .-reset_count
 906              		.section	.text.move_fixed_dist,"ax",%progbits
 907              		.align	2
 908              		.global	move_fixed_dist
 909              		.thumb
 910              		.thumb_func
 911              		.type	move_fixed_dist, %function
 912              	move_fixed_dist:
 913              	.LFB75:
 326:main.c        **** }
 327:main.c        **** 
 328:main.c        **** void move_fixed_dist(int dist, int flag_FR)
 329:main.c        **** {
 914              		.loc 1 329 0
 915              		.cfi_startproc
 916              		@ args = 0, pretend = 0, frame = 0
 917              		@ frame_needed = 0, uses_anonymous_args = 0
 918              	.LVL74:
 919 0000 70B5     		push	{r4, r5, r6, lr}
 920              		.cfi_def_cfa_offset 16
 921              		.cfi_offset 4, -16
 922              		.cfi_offset 5, -12
 923              		.cfi_offset 6, -8
 924              		.cfi_offset 14, -4
 925 0002 0E46     		mov	r6, r1
ARM GAS  C:\Users\weiro\AppData\Local\Temp\ccpp9Q4b.s 			page 23


 330:main.c        ****     double avg_count, avg_dist;
 331:main.c        ****     int dist_count = dist * CM_COUNT_CONV; // convert dist to count
 926              		.loc 1 331 0
 927 0004 FFF7FEFF 		bl	__aeabi_i2d
 928              	.LVL75:
 929 0008 3F4B     		ldr	r3, .L89+16
 930 000a D3E90023 		ldrd	r2, [r3]
 931 000e FFF7FEFF 		bl	__aeabi_dmul
 932              	.LVL76:
 933 0012 FFF7FEFF 		bl	__aeabi_d2iz
 934              	.LVL77:
 935 0016 0546     		mov	r5, r0
 936              	.LVL78:
 332:main.c        ****     while(abs(Count_Master) <= dist_count && abs(Count_Slave) <= dist_count)
 937              		.loc 1 332 0
 938 0018 0DE0     		b	.L79
 939              	.LVL79:
 940              	.L83:
 333:main.c        ****     {
 334:main.c        ****         Count_Master = QuadDec_1_GetCounter();
 941              		.loc 1 334 0
 942 001a FFF7FEFF 		bl	QuadDec_1_GetCounter
 943              	.LVL80:
 944 001e 3B4C     		ldr	r4, .L89+20
 945 0020 6060     		str	r0, [r4, #4]
 335:main.c        ****         Count_Slave = QuadDec_2_GetCounter();
 946              		.loc 1 335 0
 947 0022 FFF7FEFF 		bl	QuadDec_2_GetCounter
 948              	.LVL81:
 949 0026 A060     		str	r0, [r4, #8]
 336:main.c        ****         if (flag_FR==1)
 950              		.loc 1 336 0
 951 0028 012E     		cmp	r6, #1
 952 002a 02D1     		bne	.L80
 337:main.c        ****         {
 338:main.c        ****             forward();
 953              		.loc 1 338 0
 954 002c FFF7FEFF 		bl	forward
 955              	.LVL82:
 956 0030 01E0     		b	.L79
 957              	.L80:
 339:main.c        ****         }
 340:main.c        ****         else
 341:main.c        ****         {
 342:main.c        ****             reverse();
 958              		.loc 1 342 0
 959 0032 FFF7FEFF 		bl	reverse
 960              	.LVL83:
 961              	.L79:
 332:main.c        ****     {
 962              		.loc 1 332 0
 963 0036 354B     		ldr	r3, .L89+20
 964 0038 5B68     		ldr	r3, [r3, #4]
 965 003a 002B     		cmp	r3, #0
 966 003c B8BF     		it	lt
 967 003e 5B42     		rsblt	r3, r3, #0
 968 0040 9D42     		cmp	r5, r3
ARM GAS  C:\Users\weiro\AppData\Local\Temp\ccpp9Q4b.s 			page 24


 969 0042 06DB     		blt	.L82
 332:main.c        ****     {
 970              		.loc 1 332 0 is_stmt 0 discriminator 1
 971 0044 314B     		ldr	r3, .L89+20
 972 0046 9B68     		ldr	r3, [r3, #8]
 973 0048 002B     		cmp	r3, #0
 974 004a B8BF     		it	lt
 975 004c 5B42     		rsblt	r3, r3, #0
 976 004e 9D42     		cmp	r5, r3
 977 0050 E3DA     		bge	.L83
 978              	.L82:
 343:main.c        ****         }
 344:main.c        ****     }
 345:main.c        ****     stop();
 979              		.loc 1 345 0 is_stmt 1
 980 0052 FFF7FEFF 		bl	stop
 981              	.LVL84:
 346:main.c        ****     avg_count = (QuadDec_1_GetCounter()+QuadDec_2_GetCounter())/2;
 982              		.loc 1 346 0
 983 0056 FFF7FEFF 		bl	QuadDec_1_GetCounter
 984              	.LVL85:
 985 005a 0446     		mov	r4, r0
 986 005c FFF7FEFF 		bl	QuadDec_2_GetCounter
 987              	.LVL86:
 988 0060 2044     		add	r0, r0, r4
 989 0062 00EBD070 		add	r0, r0, r0, lsr #31
 990 0066 4010     		asrs	r0, r0, #1
 991 0068 FFF7FEFF 		bl	__aeabi_i2d
 992              	.LVL87:
 993 006c 0446     		mov	r4, r0
 994 006e 0D46     		mov	r5, r1
 995              	.LVL88:
 347:main.c        ****     avg_dist = avg_count*(M_PI*WHEEL_DIAMETER/3667);
 996              		.loc 1 347 0
 997 0070 21A3     		adr	r3, .L89
 998 0072 D3E90023 		ldrd	r2, [r3]
 999 0076 2649     		ldr	r1, .L89+24
 1000 0078 D1E90801 		ldrd	r0, [r1, #32]
 1001 007c FFF7FEFF 		bl	__aeabi_dmul
 1002              	.LVL89:
 1003 0080 1FA3     		adr	r3, .L89+8
 1004 0082 D3E90023 		ldrd	r2, [r3]
 1005 0086 FFF7FEFF 		bl	__aeabi_ddiv
 1006              	.LVL90:
 1007 008a 0246     		mov	r2, r0
 1008 008c 0B46     		mov	r3, r1
 1009 008e 2046     		mov	r0, r4
 1010 0090 2946     		mov	r1, r5
 1011 0092 FFF7FEFF 		bl	__aeabi_dmul
 1012              	.LVL91:
 348:main.c        ****     if (direction ==0)
 1013              		.loc 1 348 0
 1014 0096 1D4B     		ldr	r3, .L89+20
 1015 0098 D3F86831 		ldr	r3, [r3, #360]
 1016 009c 3BB9     		cbnz	r3, .L84
 349:main.c        ****     {
 350:main.c        ****         y_coord = y_coord + avg_dist;
ARM GAS  C:\Users\weiro\AppData\Local\Temp\ccpp9Q4b.s 			page 25


 1017              		.loc 1 350 0
 1018 009e 1B4C     		ldr	r4, .L89+20
 1019              	.LVL92:
 1020 00a0 F4E95C23 		ldrd	r2, [r4, #368]!
 1021 00a4 FFF7FEFF 		bl	__aeabi_dadd
 1022              	.LVL93:
 1023 00a8 C4E90001 		strd	r0, [r4]
 1024 00ac 20E0     		b	.L85
 1025              	.LVL94:
 1026              	.L84:
 351:main.c        ****     }
 352:main.c        ****     else if (direction ==1)
 1027              		.loc 1 352 0
 1028 00ae 012B     		cmp	r3, #1
 1029 00b0 07D1     		bne	.L86
 353:main.c        ****     {
 354:main.c        ****         
 355:main.c        ****         x_coord = x_coord + avg_dist;
 1030              		.loc 1 355 0
 1031 00b2 164C     		ldr	r4, .L89+20
 1032              	.LVL95:
 1033 00b4 F4E95E23 		ldrd	r2, [r4, #376]!
 1034 00b8 FFF7FEFF 		bl	__aeabi_dadd
 1035              	.LVL96:
 1036 00bc C4E90001 		strd	r0, [r4]
 1037 00c0 16E0     		b	.L85
 1038              	.LVL97:
 1039              	.L86:
 356:main.c        ****     }
 357:main.c        ****     else if (direction ==2)
 1040              		.loc 1 357 0
 1041 00c2 022B     		cmp	r3, #2
 1042 00c4 09D1     		bne	.L87
 358:main.c        ****     {
 359:main.c        ****         
 360:main.c        ****         y_coord = y_coord - avg_dist;
 1043              		.loc 1 360 0
 1044 00c6 114C     		ldr	r4, .L89+20
 1045              	.LVL98:
 1046 00c8 0246     		mov	r2, r0
 1047 00ca 0B46     		mov	r3, r1
 1048 00cc F4E95C01 		ldrd	r0, [r4, #368]!
 1049              	.LVL99:
 1050 00d0 FFF7FEFF 		bl	__aeabi_dsub
 1051              	.LVL100:
 1052 00d4 C4E90001 		strd	r0, [r4]
 1053 00d8 0AE0     		b	.L85
 1054              	.LVL101:
 1055              	.L87:
 361:main.c        ****     }
 362:main.c        ****     else if (direction ==3)
 1056              		.loc 1 362 0
 1057 00da 032B     		cmp	r3, #3
 1058 00dc 08D1     		bne	.L85
 363:main.c        ****     {
 364:main.c        ****         
 365:main.c        ****         x_coord = x_coord - avg_dist;
ARM GAS  C:\Users\weiro\AppData\Local\Temp\ccpp9Q4b.s 			page 26


 1059              		.loc 1 365 0
 1060 00de 0B4C     		ldr	r4, .L89+20
 1061              	.LVL102:
 1062 00e0 0246     		mov	r2, r0
 1063 00e2 0B46     		mov	r3, r1
 1064 00e4 F4E95E01 		ldrd	r0, [r4, #376]!
 1065              	.LVL103:
 1066 00e8 FFF7FEFF 		bl	__aeabi_dsub
 1067              	.LVL104:
 1068 00ec C4E90001 		strd	r0, [r4]
 1069              	.L85:
 366:main.c        ****     }
 367:main.c        ****     reset_count();
 1070              		.loc 1 367 0
 1071 00f0 FFF7FEFF 		bl	reset_count
 1072              	.LVL105:
 1073 00f4 70BD     		pop	{r4, r5, r6, pc}
 1074              	.LVL106:
 1075              	.L90:
 1076 00f6 00BF     		.align	3
 1077              	.L89:
 1078 00f8 182D4454 		.word	1413754136
 1079 00fc FB210940 		.word	1074340347
 1080 0100 00000000 		.word	0
 1081 0104 00A6AC40 		.word	1085056512
 1082 0108 60010000 		.word	.LANCHOR0+352
 1083 010c 00000000 		.word	.LANCHOR0
 1084 0110 00000000 		.word	.LANCHOR1
 1085              		.cfi_endproc
 1086              	.LFE75:
 1087              		.size	move_fixed_dist, .-move_fixed_dist
 1088              		.section	.text.move2wall,"ax",%progbits
 1089              		.align	2
 1090              		.global	move2wall
 1091              		.thumb
 1092              		.thumb_func
 1093              		.type	move2wall, %function
 1094              	move2wall:
 1095              	.LFB76:
 368:main.c        **** }
 369:main.c        **** 
 370:main.c        **** void move2wall()
 371:main.c        **** {
 1096              		.loc 1 371 0
 1097              		.cfi_startproc
 1098              		@ args = 0, pretend = 0, frame = 0
 1099              		@ frame_needed = 0, uses_anonymous_args = 0
 1100 0000 38B5     		push	{r3, r4, r5, lr}
 1101              		.cfi_def_cfa_offset 16
 1102              		.cfi_offset 3, -16
 1103              		.cfi_offset 4, -12
 1104              		.cfi_offset 5, -8
 1105              		.cfi_offset 14, -4
 372:main.c        ****     double avg_count, avg_dist;
 373:main.c        ****     echo_select = 1;
 1106              		.loc 1 373 0
 1107 0002 3B4C     		ldr	r4, .L99+16
ARM GAS  C:\Users\weiro\AppData\Local\Temp\ccpp9Q4b.s 			page 27


 1108 0004 0120     		movs	r0, #1
 1109 0006 2063     		str	r0, [r4, #48]
 374:main.c        ****     Control_Reg_2_Write(echo_select);
 1110              		.loc 1 374 0
 1111 0008 FFF7FEFF 		bl	Control_Reg_2_Write
 1112              	.LVL107:
 375:main.c        ****     CyDelay(50);
 1113              		.loc 1 375 0
 1114 000c 3220     		movs	r0, #50
 1115 000e FFF7FEFF 		bl	CyDelay
 1116              	.LVL108:
 376:main.c        ****     wall_detected_10 = 0;
 1117              		.loc 1 376 0
 1118 0012 0023     		movs	r3, #0
 1119 0014 2364     		str	r3, [r4, #64]
 377:main.c        ****     while (wall_detected_10 == 0)
 1120              		.loc 1 377 0
 1121 0016 0DE0     		b	.L92
 1122              	.L93:
 378:main.c        ****     {
 379:main.c        ****         forward();
 1123              		.loc 1 379 0
 1124 0018 FFF7FEFF 		bl	forward
 1125              	.LVL109:
 380:main.c        ****         CyDelay(50);
 1126              		.loc 1 380 0
 1127 001c 3220     		movs	r0, #50
 1128 001e FFF7FEFF 		bl	CyDelay
 1129              	.LVL110:
 381:main.c        ****         Trigger_Write(1);
 1130              		.loc 1 381 0
 1131 0022 0120     		movs	r0, #1
 1132 0024 FFF7FEFF 		bl	Trigger_Write
 1133              	.LVL111:
 382:main.c        ****         CyDelayUs(10);
 1134              		.loc 1 382 0
 1135 0028 0A20     		movs	r0, #10
 1136 002a FFF7FEFF 		bl	CyDelayUs
 1137              	.LVL112:
 383:main.c        ****         Trigger_Write(0);     
 1138              		.loc 1 383 0
 1139 002e 0020     		movs	r0, #0
 1140 0030 FFF7FEFF 		bl	Trigger_Write
 1141              	.LVL113:
 1142              	.L92:
 377:main.c        ****     {
 1143              		.loc 1 377 0
 1144 0034 2E4B     		ldr	r3, .L99+16
 1145 0036 1B6C     		ldr	r3, [r3, #64]
 1146 0038 002B     		cmp	r3, #0
 1147 003a EDD0     		beq	.L93
 384:main.c        ****     }
 385:main.c        ****     stop();
 1148              		.loc 1 385 0
 1149 003c FFF7FEFF 		bl	stop
 1150              	.LVL114:
 386:main.c        ****     avg_count = (QuadDec_1_GetCounter()+QuadDec_2_GetCounter())/2;
ARM GAS  C:\Users\weiro\AppData\Local\Temp\ccpp9Q4b.s 			page 28


 1151              		.loc 1 386 0
 1152 0040 FFF7FEFF 		bl	QuadDec_1_GetCounter
 1153              	.LVL115:
 1154 0044 0446     		mov	r4, r0
 1155 0046 FFF7FEFF 		bl	QuadDec_2_GetCounter
 1156              	.LVL116:
 1157 004a 2044     		add	r0, r0, r4
 1158 004c 00EBD070 		add	r0, r0, r0, lsr #31
 1159 0050 4010     		asrs	r0, r0, #1
 1160 0052 FFF7FEFF 		bl	__aeabi_i2d
 1161              	.LVL117:
 1162 0056 0446     		mov	r4, r0
 1163 0058 0D46     		mov	r5, r1
 1164              	.LVL118:
 387:main.c        ****     avg_dist = avg_count*(M_PI*WHEEL_DIAMETER/3667);
 1165              		.loc 1 387 0
 1166 005a 21A3     		adr	r3, .L99
 1167 005c D3E90023 		ldrd	r2, [r3]
 1168 0060 2449     		ldr	r1, .L99+20
 1169 0062 D1E90801 		ldrd	r0, [r1, #32]
 1170 0066 FFF7FEFF 		bl	__aeabi_dmul
 1171              	.LVL119:
 1172 006a 1FA3     		adr	r3, .L99+8
 1173 006c D3E90023 		ldrd	r2, [r3]
 1174 0070 FFF7FEFF 		bl	__aeabi_ddiv
 1175              	.LVL120:
 1176 0074 0246     		mov	r2, r0
 1177 0076 0B46     		mov	r3, r1
 1178 0078 2046     		mov	r0, r4
 1179 007a 2946     		mov	r1, r5
 1180 007c FFF7FEFF 		bl	__aeabi_dmul
 1181              	.LVL121:
 388:main.c        ****     if (direction ==0)
 1182              		.loc 1 388 0
 1183 0080 1B4B     		ldr	r3, .L99+16
 1184 0082 D3F86831 		ldr	r3, [r3, #360]
 1185 0086 3BB9     		cbnz	r3, .L94
 389:main.c        ****     {
 390:main.c        ****         y_coord = y_coord + avg_dist;
 1186              		.loc 1 390 0
 1187 0088 194C     		ldr	r4, .L99+16
 1188              	.LVL122:
 1189 008a F4E95C23 		ldrd	r2, [r4, #368]!
 1190 008e FFF7FEFF 		bl	__aeabi_dadd
 1191              	.LVL123:
 1192 0092 C4E90001 		strd	r0, [r4]
 1193 0096 20E0     		b	.L95
 1194              	.LVL124:
 1195              	.L94:
 391:main.c        ****     }
 392:main.c        ****     else if (direction ==1)
 1196              		.loc 1 392 0
 1197 0098 012B     		cmp	r3, #1
 1198 009a 07D1     		bne	.L96
 393:main.c        ****     {
 394:main.c        ****         
 395:main.c        ****         x_coord = x_coord + avg_dist;
ARM GAS  C:\Users\weiro\AppData\Local\Temp\ccpp9Q4b.s 			page 29


 1199              		.loc 1 395 0
 1200 009c 144C     		ldr	r4, .L99+16
 1201              	.LVL125:
 1202 009e F4E95E23 		ldrd	r2, [r4, #376]!
 1203 00a2 FFF7FEFF 		bl	__aeabi_dadd
 1204              	.LVL126:
 1205 00a6 C4E90001 		strd	r0, [r4]
 1206 00aa 16E0     		b	.L95
 1207              	.LVL127:
 1208              	.L96:
 396:main.c        ****     }
 397:main.c        ****     else if (direction ==2)
 1209              		.loc 1 397 0
 1210 00ac 022B     		cmp	r3, #2
 1211 00ae 09D1     		bne	.L97
 398:main.c        ****     {
 399:main.c        ****         
 400:main.c        ****         y_coord = y_coord - avg_dist;
 1212              		.loc 1 400 0
 1213 00b0 0F4C     		ldr	r4, .L99+16
 1214              	.LVL128:
 1215 00b2 0246     		mov	r2, r0
 1216 00b4 0B46     		mov	r3, r1
 1217 00b6 F4E95C01 		ldrd	r0, [r4, #368]!
 1218              	.LVL129:
 1219 00ba FFF7FEFF 		bl	__aeabi_dsub
 1220              	.LVL130:
 1221 00be C4E90001 		strd	r0, [r4]
 1222 00c2 0AE0     		b	.L95
 1223              	.LVL131:
 1224              	.L97:
 401:main.c        ****     }
 402:main.c        ****     else if (direction ==3)
 1225              		.loc 1 402 0
 1226 00c4 032B     		cmp	r3, #3
 1227 00c6 08D1     		bne	.L95
 403:main.c        ****     {
 404:main.c        ****         
 405:main.c        ****         x_coord = x_coord - avg_dist;
 1228              		.loc 1 405 0
 1229 00c8 094C     		ldr	r4, .L99+16
 1230              	.LVL132:
 1231 00ca 0246     		mov	r2, r0
 1232 00cc 0B46     		mov	r3, r1
 1233 00ce F4E95E01 		ldrd	r0, [r4, #376]!
 1234              	.LVL133:
 1235 00d2 FFF7FEFF 		bl	__aeabi_dsub
 1236              	.LVL134:
 1237 00d6 C4E90001 		strd	r0, [r4]
 1238              	.L95:
 406:main.c        ****     }
 407:main.c        ****     reset_count();
 1239              		.loc 1 407 0
 1240 00da FFF7FEFF 		bl	reset_count
 1241              	.LVL135:
 1242 00de 38BD     		pop	{r3, r4, r5, pc}
 1243              	.L100:
ARM GAS  C:\Users\weiro\AppData\Local\Temp\ccpp9Q4b.s 			page 30


 1244              		.align	3
 1245              	.L99:
 1246 00e0 182D4454 		.word	1413754136
 1247 00e4 FB210940 		.word	1074340347
 1248 00e8 00000000 		.word	0
 1249 00ec 00A6AC40 		.word	1085056512
 1250 00f0 00000000 		.word	.LANCHOR0
 1251 00f4 00000000 		.word	.LANCHOR1
 1252              		.cfi_endproc
 1253              	.LFE76:
 1254              		.size	move2wall, .-move2wall
 1255              		.section	.text.move2slit,"ax",%progbits
 1256              		.align	2
 1257              		.global	move2slit
 1258              		.thumb
 1259              		.thumb_func
 1260              		.type	move2slit, %function
 1261              	move2slit:
 1262              	.LFB77:
 408:main.c        **** }
 409:main.c        **** 
 410:main.c        **** void move2slit()
 411:main.c        **** {
 1263              		.loc 1 411 0
 1264              		.cfi_startproc
 1265              		@ args = 0, pretend = 0, frame = 0
 1266              		@ frame_needed = 0, uses_anonymous_args = 0
 1267 0000 38B5     		push	{r3, r4, r5, lr}
 1268              		.cfi_def_cfa_offset 16
 1269              		.cfi_offset 3, -16
 1270              		.cfi_offset 4, -12
 1271              		.cfi_offset 5, -8
 1272              		.cfi_offset 14, -4
 412:main.c        ****     double avg_count, avg_dist;
 413:main.c        ****     echo_select = 2;
 1273              		.loc 1 413 0
 1274 0002 0220     		movs	r0, #2
 1275 0004 444B     		ldr	r3, .L111+16
 1276 0006 1863     		str	r0, [r3, #48]
 414:main.c        ****     Control_Reg_2_Write(echo_select);
 1277              		.loc 1 414 0
 1278 0008 FFF7FEFF 		bl	Control_Reg_2_Write
 1279              	.LVL136:
 415:main.c        ****     CyDelay(50);
 1280              		.loc 1 415 0
 1281 000c 3220     		movs	r0, #50
 1282 000e FFF7FEFF 		bl	CyDelay
 1283              	.LVL137:
 416:main.c        ****     //CyDelay(500);
 417:main.c        ****     while (slit_detected == 0)
 1284              		.loc 1 417 0
 1285 0012 1FE0     		b	.L102
 1286              	.L105:
 418:main.c        ****     {
 419:main.c        ****         forward();
 1287              		.loc 1 419 0
 1288 0014 FFF7FEFF 		bl	forward
ARM GAS  C:\Users\weiro\AppData\Local\Temp\ccpp9Q4b.s 			page 31


 1289              	.LVL138:
 420:main.c        ****         sprintf(string_1, "moving to slit");
 1290              		.loc 1 420 0
 1291 0018 404C     		ldr	r4, .L111+20
 1292 001a 414B     		ldr	r3, .L111+24
 1293 001c 07CB     		ldmia	r3!, {r0, r1, r2}
 1294 001e 2060     		str	r0, [r4]	@ unaligned
 1295 0020 6160     		str	r1, [r4, #4]	@ unaligned
 1296 0022 A260     		str	r2, [r4, #8]	@ unaligned
 1297 0024 1A88     		ldrh	r2, [r3]	@ unaligned
 1298 0026 9B78     		ldrb	r3, [r3, #2]	@ zero_extendqisi2
 1299 0028 A281     		strh	r2, [r4, #12]	@ unaligned
 1300 002a A373     		strb	r3, [r4, #14]
 421:main.c        ****         UART_1_PutString(string_1);
 1301              		.loc 1 421 0
 1302 002c 2046     		mov	r0, r4
 1303 002e FFF7FEFF 		bl	UART_1_PutString
 1304              	.LVL139:
 422:main.c        ****         CyDelay(100);
 1305              		.loc 1 422 0
 1306 0032 6420     		movs	r0, #100
 1307 0034 FFF7FEFF 		bl	CyDelay
 1308              	.LVL140:
 423:main.c        ****         while(Left_Echo_Read()==0)
 1309              		.loc 1 423 0
 1310 0038 08E0     		b	.L103
 1311              	.L104:
 424:main.c        ****         {
 425:main.c        ****             
 426:main.c        ****             Trigger_Write(1);
 1312              		.loc 1 426 0
 1313 003a 0120     		movs	r0, #1
 1314 003c FFF7FEFF 		bl	Trigger_Write
 1315              	.LVL141:
 427:main.c        ****             CyDelayUs(10);
 1316              		.loc 1 427 0
 1317 0040 0A20     		movs	r0, #10
 1318 0042 FFF7FEFF 		bl	CyDelayUs
 1319              	.LVL142:
 428:main.c        ****             Trigger_Write(0);
 1320              		.loc 1 428 0
 1321 0046 0020     		movs	r0, #0
 1322 0048 FFF7FEFF 		bl	Trigger_Write
 1323              	.LVL143:
 1324              	.L103:
 423:main.c        ****         {
 1325              		.loc 1 423 0
 1326 004c FFF7FEFF 		bl	Left_Echo_Read
 1327              	.LVL144:
 1328 0050 0028     		cmp	r0, #0
 1329 0052 F2D0     		beq	.L104
 1330              	.L102:
 417:main.c        ****     {
 1331              		.loc 1 417 0
 1332 0054 304B     		ldr	r3, .L111+16
 1333 0056 5B6C     		ldr	r3, [r3, #68]
 1334 0058 002B     		cmp	r3, #0
ARM GAS  C:\Users\weiro\AppData\Local\Temp\ccpp9Q4b.s 			page 32


 1335 005a DBD0     		beq	.L105
 429:main.c        ****         }
 430:main.c        ****     }
 431:main.c        ****     stop();
 1336              		.loc 1 431 0
 1337 005c FFF7FEFF 		bl	stop
 1338              	.LVL145:
 432:main.c        ****     avg_count = (QuadDec_1_GetCounter()+QuadDec_2_GetCounter())/2;
 1339              		.loc 1 432 0
 1340 0060 FFF7FEFF 		bl	QuadDec_1_GetCounter
 1341              	.LVL146:
 1342 0064 0446     		mov	r4, r0
 1343 0066 FFF7FEFF 		bl	QuadDec_2_GetCounter
 1344              	.LVL147:
 1345 006a 2044     		add	r0, r0, r4
 1346 006c 00EBD070 		add	r0, r0, r0, lsr #31
 1347 0070 4010     		asrs	r0, r0, #1
 1348 0072 FFF7FEFF 		bl	__aeabi_i2d
 1349              	.LVL148:
 1350 0076 0446     		mov	r4, r0
 1351 0078 0D46     		mov	r5, r1
 1352              	.LVL149:
 433:main.c        ****     avg_dist = avg_count*(M_PI*WHEEL_DIAMETER/3667);
 1353              		.loc 1 433 0
 1354 007a 23A3     		adr	r3, .L111
 1355 007c D3E90023 		ldrd	r2, [r3]
 1356 0080 2849     		ldr	r1, .L111+28
 1357 0082 D1E90801 		ldrd	r0, [r1, #32]
 1358 0086 FFF7FEFF 		bl	__aeabi_dmul
 1359              	.LVL150:
 1360 008a 21A3     		adr	r3, .L111+8
 1361 008c D3E90023 		ldrd	r2, [r3]
 1362 0090 FFF7FEFF 		bl	__aeabi_ddiv
 1363              	.LVL151:
 1364 0094 0246     		mov	r2, r0
 1365 0096 0B46     		mov	r3, r1
 1366 0098 2046     		mov	r0, r4
 1367 009a 2946     		mov	r1, r5
 1368 009c FFF7FEFF 		bl	__aeabi_dmul
 1369              	.LVL152:
 434:main.c        ****     if (direction ==0)
 1370              		.loc 1 434 0
 1371 00a0 1D4B     		ldr	r3, .L111+16
 1372 00a2 D3F86831 		ldr	r3, [r3, #360]
 1373 00a6 3BB9     		cbnz	r3, .L106
 435:main.c        ****     {
 436:main.c        ****         y_coord = y_coord + avg_dist;
 1374              		.loc 1 436 0
 1375 00a8 1B4C     		ldr	r4, .L111+16
 1376              	.LVL153:
 1377 00aa F4E95C23 		ldrd	r2, [r4, #368]!
 1378 00ae FFF7FEFF 		bl	__aeabi_dadd
 1379              	.LVL154:
 1380 00b2 C4E90001 		strd	r0, [r4]
 1381 00b6 20E0     		b	.L107
 1382              	.LVL155:
 1383              	.L106:
ARM GAS  C:\Users\weiro\AppData\Local\Temp\ccpp9Q4b.s 			page 33


 437:main.c        ****     }
 438:main.c        ****     else if (direction ==1)
 1384              		.loc 1 438 0
 1385 00b8 012B     		cmp	r3, #1
 1386 00ba 07D1     		bne	.L108
 439:main.c        ****     {
 440:main.c        ****         
 441:main.c        ****         x_coord = x_coord + avg_dist;
 1387              		.loc 1 441 0
 1388 00bc 164C     		ldr	r4, .L111+16
 1389              	.LVL156:
 1390 00be F4E95E23 		ldrd	r2, [r4, #376]!
 1391 00c2 FFF7FEFF 		bl	__aeabi_dadd
 1392              	.LVL157:
 1393 00c6 C4E90001 		strd	r0, [r4]
 1394 00ca 16E0     		b	.L107
 1395              	.LVL158:
 1396              	.L108:
 442:main.c        ****     }
 443:main.c        ****     else if (direction ==2)
 1397              		.loc 1 443 0
 1398 00cc 022B     		cmp	r3, #2
 1399 00ce 09D1     		bne	.L109
 444:main.c        ****     {
 445:main.c        ****         
 446:main.c        ****         y_coord = y_coord - avg_dist;
 1400              		.loc 1 446 0
 1401 00d0 114C     		ldr	r4, .L111+16
 1402              	.LVL159:
 1403 00d2 0246     		mov	r2, r0
 1404 00d4 0B46     		mov	r3, r1
 1405 00d6 F4E95C01 		ldrd	r0, [r4, #368]!
 1406              	.LVL160:
 1407 00da FFF7FEFF 		bl	__aeabi_dsub
 1408              	.LVL161:
 1409 00de C4E90001 		strd	r0, [r4]
 1410 00e2 0AE0     		b	.L107
 1411              	.LVL162:
 1412              	.L109:
 447:main.c        ****     }
 448:main.c        ****     else if (direction ==3)
 1413              		.loc 1 448 0
 1414 00e4 032B     		cmp	r3, #3
 1415 00e6 08D1     		bne	.L107
 449:main.c        ****     {
 450:main.c        ****         
 451:main.c        ****         x_coord = x_coord - avg_dist;
 1416              		.loc 1 451 0
 1417 00e8 0B4C     		ldr	r4, .L111+16
 1418              	.LVL163:
 1419 00ea 0246     		mov	r2, r0
 1420 00ec 0B46     		mov	r3, r1
 1421 00ee F4E95E01 		ldrd	r0, [r4, #376]!
 1422              	.LVL164:
 1423 00f2 FFF7FEFF 		bl	__aeabi_dsub
 1424              	.LVL165:
 1425 00f6 C4E90001 		strd	r0, [r4]
ARM GAS  C:\Users\weiro\AppData\Local\Temp\ccpp9Q4b.s 			page 34


 1426              	.L107:
 452:main.c        ****     }
 453:main.c        ****     reset_count();
 1427              		.loc 1 453 0
 1428 00fa FFF7FEFF 		bl	reset_count
 1429              	.LVL166:
 454:main.c        ****     slit_detected=0;
 1430              		.loc 1 454 0
 1431 00fe 0022     		movs	r2, #0
 1432 0100 054B     		ldr	r3, .L111+16
 1433 0102 5A64     		str	r2, [r3, #68]
 1434 0104 38BD     		pop	{r3, r4, r5, pc}
 1435              	.L112:
 1436 0106 00BF     		.align	3
 1437              	.L111:
 1438 0108 182D4454 		.word	1413754136
 1439 010c FB210940 		.word	1074340347
 1440 0110 00000000 		.word	0
 1441 0114 00A6AC40 		.word	1085056512
 1442 0118 00000000 		.word	.LANCHOR0
 1443 011c 00000000 		.word	string_1
 1444 0120 38000000 		.word	.LC3
 1445 0124 00000000 		.word	.LANCHOR1
 1446              		.cfi_endproc
 1447              	.LFE77:
 1448              		.size	move2slit, .-move2slit
 1449              		.section	.text.move2puck,"ax",%progbits
 1450              		.align	2
 1451              		.global	move2puck
 1452              		.thumb
 1453              		.thumb_func
 1454              		.type	move2puck, %function
 1455              	move2puck:
 1456              	.LFB78:
 455:main.c        **** }
 456:main.c        **** 
 457:main.c        **** void move2puck()
 458:main.c        **** {
 1457              		.loc 1 458 0
 1458              		.cfi_startproc
 1459              		@ args = 0, pretend = 0, frame = 0
 1460              		@ frame_needed = 0, uses_anonymous_args = 0
 1461 0000 38B5     		push	{r3, r4, r5, lr}
 1462              		.cfi_def_cfa_offset 16
 1463              		.cfi_offset 3, -16
 1464              		.cfi_offset 4, -12
 1465              		.cfi_offset 5, -8
 1466              		.cfi_offset 14, -4
 459:main.c        ****     double avg_count, avg_dist;
 460:main.c        ****     while (IR_input_Read() == 1)
 1467              		.loc 1 460 0
 1468 0002 01E0     		b	.L114
 1469              	.L115:
 461:main.c        ****     {
 462:main.c        ****         forward();
 1470              		.loc 1 462 0
 1471 0004 FFF7FEFF 		bl	forward
ARM GAS  C:\Users\weiro\AppData\Local\Temp\ccpp9Q4b.s 			page 35


 1472              	.LVL167:
 1473              	.L114:
 460:main.c        ****     {
 1474              		.loc 1 460 0
 1475 0008 FFF7FEFF 		bl	IR_input_Read
 1476              	.LVL168:
 1477 000c 0128     		cmp	r0, #1
 1478 000e F9D0     		beq	.L115
 463:main.c        ****     }
 464:main.c        ****     stop();
 1479              		.loc 1 464 0
 1480 0010 FFF7FEFF 		bl	stop
 1481              	.LVL169:
 465:main.c        ****     CyDelay(500);
 1482              		.loc 1 465 0
 1483 0014 4FF4FA70 		mov	r0, #500
 1484 0018 FFF7FEFF 		bl	CyDelay
 1485              	.LVL170:
 466:main.c        ****     
 467:main.c        ****     avg_count = (QuadDec_1_GetCounter()+QuadDec_2_GetCounter())/2;
 1486              		.loc 1 467 0
 1487 001c FFF7FEFF 		bl	QuadDec_1_GetCounter
 1488              	.LVL171:
 1489 0020 0446     		mov	r4, r0
 1490 0022 FFF7FEFF 		bl	QuadDec_2_GetCounter
 1491              	.LVL172:
 1492 0026 2044     		add	r0, r0, r4
 1493 0028 00EBD070 		add	r0, r0, r0, lsr #31
 1494 002c 4010     		asrs	r0, r0, #1
 1495 002e FFF7FEFF 		bl	__aeabi_i2d
 1496              	.LVL173:
 1497 0032 0446     		mov	r4, r0
 1498 0034 0D46     		mov	r5, r1
 1499              	.LVL174:
 468:main.c        ****     avg_dist = avg_count*(M_PI*WHEEL_DIAMETER/3667);
 1500              		.loc 1 468 0
 1501 0036 22A3     		adr	r3, .L121
 1502 0038 D3E90023 		ldrd	r2, [r3]
 1503 003c 2449     		ldr	r1, .L121+16
 1504 003e D1E90801 		ldrd	r0, [r1, #32]
 1505 0042 FFF7FEFF 		bl	__aeabi_dmul
 1506              	.LVL175:
 1507 0046 20A3     		adr	r3, .L121+8
 1508 0048 D3E90023 		ldrd	r2, [r3]
 1509 004c FFF7FEFF 		bl	__aeabi_ddiv
 1510              	.LVL176:
 1511 0050 0246     		mov	r2, r0
 1512 0052 0B46     		mov	r3, r1
 1513 0054 2046     		mov	r0, r4
 1514 0056 2946     		mov	r1, r5
 1515 0058 FFF7FEFF 		bl	__aeabi_dmul
 1516              	.LVL177:
 469:main.c        ****     if (direction ==0)
 1517              		.loc 1 469 0
 1518 005c 1D4B     		ldr	r3, .L121+20
 1519 005e D3F86831 		ldr	r3, [r3, #360]
 1520 0062 3BB9     		cbnz	r3, .L116
ARM GAS  C:\Users\weiro\AppData\Local\Temp\ccpp9Q4b.s 			page 36


 470:main.c        ****     {
 471:main.c        ****         y_coord = y_coord + avg_dist;
 1521              		.loc 1 471 0
 1522 0064 1B4C     		ldr	r4, .L121+20
 1523              	.LVL178:
 1524 0066 F4E95C23 		ldrd	r2, [r4, #368]!
 1525 006a FFF7FEFF 		bl	__aeabi_dadd
 1526              	.LVL179:
 1527 006e C4E90001 		strd	r0, [r4]
 1528 0072 20E0     		b	.L117
 1529              	.LVL180:
 1530              	.L116:
 472:main.c        ****     }
 473:main.c        ****     else if (direction ==1)
 1531              		.loc 1 473 0
 1532 0074 012B     		cmp	r3, #1
 1533 0076 07D1     		bne	.L118
 474:main.c        ****     {
 475:main.c        ****         
 476:main.c        ****         x_coord = x_coord + avg_dist;
 1534              		.loc 1 476 0
 1535 0078 164C     		ldr	r4, .L121+20
 1536              	.LVL181:
 1537 007a F4E95E23 		ldrd	r2, [r4, #376]!
 1538 007e FFF7FEFF 		bl	__aeabi_dadd
 1539              	.LVL182:
 1540 0082 C4E90001 		strd	r0, [r4]
 1541 0086 16E0     		b	.L117
 1542              	.LVL183:
 1543              	.L118:
 477:main.c        ****     }
 478:main.c        ****     else if (direction ==2)
 1544              		.loc 1 478 0
 1545 0088 022B     		cmp	r3, #2
 1546 008a 09D1     		bne	.L119
 479:main.c        ****     {
 480:main.c        ****         
 481:main.c        ****         y_coord = y_coord - avg_dist;
 1547              		.loc 1 481 0
 1548 008c 114C     		ldr	r4, .L121+20
 1549              	.LVL184:
 1550 008e 0246     		mov	r2, r0
 1551 0090 0B46     		mov	r3, r1
 1552 0092 F4E95C01 		ldrd	r0, [r4, #368]!
 1553              	.LVL185:
 1554 0096 FFF7FEFF 		bl	__aeabi_dsub
 1555              	.LVL186:
 1556 009a C4E90001 		strd	r0, [r4]
 1557 009e 0AE0     		b	.L117
 1558              	.LVL187:
 1559              	.L119:
 482:main.c        ****     }
 483:main.c        ****     else if (direction ==3)
 1560              		.loc 1 483 0
 1561 00a0 032B     		cmp	r3, #3
 1562 00a2 08D1     		bne	.L117
 484:main.c        ****     {
ARM GAS  C:\Users\weiro\AppData\Local\Temp\ccpp9Q4b.s 			page 37


 485:main.c        ****         
 486:main.c        ****         x_coord = x_coord - avg_dist;
 1563              		.loc 1 486 0
 1564 00a4 0B4C     		ldr	r4, .L121+20
 1565              	.LVL188:
 1566 00a6 0246     		mov	r2, r0
 1567 00a8 0B46     		mov	r3, r1
 1568 00aa F4E95E01 		ldrd	r0, [r4, #376]!
 1569              	.LVL189:
 1570 00ae FFF7FEFF 		bl	__aeabi_dsub
 1571              	.LVL190:
 1572 00b2 C4E90001 		strd	r0, [r4]
 1573              	.L117:
 487:main.c        ****     }
 488:main.c        ****     reset_count();
 1574              		.loc 1 488 0
 1575 00b6 FFF7FEFF 		bl	reset_count
 1576              	.LVL191:
 1577 00ba 38BD     		pop	{r3, r4, r5, pc}
 1578              	.L122:
 1579 00bc AFF30080 		.align	3
 1580              	.L121:
 1581 00c0 182D4454 		.word	1413754136
 1582 00c4 FB210940 		.word	1074340347
 1583 00c8 00000000 		.word	0
 1584 00cc 00A6AC40 		.word	1085056512
 1585 00d0 00000000 		.word	.LANCHOR1
 1586 00d4 00000000 		.word	.LANCHOR0
 1587              		.cfi_endproc
 1588              	.LFE78:
 1589              		.size	move2puck, .-move2puck
 1590              		.section	.text.gyro_cal_1,"ax",%progbits
 1591              		.align	2
 1592              		.global	gyro_cal_1
 1593              		.thumb
 1594              		.thumb_func
 1595              		.type	gyro_cal_1, %function
 1596              	gyro_cal_1:
 1597              	.LFB79:
 489:main.c        **** }
 490:main.c        **** 
 491:main.c        **** void gyro_cal_1()
 492:main.c        **** {
 1598              		.loc 1 492 0
 1599              		.cfi_startproc
 1600              		@ args = 0, pretend = 0, frame = 0
 1601              		@ frame_needed = 0, uses_anonymous_args = 0
 1602 0000 10B5     		push	{r4, lr}
 1603              		.cfi_def_cfa_offset 8
 1604              		.cfi_offset 4, -8
 1605              		.cfi_offset 14, -4
 1606              	.LVL192:
 493:main.c        ****     // Determine the target angle based on the 'direction' variable
 494:main.c        ****     int ANGLE_TOLERANCE = 5;
 495:main.c        ****     int targetAngle = 0;
 496:main.c        ****     PWM_Wheels_WriteCompare1(PWM_Cal);
 1607              		.loc 1 496 0
ARM GAS  C:\Users\weiro\AppData\Local\Temp\ccpp9Q4b.s 			page 38


 1608 0002 274C     		ldr	r4, .L136
 1609 0004 A06A     		ldr	r0, [r4, #40]	@ float
 1610 0006 FFF7FEFF 		bl	__aeabi_f2uiz
 1611              	.LVL193:
 1612 000a 80B2     		uxth	r0, r0
 1613 000c FFF7FEFF 		bl	PWM_Wheels_WriteCompare1
 1614              	.LVL194:
 497:main.c        ****     PWM_Wheels_WriteCompare2(PWM_Cal);
 1615              		.loc 1 497 0
 1616 0010 A06A     		ldr	r0, [r4, #40]	@ float
 1617 0012 FFF7FEFF 		bl	__aeabi_f2uiz
 1618              	.LVL195:
 1619 0016 80B2     		uxth	r0, r0
 1620 0018 FFF7FEFF 		bl	PWM_Wheels_WriteCompare2
 1621              	.LVL196:
 498:main.c        ****     switch (direction) {
 1622              		.loc 1 498 0
 1623 001c 214B     		ldr	r3, .L136+4
 1624 001e D3F86831 		ldr	r3, [r3, #360]
 1625 0022 032B     		cmp	r3, #3
 1626 0024 3AD8     		bhi	.L123
 1627 0026 DFE803F0 		tbb	[pc, r3]
 1628              	.L126:
 1629 002a 02       		.byte	(.L125-.L126)/2
 1630 002b 09       		.byte	(.L134-.L126)/2
 1631 002c 04       		.byte	(.L128-.L126)/2
 1632 002d 06       		.byte	(.L129-.L126)/2
 1633              		.p2align 1
 1634              	.L125:
 499:main.c        ****         case 0:
 500:main.c        ****             targetAngle = 0;
 1635              		.loc 1 500 0
 1636 002e 0024     		movs	r4, #0
 1637 0030 05E0     		b	.L133
 1638              	.L128:
 1639              	.LVL197:
 501:main.c        ****             break;
 502:main.c        ****         case 1:
 503:main.c        ****             targetAngle = 90;
 504:main.c        ****             break;
 505:main.c        ****         case 2:
 506:main.c        ****             targetAngle = 180;
 1640              		.loc 1 506 0
 1641 0032 B424     		movs	r4, #180
 507:main.c        ****             break;
 1642              		.loc 1 507 0
 1643 0034 03E0     		b	.L133
 1644              	.LVL198:
 1645              	.L129:
 508:main.c        ****         case 3:
 509:main.c        ****             targetAngle = 270;
 1646              		.loc 1 509 0
 1647 0036 4FF48774 		mov	r4, #270
 510:main.c        ****             break;
 1648              		.loc 1 510 0
 1649 003a 00E0     		b	.L133
 1650              	.LVL199:
ARM GAS  C:\Users\weiro\AppData\Local\Temp\ccpp9Q4b.s 			page 39


 1651              	.L134:
 503:main.c        ****             break;
 1652              		.loc 1 503 0
 1653 003c 5A24     		movs	r4, #90
 1654              	.LVL200:
 1655              	.L133:
 1656              	.LBB2:
 511:main.c        ****         default:
 512:main.c        ****             // Handle invalid direction
 513:main.c        ****             return;
 514:main.c        ****     }
 515:main.c        **** 
 516:main.c        ****     // Perform calibration by continuously checking heading
 517:main.c        ****     while (1) {
 518:main.c        ****         // Calculate the difference between the current heading and the target angle
 519:main.c        ****         int angleDifference = heading - targetAngle;
 1657              		.loc 1 519 0
 1658 003e 2046     		mov	r0, r4
 1659 0040 FFF7FEFF 		bl	__aeabi_i2d
 1660              	.LVL201:
 1661 0044 0246     		mov	r2, r0
 1662 0046 0B46     		mov	r3, r1
 1663 0048 1649     		ldr	r1, .L136+4
 1664 004a D1E92401 		ldrd	r0, [r1, #144]
 1665 004e FFF7FEFF 		bl	__aeabi_dsub
 1666              	.LVL202:
 1667 0052 FFF7FEFF 		bl	__aeabi_d2iz
 1668              	.LVL203:
 520:main.c        **** 
 521:main.c        ****         // Check if we are within the tolerance range
 522:main.c        ****         if (angleDifference >= -ANGLE_TOLERANCE && angleDifference <= ANGLE_TOLERANCE) {
 1669              		.loc 1 522 0
 1670 0056 10F1050F 		cmn	r0, #5
 1671 005a 14DB     		blt	.L130
 1672              		.loc 1 522 0 is_stmt 0 discriminator 1
 1673 005c 0528     		cmp	r0, #5
 1674 005e 12DC     		bgt	.L130
 523:main.c        ****             // Calibration complete, within tolerance
 524:main.c        ****             stop();
 1675              		.loc 1 524 0 is_stmt 1
 1676 0060 FFF7FEFF 		bl	stop
 1677              	.LVL204:
 1678              	.LBE2:
 525:main.c        ****             break;
 526:main.c        ****             CyDelay(500);
 527:main.c        ****         } else if (angleDifference > 0) {
 528:main.c        ****             // Turn counterclockwise
 529:main.c        ****             turn_anticlockwise();
 530:main.c        ****         } else {
 531:main.c        ****             // Turn clockwise
 532:main.c        ****             turn_clockwise();
 533:main.c        ****         }
 534:main.c        ****         
 535:main.c        ****         CyDelay(50);
 536:main.c        ****     }
 537:main.c        ****     CyDelay(200);
 1679              		.loc 1 537 0
ARM GAS  C:\Users\weiro\AppData\Local\Temp\ccpp9Q4b.s 			page 40


 1680 0064 C820     		movs	r0, #200
 1681 0066 FFF7FEFF 		bl	CyDelay
 1682              	.LVL205:
 538:main.c        ****     PWM_Wheels_WriteCompare1(PWM_Master);
 1683              		.loc 1 538 0
 1684 006a 0D4C     		ldr	r4, .L136
 1685              	.LVL206:
 1686 006c A068     		ldr	r0, [r4, #8]	@ float
 1687 006e FFF7FEFF 		bl	__aeabi_f2uiz
 1688              	.LVL207:
 1689 0072 80B2     		uxth	r0, r0
 1690 0074 FFF7FEFF 		bl	PWM_Wheels_WriteCompare1
 1691              	.LVL208:
 539:main.c        ****     PWM_Wheels_WriteCompare2(PWM_Master);
 1692              		.loc 1 539 0
 1693 0078 A068     		ldr	r0, [r4, #8]	@ float
 1694 007a FFF7FEFF 		bl	__aeabi_f2uiz
 1695              	.LVL209:
 1696 007e 80B2     		uxth	r0, r0
 1697 0080 FFF7FEFF 		bl	PWM_Wheels_WriteCompare2
 1698              	.LVL210:
 1699 0084 10BD     		pop	{r4, pc}
 1700              	.LVL211:
 1701              	.L130:
 1702              	.LBB3:
 527:main.c        ****             // Turn counterclockwise
 1703              		.loc 1 527 0
 1704 0086 0028     		cmp	r0, #0
 1705 0088 02DD     		ble	.L131
 529:main.c        ****         } else {
 1706              		.loc 1 529 0
 1707 008a FFF7FEFF 		bl	turn_anticlockwise
 1708              	.LVL212:
 1709 008e 01E0     		b	.L132
 1710              	.LVL213:
 1711              	.L131:
 532:main.c        ****         }
 1712              		.loc 1 532 0
 1713 0090 FFF7FEFF 		bl	turn_clockwise
 1714              	.LVL214:
 1715              	.L132:
 535:main.c        ****     }
 1716              		.loc 1 535 0
 1717 0094 3220     		movs	r0, #50
 1718 0096 FFF7FEFF 		bl	CyDelay
 1719              	.LVL215:
 1720              	.LBE3:
 536:main.c        ****     CyDelay(200);
 1721              		.loc 1 536 0
 1722 009a D0E7     		b	.L133
 1723              	.LVL216:
 1724              	.L123:
 1725 009c 10BD     		pop	{r4, pc}
 1726              	.L137:
 1727 009e 00BF     		.align	2
 1728              	.L136:
 1729 00a0 00000000 		.word	.LANCHOR1
ARM GAS  C:\Users\weiro\AppData\Local\Temp\ccpp9Q4b.s 			page 41


 1730 00a4 00000000 		.word	.LANCHOR0
 1731              		.cfi_endproc
 1732              	.LFE79:
 1733              		.size	gyro_cal_1, .-gyro_cal_1
 1734              		.section	.text.gyro_cal_2,"ax",%progbits
 1735              		.align	2
 1736              		.global	gyro_cal_2
 1737              		.thumb
 1738              		.thumb_func
 1739              		.type	gyro_cal_2, %function
 1740              	gyro_cal_2:
 1741              	.LFB80:
 540:main.c        **** }
 541:main.c        **** void gyro_cal_2()
 542:main.c        **** {
 1742              		.loc 1 542 0
 1743              		.cfi_startproc
 1744              		@ args = 0, pretend = 0, frame = 0
 1745              		@ frame_needed = 0, uses_anonymous_args = 0
 1746 0000 10B5     		push	{r4, lr}
 1747              		.cfi_def_cfa_offset 8
 1748              		.cfi_offset 4, -8
 1749              		.cfi_offset 14, -4
 1750              	.LVL217:
 543:main.c        ****     // Determine the target angle based on the 'direction' variable
 544:main.c        ****     int ANGLE_TOLERANCE = 1;
 545:main.c        ****     int targetAngle = 0;
 546:main.c        ****     PWM_Wheels_WriteCompare1(PWM_Cal);
 1751              		.loc 1 546 0
 1752 0002 274C     		ldr	r4, .L151
 1753 0004 A06A     		ldr	r0, [r4, #40]	@ float
 1754 0006 FFF7FEFF 		bl	__aeabi_f2uiz
 1755              	.LVL218:
 1756 000a 80B2     		uxth	r0, r0
 1757 000c FFF7FEFF 		bl	PWM_Wheels_WriteCompare1
 1758              	.LVL219:
 547:main.c        ****     PWM_Wheels_WriteCompare2(PWM_Cal);
 1759              		.loc 1 547 0
 1760 0010 A06A     		ldr	r0, [r4, #40]	@ float
 1761 0012 FFF7FEFF 		bl	__aeabi_f2uiz
 1762              	.LVL220:
 1763 0016 80B2     		uxth	r0, r0
 1764 0018 FFF7FEFF 		bl	PWM_Wheels_WriteCompare2
 1765              	.LVL221:
 548:main.c        ****     switch (direction) {
 1766              		.loc 1 548 0
 1767 001c 214B     		ldr	r3, .L151+4
 1768 001e D3F86831 		ldr	r3, [r3, #360]
 1769 0022 032B     		cmp	r3, #3
 1770 0024 3AD8     		bhi	.L138
 1771 0026 DFE803F0 		tbb	[pc, r3]
 1772              	.L141:
 1773 002a 02       		.byte	(.L140-.L141)/2
 1774 002b 09       		.byte	(.L149-.L141)/2
 1775 002c 04       		.byte	(.L143-.L141)/2
 1776 002d 06       		.byte	(.L144-.L141)/2
 1777              		.p2align 1
ARM GAS  C:\Users\weiro\AppData\Local\Temp\ccpp9Q4b.s 			page 42


 1778              	.L140:
 549:main.c        ****         case 0:
 550:main.c        ****             targetAngle = 0;
 1779              		.loc 1 550 0
 1780 002e 0024     		movs	r4, #0
 1781 0030 05E0     		b	.L148
 1782              	.L143:
 1783              	.LVL222:
 551:main.c        ****             break;
 552:main.c        ****         case 1:
 553:main.c        ****             targetAngle = 90;
 554:main.c        ****             break;
 555:main.c        ****         case 2:
 556:main.c        ****             targetAngle = 180;
 1784              		.loc 1 556 0
 1785 0032 B424     		movs	r4, #180
 557:main.c        ****             break;
 1786              		.loc 1 557 0
 1787 0034 03E0     		b	.L148
 1788              	.LVL223:
 1789              	.L144:
 558:main.c        ****         case 3:
 559:main.c        ****             targetAngle = 270;
 1790              		.loc 1 559 0
 1791 0036 4FF48774 		mov	r4, #270
 560:main.c        ****             break;
 1792              		.loc 1 560 0
 1793 003a 00E0     		b	.L148
 1794              	.LVL224:
 1795              	.L149:
 553:main.c        ****             break;
 1796              		.loc 1 553 0
 1797 003c 5A24     		movs	r4, #90
 1798              	.LVL225:
 1799              	.L148:
 1800              	.LBB4:
 561:main.c        ****         default:
 562:main.c        ****             // Handle invalid direction
 563:main.c        ****             return;
 564:main.c        ****     }
 565:main.c        **** 
 566:main.c        ****     // Perform calibration by continuously checking heading
 567:main.c        ****     while (1) {
 568:main.c        ****         // Calculate the difference between the current heading and the target angle
 569:main.c        ****         int angleDifference = heading - targetAngle;
 1801              		.loc 1 569 0
 1802 003e 2046     		mov	r0, r4
 1803 0040 FFF7FEFF 		bl	__aeabi_i2d
 1804              	.LVL226:
 1805 0044 0246     		mov	r2, r0
 1806 0046 0B46     		mov	r3, r1
 1807 0048 1649     		ldr	r1, .L151+4
 1808 004a D1E92401 		ldrd	r0, [r1, #144]
 1809 004e FFF7FEFF 		bl	__aeabi_dsub
 1810              	.LVL227:
 1811 0052 FFF7FEFF 		bl	__aeabi_d2iz
 1812              	.LVL228:
ARM GAS  C:\Users\weiro\AppData\Local\Temp\ccpp9Q4b.s 			page 43


 570:main.c        **** 
 571:main.c        ****         // Check if we are within the tolerance range
 572:main.c        ****         if (angleDifference >= -ANGLE_TOLERANCE && angleDifference <= ANGLE_TOLERANCE) {
 1813              		.loc 1 572 0
 1814 0056 B0F1FF3F 		cmp	r0, #-1
 1815 005a 14DB     		blt	.L145
 1816              		.loc 1 572 0 is_stmt 0 discriminator 1
 1817 005c 0128     		cmp	r0, #1
 1818 005e 12DC     		bgt	.L145
 573:main.c        ****             // Calibration complete, within tolerance
 574:main.c        ****             stop();
 1819              		.loc 1 574 0 is_stmt 1
 1820 0060 FFF7FEFF 		bl	stop
 1821              	.LVL229:
 1822              	.LBE4:
 575:main.c        ****             break;
 576:main.c        ****             CyDelay(500);
 577:main.c        ****         } else if (angleDifference > 0) {
 578:main.c        ****             // Turn counterclockwise
 579:main.c        ****             turn_anticlockwise();
 580:main.c        ****         } else {
 581:main.c        ****             // Turn clockwise
 582:main.c        ****             turn_clockwise();
 583:main.c        ****         }
 584:main.c        ****         
 585:main.c        ****         CyDelay(50);
 586:main.c        ****     }
 587:main.c        ****     CyDelay(200);
 1823              		.loc 1 587 0
 1824 0064 C820     		movs	r0, #200
 1825 0066 FFF7FEFF 		bl	CyDelay
 1826              	.LVL230:
 588:main.c        ****     PWM_Wheels_WriteCompare1(PWM_Master);
 1827              		.loc 1 588 0
 1828 006a 0D4C     		ldr	r4, .L151
 1829              	.LVL231:
 1830 006c A068     		ldr	r0, [r4, #8]	@ float
 1831 006e FFF7FEFF 		bl	__aeabi_f2uiz
 1832              	.LVL232:
 1833 0072 80B2     		uxth	r0, r0
 1834 0074 FFF7FEFF 		bl	PWM_Wheels_WriteCompare1
 1835              	.LVL233:
 589:main.c        ****     PWM_Wheels_WriteCompare2(PWM_Master);
 1836              		.loc 1 589 0
 1837 0078 A068     		ldr	r0, [r4, #8]	@ float
 1838 007a FFF7FEFF 		bl	__aeabi_f2uiz
 1839              	.LVL234:
 1840 007e 80B2     		uxth	r0, r0
 1841 0080 FFF7FEFF 		bl	PWM_Wheels_WriteCompare2
 1842              	.LVL235:
 1843 0084 10BD     		pop	{r4, pc}
 1844              	.LVL236:
 1845              	.L145:
 1846              	.LBB5:
 577:main.c        ****             // Turn counterclockwise
 1847              		.loc 1 577 0
 1848 0086 0028     		cmp	r0, #0
ARM GAS  C:\Users\weiro\AppData\Local\Temp\ccpp9Q4b.s 			page 44


 1849 0088 02DD     		ble	.L146
 579:main.c        ****         } else {
 1850              		.loc 1 579 0
 1851 008a FFF7FEFF 		bl	turn_anticlockwise
 1852              	.LVL237:
 1853 008e 01E0     		b	.L147
 1854              	.LVL238:
 1855              	.L146:
 582:main.c        ****         }
 1856              		.loc 1 582 0
 1857 0090 FFF7FEFF 		bl	turn_clockwise
 1858              	.LVL239:
 1859              	.L147:
 585:main.c        ****     }
 1860              		.loc 1 585 0
 1861 0094 3220     		movs	r0, #50
 1862 0096 FFF7FEFF 		bl	CyDelay
 1863              	.LVL240:
 1864              	.LBE5:
 586:main.c        ****     CyDelay(200);
 1865              		.loc 1 586 0
 1866 009a D0E7     		b	.L148
 1867              	.LVL241:
 1868              	.L138:
 1869 009c 10BD     		pop	{r4, pc}
 1870              	.L152:
 1871 009e 00BF     		.align	2
 1872              	.L151:
 1873 00a0 00000000 		.word	.LANCHOR1
 1874 00a4 00000000 		.word	.LANCHOR0
 1875              		.cfi_endproc
 1876              	.LFE80:
 1877              		.size	gyro_cal_2, .-gyro_cal_2
 1878              		.section	.text.CW,"ax",%progbits
 1879              		.align	2
 1880              		.global	CW
 1881              		.thumb
 1882              		.thumb_func
 1883              		.type	CW, %function
 1884              	CW:
 1885              	.LFB81:
 590:main.c        **** }
 591:main.c        **** 
 592:main.c        **** void CW(int PT_TURN_COUNT, int flag_CW) // 1-clockwise; 0-anti
 593:main.c        **** {
 1886              		.loc 1 593 0
 1887              		.cfi_startproc
 1888              		@ args = 0, pretend = 0, frame = 0
 1889              		@ frame_needed = 0, uses_anonymous_args = 0
 1890              	.LVL242:
 1891 0000 70B5     		push	{r4, r5, r6, lr}
 1892              		.cfi_def_cfa_offset 16
 1893              		.cfi_offset 4, -16
 1894              		.cfi_offset 5, -12
 1895              		.cfi_offset 6, -8
 1896              		.cfi_offset 14, -4
 1897 0002 0546     		mov	r5, r0
ARM GAS  C:\Users\weiro\AppData\Local\Temp\ccpp9Q4b.s 			page 45


 1898 0004 0E46     		mov	r6, r1
 594:main.c        ****     while(abs(Count_Master) <= PT_TURN_COUNT && abs(Count_Slave) <= PT_TURN_COUNT)
 1899              		.loc 1 594 0
 1900 0006 0DE0     		b	.L154
 1901              	.LVL243:
 1902              	.L158:
 595:main.c        ****     {
 596:main.c        ****         Count_Master = QuadDec_1_GetCounter();
 1903              		.loc 1 596 0
 1904 0008 FFF7FEFF 		bl	QuadDec_1_GetCounter
 1905              	.LVL244:
 1906 000c 204C     		ldr	r4, .L164
 1907 000e 6060     		str	r0, [r4, #4]
 597:main.c        ****         Count_Slave = QuadDec_2_GetCounter();
 1908              		.loc 1 597 0
 1909 0010 FFF7FEFF 		bl	QuadDec_2_GetCounter
 1910              	.LVL245:
 1911 0014 A060     		str	r0, [r4, #8]
 598:main.c        ****         if (flag_CW == 1)
 1912              		.loc 1 598 0
 1913 0016 012E     		cmp	r6, #1
 1914 0018 02D1     		bne	.L155
 599:main.c        ****         {
 600:main.c        ****             turn_clockwise();
 1915              		.loc 1 600 0
 1916 001a FFF7FEFF 		bl	turn_clockwise
 1917              	.LVL246:
 1918 001e 01E0     		b	.L154
 1919              	.L155:
 601:main.c        ****         }
 602:main.c        ****         else 
 603:main.c        ****         {
 604:main.c        ****             turn_anticlockwise();
 1920              		.loc 1 604 0
 1921 0020 FFF7FEFF 		bl	turn_anticlockwise
 1922              	.LVL247:
 1923              	.L154:
 594:main.c        ****     {
 1924              		.loc 1 594 0
 1925 0024 1A4B     		ldr	r3, .L164
 1926 0026 5B68     		ldr	r3, [r3, #4]
 1927 0028 002B     		cmp	r3, #0
 1928 002a B8BF     		it	lt
 1929 002c 5B42     		rsblt	r3, r3, #0
 1930 002e AB42     		cmp	r3, r5
 1931 0030 06DC     		bgt	.L157
 594:main.c        ****     {
 1932              		.loc 1 594 0 is_stmt 0 discriminator 1
 1933 0032 174B     		ldr	r3, .L164
 1934 0034 9B68     		ldr	r3, [r3, #8]
 1935 0036 002B     		cmp	r3, #0
 1936 0038 B8BF     		it	lt
 1937 003a 5B42     		rsblt	r3, r3, #0
 1938 003c 9D42     		cmp	r5, r3
 1939 003e E3DA     		bge	.L158
 1940              	.L157:
 605:main.c        ****         }
ARM GAS  C:\Users\weiro\AppData\Local\Temp\ccpp9Q4b.s 			page 46


 606:main.c        ****     }
 607:main.c        ****     stop();    
 1941              		.loc 1 607 0 is_stmt 1
 1942 0040 FFF7FEFF 		bl	stop
 1943              	.LVL248:
 608:main.c        ****     if (flag_CW == 1)
 1944              		.loc 1 608 0
 1945 0044 012E     		cmp	r6, #1
 1946 0046 0ED1     		bne	.L159
 609:main.c        ****     {
 610:main.c        ****         if (direction == 3)
 1947              		.loc 1 610 0
 1948 0048 114B     		ldr	r3, .L164
 1949 004a D3F86831 		ldr	r3, [r3, #360]
 1950 004e 032B     		cmp	r3, #3
 1951 0050 04D1     		bne	.L160
 611:main.c        ****         {
 612:main.c        ****             direction = 0;
 1952              		.loc 1 612 0
 1953 0052 0022     		movs	r2, #0
 1954 0054 0E4B     		ldr	r3, .L164
 1955 0056 C3F86821 		str	r2, [r3, #360]
 1956 005a 11E0     		b	.L161
 1957              	.L160:
 613:main.c        ****         }
 614:main.c        ****         else
 615:main.c        ****         {
 616:main.c        ****             direction = direction +1;
 1958              		.loc 1 616 0
 1959 005c 0133     		adds	r3, r3, #1
 1960 005e 0C4A     		ldr	r2, .L164
 1961 0060 C2F86831 		str	r3, [r2, #360]
 1962 0064 0CE0     		b	.L161
 1963              	.L159:
 617:main.c        ****         }
 618:main.c        ****     }
 619:main.c        ****     else
 620:main.c        ****     {
 621:main.c        ****         if (direction ==0)
 1964              		.loc 1 621 0
 1965 0066 0A4B     		ldr	r3, .L164
 1966 0068 D3F86831 		ldr	r3, [r3, #360]
 1967 006c 23B9     		cbnz	r3, .L162
 622:main.c        ****         {
 623:main.c        ****             direction = 3;
 1968              		.loc 1 623 0
 1969 006e 0322     		movs	r2, #3
 1970 0070 074B     		ldr	r3, .L164
 1971 0072 C3F86821 		str	r2, [r3, #360]
 1972 0076 03E0     		b	.L161
 1973              	.L162:
 624:main.c        ****         }
 625:main.c        ****         else
 626:main.c        ****         {
 627:main.c        ****             direction = direction -1;
 1974              		.loc 1 627 0
 1975 0078 013B     		subs	r3, r3, #1
ARM GAS  C:\Users\weiro\AppData\Local\Temp\ccpp9Q4b.s 			page 47


 1976 007a 054A     		ldr	r2, .L164
 1977 007c C2F86831 		str	r3, [r2, #360]
 1978              	.L161:
 628:main.c        ****         }
 629:main.c        ****     }
 630:main.c        ****     CyDelay(50);
 1979              		.loc 1 630 0
 1980 0080 3220     		movs	r0, #50
 1981 0082 FFF7FEFF 		bl	CyDelay
 1982              	.LVL249:
 631:main.c        ****     gyro_cal_1();
 1983              		.loc 1 631 0
 1984 0086 FFF7FEFF 		bl	gyro_cal_1
 1985              	.LVL250:
 632:main.c        ****     //CyDelay(500);
 633:main.c        ****     //gyro_cal_2();
 634:main.c        ****     reset_count();
 1986              		.loc 1 634 0
 1987 008a FFF7FEFF 		bl	reset_count
 1988              	.LVL251:
 1989 008e 70BD     		pop	{r4, r5, r6, pc}
 1990              	.LVL252:
 1991              	.L165:
 1992              		.align	2
 1993              	.L164:
 1994 0090 00000000 		.word	.LANCHOR0
 1995              		.cfi_endproc
 1996              	.LFE81:
 1997              		.size	CW, .-CW
 1998              		.section	.text.Color_Sensing_Function,"ax",%progbits
 1999              		.align	2
 2000              		.global	Color_Sensing_Function
 2001              		.thumb
 2002              		.thumb_func
 2003              		.type	Color_Sensing_Function, %function
 2004              	Color_Sensing_Function:
 2005              	.LFB82:
 635:main.c        **** }
 636:main.c        **** 
 637:main.c        **** void Color_Sensing_Function()
 638:main.c        **** {
 2006              		.loc 1 638 0
 2007              		.cfi_startproc
 2008              		@ args = 0, pretend = 0, frame = 0
 2009              		@ frame_needed = 0, uses_anonymous_args = 0
 2010 0000 2DE9F041 		push	{r4, r5, r6, r7, r8, lr}
 2011              		.cfi_def_cfa_offset 24
 2012              		.cfi_offset 4, -24
 2013              		.cfi_offset 5, -20
 2014              		.cfi_offset 6, -16
 2015              		.cfi_offset 7, -12
 2016              		.cfi_offset 8, -8
 2017              		.cfi_offset 14, -4
 2018              	.LVL253:
 639:main.c        ****     int mode = 1;
 640:main.c        **** 
 641:main.c        ****     //int count = 0;
ARM GAS  C:\Users\weiro\AppData\Local\Temp\ccpp9Q4b.s 			page 48


 642:main.c        ****     
 643:main.c        ****     S0_Write(1);
 2019              		.loc 1 643 0
 2020 0004 0120     		movs	r0, #1
 2021 0006 FFF7FEFF 		bl	S0_Write
 2022              	.LVL254:
 644:main.c        ****     S1_Write(1);
 2023              		.loc 1 644 0
 2024 000a 0120     		movs	r0, #1
 2025 000c FFF7FEFF 		bl	S1_Write
 2026              	.LVL255:
 645:main.c        ****     CS_LED_Write(1);
 2027              		.loc 1 645 0
 2028 0010 0120     		movs	r0, #1
 2029 0012 FFF7FEFF 		bl	CS_LED_Write
 2030              	.LVL256:
 646:main.c        ****     CyDelay(10);
 2031              		.loc 1 646 0
 2032 0016 0A20     		movs	r0, #10
 2033 0018 FFF7FEFF 		bl	CyDelay
 2034              	.LVL257:
 647:main.c        ****     Counter_ColorSensor_Start();
 2035              		.loc 1 647 0
 2036 001c FFF7FEFF 		bl	Counter_ColorSensor_Start
 2037              	.LVL258:
 648:main.c        ****     
 649:main.c        ****     if (mode == 1) // red mode --> red filter
 650:main.c        ****     {
 651:main.c        ****         compare_ready = 0;
 2038              		.loc 1 651 0
 2039 0020 0024     		movs	r4, #0
 2040 0022 C34B     		ldr	r3, .L184
 2041 0024 9C64     		str	r4, [r3, #72]
 652:main.c        ****         S2_Write(0);
 2042              		.loc 1 652 0
 2043 0026 2046     		mov	r0, r4
 2044 0028 FFF7FEFF 		bl	S2_Write
 2045              	.LVL259:
 653:main.c        ****         S3_Write(0);
 2046              		.loc 1 653 0
 2047 002c 2046     		mov	r0, r4
 2048 002e FFF7FEFF 		bl	S3_Write
 2049              	.LVL260:
 654:main.c        ****         CyDelay(20);
 2050              		.loc 1 654 0
 2051 0032 1420     		movs	r0, #20
 2052 0034 FFF7FEFF 		bl	CyDelay
 2053              	.LVL261:
 655:main.c        ****         Control_Reg_1_Write(1);
 2054              		.loc 1 655 0
 2055 0038 0120     		movs	r0, #1
 2056 003a FFF7FEFF 		bl	Control_Reg_1_Write
 2057              	.LVL262:
 656:main.c        ****         CyDelay(1);
 2058              		.loc 1 656 0
 2059 003e 0120     		movs	r0, #1
 2060 0040 FFF7FEFF 		bl	CyDelay
ARM GAS  C:\Users\weiro\AppData\Local\Temp\ccpp9Q4b.s 			page 49


 2061              	.LVL263:
 657:main.c        ****         Control_Reg_1_Write(0);
 2062              		.loc 1 657 0
 2063 0044 2046     		mov	r0, r4
 2064 0046 FFF7FEFF 		bl	Control_Reg_1_Write
 2065              	.LVL264:
 2066              	.L167:
 658:main.c        ****         while(compare_ready==0)
 2067              		.loc 1 658 0 discriminator 1
 2068 004a B94B     		ldr	r3, .L184
 2069 004c 9B6C     		ldr	r3, [r3, #72]
 2070 004e 002B     		cmp	r3, #0
 2071 0050 FBD0     		beq	.L167
 659:main.c        ****         {
 660:main.c        ****             // waiting period (until compare ready = 1
 661:main.c        ****             //sprintf(string_1,"waiting\n");
 662:main.c        ****             //UART_1_PutString(string_1);
 663:main.c        ****         }
 664:main.c        ****         CS_count_Red = Counter_ColorSensor_ReadCapture();
 2072              		.loc 1 664 0
 2073 0052 FFF7FEFF 		bl	Counter_ColorSensor_ReadCapture
 2074              	.LVL265:
 2075 0056 0246     		mov	r2, r0
 2076 0058 B54D     		ldr	r5, .L184
 2077 005a C5F88001 		str	r0, [r5, #384]
 665:main.c        ****         sprintf(string_1,"red: %d\n", CS_count_Red);
 2078              		.loc 1 665 0
 2079 005e B54C     		ldr	r4, .L184+4
 2080 0060 B549     		ldr	r1, .L184+8
 2081 0062 2046     		mov	r0, r4
 2082 0064 FFF7FEFF 		bl	sprintf
 2083              	.LVL266:
 666:main.c        ****         UART_1_PutString(string_1);
 2084              		.loc 1 666 0
 2085 0068 2046     		mov	r0, r4
 2086 006a FFF7FEFF 		bl	UART_1_PutString
 2087              	.LVL267:
 667:main.c        ****         mode = 2;
 668:main.c        ****     }
 669:main.c        ****     Counter_ColorSensor_Stop();
 2088              		.loc 1 669 0
 2089 006e FFF7FEFF 		bl	Counter_ColorSensor_Stop
 2090              	.LVL268:
 670:main.c        ****     CyDelay(100);
 2091              		.loc 1 670 0
 2092 0072 6420     		movs	r0, #100
 2093 0074 FFF7FEFF 		bl	CyDelay
 2094              	.LVL269:
 671:main.c        ****     Counter_ColorSensor_Start();
 2095              		.loc 1 671 0
 2096 0078 FFF7FEFF 		bl	Counter_ColorSensor_Start
 2097              	.LVL270:
 672:main.c        ****     if (mode == 2) // green mode --> green filter
 673:main.c        ****     {
 674:main.c        ****         compare_ready = 0;
 2098              		.loc 1 674 0
 2099 007c 0024     		movs	r4, #0
ARM GAS  C:\Users\weiro\AppData\Local\Temp\ccpp9Q4b.s 			page 50


 2100 007e AC64     		str	r4, [r5, #72]
 675:main.c        ****         S2_Write(1);
 2101              		.loc 1 675 0
 2102 0080 0120     		movs	r0, #1
 2103 0082 FFF7FEFF 		bl	S2_Write
 2104              	.LVL271:
 676:main.c        ****         S3_Write(1);
 2105              		.loc 1 676 0
 2106 0086 0120     		movs	r0, #1
 2107 0088 FFF7FEFF 		bl	S3_Write
 2108              	.LVL272:
 677:main.c        ****         CyDelay(20);
 2109              		.loc 1 677 0
 2110 008c 1420     		movs	r0, #20
 2111 008e FFF7FEFF 		bl	CyDelay
 2112              	.LVL273:
 678:main.c        ****         Control_Reg_1_Write(1);
 2113              		.loc 1 678 0
 2114 0092 0120     		movs	r0, #1
 2115 0094 FFF7FEFF 		bl	Control_Reg_1_Write
 2116              	.LVL274:
 679:main.c        ****         CyDelay(1);
 2117              		.loc 1 679 0
 2118 0098 0120     		movs	r0, #1
 2119 009a FFF7FEFF 		bl	CyDelay
 2120              	.LVL275:
 680:main.c        ****         Control_Reg_1_Write(0);
 2121              		.loc 1 680 0
 2122 009e 2046     		mov	r0, r4
 2123 00a0 FFF7FEFF 		bl	Control_Reg_1_Write
 2124              	.LVL276:
 2125              	.L168:
 681:main.c        ****         while(compare_ready==0)
 2126              		.loc 1 681 0 discriminator 1
 2127 00a4 A24B     		ldr	r3, .L184
 2128 00a6 9B6C     		ldr	r3, [r3, #72]
 2129 00a8 002B     		cmp	r3, #0
 2130 00aa FBD0     		beq	.L168
 682:main.c        ****         {
 683:main.c        ****             // waiting period (until compare ready = 1
 684:main.c        ****         }
 685:main.c        ****         CS_count_Green = Counter_ColorSensor_ReadCapture();
 2131              		.loc 1 685 0
 2132 00ac FFF7FEFF 		bl	Counter_ColorSensor_ReadCapture
 2133              	.LVL277:
 2134 00b0 0246     		mov	r2, r0
 2135 00b2 9F4D     		ldr	r5, .L184
 2136 00b4 C5F88401 		str	r0, [r5, #388]
 686:main.c        ****         sprintf(string_1,"green: %d\n", CS_count_Green);
 2137              		.loc 1 686 0
 2138 00b8 9E4C     		ldr	r4, .L184+4
 2139 00ba A049     		ldr	r1, .L184+12
 2140 00bc 2046     		mov	r0, r4
 2141 00be FFF7FEFF 		bl	sprintf
 2142              	.LVL278:
 687:main.c        ****         UART_1_PutString(string_1);
 2143              		.loc 1 687 0
ARM GAS  C:\Users\weiro\AppData\Local\Temp\ccpp9Q4b.s 			page 51


 2144 00c2 2046     		mov	r0, r4
 2145 00c4 FFF7FEFF 		bl	UART_1_PutString
 2146              	.LVL279:
 688:main.c        ****         mode = 3;
 689:main.c        ****     }
 690:main.c        ****     Counter_ColorSensor_Stop();
 2147              		.loc 1 690 0
 2148 00c8 FFF7FEFF 		bl	Counter_ColorSensor_Stop
 2149              	.LVL280:
 691:main.c        ****     CyDelay(100);
 2150              		.loc 1 691 0
 2151 00cc 6420     		movs	r0, #100
 2152 00ce FFF7FEFF 		bl	CyDelay
 2153              	.LVL281:
 692:main.c        ****     Counter_ColorSensor_Start();
 2154              		.loc 1 692 0
 2155 00d2 FFF7FEFF 		bl	Counter_ColorSensor_Start
 2156              	.LVL282:
 693:main.c        ****     if (mode == 3) // blue mode --> blue filter
 694:main.c        ****     {
 695:main.c        ****         compare_ready = 0;
 2157              		.loc 1 695 0
 2158 00d6 0024     		movs	r4, #0
 2159 00d8 AC64     		str	r4, [r5, #72]
 696:main.c        ****         S2_Write(0);
 2160              		.loc 1 696 0
 2161 00da 2046     		mov	r0, r4
 2162 00dc FFF7FEFF 		bl	S2_Write
 2163              	.LVL283:
 697:main.c        ****         S3_Write(1);
 2164              		.loc 1 697 0
 2165 00e0 0120     		movs	r0, #1
 2166 00e2 FFF7FEFF 		bl	S3_Write
 2167              	.LVL284:
 698:main.c        ****         CyDelay(20);
 2168              		.loc 1 698 0
 2169 00e6 1420     		movs	r0, #20
 2170 00e8 FFF7FEFF 		bl	CyDelay
 2171              	.LVL285:
 699:main.c        ****         Control_Reg_1_Write(1);
 2172              		.loc 1 699 0
 2173 00ec 0120     		movs	r0, #1
 2174 00ee FFF7FEFF 		bl	Control_Reg_1_Write
 2175              	.LVL286:
 700:main.c        ****         CyDelay(1);
 2176              		.loc 1 700 0
 2177 00f2 0120     		movs	r0, #1
 2178 00f4 FFF7FEFF 		bl	CyDelay
 2179              	.LVL287:
 701:main.c        ****         Control_Reg_1_Write(0);
 2180              		.loc 1 701 0
 2181 00f8 2046     		mov	r0, r4
 2182 00fa FFF7FEFF 		bl	Control_Reg_1_Write
 2183              	.LVL288:
 2184              	.L169:
 702:main.c        ****         while(compare_ready==0)
 2185              		.loc 1 702 0 discriminator 1
ARM GAS  C:\Users\weiro\AppData\Local\Temp\ccpp9Q4b.s 			page 52


 2186 00fe 8C4B     		ldr	r3, .L184
 2187 0100 9B6C     		ldr	r3, [r3, #72]
 2188 0102 002B     		cmp	r3, #0
 2189 0104 FBD0     		beq	.L169
 703:main.c        ****         {
 704:main.c        ****             // waiting period (until compare ready = 1
 705:main.c        ****         }
 706:main.c        ****         CS_count_Blue = Counter_ColorSensor_ReadCapture();
 2190              		.loc 1 706 0
 2191 0106 FFF7FEFF 		bl	Counter_ColorSensor_ReadCapture
 2192              	.LVL289:
 2193 010a 0246     		mov	r2, r0
 2194 010c 884C     		ldr	r4, .L184
 2195 010e C4F88801 		str	r0, [r4, #392]
 707:main.c        ****         sprintf(string_1,"blue: %d\n", CS_count_Blue);
 2196              		.loc 1 707 0
 2197 0112 884D     		ldr	r5, .L184+4
 2198 0114 8A49     		ldr	r1, .L184+16
 2199 0116 2846     		mov	r0, r5
 2200 0118 FFF7FEFF 		bl	sprintf
 2201              	.LVL290:
 708:main.c        ****         UART_1_PutString(string_1);
 2202              		.loc 1 708 0
 2203 011c 2846     		mov	r0, r5
 2204 011e FFF7FEFF 		bl	UART_1_PutString
 2205              	.LVL291:
 709:main.c        ****         mode = 0;
 710:main.c        ****     }
 711:main.c        ****     Counter_ColorSensor_Stop();
 2206              		.loc 1 711 0
 2207 0122 FFF7FEFF 		bl	Counter_ColorSensor_Stop
 2208              	.LVL292:
 712:main.c        ****     if (CS_count_Red > CS_count_Green && CS_count_Red > CS_count_Blue)
 2209              		.loc 1 712 0
 2210 0126 D4F88031 		ldr	r3, [r4, #384]
 2211 012a D4F88421 		ldr	r2, [r4, #388]
 2212 012e 9342     		cmp	r3, r2
 2213 0130 0FDD     		ble	.L170
 2214              		.loc 1 712 0 is_stmt 0 discriminator 1
 2215 0132 D4F88821 		ldr	r2, [r4, #392]
 2216 0136 9342     		cmp	r3, r2
 2217 0138 0BDD     		ble	.L170
 713:main.c        ****     {
 714:main.c        ****         color_detected = 1; //red
 2218              		.loc 1 714 0 is_stmt 1
 2219 013a 0120     		movs	r0, #1
 2220 013c C4F88C01 		str	r0, [r4, #396]
 715:main.c        ****         led_red_Write(1);
 2221              		.loc 1 715 0
 2222 0140 FFF7FEFF 		bl	led_red_Write
 2223              	.LVL293:
 716:main.c        ****         CyDelay(1000);
 2224              		.loc 1 716 0
 2225 0144 4FF47A70 		mov	r0, #1000
 2226 0148 FFF7FEFF 		bl	CyDelay
 2227              	.LVL294:
 717:main.c        ****         led_red_Write(0);
ARM GAS  C:\Users\weiro\AppData\Local\Temp\ccpp9Q4b.s 			page 53


 2228              		.loc 1 717 0
 2229 014c 0020     		movs	r0, #0
 2230 014e FFF7FEFF 		bl	led_red_Write
 2231              	.LVL295:
 2232              	.L170:
 718:main.c        ****     }
 719:main.c        ****     if (CS_count_Green > CS_count_Red && CS_count_Green > CS_count_Blue)
 2233              		.loc 1 719 0
 2234 0152 774B     		ldr	r3, .L184
 2235 0154 D3F88421 		ldr	r2, [r3, #388]
 2236 0158 D3F88031 		ldr	r3, [r3, #384]
 2237 015c 9A42     		cmp	r2, r3
 2238 015e 12DD     		ble	.L171
 2239              		.loc 1 719 0 is_stmt 0 discriminator 1
 2240 0160 734B     		ldr	r3, .L184
 2241 0162 D3F88831 		ldr	r3, [r3, #392]
 2242 0166 9A42     		cmp	r2, r3
 2243 0168 0DDD     		ble	.L171
 720:main.c        ****     {
 721:main.c        ****         color_detected = 2; //green
 2244              		.loc 1 721 0 is_stmt 1
 2245 016a 0222     		movs	r2, #2
 2246 016c 704B     		ldr	r3, .L184
 2247 016e C3F88C21 		str	r2, [r3, #396]
 722:main.c        ****         led_green_Write(1);
 2248              		.loc 1 722 0
 2249 0172 0120     		movs	r0, #1
 2250 0174 FFF7FEFF 		bl	led_green_Write
 2251              	.LVL296:
 723:main.c        ****         CyDelay(1000);
 2252              		.loc 1 723 0
 2253 0178 4FF47A70 		mov	r0, #1000
 2254 017c FFF7FEFF 		bl	CyDelay
 2255              	.LVL297:
 724:main.c        ****         led_green_Write(0);
 2256              		.loc 1 724 0
 2257 0180 0020     		movs	r0, #0
 2258 0182 FFF7FEFF 		bl	led_green_Write
 2259              	.LVL298:
 2260              	.L171:
 725:main.c        ****     }
 726:main.c        ****     if (CS_count_Blue > CS_count_Red && CS_count_Blue > CS_count_Green)
 2261              		.loc 1 726 0
 2262 0186 6A4B     		ldr	r3, .L184
 2263 0188 D3F88821 		ldr	r2, [r3, #392]
 2264 018c D3F88031 		ldr	r3, [r3, #384]
 2265 0190 9A42     		cmp	r2, r3
 2266 0192 12DD     		ble	.L172
 2267              		.loc 1 726 0 is_stmt 0 discriminator 1
 2268 0194 664B     		ldr	r3, .L184
 2269 0196 D3F88431 		ldr	r3, [r3, #388]
 2270 019a 9A42     		cmp	r2, r3
 2271 019c 0DDD     		ble	.L172
 727:main.c        ****     {
 728:main.c        ****         color_detected = 3; //blue
 2272              		.loc 1 728 0 is_stmt 1
 2273 019e 0322     		movs	r2, #3
ARM GAS  C:\Users\weiro\AppData\Local\Temp\ccpp9Q4b.s 			page 54


 2274 01a0 634B     		ldr	r3, .L184
 2275 01a2 C3F88C21 		str	r2, [r3, #396]
 729:main.c        ****         led_blue_Write(1);
 2276              		.loc 1 729 0
 2277 01a6 0120     		movs	r0, #1
 2278 01a8 FFF7FEFF 		bl	led_blue_Write
 2279              	.LVL299:
 730:main.c        ****         CyDelay(1000);
 2280              		.loc 1 730 0
 2281 01ac 4FF47A70 		mov	r0, #1000
 2282 01b0 FFF7FEFF 		bl	CyDelay
 2283              	.LVL300:
 731:main.c        ****         led_blue_Write(0);
 2284              		.loc 1 731 0
 2285 01b4 0020     		movs	r0, #0
 2286 01b6 FFF7FEFF 		bl	led_blue_Write
 2287              	.LVL301:
 2288              	.L172:
 732:main.c        ****     }
 733:main.c        ****     CS_LED_Write(0);
 2289              		.loc 1 733 0
 2290 01ba 0020     		movs	r0, #0
 2291 01bc FFF7FEFF 		bl	CS_LED_Write
 2292              	.LVL302:
 734:main.c        ****     while (color_detected == 1) //red
 2293              		.loc 1 734 0
 2294 01c0 1CE0     		b	.L175
 2295              	.L174:
 735:main.c        ****     {
 736:main.c        ****         while(Front_Echo_2_Read()==0)
 737:main.c        ****         {
 738:main.c        ****             Trigger_Write(1);
 2296              		.loc 1 738 0
 2297 01c2 0120     		movs	r0, #1
 2298 01c4 FFF7FEFF 		bl	Trigger_Write
 2299              	.LVL303:
 739:main.c        ****             CyDelayUs(10);
 2300              		.loc 1 739 0
 2301 01c8 0A20     		movs	r0, #10
 2302 01ca FFF7FEFF 		bl	CyDelayUs
 2303              	.LVL304:
 740:main.c        ****             Trigger_Write(0);
 2304              		.loc 1 740 0
 2305 01ce 0020     		movs	r0, #0
 2306 01d0 FFF7FEFF 		bl	Trigger_Write
 2307              	.LVL305:
 2308              	.L177:
 736:main.c        ****         {
 2309              		.loc 1 736 0
 2310 01d4 FFF7FEFF 		bl	Front_Echo_2_Read
 2311              	.LVL306:
 2312 01d8 0028     		cmp	r0, #0
 2313 01da F2D0     		beq	.L174
 741:main.c        ****         }
 742:main.c        ****         
 743:main.c        ****         if (front_measured_2 >= 10)
 2314              		.loc 1 743 0
ARM GAS  C:\Users\weiro\AppData\Local\Temp\ccpp9Q4b.s 			page 55


 2315 01dc 0022     		movs	r2, #0
 2316 01de 594B     		ldr	r3, .L184+20
 2317 01e0 5949     		ldr	r1, .L184+24
 2318 01e2 D1E90001 		ldrd	r0, [r1]
 2319 01e6 FFF7FEFF 		bl	__aeabi_dcmpge
 2320              	.LVL307:
 2321 01ea 38B1     		cbz	r0, .L175
 744:main.c        ****         {
 745:main.c        ****             move_fixed_dist(20, 1);
 2322              		.loc 1 745 0
 2323 01ec 0121     		movs	r1, #1
 2324 01ee 1420     		movs	r0, #20
 2325 01f0 FFF7FEFF 		bl	move_fixed_dist
 2326              	.LVL308:
 746:main.c        ****             color_detected = 0;
 2327              		.loc 1 746 0
 2328 01f4 0022     		movs	r2, #0
 2329 01f6 4E4B     		ldr	r3, .L184
 2330 01f8 C3F88C21 		str	r2, [r3, #396]
 2331              	.L175:
 734:main.c        ****     {
 2332              		.loc 1 734 0
 2333 01fc 4C4B     		ldr	r3, .L184
 2334 01fe D3F88C31 		ldr	r3, [r3, #396]
 2335 0202 012B     		cmp	r3, #1
 2336 0204 E6D0     		beq	.L177
 2337 0206 64E0     		b	.L178
 2338              	.L179:
 747:main.c        ****         }
 748:main.c        ****     }
 749:main.c        ****     while (color_detected == 2) //green
 750:main.c        ****     {
 751:main.c        ****         CW(PT_TURN_COUNT, 1);
 2339              		.loc 1 751 0
 2340 0208 494D     		ldr	r5, .L184
 2341 020a 2C46     		mov	r4, r5
 2342 020c F4E96401 		ldrd	r0, [r4, #400]!
 2343 0210 FFF7FEFF 		bl	__aeabi_d2iz
 2344              	.LVL309:
 2345 0214 0121     		movs	r1, #1
 2346 0216 FFF7FEFF 		bl	CW
 2347              	.LVL310:
 752:main.c        ****         CyDelay(500);
 2348              		.loc 1 752 0
 2349 021a 4FF4FA70 		mov	r0, #500
 2350 021e FFF7FEFF 		bl	CyDelay
 2351              	.LVL311:
 753:main.c        ****         move2slit();
 2352              		.loc 1 753 0
 2353 0222 FFF7FEFF 		bl	move2slit
 2354              	.LVL312:
 754:main.c        ****         CyDelay(500);
 2355              		.loc 1 754 0
 2356 0226 4FF4FA70 		mov	r0, #500
 2357 022a FFF7FEFF 		bl	CyDelay
 2358              	.LVL313:
 755:main.c        ****         move_fixed_dist(20, 1);
ARM GAS  C:\Users\weiro\AppData\Local\Temp\ccpp9Q4b.s 			page 56


 2359              		.loc 1 755 0
 2360 022e 0121     		movs	r1, #1
 2361 0230 1420     		movs	r0, #20
 2362 0232 FFF7FEFF 		bl	move_fixed_dist
 2363              	.LVL314:
 756:main.c        ****         CyDelay(500);
 2364              		.loc 1 756 0
 2365 0236 4FF4FA70 		mov	r0, #500
 2366 023a FFF7FEFF 		bl	CyDelay
 2367              	.LVL315:
 757:main.c        ****         CW(PT_TURN_COUNT, 0);
 2368              		.loc 1 757 0
 2369 023e D4E90001 		ldrd	r0, [r4]
 2370 0242 FFF7FEFF 		bl	__aeabi_d2iz
 2371              	.LVL316:
 2372 0246 0021     		movs	r1, #0
 2373 0248 FFF7FEFF 		bl	CW
 2374              	.LVL317:
 758:main.c        ****         CyDelay(500);
 2375              		.loc 1 758 0
 2376 024c 4FF4FA70 		mov	r0, #500
 2377 0250 FFF7FEFF 		bl	CyDelay
 2378              	.LVL318:
 759:main.c        ****         move_fixed_dist(30, 1);
 2379              		.loc 1 759 0
 2380 0254 0121     		movs	r1, #1
 2381 0256 1E20     		movs	r0, #30
 2382 0258 FFF7FEFF 		bl	move_fixed_dist
 2383              	.LVL319:
 760:main.c        ****         CyDelay(500);
 2384              		.loc 1 760 0
 2385 025c 4FF4FA70 		mov	r0, #500
 2386 0260 FFF7FEFF 		bl	CyDelay
 2387              	.LVL320:
 761:main.c        ****         move2slit();
 2388              		.loc 1 761 0
 2389 0264 FFF7FEFF 		bl	move2slit
 2390              	.LVL321:
 762:main.c        ****         CyDelay(500);
 2391              		.loc 1 762 0
 2392 0268 4FF4FA70 		mov	r0, #500
 2393 026c FFF7FEFF 		bl	CyDelay
 2394              	.LVL322:
 763:main.c        ****         move_fixed_dist(20, 1);
 2395              		.loc 1 763 0
 2396 0270 0121     		movs	r1, #1
 2397 0272 1420     		movs	r0, #20
 2398 0274 FFF7FEFF 		bl	move_fixed_dist
 2399              	.LVL323:
 764:main.c        ****         CyDelay(500);
 2400              		.loc 1 764 0
 2401 0278 4FF4FA70 		mov	r0, #500
 2402 027c FFF7FEFF 		bl	CyDelay
 2403              	.LVL324:
 765:main.c        ****         CW(PT_TURN_COUNT, 0);
 2404              		.loc 1 765 0
 2405 0280 D4E90001 		ldrd	r0, [r4]
ARM GAS  C:\Users\weiro\AppData\Local\Temp\ccpp9Q4b.s 			page 57


 2406 0284 FFF7FEFF 		bl	__aeabi_d2iz
 2407              	.LVL325:
 2408 0288 0021     		movs	r1, #0
 2409 028a FFF7FEFF 		bl	CW
 2410              	.LVL326:
 766:main.c        ****         CyDelay(500);
 2411              		.loc 1 766 0
 2412 028e 4FF4FA70 		mov	r0, #500
 2413 0292 FFF7FEFF 		bl	CyDelay
 2414              	.LVL327:
 767:main.c        ****         move_fixed_dist(20, 1);
 2415              		.loc 1 767 0
 2416 0296 0121     		movs	r1, #1
 2417 0298 1420     		movs	r0, #20
 2418 029a FFF7FEFF 		bl	move_fixed_dist
 2419              	.LVL328:
 768:main.c        ****         CyDelay(500);
 2420              		.loc 1 768 0
 2421 029e 4FF4FA70 		mov	r0, #500
 2422 02a2 FFF7FEFF 		bl	CyDelay
 2423              	.LVL329:
 769:main.c        ****         CW(PT_TURN_COUNT, 1);
 2424              		.loc 1 769 0
 2425 02a6 D4E90001 		ldrd	r0, [r4]
 2426 02aa FFF7FEFF 		bl	__aeabi_d2iz
 2427              	.LVL330:
 2428 02ae 0121     		movs	r1, #1
 2429 02b0 FFF7FEFF 		bl	CW
 2430              	.LVL331:
 770:main.c        ****         CyDelay(500);
 2431              		.loc 1 770 0
 2432 02b4 4FF4FA70 		mov	r0, #500
 2433 02b8 FFF7FEFF 		bl	CyDelay
 2434              	.LVL332:
 771:main.c        ****         move_fixed_dist(20, 1);
 2435              		.loc 1 771 0
 2436 02bc 0121     		movs	r1, #1
 2437 02be 1420     		movs	r0, #20
 2438 02c0 FFF7FEFF 		bl	move_fixed_dist
 2439              	.LVL333:
 772:main.c        ****         CyDelay(500);
 2440              		.loc 1 772 0
 2441 02c4 4FF4FA70 		mov	r0, #500
 2442 02c8 FFF7FEFF 		bl	CyDelay
 2443              	.LVL334:
 773:main.c        ****         color_detected = 0;
 2444              		.loc 1 773 0
 2445 02cc 0023     		movs	r3, #0
 2446 02ce C5F88C31 		str	r3, [r5, #396]
 2447              	.L178:
 749:main.c        ****     {
 2448              		.loc 1 749 0
 2449 02d2 174B     		ldr	r3, .L184
 2450 02d4 D3F88C31 		ldr	r3, [r3, #396]
 2451 02d8 022B     		cmp	r3, #2
 2452 02da 95D0     		beq	.L179
 2453 02dc 21E0     		b	.L180
ARM GAS  C:\Users\weiro\AppData\Local\Temp\ccpp9Q4b.s 			page 58


 2454              	.L181:
 2455              	.LBB6:
 774:main.c        ****     }
 775:main.c        ****     while (color_detected == 3) //blue
 776:main.c        ****     {
 777:main.c        ****         int a = y_coord;
 2456              		.loc 1 777 0
 2457 02de 144C     		ldr	r4, .L184
 2458 02e0 04F5B873 		add	r3, r4, #368
 2459 02e4 D3E90067 		ldrd	r6, [r3]
 2460 02e8 3046     		mov	r0, r6
 2461 02ea 3946     		mov	r1, r7
 2462 02ec FFF7FEFF 		bl	__aeabi_d2iz
 2463              	.LVL335:
 2464 02f0 8046     		mov	r8, r0
 2465              	.LVL336:
 778:main.c        ****         sprintf(string_1, "y_coord = %lf\n", y_coord);
 2466              		.loc 1 778 0
 2467 02f2 104D     		ldr	r5, .L184+4
 2468 02f4 3246     		mov	r2, r6
 2469 02f6 3B46     		mov	r3, r7
 2470 02f8 1449     		ldr	r1, .L184+28
 2471 02fa 2846     		mov	r0, r5
 2472              	.LVL337:
 2473 02fc FFF7FEFF 		bl	sprintf
 2474              	.LVL338:
 779:main.c        ****         UART_2_PutString(string_1);
 2475              		.loc 1 779 0
 2476 0300 2846     		mov	r0, r5
 2477 0302 FFF7FEFF 		bl	UART_2_PutString
 2478              	.LVL339:
 780:main.c        ****         move_fixed_dist(abs(a), 0);
 2479              		.loc 1 780 0
 2480 0306 0021     		movs	r1, #0
 2481 0308 88EAE870 		eor	r0, r8, r8, asr #31
 2482 030c A0EBE870 		sub	r0, r0, r8, asr #31
 2483 0310 FFF7FEFF 		bl	move_fixed_dist
 2484              	.LVL340:
 781:main.c        ****         CyDelay(500);
 2485              		.loc 1 781 0
 2486 0314 4FF4FA70 		mov	r0, #500
 2487 0318 FFF7FEFF 		bl	CyDelay
 2488              	.LVL341:
 782:main.c        ****         color_detected = 0;
 2489              		.loc 1 782 0
 2490 031c 0023     		movs	r3, #0
 2491 031e C4F88C31 		str	r3, [r4, #396]
 2492              	.LVL342:
 2493              	.L180:
 2494              	.LBE6:
 775:main.c        ****     {
 2495              		.loc 1 775 0
 2496 0322 034B     		ldr	r3, .L184
 2497 0324 D3F88C31 		ldr	r3, [r3, #396]
 2498 0328 032B     		cmp	r3, #3
 2499 032a D8D0     		beq	.L181
 783:main.c        ****         
ARM GAS  C:\Users\weiro\AppData\Local\Temp\ccpp9Q4b.s 			page 59


 784:main.c        ****     }
 785:main.c        ****     //step = step +1;
 786:main.c        **** }
 2500              		.loc 1 786 0
 2501 032c BDE8F081 		pop	{r4, r5, r6, r7, r8, pc}
 2502              	.L185:
 2503              		.align	2
 2504              	.L184:
 2505 0330 00000000 		.word	.LANCHOR0
 2506 0334 00000000 		.word	string_1
 2507 0338 48000000 		.word	.LC4
 2508 033c 54000000 		.word	.LC5
 2509 0340 60000000 		.word	.LC6
 2510 0344 00002440 		.word	1076101120
 2511 0348 00000000 		.word	front_measured_2
 2512 034c 6C000000 		.word	.LC7
 2513              		.cfi_endproc
 2514              	.LFE82:
 2515              		.size	Color_Sensing_Function, .-Color_Sensing_Function
 2516              		.section	.text.Gyroscope_Function,"ax",%progbits
 2517              		.align	2
 2518              		.global	Gyroscope_Function
 2519              		.thumb
 2520              		.thumb_func
 2521              		.type	Gyroscope_Function, %function
 2522              	Gyroscope_Function:
 2523              	.LFB83:
 787:main.c        **** 
 788:main.c        **** void Gyroscope_Function()
 789:main.c        **** {
 2524              		.loc 1 789 0
 2525              		.cfi_startproc
 2526              		@ args = 0, pretend = 0, frame = 0
 2527              		@ frame_needed = 0, uses_anonymous_args = 0
 2528 0000 08B5     		push	{r3, lr}
 2529              		.cfi_def_cfa_offset 8
 2530              		.cfi_offset 3, -8
 2531              		.cfi_offset 14, -4
 790:main.c        ****     //Bring the sensor out of sleep mode
 791:main.c        ****     I2C_1_MasterSendStart(MPU6050,0); //Steps 1-2
 2532              		.loc 1 791 0
 2533 0002 0021     		movs	r1, #0
 2534 0004 6820     		movs	r0, #104
 2535 0006 FFF7FEFF 		bl	I2C_1_MasterSendStart
 2536              	.LVL343:
 792:main.c        ****     I2C_1_MasterWriteByte(0x6B); //Step 3
 2537              		.loc 1 792 0
 2538 000a 6B20     		movs	r0, #107
 2539 000c FFF7FEFF 		bl	I2C_1_MasterWriteByte
 2540              	.LVL344:
 793:main.c        ****     I2C_1_MasterWriteByte(0x00); //Step 4
 2541              		.loc 1 793 0
 2542 0010 0020     		movs	r0, #0
 2543 0012 FFF7FEFF 		bl	I2C_1_MasterWriteByte
 2544              	.LVL345:
 794:main.c        ****     I2C_1_MasterSendStop(); //Step 5
 2545              		.loc 1 794 0
ARM GAS  C:\Users\weiro\AppData\Local\Temp\ccpp9Q4b.s 			page 60


 2546 0016 FFF7FEFF 		bl	I2C_1_MasterSendStop
 2547              	.LVL346:
 795:main.c        ****     CyDelay(1);
 2548              		.loc 1 795 0
 2549 001a 0120     		movs	r0, #1
 2550 001c FFF7FEFF 		bl	CyDelay
 2551              	.LVL347:
 796:main.c        ****     
 797:main.c        ****     
 798:main.c        ****     //Set the scaling factor of the sensor
 799:main.c        ****     I2C_1_MasterSendStart(MPU6050,0); //Steps 1-2
 2552              		.loc 1 799 0
 2553 0020 0021     		movs	r1, #0
 2554 0022 6820     		movs	r0, #104
 2555 0024 FFF7FEFF 		bl	I2C_1_MasterSendStart
 2556              	.LVL348:
 800:main.c        ****     I2C_1_MasterWriteByte(0x1B); //Step 3
 2557              		.loc 1 800 0
 2558 0028 1B20     		movs	r0, #27
 2559 002a FFF7FEFF 		bl	I2C_1_MasterWriteByte
 2560              	.LVL349:
 801:main.c        ****     I2C_1_MasterWriteByte(0x08); //Step 4
 2561              		.loc 1 801 0
 2562 002e 0820     		movs	r0, #8
 2563 0030 FFF7FEFF 		bl	I2C_1_MasterWriteByte
 2564              	.LVL350:
 802:main.c        ****     I2C_1_MasterSendStop(); //Step 5
 2565              		.loc 1 802 0
 2566 0034 FFF7FEFF 		bl	I2C_1_MasterSendStop
 2567              	.LVL351:
 803:main.c        ****     CyDelay(1);
 2568              		.loc 1 803 0
 2569 0038 0120     		movs	r0, #1
 2570 003a FFF7FEFF 		bl	CyDelay
 2571              	.LVL352:
 804:main.c        ****     
 805:main.c        ****     
 806:main.c        ****     //Activating the low-pass filter
 807:main.c        ****     I2C_1_MasterSendStart(MPU6050,0); //Steps 1-2
 2572              		.loc 1 807 0
 2573 003e 0021     		movs	r1, #0
 2574 0040 6820     		movs	r0, #104
 2575 0042 FFF7FEFF 		bl	I2C_1_MasterSendStart
 2576              	.LVL353:
 808:main.c        ****     I2C_1_MasterWriteByte(0x1A); //Step 3
 2577              		.loc 1 808 0
 2578 0046 1A20     		movs	r0, #26
 2579 0048 FFF7FEFF 		bl	I2C_1_MasterWriteByte
 2580              	.LVL354:
 809:main.c        ****     I2C_1_MasterWriteByte(0x05); //Step 4
 2581              		.loc 1 809 0
 2582 004c 0520     		movs	r0, #5
 2583 004e FFF7FEFF 		bl	I2C_1_MasterWriteByte
 2584              	.LVL355:
 810:main.c        ****     I2C_1_MasterSendStop(); //Step 5    
 2585              		.loc 1 810 0
 2586 0052 FFF7FEFF 		bl	I2C_1_MasterSendStop
ARM GAS  C:\Users\weiro\AppData\Local\Temp\ccpp9Q4b.s 			page 61


 2587              	.LVL356:
 811:main.c        ****     CyDelay(1);
 2588              		.loc 1 811 0
 2589 0056 0120     		movs	r0, #1
 2590 0058 FFF7FEFF 		bl	CyDelay
 2591              	.LVL357:
 2592 005c 08BD     		pop	{r3, pc}
 2593              		.cfi_endproc
 2594              	.LFE83:
 2595              		.size	Gyroscope_Function, .-Gyroscope_Function
 2596 005e 00BF     		.section	.text.Flicker_Function,"ax",%progbits
 2597              		.align	2
 2598              		.global	Flicker_Function
 2599              		.thumb
 2600              		.thumb_func
 2601              		.type	Flicker_Function, %function
 2602              	Flicker_Function:
 2603              	.LFB84:
 812:main.c        **** }
 813:main.c        **** 
 814:main.c        **** void Flicker_Function()
 815:main.c        **** {
 2604              		.loc 1 815 0
 2605              		.cfi_startproc
 2606              		@ args = 0, pretend = 0, frame = 0
 2607              		@ frame_needed = 0, uses_anonymous_args = 0
 2608 0000 08B5     		push	{r3, lr}
 2609              		.cfi_def_cfa_offset 8
 2610              		.cfi_offset 3, -8
 2611              		.cfi_offset 14, -4
 2612              	.LVL358:
 816:main.c        ****     int flag_FR = 0;
 817:main.c        ****     double dist_trav = 5;
 818:main.c        ****     Flicker_Write(1);
 2613              		.loc 1 818 0
 2614 0002 0120     		movs	r0, #1
 2615 0004 FFF7FEFF 		bl	Flicker_Write
 2616              	.LVL359:
 819:main.c        ****     CyDelay(5000);
 2617              		.loc 1 819 0
 2618 0008 41F28830 		movw	r0, #5000
 2619 000c FFF7FEFF 		bl	CyDelay
 2620              	.LVL360:
 820:main.c        ****     move_fixed_dist(dist_trav, flag_FR); // move forward
 2621              		.loc 1 820 0
 2622 0010 0021     		movs	r1, #0
 2623 0012 0520     		movs	r0, #5
 2624 0014 FFF7FEFF 		bl	move_fixed_dist
 2625              	.LVL361:
 821:main.c        ****     CyDelay(500);
 2626              		.loc 1 821 0
 2627 0018 4FF4FA70 		mov	r0, #500
 2628 001c FFF7FEFF 		bl	CyDelay
 2629              	.LVL362:
 822:main.c        ****     Flicker_Write(0);
 2630              		.loc 1 822 0
 2631 0020 0020     		movs	r0, #0
ARM GAS  C:\Users\weiro\AppData\Local\Temp\ccpp9Q4b.s 			page 62


 2632 0022 FFF7FEFF 		bl	Flicker_Write
 2633              	.LVL363:
 2634 0026 08BD     		pop	{r3, pc}
 2635              		.cfi_endproc
 2636              	.LFE84:
 2637              		.size	Flicker_Function, .-Flicker_Function
 2638              		.global	__aeabi_i2f
 2639              		.global	__aeabi_fadd
 2640              		.global	__aeabi_fdiv
 2641              		.section	.text.Sharp_IR,"ax",%progbits
 2642              		.align	2
 2643              		.global	Sharp_IR
 2644              		.thumb
 2645              		.thumb_func
 2646              		.type	Sharp_IR, %function
 2647              	Sharp_IR:
 2648              	.LFB85:
 823:main.c        **** }
 824:main.c        **** 
 825:main.c        **** float Sharp_IR()
 826:main.c        **** {
 2649              		.loc 1 826 0
 2650              		.cfi_startproc
 2651              		@ args = 0, pretend = 0, frame = 0
 2652              		@ frame_needed = 0, uses_anonymous_args = 0
 2653 0000 F8B5     		push	{r3, r4, r5, r6, r7, lr}
 2654              		.cfi_def_cfa_offset 24
 2655              		.cfi_offset 3, -24
 2656              		.cfi_offset 4, -20
 2657              		.cfi_offset 5, -16
 2658              		.cfi_offset 6, -12
 2659              		.cfi_offset 7, -8
 2660              		.cfi_offset 14, -4
 2661              	.LVL364:
 827:main.c        ****     int Sharp_IR_analogue = 0;
 828:main.c        ****     float Sharp_IR_avg_a = 0;
 829:main.c        ****     float Sharp_IR_sum_a = 0;
 830:main.c        ****     int Sharp_IR_iter = 0;
 2662              		.loc 1 830 0
 2663 0002 0024     		movs	r4, #0
 829:main.c        ****     int Sharp_IR_iter = 0;
 2664              		.loc 1 829 0
 2665 0004 0025     		movs	r5, #0
 831:main.c        ****     float Sharp_IR_volt = 0;
 832:main.c        ****     float Sharp_IR_dist = 0;
 833:main.c        ****     while (Sharp_IR_iter < 21)
 2666              		.loc 1 833 0
 2667 0006 15E0     		b	.L191
 2668              	.LVL365:
 2669              	.L194:
 834:main.c        ****     {
 835:main.c        ****         ADC_SAR_1_StartConvert();
 2670              		.loc 1 835 0
 2671 0008 FFF7FEFF 		bl	ADC_SAR_1_StartConvert
 2672              	.LVL366:
 2673              	.L192:
 836:main.c        ****         do
ARM GAS  C:\Users\weiro\AppData\Local\Temp\ccpp9Q4b.s 			page 63


 837:main.c        ****         {
 838:main.c        ****             Sharp_IR_analogue = ADC_SAR_1_IsEndConversion(ADC_SAR_1_RETURN_STATUS);
 2674              		.loc 1 838 0 discriminator 1
 2675 000c 0120     		movs	r0, #1
 2676 000e FFF7FEFF 		bl	ADC_SAR_1_IsEndConversion
 2677              	.LVL367:
 839:main.c        ****         }
 840:main.c        ****         while(Sharp_IR_analogue==0);
 2678              		.loc 1 840 0 discriminator 1
 2679 0012 0028     		cmp	r0, #0
 2680 0014 FAD0     		beq	.L192
 841:main.c        ****         Sharp_IR_analogue = ADC_SAR_1_GetResult8();
 2681              		.loc 1 841 0
 2682 0016 FFF7FEFF 		bl	ADC_SAR_1_GetResult8
 2683              	.LVL368:
 842:main.c        ****         if (Sharp_IR_analogue > 0)
 2684              		.loc 1 842 0
 2685 001a 0028     		cmp	r0, #0
 2686 001c 07DD     		ble	.L193
 843:main.c        ****         {
 844:main.c        ****             Sharp_IR_sum_a = Sharp_IR_sum_a + Sharp_IR_analogue;
 2687              		.loc 1 844 0
 2688 001e FFF7FEFF 		bl	__aeabi_i2f
 2689              	.LVL369:
 2690 0022 0146     		mov	r1, r0
 2691 0024 2846     		mov	r0, r5
 2692 0026 FFF7FEFF 		bl	__aeabi_fadd
 2693              	.LVL370:
 2694 002a 0546     		mov	r5, r0
 2695              	.LVL371:
 845:main.c        ****             Sharp_IR_iter++;
 2696              		.loc 1 845 0
 2697 002c 0134     		adds	r4, r4, #1
 2698              	.LVL372:
 2699              	.L193:
 846:main.c        ****         }
 847:main.c        ****         CyDelay(20);
 2700              		.loc 1 847 0
 2701 002e 1420     		movs	r0, #20
 2702 0030 FFF7FEFF 		bl	CyDelay
 2703              	.LVL373:
 2704              	.L191:
 833:main.c        ****     {
 2705              		.loc 1 833 0
 2706 0034 142C     		cmp	r4, #20
 2707 0036 E7DD     		ble	.L194
 848:main.c        ****     }
 849:main.c        ****     Sharp_IR_avg_a = Sharp_IR_sum_a/20;
 2708              		.loc 1 849 0
 2709 0038 2149     		ldr	r1, .L196+24
 2710 003a 2846     		mov	r0, r5
 2711 003c FFF7FEFF 		bl	__aeabi_fdiv
 2712              	.LVL374:
 850:main.c        ****     Sharp_IR_volt = Sharp_IR_avg_a/51;
 2713              		.loc 1 850 0
 2714 0040 2049     		ldr	r1, .L196+28
 2715 0042 FFF7FEFF 		bl	__aeabi_fdiv
ARM GAS  C:\Users\weiro\AppData\Local\Temp\ccpp9Q4b.s 			page 64


 2716              	.LVL375:
 851:main.c        ****     Sharp_IR_dist = pow((Sharp_IR_volt-0.2)/(27.728*1.3),-1/1.205);
 2717              		.loc 1 851 0
 2718 0046 FFF7FEFF 		bl	__aeabi_f2d
 2719              	.LVL376:
 2720 004a 0646     		mov	r6, r0
 2721 004c 0F46     		mov	r7, r1
 2722 004e 16A3     		adr	r3, .L196
 2723 0050 D3E90023 		ldrd	r2, [r3]
 2724 0054 FFF7FEFF 		bl	__aeabi_dsub
 2725              	.LVL377:
 2726 0058 15A3     		adr	r3, .L196+8
 2727 005a D3E90023 		ldrd	r2, [r3]
 2728 005e FFF7FEFF 		bl	__aeabi_ddiv
 2729              	.LVL378:
 2730 0062 15A3     		adr	r3, .L196+16
 2731 0064 D3E90023 		ldrd	r2, [r3]
 2732 0068 FFF7FEFF 		bl	pow
 2733              	.LVL379:
 2734 006c FFF7FEFF 		bl	__aeabi_d2f
 2735              	.LVL380:
 2736 0070 0546     		mov	r5, r0
 2737              	.LVL381:
 852:main.c        ****     CyDelay(200);
 2738              		.loc 1 852 0
 2739 0072 C820     		movs	r0, #200
 2740              	.LVL382:
 2741 0074 FFF7FEFF 		bl	CyDelay
 2742              	.LVL383:
 853:main.c        ****     sprintf(string_1,"volt(V): %lf\n",Sharp_IR_volt);
 2743              		.loc 1 853 0
 2744 0078 134C     		ldr	r4, .L196+32
 2745              	.LVL384:
 2746 007a 3246     		mov	r2, r6
 2747 007c 3B46     		mov	r3, r7
 2748 007e 1349     		ldr	r1, .L196+36
 2749 0080 2046     		mov	r0, r4
 2750 0082 FFF7FEFF 		bl	sprintf
 2751              	.LVL385:
 854:main.c        ****     UART_1_PutString(string_1);
 2752              		.loc 1 854 0
 2753 0086 2046     		mov	r0, r4
 2754 0088 FFF7FEFF 		bl	UART_1_PutString
 2755              	.LVL386:
 855:main.c        ****     sprintf(string_1,"dist(cm): %lf\n",Sharp_IR_dist);
 2756              		.loc 1 855 0
 2757 008c 2846     		mov	r0, r5
 2758 008e FFF7FEFF 		bl	__aeabi_f2d
 2759              	.LVL387:
 2760 0092 0246     		mov	r2, r0
 2761 0094 0B46     		mov	r3, r1
 2762 0096 0E49     		ldr	r1, .L196+40
 2763 0098 2046     		mov	r0, r4
 2764 009a FFF7FEFF 		bl	sprintf
 2765              	.LVL388:
 856:main.c        ****     UART_1_PutString(string_1);
 2766              		.loc 1 856 0
ARM GAS  C:\Users\weiro\AppData\Local\Temp\ccpp9Q4b.s 			page 65


 2767 009e 2046     		mov	r0, r4
 2768 00a0 FFF7FEFF 		bl	UART_1_PutString
 2769              	.LVL389:
 857:main.c        ****     return Sharp_IR_dist;
 858:main.c        **** }
 2770              		.loc 1 858 0
 2771 00a4 2846     		mov	r0, r5
 2772 00a6 F8BD     		pop	{r3, r4, r5, r6, r7, pc}
 2773              	.LVL390:
 2774              	.L197:
 2775              		.align	3
 2776              	.L196:
 2777 00a8 9A999999 		.word	-1717986918
 2778 00ac 9999C93F 		.word	1070176665
 2779 00b0 6844696F 		.word	1869169768
 2780 00b4 F0054240 		.word	1078068720
 2781 00b8 1A578E1A 		.word	445536026
 2782 00bc 578EEABF 		.word	-1075147177
 2783 00c0 0000A041 		.word	1101004800
 2784 00c4 00004C42 		.word	1112276992
 2785 00c8 00000000 		.word	string_1
 2786 00cc 7C000000 		.word	.LC8
 2787 00d0 8C000000 		.word	.LC9
 2788              		.cfi_endproc
 2789              	.LFE85:
 2790              		.size	Sharp_IR, .-Sharp_IR
 2791              		.section	.text.Find_Puck,"ax",%progbits
 2792              		.align	2
 2793              		.global	Find_Puck
 2794              		.thumb
 2795              		.thumb_func
 2796              		.type	Find_Puck, %function
 2797              	Find_Puck:
 2798              	.LFB86:
 859:main.c        **** 
 860:main.c        **** void Find_Puck(int target)
 861:main.c        **** {
 2799              		.loc 1 861 0
 2800              		.cfi_startproc
 2801              		@ args = 0, pretend = 0, frame = 0
 2802              		@ frame_needed = 0, uses_anonymous_args = 0
 2803              	.LVL391:
 2804 0000 38B5     		push	{r3, r4, r5, lr}
 2805              		.cfi_def_cfa_offset 16
 2806              		.cfi_offset 3, -16
 2807              		.cfi_offset 4, -12
 2808              		.cfi_offset 5, -8
 2809              		.cfi_offset 14, -4
 2810 0002 0546     		mov	r5, r0
 2811              	.LVL392:
 862:main.c        ****     // [target] 1-Red; 2-Green; 3-Blue
 863:main.c        ****     int objective = 0;
 2812              		.loc 1 863 0
 2813 0004 0024     		movs	r4, #0
 864:main.c        ****     while (objective == 0)
 2814              		.loc 1 864 0
 2815 0006 43E0     		b	.L199
ARM GAS  C:\Users\weiro\AppData\Local\Temp\ccpp9Q4b.s 			page 66


 2816              	.LVL393:
 2817              	.L204:
 2818              	.LBB7:
 865:main.c        ****     {
 866:main.c        ****         move2puck();
 2819              		.loc 1 866 0
 2820 0008 FFF7FEFF 		bl	move2puck
 2821              	.LVL394:
 867:main.c        ****         int flag_FR = 1;
 868:main.c        ****         int dist_trav = 4;
 869:main.c        ****         move_fixed_dist(dist_trav, flag_FR); // move backward
 2822              		.loc 1 869 0
 2823 000c 0121     		movs	r1, #1
 2824 000e 0420     		movs	r0, #4
 2825 0010 FFF7FEFF 		bl	move_fixed_dist
 2826              	.LVL395:
 870:main.c        ****         CyDelay(500);
 2827              		.loc 1 870 0
 2828 0014 4FF4FA70 		mov	r0, #500
 2829 0018 FFF7FEFF 		bl	CyDelay
 2830              	.LVL396:
 871:main.c        ****         Color_Sensing_Function();
 2831              		.loc 1 871 0
 2832 001c FFF7FEFF 		bl	Color_Sensing_Function
 2833              	.LVL397:
 872:main.c        ****         if (color_detected == 1) // red
 2834              		.loc 1 872 0
 2835 0020 1D4B     		ldr	r3, .L207
 2836 0022 D3F88C31 		ldr	r3, [r3, #396]
 2837 0026 012B     		cmp	r3, #1
 2838 0028 0DD1     		bne	.L200
 873:main.c        ****         {
 874:main.c        ****             led_red_Write(1);
 2839              		.loc 1 874 0
 2840 002a 0120     		movs	r0, #1
 2841 002c FFF7FEFF 		bl	led_red_Write
 2842              	.LVL398:
 875:main.c        ****             CyDelay(1000);
 2843              		.loc 1 875 0
 2844 0030 4FF47A70 		mov	r0, #1000
 2845 0034 FFF7FEFF 		bl	CyDelay
 2846              	.LVL399:
 876:main.c        ****             led_red_Write(0);
 2847              		.loc 1 876 0
 2848 0038 0020     		movs	r0, #0
 2849 003a FFF7FEFF 		bl	led_red_Write
 2850              	.LVL400:
 877:main.c        ****             UART_1_PutString("Red  \n");
 2851              		.loc 1 877 0
 2852 003e 1748     		ldr	r0, .L207+4
 2853 0040 FFF7FEFF 		bl	UART_1_PutString
 2854              	.LVL401:
 2855 0044 1EE0     		b	.L201
 2856              	.L200:
 878:main.c        ****         }
 879:main.c        ****         else if (color_detected == 2) // green
 2857              		.loc 1 879 0
ARM GAS  C:\Users\weiro\AppData\Local\Temp\ccpp9Q4b.s 			page 67


 2858 0046 022B     		cmp	r3, #2
 2859 0048 0DD1     		bne	.L202
 880:main.c        ****         {
 881:main.c        ****             led_green_Write(1);
 2860              		.loc 1 881 0
 2861 004a 0120     		movs	r0, #1
 2862 004c FFF7FEFF 		bl	led_green_Write
 2863              	.LVL402:
 882:main.c        ****             CyDelay(1000);
 2864              		.loc 1 882 0
 2865 0050 4FF47A70 		mov	r0, #1000
 2866 0054 FFF7FEFF 		bl	CyDelay
 2867              	.LVL403:
 883:main.c        ****             led_green_Write(0);
 2868              		.loc 1 883 0
 2869 0058 0020     		movs	r0, #0
 2870 005a FFF7FEFF 		bl	led_green_Write
 2871              	.LVL404:
 884:main.c        ****             UART_1_PutString("Green  \n");
 2872              		.loc 1 884 0
 2873 005e 1048     		ldr	r0, .L207+8
 2874 0060 FFF7FEFF 		bl	UART_1_PutString
 2875              	.LVL405:
 2876 0064 0EE0     		b	.L201
 2877              	.L202:
 885:main.c        ****         }
 886:main.c        ****         else if (color_detected == 3) // blue
 2878              		.loc 1 886 0
 2879 0066 032B     		cmp	r3, #3
 2880 0068 0CD1     		bne	.L201
 887:main.c        ****         {
 888:main.c        ****             led_blue_Write(1);
 2881              		.loc 1 888 0
 2882 006a 0120     		movs	r0, #1
 2883 006c FFF7FEFF 		bl	led_blue_Write
 2884              	.LVL406:
 889:main.c        ****             CyDelay(1000);
 2885              		.loc 1 889 0
 2886 0070 4FF47A70 		mov	r0, #1000
 2887 0074 FFF7FEFF 		bl	CyDelay
 2888              	.LVL407:
 890:main.c        ****             led_blue_Write(0);
 2889              		.loc 1 890 0
 2890 0078 0020     		movs	r0, #0
 2891 007a FFF7FEFF 		bl	led_blue_Write
 2892              	.LVL408:
 891:main.c        ****             UART_1_PutString("Blue  \n");
 2893              		.loc 1 891 0
 2894 007e 0948     		ldr	r0, .L207+12
 2895 0080 FFF7FEFF 		bl	UART_1_PutString
 2896              	.LVL409:
 2897              	.L201:
 892:main.c        ****         }
 893:main.c        ****         if (color_detected == target)
 2898              		.loc 1 893 0
 2899 0084 044B     		ldr	r3, .L207
 2900 0086 D3F88C31 		ldr	r3, [r3, #396]
ARM GAS  C:\Users\weiro\AppData\Local\Temp\ccpp9Q4b.s 			page 68


 2901 008a AB42     		cmp	r3, r5
 2902 008c 00D1     		bne	.L199
 894:main.c        ****         {
 895:main.c        ****             objective = 1;
 2903              		.loc 1 895 0
 2904 008e 0124     		movs	r4, #1
 2905              	.LVL410:
 2906              	.L199:
 2907              	.LBE7:
 864:main.c        ****     {
 2908              		.loc 1 864 0
 2909 0090 002C     		cmp	r4, #0
 2910 0092 B9D0     		beq	.L204
 896:main.c        ****         }
 897:main.c        ****     }
 898:main.c        **** }
 2911              		.loc 1 898 0
 2912 0094 38BD     		pop	{r3, r4, r5, pc}
 2913              	.LVL411:
 2914              	.L208:
 2915 0096 00BF     		.align	2
 2916              	.L207:
 2917 0098 00000000 		.word	.LANCHOR0
 2918 009c 9C000000 		.word	.LC10
 2919 00a0 A4000000 		.word	.LC11
 2920 00a4 B0000000 		.word	.LC12
 2921              		.cfi_endproc
 2922              	.LFE86:
 2923              		.size	Find_Puck, .-Find_Puck
 2924              		.section	.text.Pick_Up_Puck,"ax",%progbits
 2925              		.align	2
 2926              		.global	Pick_Up_Puck
 2927              		.thumb
 2928              		.thumb_func
 2929              		.type	Pick_Up_Puck, %function
 2930              	Pick_Up_Puck:
 2931              	.LFB87:
 899:main.c        **** 
 900:main.c        **** void Pick_Up_Puck()
 901:main.c        **** {
 2932              		.loc 1 901 0
 2933              		.cfi_startproc
 2934              		@ args = 0, pretend = 0, frame = 0
 2935              		@ frame_needed = 0, uses_anonymous_args = 0
 2936 0000 10B5     		push	{r4, lr}
 2937              		.cfi_def_cfa_offset 8
 2938              		.cfi_offset 4, -8
 2939              		.cfi_offset 14, -4
 2940              	.LVL412:
 902:main.c        ****     int flag_FR = 1;
 903:main.c        ****     double dist_trav = 18; // distance from color sensor to gripper center
 904:main.c        ****     move_fixed_dist(dist_trav, flag_FR);
 2941              		.loc 1 904 0
 2942 0002 0121     		movs	r1, #1
 2943 0004 1220     		movs	r0, #18
 2944 0006 FFF7FEFF 		bl	move_fixed_dist
 2945              	.LVL413:
ARM GAS  C:\Users\weiro\AppData\Local\Temp\ccpp9Q4b.s 			page 69


 905:main.c        ****     CyDelay(500);
 2946              		.loc 1 905 0
 2947 000a 4FF4FA70 		mov	r0, #500
 2948 000e FFF7FEFF 		bl	CyDelay
 2949              	.LVL414:
 906:main.c        ****     PWM_BigServo_WriteCompare(down_big);
 2950              		.loc 1 906 0
 2951 0012 094C     		ldr	r4, .L211
 2952 0014 A08D     		ldrh	r0, [r4, #44]
 2953 0016 FFF7FEFF 		bl	PWM_BigServo_WriteCompare
 2954              	.LVL415:
 907:main.c        ****     CyDelay(1000);
 2955              		.loc 1 907 0
 2956 001a 4FF47A70 		mov	r0, #1000
 2957 001e FFF7FEFF 		bl	CyDelay
 2958              	.LVL416:
 908:main.c        ****     PWM_SmallServo_WriteCompare(close_small);
 2959              		.loc 1 908 0
 2960 0022 208E     		ldrh	r0, [r4, #48]
 2961 0024 FFF7FEFF 		bl	PWM_SmallServo_WriteCompare
 2962              	.LVL417:
 909:main.c        ****     CyDelay(1000);
 2963              		.loc 1 909 0
 2964 0028 4FF47A70 		mov	r0, #1000
 2965 002c FFF7FEFF 		bl	CyDelay
 2966              	.LVL418:
 910:main.c        ****     PWM_BigServo_WriteCompare(up_big);
 2967              		.loc 1 910 0
 2968 0030 A08E     		ldrh	r0, [r4, #52]
 2969 0032 FFF7FEFF 		bl	PWM_BigServo_WriteCompare
 2970              	.LVL419:
 2971 0036 10BD     		pop	{r4, pc}
 2972              	.L212:
 2973              		.align	2
 2974              	.L211:
 2975 0038 00000000 		.word	.LANCHOR1
 2976              		.cfi_endproc
 2977              	.LFE87:
 2978              		.size	Pick_Up_Puck, .-Pick_Up_Puck
 2979              		.section	.text.Put_Down_Puck,"ax",%progbits
 2980              		.align	2
 2981              		.global	Put_Down_Puck
 2982              		.thumb
 2983              		.thumb_func
 2984              		.type	Put_Down_Puck, %function
 2985              	Put_Down_Puck:
 2986              	.LFB88:
 911:main.c        **** }
 912:main.c        **** 
 913:main.c        **** void Put_Down_Puck()
 914:main.c        **** {
 2987              		.loc 1 914 0
 2988              		.cfi_startproc
 2989              		@ args = 0, pretend = 0, frame = 0
 2990              		@ frame_needed = 0, uses_anonymous_args = 0
 2991 0000 10B5     		push	{r4, lr}
 2992              		.cfi_def_cfa_offset 8
ARM GAS  C:\Users\weiro\AppData\Local\Temp\ccpp9Q4b.s 			page 70


 2993              		.cfi_offset 4, -8
 2994              		.cfi_offset 14, -4
 915:main.c        ****     PWM_BigServo_WriteCompare(down_big);
 2995              		.loc 1 915 0
 2996 0002 0D4C     		ldr	r4, .L215
 2997 0004 A08D     		ldrh	r0, [r4, #44]
 2998 0006 FFF7FEFF 		bl	PWM_BigServo_WriteCompare
 2999              	.LVL420:
 916:main.c        ****     CyDelay(1000);
 3000              		.loc 1 916 0
 3001 000a 4FF47A70 		mov	r0, #1000
 3002 000e FFF7FEFF 		bl	CyDelay
 3003              	.LVL421:
 917:main.c        ****     PWM_SmallServo_WriteCompare(open_small);
 3004              		.loc 1 917 0
 3005 0012 208F     		ldrh	r0, [r4, #56]
 3006 0014 FFF7FEFF 		bl	PWM_SmallServo_WriteCompare
 3007              	.LVL422:
 918:main.c        ****     CyDelay(500);
 3008              		.loc 1 918 0
 3009 0018 4FF4FA70 		mov	r0, #500
 3010 001c FFF7FEFF 		bl	CyDelay
 3011              	.LVL423:
 919:main.c        ****     PWM_BigServo_WriteCompare(up_big);
 3012              		.loc 1 919 0
 3013 0020 A08E     		ldrh	r0, [r4, #52]
 3014 0022 FFF7FEFF 		bl	PWM_BigServo_WriteCompare
 3015              	.LVL424:
 920:main.c        ****     CyDelay(500);
 3016              		.loc 1 920 0
 3017 0026 4FF4FA70 		mov	r0, #500
 3018 002a FFF7FEFF 		bl	CyDelay
 3019              	.LVL425:
 921:main.c        ****     PWM_SmallServo_WriteCompare(close_small);
 3020              		.loc 1 921 0
 3021 002e 208E     		ldrh	r0, [r4, #48]
 3022 0030 FFF7FEFF 		bl	PWM_SmallServo_WriteCompare
 3023              	.LVL426:
 3024 0034 10BD     		pop	{r4, pc}
 3025              	.L216:
 3026 0036 00BF     		.align	2
 3027              	.L215:
 3028 0038 00000000 		.word	.LANCHOR1
 3029              		.cfi_endproc
 3030              	.LFE88:
 3031              		.size	Put_Down_Puck, .-Put_Down_Puck
 3032              		.section	.text.main,"ax",%progbits
 3033              		.align	2
 3034              		.global	main
 3035              		.thumb
 3036              		.thumb_func
 3037              		.type	main, %function
 3038              	main:
 3039              	.LFB89:
 922:main.c        **** }
 923:main.c        **** 
 924:main.c        **** int main(void)
ARM GAS  C:\Users\weiro\AppData\Local\Temp\ccpp9Q4b.s 			page 71


 925:main.c        **** {
 3040              		.loc 1 925 0
 3041              		.cfi_startproc
 3042              		@ args = 0, pretend = 0, frame = 0
 3043              		@ frame_needed = 0, uses_anonymous_args = 0
 3044 0000 2DE9F84F 		push	{r3, r4, r5, r6, r7, r8, r9, r10, fp, lr}
 3045              		.cfi_def_cfa_offset 40
 3046              		.cfi_offset 3, -40
 3047              		.cfi_offset 4, -36
 3048              		.cfi_offset 5, -32
 3049              		.cfi_offset 6, -28
 3050              		.cfi_offset 7, -24
 3051              		.cfi_offset 8, -20
 3052              		.cfi_offset 9, -16
 3053              		.cfi_offset 10, -12
 3054              		.cfi_offset 11, -8
 3055              		.cfi_offset 14, -4
 926:main.c        ****     CyGlobalIntEnable; /* Enable global interrupts. */
 3056              		.loc 1 926 0
 3057              		.syntax unified
 3058              	@ 926 "main.c" 1
 3059 0004 62B6     		CPSIE   i
 3060              	@ 0 "" 2
 927:main.c        **** 
 928:main.c        ****     WHEEL_CIRCUMFERENCE = M_PI*WHEEL_DIAMETER;
 3061              		.loc 1 928 0
 3062              		.thumb
 3063              		.syntax unified
 3064 0006 DFF850B1 		ldr	fp, .L221+32
 3065 000a 4BA3     		adr	r3, .L221
 3066 000c D3E90023 		ldrd	r2, [r3]
 3067 0010 DBE90801 		ldrd	r0, [fp, #32]
 3068 0014 FFF7FEFF 		bl	__aeabi_dmul
 3069              	.LVL427:
 3070 0018 0446     		mov	r4, r0
 3071 001a 0D46     		mov	r5, r1
 3072 001c DFF83CA1 		ldr	r10, .L221+36
 3073 0020 0AF5CC73 		add	r3, r10, #408
 3074 0024 C3E90045 		strd	r4, [r3]
 929:main.c        ****     DISTANCE_PT_TURN = M_PI*DISTANCE_BETW_WHEEL/4;
 3075              		.loc 1 929 0
 3076 0028 43A3     		adr	r3, .L221
 3077 002a D3E90023 		ldrd	r2, [r3]
 3078 002e DBE91001 		ldrd	r0, [fp, #64]
 3079 0032 FFF7FEFF 		bl	__aeabi_dmul
 3080              	.LVL428:
 3081 0036 0022     		movs	r2, #0
 3082 0038 414B     		ldr	r3, .L221+8
 3083 003a FFF7FEFF 		bl	__aeabi_dmul
 3084              	.LVL429:
 3085 003e 0646     		mov	r6, r0
 3086 0040 0F46     		mov	r7, r1
 3087 0042 0AF5D073 		add	r3, r10, #416
 3088 0046 C3E90067 		strd	r6, [r3]
 930:main.c        ****     CM_COUNT_CONV = COUNT_WHEEL/WHEEL_CIRCUMFERENCE;
 3089              		.loc 1 930 0
 3090 004a DBE91289 		ldrd	r8, [fp, #72]
ARM GAS  C:\Users\weiro\AppData\Local\Temp\ccpp9Q4b.s 			page 72


 3091 004e 2246     		mov	r2, r4
 3092 0050 2B46     		mov	r3, r5
 3093 0052 4046     		mov	r0, r8
 3094 0054 4946     		mov	r1, r9
 3095 0056 FFF7FEFF 		bl	__aeabi_ddiv
 3096              	.LVL430:
 3097 005a 0AF5B073 		add	r3, r10, #352
 3098 005e C3E90001 		strd	r0, [r3]
 931:main.c        ****     PT_TURN_COUNT = COUNT_WHEEL * DISTANCE_PT_TURN/(M_PI*WHEEL_DIAMETER);
 3099              		.loc 1 931 0
 3100 0062 4246     		mov	r2, r8
 3101 0064 4B46     		mov	r3, r9
 3102 0066 3046     		mov	r0, r6
 3103 0068 3946     		mov	r1, r7
 3104 006a FFF7FEFF 		bl	__aeabi_dmul
 3105              	.LVL431:
 3106 006e 2246     		mov	r2, r4
 3107 0070 2B46     		mov	r3, r5
 3108 0072 FFF7FEFF 		bl	__aeabi_ddiv
 3109              	.LVL432:
 3110 0076 0AF5C873 		add	r3, r10, #400
 3111 007a C3E90001 		strd	r0, [r3]
 932:main.c        ****     isr_1_StartEx(Speed_Control);
 3112              		.loc 1 932 0
 3113 007e 3148     		ldr	r0, .L221+12
 3114 0080 FFF7FEFF 		bl	isr_1_StartEx
 3115              	.LVL433:
 933:main.c        ****     isr_6_StartEx(Color_sensing);
 3116              		.loc 1 933 0
 3117 0084 3048     		ldr	r0, .L221+16
 3118 0086 FFF7FEFF 		bl	isr_6_StartEx
 3119              	.LVL434:
 934:main.c        ****     Timer_1_Start();
 3120              		.loc 1 934 0
 3121 008a FFF7FEFF 		bl	Timer_1_Start
 3122              	.LVL435:
 935:main.c        ****     Timer_3_Start();
 3123              		.loc 1 935 0
 3124 008e FFF7FEFF 		bl	Timer_3_Start
 3125              	.LVL436:
 936:main.c        ****     isr_3_StartEx(ultrasonic_echo);
 3126              		.loc 1 936 0
 3127 0092 2E48     		ldr	r0, .L221+20
 3128 0094 FFF7FEFF 		bl	isr_3_StartEx
 3129              	.LVL437:
 937:main.c        ****     PWM_ColorSensor_Start();
 3130              		.loc 1 937 0
 3131 0098 FFF7FEFF 		bl	PWM_ColorSensor_Start
 3132              	.LVL438:
 938:main.c        ****     isr_7_StartEx(Bluetooth);
 3133              		.loc 1 938 0
 3134 009c 2C48     		ldr	r0, .L221+24
 3135 009e FFF7FEFF 		bl	isr_7_StartEx
 3136              	.LVL439:
 939:main.c        ****     Flicker_Write(0);
 3137              		.loc 1 939 0
 3138 00a2 0020     		movs	r0, #0
ARM GAS  C:\Users\weiro\AppData\Local\Temp\ccpp9Q4b.s 			page 73


 3139 00a4 FFF7FEFF 		bl	Flicker_Write
 3140              	.LVL440:
 940:main.c        ****     Trigger_Write(0);
 3141              		.loc 1 940 0
 3142 00a8 0020     		movs	r0, #0
 3143 00aa FFF7FEFF 		bl	Trigger_Write
 3144              	.LVL441:
 941:main.c        ****     PWM_Wheels_Start();
 3145              		.loc 1 941 0
 3146 00ae FFF7FEFF 		bl	PWM_Wheels_Start
 3147              	.LVL442:
 942:main.c        ****     PWM_SmallServo_Start();
 3148              		.loc 1 942 0
 3149 00b2 FFF7FEFF 		bl	PWM_SmallServo_Start
 3150              	.LVL443:
 943:main.c        ****     PWM_BigServo_Start();
 3151              		.loc 1 943 0
 3152 00b6 FFF7FEFF 		bl	PWM_BigServo_Start
 3153              	.LVL444:
 944:main.c        ****     QuadDec_1_Start();
 3154              		.loc 1 944 0
 3155 00ba FFF7FEFF 		bl	QuadDec_1_Start
 3156              	.LVL445:
 945:main.c        ****     QuadDec_1_SetCounter(0);
 3157              		.loc 1 945 0
 3158 00be 0020     		movs	r0, #0
 3159 00c0 FFF7FEFF 		bl	QuadDec_1_SetCounter
 3160              	.LVL446:
 946:main.c        ****     QuadDec_2_Start();
 3161              		.loc 1 946 0
 3162 00c4 FFF7FEFF 		bl	QuadDec_2_Start
 3163              	.LVL447:
 947:main.c        ****     QuadDec_2_SetCounter(0);
 3164              		.loc 1 947 0
 3165 00c8 0020     		movs	r0, #0
 3166 00ca FFF7FEFF 		bl	QuadDec_2_SetCounter
 3167              	.LVL448:
 948:main.c        ****     UART_1_Start();
 3168              		.loc 1 948 0
 3169 00ce FFF7FEFF 		bl	UART_1_Start
 3170              	.LVL449:
 949:main.c        ****     CS_LED_Write(0);
 3171              		.loc 1 949 0
 3172 00d2 0020     		movs	r0, #0
 3173 00d4 FFF7FEFF 		bl	CS_LED_Write
 3174              	.LVL450:
 950:main.c        ****     //ADC_SAR_1_Start();
 951:main.c        ****     I2C_1_Start();
 3175              		.loc 1 951 0
 3176 00d8 FFF7FEFF 		bl	I2C_1_Start
 3177              	.LVL451:
 952:main.c        ****     Timer_2_Start();
 3178              		.loc 1 952 0
 3179 00dc FFF7FEFF 		bl	Timer_2_Start
 3180              	.LVL452:
 953:main.c        ****     isr_2_StartEx(Gyroscope);
 3181              		.loc 1 953 0
ARM GAS  C:\Users\weiro\AppData\Local\Temp\ccpp9Q4b.s 			page 74


 3182 00e0 1C48     		ldr	r0, .L221+28
 3183 00e2 FFF7FEFF 		bl	isr_2_StartEx
 3184              	.LVL453:
 954:main.c        ****     Gyroscope_Function();
 3185              		.loc 1 954 0
 3186 00e6 FFF7FEFF 		bl	Gyroscope_Function
 3187              	.LVL454:
 955:main.c        ****     wall_detected_10 = 0;
 3188              		.loc 1 955 0
 3189 00ea 0023     		movs	r3, #0
 3190 00ec CAF84030 		str	r3, [r10, #64]
 956:main.c        ****     slit_detected = 0;
 3191              		.loc 1 956 0
 3192 00f0 CAF84430 		str	r3, [r10, #68]
 957:main.c        ****     UART_2_Start();
 3193              		.loc 1 957 0
 3194 00f4 FFF7FEFF 		bl	UART_2_Start
 3195              	.LVL455:
 958:main.c        **** 
 959:main.c        ****     int flag_FR = 1;
 960:main.c        ****     int flag_CW = 1;
 961:main.c        ****     PWM_Wheels_WriteCompare1(PWM_Master);
 3196              		.loc 1 961 0
 3197 00f8 DBF80800 		ldr	r0, [fp, #8]	@ float
 3198 00fc FFF7FEFF 		bl	__aeabi_f2uiz
 3199              	.LVL456:
 3200 0100 80B2     		uxth	r0, r0
 3201 0102 FFF7FEFF 		bl	PWM_Wheels_WriteCompare1
 3202              	.LVL457:
 962:main.c        ****     PWM_Wheels_WriteCompare2(PWM_Master);
 3203              		.loc 1 962 0
 3204 0106 DBF80800 		ldr	r0, [fp, #8]	@ float
 3205 010a FFF7FEFF 		bl	__aeabi_f2uiz
 3206              	.LVL458:
 3207 010e 80B2     		uxth	r0, r0
 3208 0110 FFF7FEFF 		bl	PWM_Wheels_WriteCompare2
 3209              	.LVL459:
 3210              	.L218:
 963:main.c        ****     double dist_trav = 0;
 964:main.c        ****     //double dist_count = dist_trav*CM_COUNT_CONV;
 965:main.c        ****     
 966:main.c        ****     
 967:main.c        ****     for(;;)
 968:main.c        ****     {          
 969:main.c        ****         if (SW2_Read() == 0)
 3211              		.loc 1 969 0
 3212 0114 FFF7FEFF 		bl	SW2_Read
 3213              	.LVL460:
 3214 0118 0028     		cmp	r0, #0
 3215 011a FBD1     		bne	.L218
 970:main.c        ****         {
 971:main.c        ****             CyDelay(1000);
 3216              		.loc 1 971 0
 3217 011c 4FF47A70 		mov	r0, #1000
 3218 0120 FFF7FEFF 		bl	CyDelay
 3219              	.LVL461:
 972:main.c        ****             move2wall();
ARM GAS  C:\Users\weiro\AppData\Local\Temp\ccpp9Q4b.s 			page 75


 3220              		.loc 1 972 0
 3221 0124 FFF7FEFF 		bl	move2wall
 3222              	.LVL462:
 973:main.c        ****             CyDelay(10000);
 3223              		.loc 1 973 0
 3224 0128 42F21070 		movw	r0, #10000
 3225 012c FFF7FEFF 		bl	CyDelay
 3226              	.LVL463:
 974:main.c        ****             Color_Sensing_Function();
 3227              		.loc 1 974 0
 3228 0130 FFF7FEFF 		bl	Color_Sensing_Function
 3229              	.LVL464:
 3230 0134 EEE7     		b	.L218
 3231              	.L222:
 3232 0136 00BF     		.align	3
 3233              	.L221:
 3234 0138 182D4454 		.word	1413754136
 3235 013c FB210940 		.word	1074340347
 3236 0140 0000D03F 		.word	1070596096
 3237 0144 00000000 		.word	Speed_Control
 3238 0148 00000000 		.word	Color_sensing
 3239 014c 00000000 		.word	ultrasonic_echo
 3240 0150 00000000 		.word	Bluetooth
 3241 0154 00000000 		.word	Gyroscope
 3242 0158 00000000 		.word	.LANCHOR1
 3243 015c 00000000 		.word	.LANCHOR0
 3244              		.cfi_endproc
 3245              	.LFE89:
 3246              		.size	main, .-main
 3247              		.global	threshold
 3248              		.global	error_gyro_avg
 3249              		.global	error_gyro
 3250              		.global	count
 3251              		.global	cal
 3252              		.global	string_gyro
 3253              		.global	cycles
 3254              		.global	heading
 3255              		.global	current_reading
 3256              		.global	previous_reading
 3257              		.global	yaw_angle
 3258              		.global	yaw_rate
 3259              		.global	temp
 3260              		.global	array_1
 3261              		.global	j
 3262              		.comm	task_info,60,4
 3263              		.comm	tokenPtr,4,4
 3264              		.global	stop_bt
 3265              		.comm	string_bt,200,4
 3266              		.global	i
 3267              		.comm	Rx,1,1
 3268              		.global	close_small
 3269              		.global	open_small
 3270              		.global	up_big
 3271              		.global	down_big
 3272              		.global	slit_detected
 3273              		.global	wall_detected_10
 3274              		.global	color_detected
ARM GAS  C:\Users\weiro\AppData\Local\Temp\ccpp9Q4b.s 			page 76


 3275              		.global	compare_ready
 3276              		.global	step
 3277              		.global	direction
 3278              		.global	y_coord
 3279              		.global	x_coord
 3280              		.global	echo_select
 3281              		.global	left_measured
 3282              		.comm	right_measured,8,8
 3283              		.comm	front_measured_2,8,8
 3284              		.comm	front_measured_1,8,8
 3285              		.global	ultrasonic_measure
 3286              		.global	ultrasonic_count
 3287              		.global	is_moving
 3288              		.global	PWM_Slave_puck
 3289              		.global	PWM_Master_puck
 3290              		.global	PWM_Slave
 3291              		.global	PWM_Cal
 3292              		.global	PWM_Master
 3293              		.global	K_d
 3294              		.global	K_i
 3295              		.global	K_p
 3296              		.global	timer_period
 3297              		.global	derivative_error
 3298              		.global	last_error
 3299              		.global	accumulated_error
 3300              		.global	error
 3301              		.comm	string_3,200,4
 3302              		.comm	string_2,200,4
 3303              		.comm	string_1,200,4
 3304              		.global	Count_Slave
 3305              		.global	Count_Master
 3306              		.global	PT_TURN_COUNT
 3307              		.global	DISTANCE_PT_TURN
 3308              		.global	DISTANCE_BETW_WHEEL
 3309              		.global	CM_COUNT_CONV
 3310              		.global	COUNT_WHEEL
 3311              		.global	CS_count_Green
 3312              		.global	CS_count_Blue
 3313              		.global	CS_count_Red
 3314              		.global	WHEEL_CIRCUMFERENCE
 3315              		.global	WHEEL_DIAMETER
 3316              		.global	initial
 3317              		.data
 3318              		.align	3
 3319              		.set	.LANCHOR1,. + 0
 3320              		.type	K_p, %object
 3321              		.size	K_p, 8
 3322              	K_p:
 3323 0000 00000000 		.word	0
 3324 0004 00001440 		.word	1075052544
 3325              		.type	PWM_Master, %object
 3326              		.size	PWM_Master, 4
 3327              	PWM_Master:
 3328 0008 00409C46 		.word	1184645120
 3329              		.type	PWM_Slave, %object
 3330              		.size	PWM_Slave, 4
 3331              	PWM_Slave:
ARM GAS  C:\Users\weiro\AppData\Local\Temp\ccpp9Q4b.s 			page 77


 3332 000c 00409C46 		.word	1184645120
 3333              		.type	cal, %object
 3334              		.size	cal, 4
 3335              	cal:
 3336 0010 01000000 		.word	1
 3337 0014 00000000 		.space	4
 3338              		.type	threshold, %object
 3339              		.size	threshold, 8
 3340              	threshold:
 3341 0018 9A999999 		.word	-1717986918
 3342 001c 9999B93F 		.word	1069128089
 3343              		.type	WHEEL_DIAMETER, %object
 3344              		.size	WHEEL_DIAMETER, 8
 3345              	WHEEL_DIAMETER:
 3346 0020 9A999999 		.word	-1717986918
 3347 0024 99991540 		.word	1075157401
 3348              		.type	PWM_Cal, %object
 3349              		.size	PWM_Cal, 4
 3350              	PWM_Cal:
 3351 0028 00401C46 		.word	1176256512
 3352              		.type	down_big, %object
 3353              		.size	down_big, 4
 3354              	down_big:
 3355 002c 67020000 		.word	615
 3356              		.type	close_small, %object
 3357              		.size	close_small, 4
 3358              	close_small:
 3359 0030 AC030000 		.word	940
 3360              		.type	up_big, %object
 3361              		.size	up_big, 4
 3362              	up_big:
 3363 0034 0D020000 		.word	525
 3364              		.type	open_small, %object
 3365              		.size	open_small, 4
 3366              	open_small:
 3367 0038 D4030000 		.word	980
 3368 003c 00000000 		.space	4
 3369              		.type	DISTANCE_BETW_WHEEL, %object
 3370              		.size	DISTANCE_BETW_WHEEL, 8
 3371              	DISTANCE_BETW_WHEEL:
 3372 0040 CDCCCCCC 		.word	-858993459
 3373 0044 CC4C3640 		.word	1077300428
 3374              		.type	COUNT_WHEEL, %object
 3375              		.size	COUNT_WHEEL, 8
 3376              	COUNT_WHEEL:
 3377 0048 00000000 		.word	0
 3378 004c 00A6AC40 		.word	1085056512
 3379              		.type	step, %object
 3380              		.size	step, 4
 3381              	step:
 3382 0050 FFFFFFFF 		.word	-1
 3383              		.type	PWM_Slave_puck, %object
 3384              		.size	PWM_Slave_puck, 4
 3385              	PWM_Slave_puck:
 3386 0054 00409C45 		.word	1167867904
 3387              		.type	PWM_Master_puck, %object
 3388              		.size	PWM_Master_puck, 4
ARM GAS  C:\Users\weiro\AppData\Local\Temp\ccpp9Q4b.s 			page 78


 3389              	PWM_Master_puck:
 3390 0058 00409C45 		.word	1167867904
 3391 005c 00000000 		.space	4
 3392              		.type	timer_period, %object
 3393              		.size	timer_period, 8
 3394              	timer_period:
 3395 0060 00000000 		.word	0
 3396 0064 00001440 		.word	1075052544
 3397              		.section	.rodata.str1.4,"aMS",%progbits,1
 3398              		.align	2
 3399              	.LC0:
 3400 0000 46726F6E 		.ascii	"Front dist 1: %lf  \012\000"
 3400      74206469 
 3400      73742031 
 3400      3A20256C 
 3400      6620200A 
 3401 0015 000000   		.space	3
 3402              	.LC1:
 3403 0018 43616C69 		.ascii	"Calibrating\012\000"
 3403      62726174 
 3403      696E670A 
 3403      00
 3404 0025 000000   		.space	3
 3405              	.LC2:
 3406 0028 48656164 		.ascii	"Heading: %lf\012\000"
 3406      696E673A 
 3406      20256C66 
 3406      0A00
 3407 0036 0000     		.space	2
 3408              	.LC3:
 3409 0038 6D6F7669 		.ascii	"moving to slit\000"
 3409      6E672074 
 3409      6F20736C 
 3409      697400
 3410 0047 00       		.space	1
 3411              	.LC4:
 3412 0048 7265643A 		.ascii	"red: %d\012\000"
 3412      2025640A 
 3412      00
 3413 0051 000000   		.space	3
 3414              	.LC5:
 3415 0054 67726565 		.ascii	"green: %d\012\000"
 3415      6E3A2025 
 3415      640A00
 3416 005f 00       		.space	1
 3417              	.LC6:
 3418 0060 626C7565 		.ascii	"blue: %d\012\000"
 3418      3A202564 
 3418      0A00
 3419 006a 0000     		.space	2
 3420              	.LC7:
 3421 006c 795F636F 		.ascii	"y_coord = %lf\012\000"
 3421      6F726420 
 3421      3D20256C 
 3421      660A00
 3422 007b 00       		.space	1
 3423              	.LC8:
ARM GAS  C:\Users\weiro\AppData\Local\Temp\ccpp9Q4b.s 			page 79


 3424 007c 766F6C74 		.ascii	"volt(V): %lf\012\000"
 3424      2856293A 
 3424      20256C66 
 3424      0A00
 3425 008a 0000     		.space	2
 3426              	.LC9:
 3427 008c 64697374 		.ascii	"dist(cm): %lf\012\000"
 3427      28636D29 
 3427      3A20256C 
 3427      660A00
 3428 009b 00       		.space	1
 3429              	.LC10:
 3430 009c 52656420 		.ascii	"Red  \012\000"
 3430      200A00
 3431 00a3 00       		.space	1
 3432              	.LC11:
 3433 00a4 47726565 		.ascii	"Green  \012\000"
 3433      6E20200A 
 3433      00
 3434 00ad 000000   		.space	3
 3435              	.LC12:
 3436 00b0 426C7565 		.ascii	"Blue  \012\000"
 3436      20200A00 
 3437              		.bss
 3438              		.align	3
 3439              		.set	.LANCHOR0,. + 0
 3440              		.type	is_moving, %object
 3441              		.size	is_moving, 4
 3442              	is_moving:
 3443 0000 00000000 		.space	4
 3444              		.type	Count_Master, %object
 3445              		.size	Count_Master, 4
 3446              	Count_Master:
 3447 0004 00000000 		.space	4
 3448              		.type	Count_Slave, %object
 3449              		.size	Count_Slave, 4
 3450              	Count_Slave:
 3451 0008 00000000 		.space	4
 3452 000c 00000000 		.space	4
 3453              		.type	error, %object
 3454              		.size	error, 8
 3455              	error:
 3456 0010 00000000 		.space	8
 3456      00000000 
 3457              		.type	last_error, %object
 3458              		.size	last_error, 8
 3459              	last_error:
 3460 0018 00000000 		.space	8
 3460      00000000 
 3461              		.type	ultrasonic_count, %object
 3462              		.size	ultrasonic_count, 4
 3463              	ultrasonic_count:
 3464 0020 00000000 		.space	4
 3465 0024 00000000 		.space	4
 3466              		.type	ultrasonic_measure, %object
 3467              		.size	ultrasonic_measure, 8
 3468              	ultrasonic_measure:
ARM GAS  C:\Users\weiro\AppData\Local\Temp\ccpp9Q4b.s 			page 80


 3469 0028 00000000 		.space	8
 3469      00000000 
 3470              		.type	echo_select, %object
 3471              		.size	echo_select, 4
 3472              	echo_select:
 3473 0030 00000000 		.space	4
 3474 0034 00000000 		.space	4
 3475              		.type	left_measured, %object
 3476              		.size	left_measured, 8
 3477              	left_measured:
 3478 0038 00000000 		.space	8
 3478      00000000 
 3479              		.type	wall_detected_10, %object
 3480              		.size	wall_detected_10, 4
 3481              	wall_detected_10:
 3482 0040 00000000 		.space	4
 3483              		.type	slit_detected, %object
 3484              		.size	slit_detected, 4
 3485              	slit_detected:
 3486 0044 00000000 		.space	4
 3487              		.type	compare_ready, %object
 3488              		.size	compare_ready, 4
 3489              	compare_ready:
 3490 0048 00000000 		.space	4
 3491              		.type	i, %object
 3492              		.size	i, 4
 3493              	i:
 3494 004c 00000000 		.space	4
 3495              		.type	stop_bt, %object
 3496              		.size	stop_bt, 4
 3497              	stop_bt:
 3498 0050 00000000 		.space	4
 3499              		.type	array_1, %object
 3500              		.size	array_1, 6
 3501              	array_1:
 3502 0054 00000000 		.space	6
 3502      0000
 3503              		.type	temp, %object
 3504              		.size	temp, 2
 3505              	temp:
 3506 005a 0000     		.space	2
 3507              		.type	count, %object
 3508              		.size	count, 4
 3509              	count:
 3510 005c 00000000 		.space	4
 3511              		.type	error_gyro, %object
 3512              		.size	error_gyro, 2
 3513              	error_gyro:
 3514 0060 0000     		.space	2
 3515              		.type	error_gyro_avg, %object
 3516              		.size	error_gyro_avg, 2
 3517              	error_gyro_avg:
 3518 0062 0000     		.space	2
 3519 0064 00000000 		.space	4
 3520              		.type	yaw_rate, %object
 3521              		.size	yaw_rate, 8
 3522              	yaw_rate:
ARM GAS  C:\Users\weiro\AppData\Local\Temp\ccpp9Q4b.s 			page 81


 3523 0068 00000000 		.space	8
 3523      00000000 
 3524              		.type	current_reading, %object
 3525              		.size	current_reading, 8
 3526              	current_reading:
 3527 0070 00000000 		.space	8
 3527      00000000 
 3528              		.type	previous_reading, %object
 3529              		.size	previous_reading, 8
 3530              	previous_reading:
 3531 0078 00000000 		.space	8
 3531      00000000 
 3532              		.type	yaw_angle, %object
 3533              		.size	yaw_angle, 8
 3534              	yaw_angle:
 3535 0080 00000000 		.space	8
 3535      00000000 
 3536              		.type	cycles, %object
 3537              		.size	cycles, 4
 3538              	cycles:
 3539 0088 00000000 		.space	4
 3540 008c 00000000 		.space	4
 3541              		.type	heading, %object
 3542              		.size	heading, 8
 3543              	heading:
 3544 0090 00000000 		.space	8
 3544      00000000 
 3545              		.type	string_gyro, %object
 3546              		.size	string_gyro, 200
 3547              	string_gyro:
 3548 0098 00000000 		.space	200
 3548      00000000 
 3548      00000000 
 3548      00000000 
 3548      00000000 
 3549              		.type	CM_COUNT_CONV, %object
 3550              		.size	CM_COUNT_CONV, 8
 3551              	CM_COUNT_CONV:
 3552 0160 00000000 		.space	8
 3552      00000000 
 3553              		.type	direction, %object
 3554              		.size	direction, 4
 3555              	direction:
 3556 0168 00000000 		.space	4
 3557 016c 00000000 		.space	4
 3558              		.type	y_coord, %object
 3559              		.size	y_coord, 8
 3560              	y_coord:
 3561 0170 00000000 		.space	8
 3561      00000000 
 3562              		.type	x_coord, %object
 3563              		.size	x_coord, 8
 3564              	x_coord:
 3565 0178 00000000 		.space	8
 3565      00000000 
 3566              		.type	CS_count_Red, %object
 3567              		.size	CS_count_Red, 4
ARM GAS  C:\Users\weiro\AppData\Local\Temp\ccpp9Q4b.s 			page 82


 3568              	CS_count_Red:
 3569 0180 00000000 		.space	4
 3570              		.type	CS_count_Green, %object
 3571              		.size	CS_count_Green, 4
 3572              	CS_count_Green:
 3573 0184 00000000 		.space	4
 3574              		.type	CS_count_Blue, %object
 3575              		.size	CS_count_Blue, 4
 3576              	CS_count_Blue:
 3577 0188 00000000 		.space	4
 3578              		.type	color_detected, %object
 3579              		.size	color_detected, 4
 3580              	color_detected:
 3581 018c 00000000 		.space	4
 3582              		.type	PT_TURN_COUNT, %object
 3583              		.size	PT_TURN_COUNT, 8
 3584              	PT_TURN_COUNT:
 3585 0190 00000000 		.space	8
 3585      00000000 
 3586              		.type	WHEEL_CIRCUMFERENCE, %object
 3587              		.size	WHEEL_CIRCUMFERENCE, 8
 3588              	WHEEL_CIRCUMFERENCE:
 3589 0198 00000000 		.space	8
 3589      00000000 
 3590              		.type	DISTANCE_PT_TURN, %object
 3591              		.size	DISTANCE_PT_TURN, 8
 3592              	DISTANCE_PT_TURN:
 3593 01a0 00000000 		.space	8
 3593      00000000 
 3594              		.type	j, %object
 3595              		.size	j, 4
 3596              	j:
 3597 01a8 00000000 		.space	4
 3598 01ac 00000000 		.space	4
 3599              		.type	K_d, %object
 3600              		.size	K_d, 8
 3601              	K_d:
 3602 01b0 00000000 		.space	8
 3602      00000000 
 3603              		.type	K_i, %object
 3604              		.size	K_i, 8
 3605              	K_i:
 3606 01b8 00000000 		.space	8
 3606      00000000 
 3607              		.type	derivative_error, %object
 3608              		.size	derivative_error, 8
 3609              	derivative_error:
 3610 01c0 00000000 		.space	8
 3610      00000000 
 3611              		.type	accumulated_error, %object
 3612              		.size	accumulated_error, 8
 3613              	accumulated_error:
 3614 01c8 00000000 		.space	8
 3614      00000000 
 3615              		.type	initial, %object
 3616              		.size	initial, 4
 3617              	initial:
ARM GAS  C:\Users\weiro\AppData\Local\Temp\ccpp9Q4b.s 			page 83


 3618 01d0 00000000 		.space	4
 3619              		.text
 3620              	.Letext0:
 3621              		.file 2 "c:\\program files (x86)\\cypress\\psoc creator\\4.4\\psoc creator\\import\\gnu\\arm\\5.4.
 3622              		.file 3 "c:\\program files (x86)\\cypress\\psoc creator\\4.4\\psoc creator\\import\\gnu\\arm\\5.4.
 3623              		.file 4 "Generated_Source\\PSoC5/cytypes.h"
 3624              		.file 5 "Generated_Source\\PSoC5/core_cm3.h"
 3625              		.file 6 "Generated_Source\\PSoC5/PWM_Wheels.h"
 3626              		.file 7 "Generated_Source\\PSoC5/Timer_3.h"
 3627              		.file 8 "c:\\program files (x86)\\cypress\\psoc creator\\4.4\\psoc creator\\import\\gnu\\arm\\5.4.
 3628              		.file 9 "Generated_Source\\PSoC5/UART_2.h"
 3629              		.file 10 "Generated_Source\\PSoC5/PWM_ColorSensor.h"
 3630              		.file 11 "Generated_Source\\PSoC5/UART_1.h"
 3631              		.file 12 "Generated_Source\\PSoC5/Timer_2.h"
 3632              		.file 13 "Generated_Source\\PSoC5/I2C_1.h"
 3633              		.file 14 "Generated_Source\\PSoC5/CyLib.h"
 3634              		.file 15 "Generated_Source\\PSoC5/Motor_1_IN_1.h"
 3635              		.file 16 "Generated_Source\\PSoC5/Motor_1_IN_2.h"
 3636              		.file 17 "Generated_Source\\PSoC5/Motor_2_IN_3.h"
 3637              		.file 18 "Generated_Source\\PSoC5/Motor_2_IN_4.h"
 3638              		.file 19 "Generated_Source\\PSoC5/QuadDec_1.h"
 3639              		.file 20 "Generated_Source\\PSoC5/QuadDec_2.h"
 3640              		.file 21 "Generated_Source\\PSoC5/Control_Reg_2.h"
 3641              		.file 22 "Generated_Source\\PSoC5/Trigger.h"
 3642              		.file 23 "Generated_Source\\PSoC5/Left_Echo.h"
 3643              		.file 24 "Generated_Source\\PSoC5/IR_input.h"
 3644              		.file 25 "Generated_Source\\PSoC5/S0.h"
 3645              		.file 26 "Generated_Source\\PSoC5/S1.h"
 3646              		.file 27 "Generated_Source\\PSoC5/CS_LED.h"
 3647              		.file 28 "Generated_Source\\PSoC5/Counter_ColorSensor.h"
 3648              		.file 29 "Generated_Source\\PSoC5/S2.h"
 3649              		.file 30 "Generated_Source\\PSoC5/S3.h"
 3650              		.file 31 "Generated_Source\\PSoC5/Control_Reg_1.h"
 3651              		.file 32 "Generated_Source\\PSoC5/led_red.h"
 3652              		.file 33 "Generated_Source\\PSoC5/led_green.h"
 3653              		.file 34 "Generated_Source\\PSoC5/led_blue.h"
 3654              		.file 35 "Generated_Source\\PSoC5/Front_Echo_2.h"
 3655              		.file 36 "Generated_Source\\PSoC5/Flicker.h"
 3656              		.file 37 "Generated_Source\\PSoC5/ADC_SAR_1.h"
 3657              		.file 38 "Generated_Source\\PSoC5/PWM_BigServo.h"
 3658              		.file 39 "Generated_Source\\PSoC5/PWM_SmallServo.h"
 3659              		.file 40 "Generated_Source\\PSoC5/isr_1.h"
 3660              		.file 41 "Generated_Source\\PSoC5/isr_6.h"
 3661              		.file 42 "Generated_Source\\PSoC5/Timer_1.h"
 3662              		.file 43 "Generated_Source\\PSoC5/isr_3.h"
 3663              		.file 44 "Generated_Source\\PSoC5/isr_7.h"
 3664              		.file 45 "Generated_Source\\PSoC5/isr_2.h"
 3665              		.file 46 "Generated_Source\\PSoC5/SW2.h"
 3666              		.file 47 "c:\\program files (x86)\\cypress\\psoc creator\\4.4\\psoc creator\\import\\gnu\\arm\\5.4
 3667              		.section	.debug_info,"",%progbits
 3668              	.Ldebug_info0:
 3669 0000 971F0000 		.4byte	0x1f97
 3670 0004 0400     		.2byte	0x4
 3671 0006 00000000 		.4byte	.Ldebug_abbrev0
 3672 000a 04       		.byte	0x4
 3673 000b 01       		.uleb128 0x1
 3674 000c 5C030000 		.4byte	.LASF190
ARM GAS  C:\Users\weiro\AppData\Local\Temp\ccpp9Q4b.s 			page 84


 3675 0010 0C       		.byte	0xc
 3676 0011 4F000000 		.4byte	.LASF191
 3677 0015 350A0000 		.4byte	.LASF192
 3678 0019 30000000 		.4byte	.Ldebug_ranges0+0x30
 3679 001d 00000000 		.4byte	0
 3680 0021 00000000 		.4byte	.Ldebug_line0
 3681 0025 02       		.uleb128 0x2
 3682 0026 08       		.byte	0x8
 3683 0027 04       		.byte	0x4
 3684 0028 FE0A0000 		.4byte	.LASF0
 3685 002c 02       		.uleb128 0x2
 3686 002d 01       		.byte	0x1
 3687 002e 06       		.byte	0x6
 3688 002f 900A0000 		.4byte	.LASF1
 3689 0033 02       		.uleb128 0x2
 3690 0034 01       		.byte	0x1
 3691 0035 08       		.byte	0x8
 3692 0036 6C090000 		.4byte	.LASF2
 3693 003a 02       		.uleb128 0x2
 3694 003b 02       		.byte	0x2
 3695 003c 05       		.byte	0x5
 3696 003d 38070000 		.4byte	.LASF3
 3697 0041 02       		.uleb128 0x2
 3698 0042 02       		.byte	0x2
 3699 0043 07       		.byte	0x7
 3700 0044 9C0A0000 		.4byte	.LASF4
 3701 0048 03       		.uleb128 0x3
 3702 0049 1C010000 		.4byte	.LASF10
 3703 004d 02       		.byte	0x2
 3704 004e 3F       		.byte	0x3f
 3705 004f 53000000 		.4byte	0x53
 3706 0053 02       		.uleb128 0x2
 3707 0054 04       		.byte	0x4
 3708 0055 05       		.byte	0x5
 3709 0056 62070000 		.4byte	.LASF5
 3710 005a 02       		.uleb128 0x2
 3711 005b 04       		.byte	0x4
 3712 005c 07       		.byte	0x7
 3713 005d E8080000 		.4byte	.LASF6
 3714 0061 02       		.uleb128 0x2
 3715 0062 08       		.byte	0x8
 3716 0063 05       		.byte	0x5
 3717 0064 B4050000 		.4byte	.LASF7
 3718 0068 02       		.uleb128 0x2
 3719 0069 08       		.byte	0x8
 3720 006a 07       		.byte	0x7
 3721 006b C5020000 		.4byte	.LASF8
 3722 006f 04       		.uleb128 0x4
 3723 0070 04       		.byte	0x4
 3724 0071 05       		.byte	0x5
 3725 0072 696E7400 		.ascii	"int\000"
 3726 0076 02       		.uleb128 0x2
 3727 0077 04       		.byte	0x4
 3728 0078 07       		.byte	0x7
 3729 0079 F6000000 		.4byte	.LASF9
 3730 007d 03       		.uleb128 0x3
 3731 007e 35090000 		.4byte	.LASF11
ARM GAS  C:\Users\weiro\AppData\Local\Temp\ccpp9Q4b.s 			page 85


 3732 0082 03       		.byte	0x3
 3733 0083 2C       		.byte	0x2c
 3734 0084 48000000 		.4byte	0x48
 3735 0088 05       		.uleb128 0x5
 3736 0089 F80A0000 		.4byte	.LASF12
 3737 008d 04       		.byte	0x4
 3738 008e E801     		.2byte	0x1e8
 3739 0090 33000000 		.4byte	0x33
 3740 0094 05       		.uleb128 0x5
 3741 0095 26010000 		.4byte	.LASF13
 3742 0099 04       		.byte	0x4
 3743 009a EC01     		.2byte	0x1ec
 3744 009c 3A000000 		.4byte	0x3a
 3745 00a0 02       		.uleb128 0x2
 3746 00a1 04       		.byte	0x4
 3747 00a2 04       		.byte	0x4
 3748 00a3 63020000 		.4byte	.LASF14
 3749 00a7 02       		.uleb128 0x2
 3750 00a8 01       		.byte	0x1
 3751 00a9 08       		.byte	0x8
 3752 00aa 2C050000 		.4byte	.LASF15
 3753 00ae 02       		.uleb128 0x2
 3754 00af 08       		.byte	0x8
 3755 00b0 04       		.byte	0x4
 3756 00b1 B6060000 		.4byte	.LASF16
 3757 00b5 02       		.uleb128 0x2
 3758 00b6 04       		.byte	0x4
 3759 00b7 07       		.byte	0x7
 3760 00b8 D1080000 		.4byte	.LASF17
 3761 00bc 06       		.uleb128 0x6
 3762 00bd 04       		.byte	0x4
 3763 00be A7000000 		.4byte	0xa7
 3764 00c2 07       		.uleb128 0x7
 3765 00c3 03010000 		.4byte	.LASF18
 3766 00c7 01       		.byte	0x1
 3767 00c8 5C       		.byte	0x5c
 3768 00c9 00000000 		.4byte	.LFB64
 3769 00cd 78000000 		.4byte	.LFE64-.LFB64
 3770 00d1 01       		.uleb128 0x1
 3771 00d2 9C       		.byte	0x9c
 3772 00d3 E1000000 		.4byte	0xe1
 3773 00d7 08       		.uleb128 0x8
 3774 00d8 5C000000 		.4byte	.LVL7
 3775 00dc C41C0000 		.4byte	0x1cc4
 3776 00e0 00       		.byte	0
 3777 00e1 07       		.uleb128 0x7
 3778 00e2 4D060000 		.4byte	.LASF19
 3779 00e6 01       		.byte	0x1
 3780 00e7 74       		.byte	0x74
 3781 00e8 00000000 		.4byte	.LFB65
 3782 00ec E4000000 		.4byte	.LFE65-.LFB65
 3783 00f0 01       		.uleb128 0x1
 3784 00f1 9C       		.byte	0x9c
 3785 00f2 36010000 		.4byte	0x136
 3786 00f6 08       		.uleb128 0x8
 3787 00f7 06000000 		.4byte	.LVL8
 3788 00fb CF1C0000 		.4byte	0x1ccf
ARM GAS  C:\Users\weiro\AppData\Local\Temp\ccpp9Q4b.s 			page 86


 3789 00ff 08       		.uleb128 0x8
 3790 0100 0A000000 		.4byte	.LVL9
 3791 0104 DA1C0000 		.4byte	0x1cda
 3792 0108 09       		.uleb128 0x9
 3793 0109 38000000 		.4byte	.LVL11
 3794 010d E51C0000 		.4byte	0x1ce5
 3795 0111 25010000 		.4byte	0x125
 3796 0115 0A       		.uleb128 0xa
 3797 0116 01       		.uleb128 0x1
 3798 0117 50       		.byte	0x50
 3799 0118 02       		.uleb128 0x2
 3800 0119 75       		.byte	0x75
 3801 011a 00       		.sleb128 0
 3802 011b 0A       		.uleb128 0xa
 3803 011c 01       		.uleb128 0x1
 3804 011d 51       		.byte	0x51
 3805 011e 05       		.uleb128 0x5
 3806 011f 03       		.byte	0x3
 3807 0120 00000000 		.4byte	.LC0
 3808 0124 00       		.byte	0
 3809 0125 0B       		.uleb128 0xb
 3810 0126 3E000000 		.4byte	.LVL12
 3811 012a F01C0000 		.4byte	0x1cf0
 3812 012e 0A       		.uleb128 0xa
 3813 012f 01       		.uleb128 0x1
 3814 0130 50       		.byte	0x50
 3815 0131 02       		.uleb128 0x2
 3816 0132 75       		.byte	0x75
 3817 0133 00       		.sleb128 0
 3818 0134 00       		.byte	0
 3819 0135 00       		.byte	0
 3820 0136 0C       		.uleb128 0xc
 3821 0137 6C060000 		.4byte	.LASF20
 3822 013b 01       		.byte	0x1
 3823 013c A4       		.byte	0xa4
 3824 013d 00000000 		.4byte	.LFB66
 3825 0141 14000000 		.4byte	.LFE66-.LFB66
 3826 0145 01       		.uleb128 0x1
 3827 0146 9C       		.byte	0x9c
 3828 0147 55010000 		.4byte	0x155
 3829 014b 08       		.uleb128 0x8
 3830 014c 06000000 		.4byte	.LVL15
 3831 0150 FB1C0000 		.4byte	0x1cfb
 3832 0154 00       		.byte	0
 3833 0155 0C       		.uleb128 0xc
 3834 0156 140B0000 		.4byte	.LASF21
 3835 015a 01       		.byte	0x1
 3836 015b AB       		.byte	0xab
 3837 015c 00000000 		.4byte	.LFB67
 3838 0160 38000000 		.4byte	.LFE67-.LFB67
 3839 0164 01       		.uleb128 0x1
 3840 0165 9C       		.byte	0x9c
 3841 0166 74010000 		.4byte	0x174
 3842 016a 08       		.uleb128 0x8
 3843 016b 06000000 		.4byte	.LVL16
 3844 016f 061D0000 		.4byte	0x1d06
 3845 0173 00       		.byte	0
ARM GAS  C:\Users\weiro\AppData\Local\Temp\ccpp9Q4b.s 			page 87


 3846 0174 07       		.uleb128 0x7
 3847 0175 90060000 		.4byte	.LASF22
 3848 0179 01       		.byte	0x1
 3849 017a BA       		.byte	0xba
 3850 017b 00000000 		.4byte	.LFB68
 3851 017f 58020000 		.4byte	.LFE68-.LFB68
 3852 0183 01       		.uleb128 0x1
 3853 0184 9C       		.byte	0x9c
 3854 0185 F8020000 		.4byte	0x2f8
 3855 0189 08       		.uleb128 0x8
 3856 018a 08000000 		.4byte	.LVL17
 3857 018e 111D0000 		.4byte	0x1d11
 3858 0192 09       		.uleb128 0x9
 3859 0193 10000000 		.4byte	.LVL18
 3860 0197 1C1D0000 		.4byte	0x1d1c
 3861 019b AB010000 		.4byte	0x1ab
 3862 019f 0A       		.uleb128 0xa
 3863 01a0 01       		.uleb128 0x1
 3864 01a1 50       		.byte	0x50
 3865 01a2 02       		.uleb128 0x2
 3866 01a3 08       		.byte	0x8
 3867 01a4 68       		.byte	0x68
 3868 01a5 0A       		.uleb128 0xa
 3869 01a6 01       		.uleb128 0x1
 3870 01a7 51       		.byte	0x51
 3871 01a8 01       		.uleb128 0x1
 3872 01a9 30       		.byte	0x30
 3873 01aa 00       		.byte	0
 3874 01ab 09       		.uleb128 0x9
 3875 01ac 16000000 		.4byte	.LVL19
 3876 01b0 271D0000 		.4byte	0x1d27
 3877 01b4 BF010000 		.4byte	0x1bf
 3878 01b8 0A       		.uleb128 0xa
 3879 01b9 01       		.uleb128 0x1
 3880 01ba 50       		.byte	0x50
 3881 01bb 02       		.uleb128 0x2
 3882 01bc 08       		.byte	0x8
 3883 01bd 43       		.byte	0x43
 3884 01be 00       		.byte	0
 3885 01bf 08       		.uleb128 0x8
 3886 01c0 1A000000 		.4byte	.LVL20
 3887 01c4 321D0000 		.4byte	0x1d32
 3888 01c8 09       		.uleb128 0x9
 3889 01c9 20000000 		.4byte	.LVL21
 3890 01cd 3D1D0000 		.4byte	0x1d3d
 3891 01d1 DB010000 		.4byte	0x1db
 3892 01d5 0A       		.uleb128 0xa
 3893 01d6 01       		.uleb128 0x1
 3894 01d7 50       		.byte	0x50
 3895 01d8 01       		.uleb128 0x1
 3896 01d9 31       		.byte	0x31
 3897 01da 00       		.byte	0
 3898 01db 09       		.uleb128 0x9
 3899 01dc 28000000 		.4byte	.LVL22
 3900 01e0 1C1D0000 		.4byte	0x1d1c
 3901 01e4 F4010000 		.4byte	0x1f4
 3902 01e8 0A       		.uleb128 0xa
ARM GAS  C:\Users\weiro\AppData\Local\Temp\ccpp9Q4b.s 			page 88


 3903 01e9 01       		.uleb128 0x1
 3904 01ea 50       		.byte	0x50
 3905 01eb 02       		.uleb128 0x2
 3906 01ec 08       		.byte	0x8
 3907 01ed 68       		.byte	0x68
 3908 01ee 0A       		.uleb128 0xa
 3909 01ef 01       		.uleb128 0x1
 3910 01f0 51       		.byte	0x51
 3911 01f1 01       		.uleb128 0x1
 3912 01f2 31       		.byte	0x31
 3913 01f3 00       		.byte	0
 3914 01f4 09       		.uleb128 0x9
 3915 01f5 2E000000 		.4byte	.LVL23
 3916 01f9 481D0000 		.4byte	0x1d48
 3917 01fd 07020000 		.4byte	0x207
 3918 0201 0A       		.uleb128 0xa
 3919 0202 01       		.uleb128 0x1
 3920 0203 50       		.byte	0x50
 3921 0204 01       		.uleb128 0x1
 3922 0205 31       		.byte	0x31
 3923 0206 00       		.byte	0
 3924 0207 09       		.uleb128 0x9
 3925 0208 3A000000 		.4byte	.LVL24
 3926 020c 481D0000 		.4byte	0x1d48
 3927 0210 1A020000 		.4byte	0x21a
 3928 0214 0A       		.uleb128 0xa
 3929 0215 01       		.uleb128 0x1
 3930 0216 50       		.byte	0x50
 3931 0217 01       		.uleb128 0x1
 3932 0218 31       		.byte	0x31
 3933 0219 00       		.byte	0
 3934 021a 09       		.uleb128 0x9
 3935 021b 44000000 		.4byte	.LVL25
 3936 021f 481D0000 		.4byte	0x1d48
 3937 0223 2D020000 		.4byte	0x22d
 3938 0227 0A       		.uleb128 0xa
 3939 0228 01       		.uleb128 0x1
 3940 0229 50       		.byte	0x50
 3941 022a 01       		.uleb128 0x1
 3942 022b 31       		.byte	0x31
 3943 022c 00       		.byte	0
 3944 022d 09       		.uleb128 0x9
 3945 022e 4E000000 		.4byte	.LVL26
 3946 0232 481D0000 		.4byte	0x1d48
 3947 0236 40020000 		.4byte	0x240
 3948 023a 0A       		.uleb128 0xa
 3949 023b 01       		.uleb128 0x1
 3950 023c 50       		.byte	0x50
 3951 023d 01       		.uleb128 0x1
 3952 023e 31       		.byte	0x31
 3953 023f 00       		.byte	0
 3954 0240 09       		.uleb128 0x9
 3955 0241 58000000 		.4byte	.LVL27
 3956 0245 481D0000 		.4byte	0x1d48
 3957 0249 53020000 		.4byte	0x253
 3958 024d 0A       		.uleb128 0xa
 3959 024e 01       		.uleb128 0x1
ARM GAS  C:\Users\weiro\AppData\Local\Temp\ccpp9Q4b.s 			page 89


 3960 024f 50       		.byte	0x50
 3961 0250 01       		.uleb128 0x1
 3962 0251 31       		.byte	0x31
 3963 0252 00       		.byte	0
 3964 0253 09       		.uleb128 0x9
 3965 0254 62000000 		.4byte	.LVL28
 3966 0258 481D0000 		.4byte	0x1d48
 3967 025c 66020000 		.4byte	0x266
 3968 0260 0A       		.uleb128 0xa
 3969 0261 01       		.uleb128 0x1
 3970 0262 50       		.byte	0x50
 3971 0263 01       		.uleb128 0x1
 3972 0264 30       		.byte	0x30
 3973 0265 00       		.byte	0
 3974 0266 08       		.uleb128 0x8
 3975 0267 6A000000 		.4byte	.LVL29
 3976 026b 321D0000 		.4byte	0x1d32
 3977 026f 09       		.uleb128 0x9
 3978 0270 70000000 		.4byte	.LVL30
 3979 0274 3D1D0000 		.4byte	0x1d3d
 3980 0278 82020000 		.4byte	0x282
 3981 027c 0A       		.uleb128 0xa
 3982 027d 01       		.uleb128 0x1
 3983 027e 50       		.byte	0x50
 3984 027f 01       		.uleb128 0x1
 3985 0280 31       		.byte	0x31
 3986 0281 00       		.byte	0
 3987 0282 09       		.uleb128 0x9
 3988 0283 96000000 		.4byte	.LVL31
 3989 0287 531D0000 		.4byte	0x1d53
 3990 028b 99020000 		.4byte	0x299
 3991 028f 0A       		.uleb128 0xa
 3992 0290 01       		.uleb128 0x1
 3993 0291 50       		.byte	0x50
 3994 0292 05       		.uleb128 0x5
 3995 0293 03       		.byte	0x3
 3996 0294 18000000 		.4byte	.LC1
 3997 0298 00       		.byte	0
 3998 0299 09       		.uleb128 0x9
 3999 029a 02020000 		.4byte	.LVL48
 4000 029e E51C0000 		.4byte	0x1ce5
 4001 02a2 B6020000 		.4byte	0x2b6
 4002 02a6 0A       		.uleb128 0xa
 4003 02a7 01       		.uleb128 0x1
 4004 02a8 50       		.byte	0x50
 4005 02a9 02       		.uleb128 0x2
 4006 02aa 74       		.byte	0x74
 4007 02ab 00       		.sleb128 0
 4008 02ac 0A       		.uleb128 0xa
 4009 02ad 01       		.uleb128 0x1
 4010 02ae 51       		.byte	0x51
 4011 02af 05       		.uleb128 0x5
 4012 02b0 03       		.byte	0x3
 4013 02b1 28000000 		.4byte	.LC2
 4014 02b5 00       		.byte	0
 4015 02b6 09       		.uleb128 0x9
 4016 02b7 08020000 		.4byte	.LVL49
ARM GAS  C:\Users\weiro\AppData\Local\Temp\ccpp9Q4b.s 			page 90


 4017 02bb 531D0000 		.4byte	0x1d53
 4018 02bf CA020000 		.4byte	0x2ca
 4019 02c3 0A       		.uleb128 0xa
 4020 02c4 01       		.uleb128 0x1
 4021 02c5 50       		.byte	0x50
 4022 02c6 02       		.uleb128 0x2
 4023 02c7 74       		.byte	0x74
 4024 02c8 00       		.sleb128 0
 4025 02c9 00       		.byte	0
 4026 02ca 09       		.uleb128 0x9
 4027 02cb 22020000 		.4byte	.LVL50
 4028 02cf E51C0000 		.4byte	0x1ce5
 4029 02d3 E7020000 		.4byte	0x2e7
 4030 02d7 0A       		.uleb128 0xa
 4031 02d8 01       		.uleb128 0x1
 4032 02d9 50       		.byte	0x50
 4033 02da 02       		.uleb128 0x2
 4034 02db 74       		.byte	0x74
 4035 02dc 00       		.sleb128 0
 4036 02dd 0A       		.uleb128 0xa
 4037 02de 01       		.uleb128 0x1
 4038 02df 51       		.byte	0x51
 4039 02e0 05       		.uleb128 0x5
 4040 02e1 03       		.byte	0x3
 4041 02e2 28000000 		.4byte	.LC2
 4042 02e6 00       		.byte	0
 4043 02e7 0B       		.uleb128 0xb
 4044 02e8 28020000 		.4byte	.LVL51
 4045 02ec 531D0000 		.4byte	0x1d53
 4046 02f0 0A       		.uleb128 0xa
 4047 02f1 01       		.uleb128 0x1
 4048 02f2 50       		.byte	0x50
 4049 02f3 02       		.uleb128 0x2
 4050 02f4 74       		.byte	0x74
 4051 02f5 00       		.sleb128 0
 4052 02f6 00       		.byte	0
 4053 02f7 00       		.byte	0
 4054 02f8 0D       		.uleb128 0xd
 4055 02f9 4D020000 		.4byte	.LASF23
 4056 02fd 01       		.byte	0x1
 4057 02fe 1301     		.2byte	0x113
 4058 0300 00000000 		.4byte	.LFB69
 4059 0304 28000000 		.4byte	.LFE69-.LFB69
 4060 0308 01       		.uleb128 0x1
 4061 0309 9C       		.byte	0x9c
 4062 030a 5B030000 		.4byte	0x35b
 4063 030e 09       		.uleb128 0x9
 4064 030f 0E000000 		.4byte	.LVL52
 4065 0313 5E1D0000 		.4byte	0x1d5e
 4066 0317 22030000 		.4byte	0x322
 4067 031b 0A       		.uleb128 0xa
 4068 031c 01       		.uleb128 0x1
 4069 031d 50       		.byte	0x50
 4070 031e 02       		.uleb128 0x2
 4071 031f 74       		.byte	0x74
 4072 0320 00       		.sleb128 0
 4073 0321 00       		.byte	0
ARM GAS  C:\Users\weiro\AppData\Local\Temp\ccpp9Q4b.s 			page 91


 4074 0322 09       		.uleb128 0x9
 4075 0323 14000000 		.4byte	.LVL53
 4076 0327 691D0000 		.4byte	0x1d69
 4077 032b 36030000 		.4byte	0x336
 4078 032f 0A       		.uleb128 0xa
 4079 0330 01       		.uleb128 0x1
 4080 0331 50       		.byte	0x50
 4081 0332 02       		.uleb128 0x2
 4082 0333 74       		.byte	0x74
 4083 0334 00       		.sleb128 0
 4084 0335 00       		.byte	0
 4085 0336 09       		.uleb128 0x9
 4086 0337 1A000000 		.4byte	.LVL54
 4087 033b 741D0000 		.4byte	0x1d74
 4088 033f 4A030000 		.4byte	0x34a
 4089 0343 0A       		.uleb128 0xa
 4090 0344 01       		.uleb128 0x1
 4091 0345 50       		.byte	0x50
 4092 0346 02       		.uleb128 0x2
 4093 0347 74       		.byte	0x74
 4094 0348 00       		.sleb128 0
 4095 0349 00       		.byte	0
 4096 034a 0B       		.uleb128 0xb
 4097 034b 20000000 		.4byte	.LVL55
 4098 034f 7F1D0000 		.4byte	0x1d7f
 4099 0353 0A       		.uleb128 0xa
 4100 0354 01       		.uleb128 0x1
 4101 0355 50       		.byte	0x50
 4102 0356 02       		.uleb128 0x2
 4103 0357 74       		.byte	0x74
 4104 0358 00       		.sleb128 0
 4105 0359 00       		.byte	0
 4106 035a 00       		.byte	0
 4107 035b 0D       		.uleb128 0xd
 4108 035c 40060000 		.4byte	.LASF24
 4109 0360 01       		.byte	0x1
 4110 0361 1C01     		.2byte	0x11c
 4111 0363 00000000 		.4byte	.LFB70
 4112 0367 28000000 		.4byte	.LFE70-.LFB70
 4113 036b 01       		.uleb128 0x1
 4114 036c 9C       		.byte	0x9c
 4115 036d BC030000 		.4byte	0x3bc
 4116 0371 09       		.uleb128 0x9
 4117 0372 0E000000 		.4byte	.LVL56
 4118 0376 5E1D0000 		.4byte	0x1d5e
 4119 037a 84030000 		.4byte	0x384
 4120 037e 0A       		.uleb128 0xa
 4121 037f 01       		.uleb128 0x1
 4122 0380 50       		.byte	0x50
 4123 0381 01       		.uleb128 0x1
 4124 0382 30       		.byte	0x30
 4125 0383 00       		.byte	0
 4126 0384 09       		.uleb128 0x9
 4127 0385 14000000 		.4byte	.LVL57
 4128 0389 691D0000 		.4byte	0x1d69
 4129 038d 98030000 		.4byte	0x398
 4130 0391 0A       		.uleb128 0xa
ARM GAS  C:\Users\weiro\AppData\Local\Temp\ccpp9Q4b.s 			page 92


 4131 0392 01       		.uleb128 0x1
 4132 0393 50       		.byte	0x50
 4133 0394 02       		.uleb128 0x2
 4134 0395 74       		.byte	0x74
 4135 0396 00       		.sleb128 0
 4136 0397 00       		.byte	0
 4137 0398 09       		.uleb128 0x9
 4138 0399 1A000000 		.4byte	.LVL58
 4139 039d 741D0000 		.4byte	0x1d74
 4140 03a1 AB030000 		.4byte	0x3ab
 4141 03a5 0A       		.uleb128 0xa
 4142 03a6 01       		.uleb128 0x1
 4143 03a7 50       		.byte	0x50
 4144 03a8 01       		.uleb128 0x1
 4145 03a9 30       		.byte	0x30
 4146 03aa 00       		.byte	0
 4147 03ab 0B       		.uleb128 0xb
 4148 03ac 20000000 		.4byte	.LVL59
 4149 03b0 7F1D0000 		.4byte	0x1d7f
 4150 03b4 0A       		.uleb128 0xa
 4151 03b5 01       		.uleb128 0x1
 4152 03b6 50       		.byte	0x50
 4153 03b7 02       		.uleb128 0x2
 4154 03b8 74       		.byte	0x74
 4155 03b9 00       		.sleb128 0
 4156 03ba 00       		.byte	0
 4157 03bb 00       		.byte	0
 4158 03bc 0D       		.uleb128 0xd
 4159 03bd EB010000 		.4byte	.LASF25
 4160 03c1 01       		.byte	0x1
 4161 03c2 2501     		.2byte	0x125
 4162 03c4 00000000 		.4byte	.LFB71
 4163 03c8 28000000 		.4byte	.LFE71-.LFB71
 4164 03cc 01       		.uleb128 0x1
 4165 03cd 9C       		.byte	0x9c
 4166 03ce 1D040000 		.4byte	0x41d
 4167 03d2 09       		.uleb128 0x9
 4168 03d3 0E000000 		.4byte	.LVL60
 4169 03d7 5E1D0000 		.4byte	0x1d5e
 4170 03db E6030000 		.4byte	0x3e6
 4171 03df 0A       		.uleb128 0xa
 4172 03e0 01       		.uleb128 0x1
 4173 03e1 50       		.byte	0x50
 4174 03e2 02       		.uleb128 0x2
 4175 03e3 74       		.byte	0x74
 4176 03e4 00       		.sleb128 0
 4177 03e5 00       		.byte	0
 4178 03e6 09       		.uleb128 0x9
 4179 03e7 14000000 		.4byte	.LVL61
 4180 03eb 691D0000 		.4byte	0x1d69
 4181 03ef F9030000 		.4byte	0x3f9
 4182 03f3 0A       		.uleb128 0xa
 4183 03f4 01       		.uleb128 0x1
 4184 03f5 50       		.byte	0x50
 4185 03f6 01       		.uleb128 0x1
 4186 03f7 30       		.byte	0x30
 4187 03f8 00       		.byte	0
ARM GAS  C:\Users\weiro\AppData\Local\Temp\ccpp9Q4b.s 			page 93


 4188 03f9 09       		.uleb128 0x9
 4189 03fa 1A000000 		.4byte	.LVL62
 4190 03fe 741D0000 		.4byte	0x1d74
 4191 0402 0D040000 		.4byte	0x40d
 4192 0406 0A       		.uleb128 0xa
 4193 0407 01       		.uleb128 0x1
 4194 0408 50       		.byte	0x50
 4195 0409 02       		.uleb128 0x2
 4196 040a 74       		.byte	0x74
 4197 040b 00       		.sleb128 0
 4198 040c 00       		.byte	0
 4199 040d 0B       		.uleb128 0xb
 4200 040e 20000000 		.4byte	.LVL63
 4201 0412 7F1D0000 		.4byte	0x1d7f
 4202 0416 0A       		.uleb128 0xa
 4203 0417 01       		.uleb128 0x1
 4204 0418 50       		.byte	0x50
 4205 0419 01       		.uleb128 0x1
 4206 041a 30       		.byte	0x30
 4207 041b 00       		.byte	0
 4208 041c 00       		.byte	0
 4209 041d 0D       		.uleb128 0xd
 4210 041e 0E0A0000 		.4byte	.LASF26
 4211 0422 01       		.byte	0x1
 4212 0423 2E01     		.2byte	0x12e
 4213 0425 00000000 		.4byte	.LFB72
 4214 0429 28000000 		.4byte	.LFE72-.LFB72
 4215 042d 01       		.uleb128 0x1
 4216 042e 9C       		.byte	0x9c
 4217 042f 7E040000 		.4byte	0x47e
 4218 0433 09       		.uleb128 0x9
 4219 0434 0E000000 		.4byte	.LVL64
 4220 0438 5E1D0000 		.4byte	0x1d5e
 4221 043c 46040000 		.4byte	0x446
 4222 0440 0A       		.uleb128 0xa
 4223 0441 01       		.uleb128 0x1
 4224 0442 50       		.byte	0x50
 4225 0443 01       		.uleb128 0x1
 4226 0444 30       		.byte	0x30
 4227 0445 00       		.byte	0
 4228 0446 09       		.uleb128 0x9
 4229 0447 14000000 		.4byte	.LVL65
 4230 044b 691D0000 		.4byte	0x1d69
 4231 044f 5A040000 		.4byte	0x45a
 4232 0453 0A       		.uleb128 0xa
 4233 0454 01       		.uleb128 0x1
 4234 0455 50       		.byte	0x50
 4235 0456 02       		.uleb128 0x2
 4236 0457 74       		.byte	0x74
 4237 0458 00       		.sleb128 0
 4238 0459 00       		.byte	0
 4239 045a 09       		.uleb128 0x9
 4240 045b 1A000000 		.4byte	.LVL66
 4241 045f 741D0000 		.4byte	0x1d74
 4242 0463 6E040000 		.4byte	0x46e
 4243 0467 0A       		.uleb128 0xa
 4244 0468 01       		.uleb128 0x1
ARM GAS  C:\Users\weiro\AppData\Local\Temp\ccpp9Q4b.s 			page 94


 4245 0469 50       		.byte	0x50
 4246 046a 02       		.uleb128 0x2
 4247 046b 74       		.byte	0x74
 4248 046c 00       		.sleb128 0
 4249 046d 00       		.byte	0
 4250 046e 0B       		.uleb128 0xb
 4251 046f 20000000 		.4byte	.LVL67
 4252 0473 7F1D0000 		.4byte	0x1d7f
 4253 0477 0A       		.uleb128 0xa
 4254 0478 01       		.uleb128 0x1
 4255 0479 50       		.byte	0x50
 4256 047a 01       		.uleb128 0x1
 4257 047b 30       		.byte	0x30
 4258 047c 00       		.byte	0
 4259 047d 00       		.byte	0
 4260 047e 0D       		.uleb128 0xd
 4261 047f DA060000 		.4byte	.LASF27
 4262 0483 01       		.byte	0x1
 4263 0484 3701     		.2byte	0x137
 4264 0486 00000000 		.4byte	.LFB73
 4265 048a 28000000 		.4byte	.LFE73-.LFB73
 4266 048e 01       		.uleb128 0x1
 4267 048f 9C       		.byte	0x9c
 4268 0490 DF040000 		.4byte	0x4df
 4269 0494 09       		.uleb128 0x9
 4270 0495 0E000000 		.4byte	.LVL68
 4271 0499 5E1D0000 		.4byte	0x1d5e
 4272 049d A8040000 		.4byte	0x4a8
 4273 04a1 0A       		.uleb128 0xa
 4274 04a2 01       		.uleb128 0x1
 4275 04a3 50       		.byte	0x50
 4276 04a4 02       		.uleb128 0x2
 4277 04a5 74       		.byte	0x74
 4278 04a6 00       		.sleb128 0
 4279 04a7 00       		.byte	0
 4280 04a8 09       		.uleb128 0x9
 4281 04a9 14000000 		.4byte	.LVL69
 4282 04ad 691D0000 		.4byte	0x1d69
 4283 04b1 BB040000 		.4byte	0x4bb
 4284 04b5 0A       		.uleb128 0xa
 4285 04b6 01       		.uleb128 0x1
 4286 04b7 50       		.byte	0x50
 4287 04b8 01       		.uleb128 0x1
 4288 04b9 30       		.byte	0x30
 4289 04ba 00       		.byte	0
 4290 04bb 09       		.uleb128 0x9
 4291 04bc 1A000000 		.4byte	.LVL70
 4292 04c0 741D0000 		.4byte	0x1d74
 4293 04c4 CE040000 		.4byte	0x4ce
 4294 04c8 0A       		.uleb128 0xa
 4295 04c9 01       		.uleb128 0x1
 4296 04ca 50       		.byte	0x50
 4297 04cb 01       		.uleb128 0x1
 4298 04cc 30       		.byte	0x30
 4299 04cd 00       		.byte	0
 4300 04ce 0B       		.uleb128 0xb
 4301 04cf 20000000 		.4byte	.LVL71
ARM GAS  C:\Users\weiro\AppData\Local\Temp\ccpp9Q4b.s 			page 95


 4302 04d3 7F1D0000 		.4byte	0x1d7f
 4303 04d7 0A       		.uleb128 0xa
 4304 04d8 01       		.uleb128 0x1
 4305 04d9 50       		.byte	0x50
 4306 04da 02       		.uleb128 0x2
 4307 04db 74       		.byte	0x74
 4308 04dc 00       		.sleb128 0
 4309 04dd 00       		.byte	0
 4310 04de 00       		.byte	0
 4311 04df 0D       		.uleb128 0xd
 4312 04e0 C8010000 		.4byte	.LASF28
 4313 04e4 01       		.byte	0x1
 4314 04e5 4001     		.2byte	0x140
 4315 04e7 00000000 		.4byte	.LFB74
 4316 04eb 1C000000 		.4byte	.LFE74-.LFB74
 4317 04ef 01       		.uleb128 0x1
 4318 04f0 9C       		.byte	0x9c
 4319 04f1 18050000 		.4byte	0x518
 4320 04f5 09       		.uleb128 0x9
 4321 04f6 08000000 		.4byte	.LVL72
 4322 04fa 8A1D0000 		.4byte	0x1d8a
 4323 04fe 08050000 		.4byte	0x508
 4324 0502 0A       		.uleb128 0xa
 4325 0503 01       		.uleb128 0x1
 4326 0504 50       		.byte	0x50
 4327 0505 01       		.uleb128 0x1
 4328 0506 30       		.byte	0x30
 4329 0507 00       		.byte	0
 4330 0508 0B       		.uleb128 0xb
 4331 0509 0E000000 		.4byte	.LVL73
 4332 050d 951D0000 		.4byte	0x1d95
 4333 0511 0A       		.uleb128 0xa
 4334 0512 01       		.uleb128 0x1
 4335 0513 50       		.byte	0x50
 4336 0514 01       		.uleb128 0x1
 4337 0515 30       		.byte	0x30
 4338 0516 00       		.byte	0
 4339 0517 00       		.byte	0
 4340 0518 0E       		.uleb128 0xe
 4341 0519 D1050000 		.4byte	.LASF29
 4342 051d 01       		.byte	0x1
 4343 051e 4801     		.2byte	0x148
 4344 0520 00000000 		.4byte	.LFB75
 4345 0524 14010000 		.4byte	.LFE75-.LFB75
 4346 0528 01       		.uleb128 0x1
 4347 0529 9C       		.byte	0x9c
 4348 052a C7050000 		.4byte	0x5c7
 4349 052e 0F       		.uleb128 0xf
 4350 052f 5D060000 		.4byte	.LASF30
 4351 0533 01       		.byte	0x1
 4352 0534 4801     		.2byte	0x148
 4353 0536 6F000000 		.4byte	0x6f
 4354 053a 00000000 		.4byte	.LLST0
 4355 053e 0F       		.uleb128 0xf
 4356 053f 3F080000 		.4byte	.LASF31
 4357 0543 01       		.byte	0x1
 4358 0544 4801     		.2byte	0x148
ARM GAS  C:\Users\weiro\AppData\Local\Temp\ccpp9Q4b.s 			page 96


 4359 0546 6F000000 		.4byte	0x6f
 4360 054a 21000000 		.4byte	.LLST1
 4361 054e 10       		.uleb128 0x10
 4362 054f 2B0A0000 		.4byte	.LASF32
 4363 0553 01       		.byte	0x1
 4364 0554 4A01     		.2byte	0x14a
 4365 0556 25000000 		.4byte	0x25
 4366 055a 4D000000 		.4byte	.LLST2
 4367 055e 10       		.uleb128 0x10
 4368 055f AD070000 		.4byte	.LASF33
 4369 0563 01       		.byte	0x1
 4370 0564 4A01     		.2byte	0x14a
 4371 0566 25000000 		.4byte	0x25
 4372 056a 95000000 		.4byte	.LLST3
 4373 056e 10       		.uleb128 0x10
 4374 056f A3040000 		.4byte	.LASF34
 4375 0573 01       		.byte	0x1
 4376 0574 4B01     		.2byte	0x14b
 4377 0576 6F000000 		.4byte	0x6f
 4378 057a DD000000 		.4byte	.LLST4
 4379 057e 08       		.uleb128 0x8
 4380 057f 1E000000 		.4byte	.LVL80
 4381 0583 A01D0000 		.4byte	0x1da0
 4382 0587 08       		.uleb128 0x8
 4383 0588 26000000 		.4byte	.LVL81
 4384 058c AB1D0000 		.4byte	0x1dab
 4385 0590 08       		.uleb128 0x8
 4386 0591 30000000 		.4byte	.LVL82
 4387 0595 5B030000 		.4byte	0x35b
 4388 0599 08       		.uleb128 0x8
 4389 059a 36000000 		.4byte	.LVL83
 4390 059e BC030000 		.4byte	0x3bc
 4391 05a2 08       		.uleb128 0x8
 4392 05a3 56000000 		.4byte	.LVL84
 4393 05a7 F8020000 		.4byte	0x2f8
 4394 05ab 08       		.uleb128 0x8
 4395 05ac 5A000000 		.4byte	.LVL85
 4396 05b0 A01D0000 		.4byte	0x1da0
 4397 05b4 08       		.uleb128 0x8
 4398 05b5 60000000 		.4byte	.LVL86
 4399 05b9 AB1D0000 		.4byte	0x1dab
 4400 05bd 08       		.uleb128 0x8
 4401 05be F4000000 		.4byte	.LVL105
 4402 05c2 DF040000 		.4byte	0x4df
 4403 05c6 00       		.byte	0
 4404 05c7 11       		.uleb128 0x11
 4405 05c8 3D050000 		.4byte	.LASF35
 4406 05cc 01       		.byte	0x1
 4407 05cd 7201     		.2byte	0x172
 4408 05cf 00000000 		.4byte	.LFB76
 4409 05d3 F8000000 		.4byte	.LFE76-.LFB76
 4410 05d7 01       		.uleb128 0x1
 4411 05d8 9C       		.byte	0x9c
 4412 05d9 9F060000 		.4byte	0x69f
 4413 05dd 10       		.uleb128 0x10
 4414 05de 2B0A0000 		.4byte	.LASF32
 4415 05e2 01       		.byte	0x1
ARM GAS  C:\Users\weiro\AppData\Local\Temp\ccpp9Q4b.s 			page 97


 4416 05e3 7401     		.2byte	0x174
 4417 05e5 25000000 		.4byte	0x25
 4418 05e9 FB000000 		.4byte	.LLST5
 4419 05ed 10       		.uleb128 0x10
 4420 05ee AD070000 		.4byte	.LASF33
 4421 05f2 01       		.byte	0x1
 4422 05f3 7401     		.2byte	0x174
 4423 05f5 25000000 		.4byte	0x25
 4424 05f9 43010000 		.4byte	.LLST6
 4425 05fd 09       		.uleb128 0x9
 4426 05fe 0C000000 		.4byte	.LVL107
 4427 0602 B61D0000 		.4byte	0x1db6
 4428 0606 10060000 		.4byte	0x610
 4429 060a 0A       		.uleb128 0xa
 4430 060b 01       		.uleb128 0x1
 4431 060c 50       		.byte	0x50
 4432 060d 01       		.uleb128 0x1
 4433 060e 31       		.byte	0x31
 4434 060f 00       		.byte	0
 4435 0610 09       		.uleb128 0x9
 4436 0611 12000000 		.4byte	.LVL108
 4437 0615 3D1D0000 		.4byte	0x1d3d
 4438 0619 24060000 		.4byte	0x624
 4439 061d 0A       		.uleb128 0xa
 4440 061e 01       		.uleb128 0x1
 4441 061f 50       		.byte	0x50
 4442 0620 02       		.uleb128 0x2
 4443 0621 08       		.byte	0x8
 4444 0622 32       		.byte	0x32
 4445 0623 00       		.byte	0
 4446 0624 08       		.uleb128 0x8
 4447 0625 1C000000 		.4byte	.LVL109
 4448 0629 5B030000 		.4byte	0x35b
 4449 062d 09       		.uleb128 0x9
 4450 062e 22000000 		.4byte	.LVL110
 4451 0632 3D1D0000 		.4byte	0x1d3d
 4452 0636 41060000 		.4byte	0x641
 4453 063a 0A       		.uleb128 0xa
 4454 063b 01       		.uleb128 0x1
 4455 063c 50       		.byte	0x50
 4456 063d 02       		.uleb128 0x2
 4457 063e 08       		.byte	0x8
 4458 063f 32       		.byte	0x32
 4459 0640 00       		.byte	0
 4460 0641 09       		.uleb128 0x9
 4461 0642 28000000 		.4byte	.LVL111
 4462 0646 C11D0000 		.4byte	0x1dc1
 4463 064a 54060000 		.4byte	0x654
 4464 064e 0A       		.uleb128 0xa
 4465 064f 01       		.uleb128 0x1
 4466 0650 50       		.byte	0x50
 4467 0651 01       		.uleb128 0x1
 4468 0652 31       		.byte	0x31
 4469 0653 00       		.byte	0
 4470 0654 09       		.uleb128 0x9
 4471 0655 2E000000 		.4byte	.LVL112
 4472 0659 CC1D0000 		.4byte	0x1dcc
ARM GAS  C:\Users\weiro\AppData\Local\Temp\ccpp9Q4b.s 			page 98


 4473 065d 67060000 		.4byte	0x667
 4474 0661 0A       		.uleb128 0xa
 4475 0662 01       		.uleb128 0x1
 4476 0663 50       		.byte	0x50
 4477 0664 01       		.uleb128 0x1
 4478 0665 3A       		.byte	0x3a
 4479 0666 00       		.byte	0
 4480 0667 09       		.uleb128 0x9
 4481 0668 34000000 		.4byte	.LVL113
 4482 066c C11D0000 		.4byte	0x1dc1
 4483 0670 7A060000 		.4byte	0x67a
 4484 0674 0A       		.uleb128 0xa
 4485 0675 01       		.uleb128 0x1
 4486 0676 50       		.byte	0x50
 4487 0677 01       		.uleb128 0x1
 4488 0678 30       		.byte	0x30
 4489 0679 00       		.byte	0
 4490 067a 08       		.uleb128 0x8
 4491 067b 40000000 		.4byte	.LVL114
 4492 067f F8020000 		.4byte	0x2f8
 4493 0683 08       		.uleb128 0x8
 4494 0684 44000000 		.4byte	.LVL115
 4495 0688 A01D0000 		.4byte	0x1da0
 4496 068c 08       		.uleb128 0x8
 4497 068d 4A000000 		.4byte	.LVL116
 4498 0691 AB1D0000 		.4byte	0x1dab
 4499 0695 08       		.uleb128 0x8
 4500 0696 DE000000 		.4byte	.LVL135
 4501 069a DF040000 		.4byte	0x4df
 4502 069e 00       		.byte	0
 4503 069f 11       		.uleb128 0x11
 4504 06a0 33030000 		.4byte	.LASF36
 4505 06a4 01       		.byte	0x1
 4506 06a5 9A01     		.2byte	0x19a
 4507 06a7 00000000 		.4byte	.LFB77
 4508 06ab 28010000 		.4byte	.LFE77-.LFB77
 4509 06af 01       		.uleb128 0x1
 4510 06b0 9C       		.byte	0x9c
 4511 06b1 94070000 		.4byte	0x794
 4512 06b5 10       		.uleb128 0x10
 4513 06b6 2B0A0000 		.4byte	.LASF32
 4514 06ba 01       		.byte	0x1
 4515 06bb 9C01     		.2byte	0x19c
 4516 06bd 25000000 		.4byte	0x25
 4517 06c1 8B010000 		.4byte	.LLST7
 4518 06c5 10       		.uleb128 0x10
 4519 06c6 AD070000 		.4byte	.LASF33
 4520 06ca 01       		.byte	0x1
 4521 06cb 9C01     		.2byte	0x19c
 4522 06cd 25000000 		.4byte	0x25
 4523 06d1 D3010000 		.4byte	.LLST8
 4524 06d5 09       		.uleb128 0x9
 4525 06d6 0C000000 		.4byte	.LVL136
 4526 06da B61D0000 		.4byte	0x1db6
 4527 06de E8060000 		.4byte	0x6e8
 4528 06e2 0A       		.uleb128 0xa
 4529 06e3 01       		.uleb128 0x1
ARM GAS  C:\Users\weiro\AppData\Local\Temp\ccpp9Q4b.s 			page 99


 4530 06e4 50       		.byte	0x50
 4531 06e5 01       		.uleb128 0x1
 4532 06e6 32       		.byte	0x32
 4533 06e7 00       		.byte	0
 4534 06e8 09       		.uleb128 0x9
 4535 06e9 12000000 		.4byte	.LVL137
 4536 06ed 3D1D0000 		.4byte	0x1d3d
 4537 06f1 FC060000 		.4byte	0x6fc
 4538 06f5 0A       		.uleb128 0xa
 4539 06f6 01       		.uleb128 0x1
 4540 06f7 50       		.byte	0x50
 4541 06f8 02       		.uleb128 0x2
 4542 06f9 08       		.byte	0x8
 4543 06fa 32       		.byte	0x32
 4544 06fb 00       		.byte	0
 4545 06fc 08       		.uleb128 0x8
 4546 06fd 18000000 		.4byte	.LVL138
 4547 0701 5B030000 		.4byte	0x35b
 4548 0705 09       		.uleb128 0x9
 4549 0706 32000000 		.4byte	.LVL139
 4550 070a 531D0000 		.4byte	0x1d53
 4551 070e 19070000 		.4byte	0x719
 4552 0712 0A       		.uleb128 0xa
 4553 0713 01       		.uleb128 0x1
 4554 0714 50       		.byte	0x50
 4555 0715 02       		.uleb128 0x2
 4556 0716 74       		.byte	0x74
 4557 0717 00       		.sleb128 0
 4558 0718 00       		.byte	0
 4559 0719 09       		.uleb128 0x9
 4560 071a 38000000 		.4byte	.LVL140
 4561 071e 3D1D0000 		.4byte	0x1d3d
 4562 0722 2D070000 		.4byte	0x72d
 4563 0726 0A       		.uleb128 0xa
 4564 0727 01       		.uleb128 0x1
 4565 0728 50       		.byte	0x50
 4566 0729 02       		.uleb128 0x2
 4567 072a 08       		.byte	0x8
 4568 072b 64       		.byte	0x64
 4569 072c 00       		.byte	0
 4570 072d 09       		.uleb128 0x9
 4571 072e 40000000 		.4byte	.LVL141
 4572 0732 C11D0000 		.4byte	0x1dc1
 4573 0736 40070000 		.4byte	0x740
 4574 073a 0A       		.uleb128 0xa
 4575 073b 01       		.uleb128 0x1
 4576 073c 50       		.byte	0x50
 4577 073d 01       		.uleb128 0x1
 4578 073e 31       		.byte	0x31
 4579 073f 00       		.byte	0
 4580 0740 09       		.uleb128 0x9
 4581 0741 46000000 		.4byte	.LVL142
 4582 0745 CC1D0000 		.4byte	0x1dcc
 4583 0749 53070000 		.4byte	0x753
 4584 074d 0A       		.uleb128 0xa
 4585 074e 01       		.uleb128 0x1
 4586 074f 50       		.byte	0x50
ARM GAS  C:\Users\weiro\AppData\Local\Temp\ccpp9Q4b.s 			page 100


 4587 0750 01       		.uleb128 0x1
 4588 0751 3A       		.byte	0x3a
 4589 0752 00       		.byte	0
 4590 0753 09       		.uleb128 0x9
 4591 0754 4C000000 		.4byte	.LVL143
 4592 0758 C11D0000 		.4byte	0x1dc1
 4593 075c 66070000 		.4byte	0x766
 4594 0760 0A       		.uleb128 0xa
 4595 0761 01       		.uleb128 0x1
 4596 0762 50       		.byte	0x50
 4597 0763 01       		.uleb128 0x1
 4598 0764 30       		.byte	0x30
 4599 0765 00       		.byte	0
 4600 0766 08       		.uleb128 0x8
 4601 0767 50000000 		.4byte	.LVL144
 4602 076b D71D0000 		.4byte	0x1dd7
 4603 076f 08       		.uleb128 0x8
 4604 0770 60000000 		.4byte	.LVL145
 4605 0774 F8020000 		.4byte	0x2f8
 4606 0778 08       		.uleb128 0x8
 4607 0779 64000000 		.4byte	.LVL146
 4608 077d A01D0000 		.4byte	0x1da0
 4609 0781 08       		.uleb128 0x8
 4610 0782 6A000000 		.4byte	.LVL147
 4611 0786 AB1D0000 		.4byte	0x1dab
 4612 078a 08       		.uleb128 0x8
 4613 078b FE000000 		.4byte	.LVL166
 4614 078f DF040000 		.4byte	0x4df
 4615 0793 00       		.byte	0
 4616 0794 11       		.uleb128 0x11
 4617 0795 35080000 		.4byte	.LASF37
 4618 0799 01       		.byte	0x1
 4619 079a C901     		.2byte	0x1c9
 4620 079c 00000000 		.4byte	.LFB78
 4621 07a0 D8000000 		.4byte	.LFE78-.LFB78
 4622 07a4 01       		.uleb128 0x1
 4623 07a5 9C       		.byte	0x9c
 4624 07a6 16080000 		.4byte	0x816
 4625 07aa 10       		.uleb128 0x10
 4626 07ab 2B0A0000 		.4byte	.LASF32
 4627 07af 01       		.byte	0x1
 4628 07b0 CB01     		.2byte	0x1cb
 4629 07b2 25000000 		.4byte	0x25
 4630 07b6 1B020000 		.4byte	.LLST9
 4631 07ba 10       		.uleb128 0x10
 4632 07bb AD070000 		.4byte	.LASF33
 4633 07bf 01       		.byte	0x1
 4634 07c0 CB01     		.2byte	0x1cb
 4635 07c2 25000000 		.4byte	0x25
 4636 07c6 63020000 		.4byte	.LLST10
 4637 07ca 08       		.uleb128 0x8
 4638 07cb 08000000 		.4byte	.LVL167
 4639 07cf 5B030000 		.4byte	0x35b
 4640 07d3 08       		.uleb128 0x8
 4641 07d4 0C000000 		.4byte	.LVL168
 4642 07d8 E21D0000 		.4byte	0x1de2
 4643 07dc 08       		.uleb128 0x8
ARM GAS  C:\Users\weiro\AppData\Local\Temp\ccpp9Q4b.s 			page 101


 4644 07dd 14000000 		.4byte	.LVL169
 4645 07e1 F8020000 		.4byte	0x2f8
 4646 07e5 09       		.uleb128 0x9
 4647 07e6 1C000000 		.4byte	.LVL170
 4648 07ea 3D1D0000 		.4byte	0x1d3d
 4649 07ee FA070000 		.4byte	0x7fa
 4650 07f2 0A       		.uleb128 0xa
 4651 07f3 01       		.uleb128 0x1
 4652 07f4 50       		.byte	0x50
 4653 07f5 03       		.uleb128 0x3
 4654 07f6 0A       		.byte	0xa
 4655 07f7 F401     		.2byte	0x1f4
 4656 07f9 00       		.byte	0
 4657 07fa 08       		.uleb128 0x8
 4658 07fb 20000000 		.4byte	.LVL171
 4659 07ff A01D0000 		.4byte	0x1da0
 4660 0803 08       		.uleb128 0x8
 4661 0804 26000000 		.4byte	.LVL172
 4662 0808 AB1D0000 		.4byte	0x1dab
 4663 080c 08       		.uleb128 0x8
 4664 080d BA000000 		.4byte	.LVL191
 4665 0811 DF040000 		.4byte	0x4df
 4666 0815 00       		.byte	0
 4667 0816 11       		.uleb128 0x11
 4668 0817 07080000 		.4byte	.LASF38
 4669 081b 01       		.byte	0x1
 4670 081c EB01     		.2byte	0x1eb
 4671 081e 00000000 		.4byte	.LFB79
 4672 0822 A8000000 		.4byte	.LFE79-.LFB79
 4673 0826 01       		.uleb128 0x1
 4674 0827 9C       		.byte	0x9c
 4675 0828 C7080000 		.4byte	0x8c7
 4676 082c 12       		.uleb128 0x12
 4677 082d 3E040000 		.4byte	.LASF39
 4678 0831 01       		.byte	0x1
 4679 0832 EE01     		.2byte	0x1ee
 4680 0834 6F000000 		.4byte	0x6f
 4681 0838 05       		.byte	0x5
 4682 0839 10       		.uleb128 0x10
 4683 083a 31050000 		.4byte	.LASF40
 4684 083e 01       		.byte	0x1
 4685 083f EF01     		.2byte	0x1ef
 4686 0841 6F000000 		.4byte	0x6f
 4687 0845 AB020000 		.4byte	.LLST11
 4688 0849 13       		.uleb128 0x13
 4689 084a 00000000 		.4byte	.Ldebug_ranges0+0
 4690 084e 8E080000 		.4byte	0x88e
 4691 0852 10       		.uleb128 0x10
 4692 0853 47080000 		.4byte	.LASF41
 4693 0857 01       		.byte	0x1
 4694 0858 0702     		.2byte	0x207
 4695 085a 6F000000 		.4byte	0x6f
 4696 085e 08030000 		.4byte	.LLST12
 4697 0862 08       		.uleb128 0x8
 4698 0863 64000000 		.4byte	.LVL204
 4699 0867 F8020000 		.4byte	0x2f8
 4700 086b 08       		.uleb128 0x8
ARM GAS  C:\Users\weiro\AppData\Local\Temp\ccpp9Q4b.s 			page 102


 4701 086c 8E000000 		.4byte	.LVL212
 4702 0870 1D040000 		.4byte	0x41d
 4703 0874 08       		.uleb128 0x8
 4704 0875 94000000 		.4byte	.LVL214
 4705 0879 7E040000 		.4byte	0x47e
 4706 087d 0B       		.uleb128 0xb
 4707 087e 9A000000 		.4byte	.LVL215
 4708 0882 3D1D0000 		.4byte	0x1d3d
 4709 0886 0A       		.uleb128 0xa
 4710 0887 01       		.uleb128 0x1
 4711 0888 50       		.byte	0x50
 4712 0889 02       		.uleb128 0x2
 4713 088a 08       		.byte	0x8
 4714 088b 32       		.byte	0x32
 4715 088c 00       		.byte	0
 4716 088d 00       		.byte	0
 4717 088e 08       		.uleb128 0x8
 4718 088f 10000000 		.4byte	.LVL194
 4719 0893 ED1D0000 		.4byte	0x1ded
 4720 0897 08       		.uleb128 0x8
 4721 0898 1C000000 		.4byte	.LVL196
 4722 089c C41C0000 		.4byte	0x1cc4
 4723 08a0 09       		.uleb128 0x9
 4724 08a1 6A000000 		.4byte	.LVL205
 4725 08a5 3D1D0000 		.4byte	0x1d3d
 4726 08a9 B4080000 		.4byte	0x8b4
 4727 08ad 0A       		.uleb128 0xa
 4728 08ae 01       		.uleb128 0x1
 4729 08af 50       		.byte	0x50
 4730 08b0 02       		.uleb128 0x2
 4731 08b1 08       		.byte	0x8
 4732 08b2 C8       		.byte	0xc8
 4733 08b3 00       		.byte	0
 4734 08b4 08       		.uleb128 0x8
 4735 08b5 78000000 		.4byte	.LVL208
 4736 08b9 ED1D0000 		.4byte	0x1ded
 4737 08bd 08       		.uleb128 0x8
 4738 08be 84000000 		.4byte	.LVL210
 4739 08c2 C41C0000 		.4byte	0x1cc4
 4740 08c6 00       		.byte	0
 4741 08c7 11       		.uleb128 0x11
 4742 08c8 12080000 		.4byte	.LASF42
 4743 08cc 01       		.byte	0x1
 4744 08cd 1D02     		.2byte	0x21d
 4745 08cf 00000000 		.4byte	.LFB80
 4746 08d3 A8000000 		.4byte	.LFE80-.LFB80
 4747 08d7 01       		.uleb128 0x1
 4748 08d8 9C       		.byte	0x9c
 4749 08d9 78090000 		.4byte	0x978
 4750 08dd 12       		.uleb128 0x12
 4751 08de 3E040000 		.4byte	.LASF39
 4752 08e2 01       		.byte	0x1
 4753 08e3 2002     		.2byte	0x220
 4754 08e5 6F000000 		.4byte	0x6f
 4755 08e9 01       		.byte	0x1
 4756 08ea 10       		.uleb128 0x10
 4757 08eb 31050000 		.4byte	.LASF40
ARM GAS  C:\Users\weiro\AppData\Local\Temp\ccpp9Q4b.s 			page 103


 4758 08ef 01       		.byte	0x1
 4759 08f0 2102     		.2byte	0x221
 4760 08f2 6F000000 		.4byte	0x6f
 4761 08f6 31030000 		.4byte	.LLST13
 4762 08fa 13       		.uleb128 0x13
 4763 08fb 18000000 		.4byte	.Ldebug_ranges0+0x18
 4764 08ff 3F090000 		.4byte	0x93f
 4765 0903 10       		.uleb128 0x10
 4766 0904 47080000 		.4byte	.LASF41
 4767 0908 01       		.byte	0x1
 4768 0909 3902     		.2byte	0x239
 4769 090b 6F000000 		.4byte	0x6f
 4770 090f 8E030000 		.4byte	.LLST14
 4771 0913 08       		.uleb128 0x8
 4772 0914 64000000 		.4byte	.LVL229
 4773 0918 F8020000 		.4byte	0x2f8
 4774 091c 08       		.uleb128 0x8
 4775 091d 8E000000 		.4byte	.LVL237
 4776 0921 1D040000 		.4byte	0x41d
 4777 0925 08       		.uleb128 0x8
 4778 0926 94000000 		.4byte	.LVL239
 4779 092a 7E040000 		.4byte	0x47e
 4780 092e 0B       		.uleb128 0xb
 4781 092f 9A000000 		.4byte	.LVL240
 4782 0933 3D1D0000 		.4byte	0x1d3d
 4783 0937 0A       		.uleb128 0xa
 4784 0938 01       		.uleb128 0x1
 4785 0939 50       		.byte	0x50
 4786 093a 02       		.uleb128 0x2
 4787 093b 08       		.byte	0x8
 4788 093c 32       		.byte	0x32
 4789 093d 00       		.byte	0
 4790 093e 00       		.byte	0
 4791 093f 08       		.uleb128 0x8
 4792 0940 10000000 		.4byte	.LVL219
 4793 0944 ED1D0000 		.4byte	0x1ded
 4794 0948 08       		.uleb128 0x8
 4795 0949 1C000000 		.4byte	.LVL221
 4796 094d C41C0000 		.4byte	0x1cc4
 4797 0951 09       		.uleb128 0x9
 4798 0952 6A000000 		.4byte	.LVL230
 4799 0956 3D1D0000 		.4byte	0x1d3d
 4800 095a 65090000 		.4byte	0x965
 4801 095e 0A       		.uleb128 0xa
 4802 095f 01       		.uleb128 0x1
 4803 0960 50       		.byte	0x50
 4804 0961 02       		.uleb128 0x2
 4805 0962 08       		.byte	0x8
 4806 0963 C8       		.byte	0xc8
 4807 0964 00       		.byte	0
 4808 0965 08       		.uleb128 0x8
 4809 0966 78000000 		.4byte	.LVL233
 4810 096a ED1D0000 		.4byte	0x1ded
 4811 096e 08       		.uleb128 0x8
 4812 096f 84000000 		.4byte	.LVL235
 4813 0973 C41C0000 		.4byte	0x1cc4
 4814 0977 00       		.byte	0
ARM GAS  C:\Users\weiro\AppData\Local\Temp\ccpp9Q4b.s 			page 104


 4815 0978 14       		.uleb128 0x14
 4816 0979 435700   		.ascii	"CW\000"
 4817 097c 01       		.byte	0x1
 4818 097d 5002     		.2byte	0x250
 4819 097f 00000000 		.4byte	.LFB81
 4820 0983 94000000 		.4byte	.LFE81-.LFB81
 4821 0987 01       		.uleb128 0x1
 4822 0988 9C       		.byte	0x9c
 4823 0989 010A0000 		.4byte	0xa01
 4824 098d 0F       		.uleb128 0xf
 4825 098e 92020000 		.4byte	.LASF43
 4826 0992 01       		.byte	0x1
 4827 0993 5002     		.2byte	0x250
 4828 0995 6F000000 		.4byte	0x6f
 4829 0999 B7030000 		.4byte	.LLST15
 4830 099d 0F       		.uleb128 0xf
 4831 099e 38060000 		.4byte	.LASF44
 4832 09a2 01       		.byte	0x1
 4833 09a3 5002     		.2byte	0x250
 4834 09a5 6F000000 		.4byte	0x6f
 4835 09a9 E3030000 		.4byte	.LLST16
 4836 09ad 08       		.uleb128 0x8
 4837 09ae 0C000000 		.4byte	.LVL244
 4838 09b2 A01D0000 		.4byte	0x1da0
 4839 09b6 08       		.uleb128 0x8
 4840 09b7 14000000 		.4byte	.LVL245
 4841 09bb AB1D0000 		.4byte	0x1dab
 4842 09bf 08       		.uleb128 0x8
 4843 09c0 1E000000 		.4byte	.LVL246
 4844 09c4 7E040000 		.4byte	0x47e
 4845 09c8 08       		.uleb128 0x8
 4846 09c9 24000000 		.4byte	.LVL247
 4847 09cd 1D040000 		.4byte	0x41d
 4848 09d1 08       		.uleb128 0x8
 4849 09d2 44000000 		.4byte	.LVL248
 4850 09d6 F8020000 		.4byte	0x2f8
 4851 09da 09       		.uleb128 0x9
 4852 09db 86000000 		.4byte	.LVL249
 4853 09df 3D1D0000 		.4byte	0x1d3d
 4854 09e3 EE090000 		.4byte	0x9ee
 4855 09e7 0A       		.uleb128 0xa
 4856 09e8 01       		.uleb128 0x1
 4857 09e9 50       		.byte	0x50
 4858 09ea 02       		.uleb128 0x2
 4859 09eb 08       		.byte	0x8
 4860 09ec 32       		.byte	0x32
 4861 09ed 00       		.byte	0
 4862 09ee 08       		.uleb128 0x8
 4863 09ef 8A000000 		.4byte	.LVL250
 4864 09f3 16080000 		.4byte	0x816
 4865 09f7 08       		.uleb128 0x8
 4866 09f8 8E000000 		.4byte	.LVL251
 4867 09fc DF040000 		.4byte	0x4df
 4868 0a00 00       		.byte	0
 4869 0a01 11       		.uleb128 0x11
 4870 0a02 AF080000 		.4byte	.LASF45
 4871 0a06 01       		.byte	0x1
ARM GAS  C:\Users\weiro\AppData\Local\Temp\ccpp9Q4b.s 			page 105


 4872 0a07 7D02     		.2byte	0x27d
 4873 0a09 00000000 		.4byte	.LFB82
 4874 0a0d 50030000 		.4byte	.LFE82-.LFB82
 4875 0a11 01       		.uleb128 0x1
 4876 0a12 9C       		.byte	0x9c
 4877 0a13 34100000 		.4byte	0x1034
 4878 0a17 10       		.uleb128 0x10
 4879 0a18 A6010000 		.4byte	.LASF46
 4880 0a1c 01       		.byte	0x1
 4881 0a1d 7F02     		.2byte	0x27f
 4882 0a1f 6F000000 		.4byte	0x6f
 4883 0a23 0F040000 		.4byte	.LLST17
 4884 0a27 15       		.uleb128 0x15
 4885 0a28 DE020000 		.4byte	.LBB6
 4886 0a2c 44000000 		.4byte	.LBE6-.LBB6
 4887 0a30 A80A0000 		.4byte	0xaa8
 4888 0a34 16       		.uleb128 0x16
 4889 0a35 6100     		.ascii	"a\000"
 4890 0a37 01       		.byte	0x1
 4891 0a38 0903     		.2byte	0x309
 4892 0a3a 6F000000 		.4byte	0x6f
 4893 0a3e 47040000 		.4byte	.LLST18
 4894 0a42 09       		.uleb128 0x9
 4895 0a43 00030000 		.4byte	.LVL338
 4896 0a47 E51C0000 		.4byte	0x1ce5
 4897 0a4b 5F0A0000 		.4byte	0xa5f
 4898 0a4f 0A       		.uleb128 0xa
 4899 0a50 01       		.uleb128 0x1
 4900 0a51 50       		.byte	0x50
 4901 0a52 02       		.uleb128 0x2
 4902 0a53 75       		.byte	0x75
 4903 0a54 00       		.sleb128 0
 4904 0a55 0A       		.uleb128 0xa
 4905 0a56 01       		.uleb128 0x1
 4906 0a57 51       		.byte	0x51
 4907 0a58 05       		.uleb128 0x5
 4908 0a59 03       		.byte	0x3
 4909 0a5a 6C000000 		.4byte	.LC7
 4910 0a5e 00       		.byte	0
 4911 0a5f 09       		.uleb128 0x9
 4912 0a60 06030000 		.4byte	.LVL339
 4913 0a64 F01C0000 		.4byte	0x1cf0
 4914 0a68 730A0000 		.4byte	0xa73
 4915 0a6c 0A       		.uleb128 0xa
 4916 0a6d 01       		.uleb128 0x1
 4917 0a6e 50       		.byte	0x50
 4918 0a6f 02       		.uleb128 0x2
 4919 0a70 75       		.byte	0x75
 4920 0a71 00       		.sleb128 0
 4921 0a72 00       		.byte	0
 4922 0a73 09       		.uleb128 0x9
 4923 0a74 14030000 		.4byte	.LVL340
 4924 0a78 18050000 		.4byte	0x518
 4925 0a7c 960A0000 		.4byte	0xa96
 4926 0a80 0A       		.uleb128 0xa
 4927 0a81 01       		.uleb128 0x1
 4928 0a82 50       		.byte	0x50
ARM GAS  C:\Users\weiro\AppData\Local\Temp\ccpp9Q4b.s 			page 106


 4929 0a83 0C       		.uleb128 0xc
 4930 0a84 78       		.byte	0x78
 4931 0a85 00       		.sleb128 0
 4932 0a86 4F       		.byte	0x4f
 4933 0a87 26       		.byte	0x26
 4934 0a88 78       		.byte	0x78
 4935 0a89 00       		.sleb128 0
 4936 0a8a 27       		.byte	0x27
 4937 0a8b 78       		.byte	0x78
 4938 0a8c 00       		.sleb128 0
 4939 0a8d 4F       		.byte	0x4f
 4940 0a8e 26       		.byte	0x26
 4941 0a8f 1C       		.byte	0x1c
 4942 0a90 0A       		.uleb128 0xa
 4943 0a91 01       		.uleb128 0x1
 4944 0a92 51       		.byte	0x51
 4945 0a93 01       		.uleb128 0x1
 4946 0a94 30       		.byte	0x30
 4947 0a95 00       		.byte	0
 4948 0a96 0B       		.uleb128 0xb
 4949 0a97 1C030000 		.4byte	.LVL341
 4950 0a9b 3D1D0000 		.4byte	0x1d3d
 4951 0a9f 0A       		.uleb128 0xa
 4952 0aa0 01       		.uleb128 0x1
 4953 0aa1 50       		.byte	0x50
 4954 0aa2 03       		.uleb128 0x3
 4955 0aa3 0A       		.byte	0xa
 4956 0aa4 F401     		.2byte	0x1f4
 4957 0aa6 00       		.byte	0
 4958 0aa7 00       		.byte	0
 4959 0aa8 09       		.uleb128 0x9
 4960 0aa9 0A000000 		.4byte	.LVL254
 4961 0aad F81D0000 		.4byte	0x1df8
 4962 0ab1 BB0A0000 		.4byte	0xabb
 4963 0ab5 0A       		.uleb128 0xa
 4964 0ab6 01       		.uleb128 0x1
 4965 0ab7 50       		.byte	0x50
 4966 0ab8 01       		.uleb128 0x1
 4967 0ab9 31       		.byte	0x31
 4968 0aba 00       		.byte	0
 4969 0abb 09       		.uleb128 0x9
 4970 0abc 10000000 		.4byte	.LVL255
 4971 0ac0 031E0000 		.4byte	0x1e03
 4972 0ac4 CE0A0000 		.4byte	0xace
 4973 0ac8 0A       		.uleb128 0xa
 4974 0ac9 01       		.uleb128 0x1
 4975 0aca 50       		.byte	0x50
 4976 0acb 01       		.uleb128 0x1
 4977 0acc 31       		.byte	0x31
 4978 0acd 00       		.byte	0
 4979 0ace 09       		.uleb128 0x9
 4980 0acf 16000000 		.4byte	.LVL256
 4981 0ad3 0E1E0000 		.4byte	0x1e0e
 4982 0ad7 E10A0000 		.4byte	0xae1
 4983 0adb 0A       		.uleb128 0xa
 4984 0adc 01       		.uleb128 0x1
 4985 0add 50       		.byte	0x50
ARM GAS  C:\Users\weiro\AppData\Local\Temp\ccpp9Q4b.s 			page 107


 4986 0ade 01       		.uleb128 0x1
 4987 0adf 31       		.byte	0x31
 4988 0ae0 00       		.byte	0
 4989 0ae1 09       		.uleb128 0x9
 4990 0ae2 1C000000 		.4byte	.LVL257
 4991 0ae6 3D1D0000 		.4byte	0x1d3d
 4992 0aea F40A0000 		.4byte	0xaf4
 4993 0aee 0A       		.uleb128 0xa
 4994 0aef 01       		.uleb128 0x1
 4995 0af0 50       		.byte	0x50
 4996 0af1 01       		.uleb128 0x1
 4997 0af2 3A       		.byte	0x3a
 4998 0af3 00       		.byte	0
 4999 0af4 08       		.uleb128 0x8
 5000 0af5 20000000 		.4byte	.LVL258
 5001 0af9 191E0000 		.4byte	0x1e19
 5002 0afd 09       		.uleb128 0x9
 5003 0afe 2C000000 		.4byte	.LVL259
 5004 0b02 241E0000 		.4byte	0x1e24
 5005 0b06 110B0000 		.4byte	0xb11
 5006 0b0a 0A       		.uleb128 0xa
 5007 0b0b 01       		.uleb128 0x1
 5008 0b0c 50       		.byte	0x50
 5009 0b0d 02       		.uleb128 0x2
 5010 0b0e 74       		.byte	0x74
 5011 0b0f 00       		.sleb128 0
 5012 0b10 00       		.byte	0
 5013 0b11 09       		.uleb128 0x9
 5014 0b12 32000000 		.4byte	.LVL260
 5015 0b16 2F1E0000 		.4byte	0x1e2f
 5016 0b1a 250B0000 		.4byte	0xb25
 5017 0b1e 0A       		.uleb128 0xa
 5018 0b1f 01       		.uleb128 0x1
 5019 0b20 50       		.byte	0x50
 5020 0b21 02       		.uleb128 0x2
 5021 0b22 74       		.byte	0x74
 5022 0b23 00       		.sleb128 0
 5023 0b24 00       		.byte	0
 5024 0b25 09       		.uleb128 0x9
 5025 0b26 38000000 		.4byte	.LVL261
 5026 0b2a 3D1D0000 		.4byte	0x1d3d
 5027 0b2e 380B0000 		.4byte	0xb38
 5028 0b32 0A       		.uleb128 0xa
 5029 0b33 01       		.uleb128 0x1
 5030 0b34 50       		.byte	0x50
 5031 0b35 01       		.uleb128 0x1
 5032 0b36 44       		.byte	0x44
 5033 0b37 00       		.byte	0
 5034 0b38 09       		.uleb128 0x9
 5035 0b39 3E000000 		.4byte	.LVL262
 5036 0b3d 3A1E0000 		.4byte	0x1e3a
 5037 0b41 4B0B0000 		.4byte	0xb4b
 5038 0b45 0A       		.uleb128 0xa
 5039 0b46 01       		.uleb128 0x1
 5040 0b47 50       		.byte	0x50
 5041 0b48 01       		.uleb128 0x1
 5042 0b49 31       		.byte	0x31
ARM GAS  C:\Users\weiro\AppData\Local\Temp\ccpp9Q4b.s 			page 108


 5043 0b4a 00       		.byte	0
 5044 0b4b 09       		.uleb128 0x9
 5045 0b4c 44000000 		.4byte	.LVL263
 5046 0b50 3D1D0000 		.4byte	0x1d3d
 5047 0b54 5E0B0000 		.4byte	0xb5e
 5048 0b58 0A       		.uleb128 0xa
 5049 0b59 01       		.uleb128 0x1
 5050 0b5a 50       		.byte	0x50
 5051 0b5b 01       		.uleb128 0x1
 5052 0b5c 31       		.byte	0x31
 5053 0b5d 00       		.byte	0
 5054 0b5e 09       		.uleb128 0x9
 5055 0b5f 4A000000 		.4byte	.LVL264
 5056 0b63 3A1E0000 		.4byte	0x1e3a
 5057 0b67 720B0000 		.4byte	0xb72
 5058 0b6b 0A       		.uleb128 0xa
 5059 0b6c 01       		.uleb128 0x1
 5060 0b6d 50       		.byte	0x50
 5061 0b6e 02       		.uleb128 0x2
 5062 0b6f 74       		.byte	0x74
 5063 0b70 00       		.sleb128 0
 5064 0b71 00       		.byte	0
 5065 0b72 08       		.uleb128 0x8
 5066 0b73 56000000 		.4byte	.LVL265
 5067 0b77 451E0000 		.4byte	0x1e45
 5068 0b7b 09       		.uleb128 0x9
 5069 0b7c 68000000 		.4byte	.LVL266
 5070 0b80 E51C0000 		.4byte	0x1ce5
 5071 0b84 980B0000 		.4byte	0xb98
 5072 0b88 0A       		.uleb128 0xa
 5073 0b89 01       		.uleb128 0x1
 5074 0b8a 50       		.byte	0x50
 5075 0b8b 02       		.uleb128 0x2
 5076 0b8c 74       		.byte	0x74
 5077 0b8d 00       		.sleb128 0
 5078 0b8e 0A       		.uleb128 0xa
 5079 0b8f 01       		.uleb128 0x1
 5080 0b90 51       		.byte	0x51
 5081 0b91 05       		.uleb128 0x5
 5082 0b92 03       		.byte	0x3
 5083 0b93 48000000 		.4byte	.LC4
 5084 0b97 00       		.byte	0
 5085 0b98 09       		.uleb128 0x9
 5086 0b99 6E000000 		.4byte	.LVL267
 5087 0b9d 531D0000 		.4byte	0x1d53
 5088 0ba1 AC0B0000 		.4byte	0xbac
 5089 0ba5 0A       		.uleb128 0xa
 5090 0ba6 01       		.uleb128 0x1
 5091 0ba7 50       		.byte	0x50
 5092 0ba8 02       		.uleb128 0x2
 5093 0ba9 74       		.byte	0x74
 5094 0baa 00       		.sleb128 0
 5095 0bab 00       		.byte	0
 5096 0bac 08       		.uleb128 0x8
 5097 0bad 72000000 		.4byte	.LVL268
 5098 0bb1 501E0000 		.4byte	0x1e50
 5099 0bb5 09       		.uleb128 0x9
ARM GAS  C:\Users\weiro\AppData\Local\Temp\ccpp9Q4b.s 			page 109


 5100 0bb6 78000000 		.4byte	.LVL269
 5101 0bba 3D1D0000 		.4byte	0x1d3d
 5102 0bbe C90B0000 		.4byte	0xbc9
 5103 0bc2 0A       		.uleb128 0xa
 5104 0bc3 01       		.uleb128 0x1
 5105 0bc4 50       		.byte	0x50
 5106 0bc5 02       		.uleb128 0x2
 5107 0bc6 08       		.byte	0x8
 5108 0bc7 64       		.byte	0x64
 5109 0bc8 00       		.byte	0
 5110 0bc9 08       		.uleb128 0x8
 5111 0bca 7C000000 		.4byte	.LVL270
 5112 0bce 191E0000 		.4byte	0x1e19
 5113 0bd2 09       		.uleb128 0x9
 5114 0bd3 86000000 		.4byte	.LVL271
 5115 0bd7 241E0000 		.4byte	0x1e24
 5116 0bdb E50B0000 		.4byte	0xbe5
 5117 0bdf 0A       		.uleb128 0xa
 5118 0be0 01       		.uleb128 0x1
 5119 0be1 50       		.byte	0x50
 5120 0be2 01       		.uleb128 0x1
 5121 0be3 31       		.byte	0x31
 5122 0be4 00       		.byte	0
 5123 0be5 09       		.uleb128 0x9
 5124 0be6 8C000000 		.4byte	.LVL272
 5125 0bea 2F1E0000 		.4byte	0x1e2f
 5126 0bee F80B0000 		.4byte	0xbf8
 5127 0bf2 0A       		.uleb128 0xa
 5128 0bf3 01       		.uleb128 0x1
 5129 0bf4 50       		.byte	0x50
 5130 0bf5 01       		.uleb128 0x1
 5131 0bf6 31       		.byte	0x31
 5132 0bf7 00       		.byte	0
 5133 0bf8 09       		.uleb128 0x9
 5134 0bf9 92000000 		.4byte	.LVL273
 5135 0bfd 3D1D0000 		.4byte	0x1d3d
 5136 0c01 0B0C0000 		.4byte	0xc0b
 5137 0c05 0A       		.uleb128 0xa
 5138 0c06 01       		.uleb128 0x1
 5139 0c07 50       		.byte	0x50
 5140 0c08 01       		.uleb128 0x1
 5141 0c09 44       		.byte	0x44
 5142 0c0a 00       		.byte	0
 5143 0c0b 09       		.uleb128 0x9
 5144 0c0c 98000000 		.4byte	.LVL274
 5145 0c10 3A1E0000 		.4byte	0x1e3a
 5146 0c14 1E0C0000 		.4byte	0xc1e
 5147 0c18 0A       		.uleb128 0xa
 5148 0c19 01       		.uleb128 0x1
 5149 0c1a 50       		.byte	0x50
 5150 0c1b 01       		.uleb128 0x1
 5151 0c1c 31       		.byte	0x31
 5152 0c1d 00       		.byte	0
 5153 0c1e 09       		.uleb128 0x9
 5154 0c1f 9E000000 		.4byte	.LVL275
 5155 0c23 3D1D0000 		.4byte	0x1d3d
 5156 0c27 310C0000 		.4byte	0xc31
ARM GAS  C:\Users\weiro\AppData\Local\Temp\ccpp9Q4b.s 			page 110


 5157 0c2b 0A       		.uleb128 0xa
 5158 0c2c 01       		.uleb128 0x1
 5159 0c2d 50       		.byte	0x50
 5160 0c2e 01       		.uleb128 0x1
 5161 0c2f 31       		.byte	0x31
 5162 0c30 00       		.byte	0
 5163 0c31 09       		.uleb128 0x9
 5164 0c32 A4000000 		.4byte	.LVL276
 5165 0c36 3A1E0000 		.4byte	0x1e3a
 5166 0c3a 450C0000 		.4byte	0xc45
 5167 0c3e 0A       		.uleb128 0xa
 5168 0c3f 01       		.uleb128 0x1
 5169 0c40 50       		.byte	0x50
 5170 0c41 02       		.uleb128 0x2
 5171 0c42 74       		.byte	0x74
 5172 0c43 00       		.sleb128 0
 5173 0c44 00       		.byte	0
 5174 0c45 08       		.uleb128 0x8
 5175 0c46 B0000000 		.4byte	.LVL277
 5176 0c4a 451E0000 		.4byte	0x1e45
 5177 0c4e 09       		.uleb128 0x9
 5178 0c4f C2000000 		.4byte	.LVL278
 5179 0c53 E51C0000 		.4byte	0x1ce5
 5180 0c57 6B0C0000 		.4byte	0xc6b
 5181 0c5b 0A       		.uleb128 0xa
 5182 0c5c 01       		.uleb128 0x1
 5183 0c5d 50       		.byte	0x50
 5184 0c5e 02       		.uleb128 0x2
 5185 0c5f 74       		.byte	0x74
 5186 0c60 00       		.sleb128 0
 5187 0c61 0A       		.uleb128 0xa
 5188 0c62 01       		.uleb128 0x1
 5189 0c63 51       		.byte	0x51
 5190 0c64 05       		.uleb128 0x5
 5191 0c65 03       		.byte	0x3
 5192 0c66 54000000 		.4byte	.LC5
 5193 0c6a 00       		.byte	0
 5194 0c6b 09       		.uleb128 0x9
 5195 0c6c C8000000 		.4byte	.LVL279
 5196 0c70 531D0000 		.4byte	0x1d53
 5197 0c74 7F0C0000 		.4byte	0xc7f
 5198 0c78 0A       		.uleb128 0xa
 5199 0c79 01       		.uleb128 0x1
 5200 0c7a 50       		.byte	0x50
 5201 0c7b 02       		.uleb128 0x2
 5202 0c7c 74       		.byte	0x74
 5203 0c7d 00       		.sleb128 0
 5204 0c7e 00       		.byte	0
 5205 0c7f 08       		.uleb128 0x8
 5206 0c80 CC000000 		.4byte	.LVL280
 5207 0c84 501E0000 		.4byte	0x1e50
 5208 0c88 09       		.uleb128 0x9
 5209 0c89 D2000000 		.4byte	.LVL281
 5210 0c8d 3D1D0000 		.4byte	0x1d3d
 5211 0c91 9C0C0000 		.4byte	0xc9c
 5212 0c95 0A       		.uleb128 0xa
 5213 0c96 01       		.uleb128 0x1
ARM GAS  C:\Users\weiro\AppData\Local\Temp\ccpp9Q4b.s 			page 111


 5214 0c97 50       		.byte	0x50
 5215 0c98 02       		.uleb128 0x2
 5216 0c99 08       		.byte	0x8
 5217 0c9a 64       		.byte	0x64
 5218 0c9b 00       		.byte	0
 5219 0c9c 08       		.uleb128 0x8
 5220 0c9d D6000000 		.4byte	.LVL282
 5221 0ca1 191E0000 		.4byte	0x1e19
 5222 0ca5 09       		.uleb128 0x9
 5223 0ca6 E0000000 		.4byte	.LVL283
 5224 0caa 241E0000 		.4byte	0x1e24
 5225 0cae B90C0000 		.4byte	0xcb9
 5226 0cb2 0A       		.uleb128 0xa
 5227 0cb3 01       		.uleb128 0x1
 5228 0cb4 50       		.byte	0x50
 5229 0cb5 02       		.uleb128 0x2
 5230 0cb6 74       		.byte	0x74
 5231 0cb7 00       		.sleb128 0
 5232 0cb8 00       		.byte	0
 5233 0cb9 09       		.uleb128 0x9
 5234 0cba E6000000 		.4byte	.LVL284
 5235 0cbe 2F1E0000 		.4byte	0x1e2f
 5236 0cc2 CC0C0000 		.4byte	0xccc
 5237 0cc6 0A       		.uleb128 0xa
 5238 0cc7 01       		.uleb128 0x1
 5239 0cc8 50       		.byte	0x50
 5240 0cc9 01       		.uleb128 0x1
 5241 0cca 31       		.byte	0x31
 5242 0ccb 00       		.byte	0
 5243 0ccc 09       		.uleb128 0x9
 5244 0ccd EC000000 		.4byte	.LVL285
 5245 0cd1 3D1D0000 		.4byte	0x1d3d
 5246 0cd5 DF0C0000 		.4byte	0xcdf
 5247 0cd9 0A       		.uleb128 0xa
 5248 0cda 01       		.uleb128 0x1
 5249 0cdb 50       		.byte	0x50
 5250 0cdc 01       		.uleb128 0x1
 5251 0cdd 44       		.byte	0x44
 5252 0cde 00       		.byte	0
 5253 0cdf 09       		.uleb128 0x9
 5254 0ce0 F2000000 		.4byte	.LVL286
 5255 0ce4 3A1E0000 		.4byte	0x1e3a
 5256 0ce8 F20C0000 		.4byte	0xcf2
 5257 0cec 0A       		.uleb128 0xa
 5258 0ced 01       		.uleb128 0x1
 5259 0cee 50       		.byte	0x50
 5260 0cef 01       		.uleb128 0x1
 5261 0cf0 31       		.byte	0x31
 5262 0cf1 00       		.byte	0
 5263 0cf2 09       		.uleb128 0x9
 5264 0cf3 F8000000 		.4byte	.LVL287
 5265 0cf7 3D1D0000 		.4byte	0x1d3d
 5266 0cfb 050D0000 		.4byte	0xd05
 5267 0cff 0A       		.uleb128 0xa
 5268 0d00 01       		.uleb128 0x1
 5269 0d01 50       		.byte	0x50
 5270 0d02 01       		.uleb128 0x1
ARM GAS  C:\Users\weiro\AppData\Local\Temp\ccpp9Q4b.s 			page 112


 5271 0d03 31       		.byte	0x31
 5272 0d04 00       		.byte	0
 5273 0d05 09       		.uleb128 0x9
 5274 0d06 FE000000 		.4byte	.LVL288
 5275 0d0a 3A1E0000 		.4byte	0x1e3a
 5276 0d0e 190D0000 		.4byte	0xd19
 5277 0d12 0A       		.uleb128 0xa
 5278 0d13 01       		.uleb128 0x1
 5279 0d14 50       		.byte	0x50
 5280 0d15 02       		.uleb128 0x2
 5281 0d16 74       		.byte	0x74
 5282 0d17 00       		.sleb128 0
 5283 0d18 00       		.byte	0
 5284 0d19 08       		.uleb128 0x8
 5285 0d1a 0A010000 		.4byte	.LVL289
 5286 0d1e 451E0000 		.4byte	0x1e45
 5287 0d22 09       		.uleb128 0x9
 5288 0d23 1C010000 		.4byte	.LVL290
 5289 0d27 E51C0000 		.4byte	0x1ce5
 5290 0d2b 3F0D0000 		.4byte	0xd3f
 5291 0d2f 0A       		.uleb128 0xa
 5292 0d30 01       		.uleb128 0x1
 5293 0d31 50       		.byte	0x50
 5294 0d32 02       		.uleb128 0x2
 5295 0d33 75       		.byte	0x75
 5296 0d34 00       		.sleb128 0
 5297 0d35 0A       		.uleb128 0xa
 5298 0d36 01       		.uleb128 0x1
 5299 0d37 51       		.byte	0x51
 5300 0d38 05       		.uleb128 0x5
 5301 0d39 03       		.byte	0x3
 5302 0d3a 60000000 		.4byte	.LC6
 5303 0d3e 00       		.byte	0
 5304 0d3f 09       		.uleb128 0x9
 5305 0d40 22010000 		.4byte	.LVL291
 5306 0d44 531D0000 		.4byte	0x1d53
 5307 0d48 530D0000 		.4byte	0xd53
 5308 0d4c 0A       		.uleb128 0xa
 5309 0d4d 01       		.uleb128 0x1
 5310 0d4e 50       		.byte	0x50
 5311 0d4f 02       		.uleb128 0x2
 5312 0d50 75       		.byte	0x75
 5313 0d51 00       		.sleb128 0
 5314 0d52 00       		.byte	0
 5315 0d53 08       		.uleb128 0x8
 5316 0d54 26010000 		.4byte	.LVL292
 5317 0d58 501E0000 		.4byte	0x1e50
 5318 0d5c 09       		.uleb128 0x9
 5319 0d5d 44010000 		.4byte	.LVL293
 5320 0d61 5B1E0000 		.4byte	0x1e5b
 5321 0d65 6F0D0000 		.4byte	0xd6f
 5322 0d69 0A       		.uleb128 0xa
 5323 0d6a 01       		.uleb128 0x1
 5324 0d6b 50       		.byte	0x50
 5325 0d6c 01       		.uleb128 0x1
 5326 0d6d 31       		.byte	0x31
 5327 0d6e 00       		.byte	0
ARM GAS  C:\Users\weiro\AppData\Local\Temp\ccpp9Q4b.s 			page 113


 5328 0d6f 09       		.uleb128 0x9
 5329 0d70 4C010000 		.4byte	.LVL294
 5330 0d74 3D1D0000 		.4byte	0x1d3d
 5331 0d78 840D0000 		.4byte	0xd84
 5332 0d7c 0A       		.uleb128 0xa
 5333 0d7d 01       		.uleb128 0x1
 5334 0d7e 50       		.byte	0x50
 5335 0d7f 03       		.uleb128 0x3
 5336 0d80 0A       		.byte	0xa
 5337 0d81 E803     		.2byte	0x3e8
 5338 0d83 00       		.byte	0
 5339 0d84 09       		.uleb128 0x9
 5340 0d85 52010000 		.4byte	.LVL295
 5341 0d89 5B1E0000 		.4byte	0x1e5b
 5342 0d8d 970D0000 		.4byte	0xd97
 5343 0d91 0A       		.uleb128 0xa
 5344 0d92 01       		.uleb128 0x1
 5345 0d93 50       		.byte	0x50
 5346 0d94 01       		.uleb128 0x1
 5347 0d95 30       		.byte	0x30
 5348 0d96 00       		.byte	0
 5349 0d97 09       		.uleb128 0x9
 5350 0d98 78010000 		.4byte	.LVL296
 5351 0d9c 661E0000 		.4byte	0x1e66
 5352 0da0 AA0D0000 		.4byte	0xdaa
 5353 0da4 0A       		.uleb128 0xa
 5354 0da5 01       		.uleb128 0x1
 5355 0da6 50       		.byte	0x50
 5356 0da7 01       		.uleb128 0x1
 5357 0da8 31       		.byte	0x31
 5358 0da9 00       		.byte	0
 5359 0daa 09       		.uleb128 0x9
 5360 0dab 80010000 		.4byte	.LVL297
 5361 0daf 3D1D0000 		.4byte	0x1d3d
 5362 0db3 BF0D0000 		.4byte	0xdbf
 5363 0db7 0A       		.uleb128 0xa
 5364 0db8 01       		.uleb128 0x1
 5365 0db9 50       		.byte	0x50
 5366 0dba 03       		.uleb128 0x3
 5367 0dbb 0A       		.byte	0xa
 5368 0dbc E803     		.2byte	0x3e8
 5369 0dbe 00       		.byte	0
 5370 0dbf 09       		.uleb128 0x9
 5371 0dc0 86010000 		.4byte	.LVL298
 5372 0dc4 661E0000 		.4byte	0x1e66
 5373 0dc8 D20D0000 		.4byte	0xdd2
 5374 0dcc 0A       		.uleb128 0xa
 5375 0dcd 01       		.uleb128 0x1
 5376 0dce 50       		.byte	0x50
 5377 0dcf 01       		.uleb128 0x1
 5378 0dd0 30       		.byte	0x30
 5379 0dd1 00       		.byte	0
 5380 0dd2 09       		.uleb128 0x9
 5381 0dd3 AC010000 		.4byte	.LVL299
 5382 0dd7 711E0000 		.4byte	0x1e71
 5383 0ddb E50D0000 		.4byte	0xde5
 5384 0ddf 0A       		.uleb128 0xa
ARM GAS  C:\Users\weiro\AppData\Local\Temp\ccpp9Q4b.s 			page 114


 5385 0de0 01       		.uleb128 0x1
 5386 0de1 50       		.byte	0x50
 5387 0de2 01       		.uleb128 0x1
 5388 0de3 31       		.byte	0x31
 5389 0de4 00       		.byte	0
 5390 0de5 09       		.uleb128 0x9
 5391 0de6 B4010000 		.4byte	.LVL300
 5392 0dea 3D1D0000 		.4byte	0x1d3d
 5393 0dee FA0D0000 		.4byte	0xdfa
 5394 0df2 0A       		.uleb128 0xa
 5395 0df3 01       		.uleb128 0x1
 5396 0df4 50       		.byte	0x50
 5397 0df5 03       		.uleb128 0x3
 5398 0df6 0A       		.byte	0xa
 5399 0df7 E803     		.2byte	0x3e8
 5400 0df9 00       		.byte	0
 5401 0dfa 09       		.uleb128 0x9
 5402 0dfb BA010000 		.4byte	.LVL301
 5403 0dff 711E0000 		.4byte	0x1e71
 5404 0e03 0D0E0000 		.4byte	0xe0d
 5405 0e07 0A       		.uleb128 0xa
 5406 0e08 01       		.uleb128 0x1
 5407 0e09 50       		.byte	0x50
 5408 0e0a 01       		.uleb128 0x1
 5409 0e0b 30       		.byte	0x30
 5410 0e0c 00       		.byte	0
 5411 0e0d 09       		.uleb128 0x9
 5412 0e0e C0010000 		.4byte	.LVL302
 5413 0e12 0E1E0000 		.4byte	0x1e0e
 5414 0e16 200E0000 		.4byte	0xe20
 5415 0e1a 0A       		.uleb128 0xa
 5416 0e1b 01       		.uleb128 0x1
 5417 0e1c 50       		.byte	0x50
 5418 0e1d 01       		.uleb128 0x1
 5419 0e1e 30       		.byte	0x30
 5420 0e1f 00       		.byte	0
 5421 0e20 09       		.uleb128 0x9
 5422 0e21 C8010000 		.4byte	.LVL303
 5423 0e25 C11D0000 		.4byte	0x1dc1
 5424 0e29 330E0000 		.4byte	0xe33
 5425 0e2d 0A       		.uleb128 0xa
 5426 0e2e 01       		.uleb128 0x1
 5427 0e2f 50       		.byte	0x50
 5428 0e30 01       		.uleb128 0x1
 5429 0e31 31       		.byte	0x31
 5430 0e32 00       		.byte	0
 5431 0e33 09       		.uleb128 0x9
 5432 0e34 CE010000 		.4byte	.LVL304
 5433 0e38 CC1D0000 		.4byte	0x1dcc
 5434 0e3c 460E0000 		.4byte	0xe46
 5435 0e40 0A       		.uleb128 0xa
 5436 0e41 01       		.uleb128 0x1
 5437 0e42 50       		.byte	0x50
 5438 0e43 01       		.uleb128 0x1
 5439 0e44 3A       		.byte	0x3a
 5440 0e45 00       		.byte	0
 5441 0e46 09       		.uleb128 0x9
ARM GAS  C:\Users\weiro\AppData\Local\Temp\ccpp9Q4b.s 			page 115


 5442 0e47 D4010000 		.4byte	.LVL305
 5443 0e4b C11D0000 		.4byte	0x1dc1
 5444 0e4f 590E0000 		.4byte	0xe59
 5445 0e53 0A       		.uleb128 0xa
 5446 0e54 01       		.uleb128 0x1
 5447 0e55 50       		.byte	0x50
 5448 0e56 01       		.uleb128 0x1
 5449 0e57 30       		.byte	0x30
 5450 0e58 00       		.byte	0
 5451 0e59 08       		.uleb128 0x8
 5452 0e5a D8010000 		.4byte	.LVL306
 5453 0e5e 7C1E0000 		.4byte	0x1e7c
 5454 0e62 09       		.uleb128 0x9
 5455 0e63 F4010000 		.4byte	.LVL308
 5456 0e67 18050000 		.4byte	0x518
 5457 0e6b 7A0E0000 		.4byte	0xe7a
 5458 0e6f 0A       		.uleb128 0xa
 5459 0e70 01       		.uleb128 0x1
 5460 0e71 50       		.byte	0x50
 5461 0e72 01       		.uleb128 0x1
 5462 0e73 44       		.byte	0x44
 5463 0e74 0A       		.uleb128 0xa
 5464 0e75 01       		.uleb128 0x1
 5465 0e76 51       		.byte	0x51
 5466 0e77 01       		.uleb128 0x1
 5467 0e78 31       		.byte	0x31
 5468 0e79 00       		.byte	0
 5469 0e7a 09       		.uleb128 0x9
 5470 0e7b 1A020000 		.4byte	.LVL310
 5471 0e7f 78090000 		.4byte	0x978
 5472 0e83 8D0E0000 		.4byte	0xe8d
 5473 0e87 0A       		.uleb128 0xa
 5474 0e88 01       		.uleb128 0x1
 5475 0e89 51       		.byte	0x51
 5476 0e8a 01       		.uleb128 0x1
 5477 0e8b 31       		.byte	0x31
 5478 0e8c 00       		.byte	0
 5479 0e8d 09       		.uleb128 0x9
 5480 0e8e 22020000 		.4byte	.LVL311
 5481 0e92 3D1D0000 		.4byte	0x1d3d
 5482 0e96 A20E0000 		.4byte	0xea2
 5483 0e9a 0A       		.uleb128 0xa
 5484 0e9b 01       		.uleb128 0x1
 5485 0e9c 50       		.byte	0x50
 5486 0e9d 03       		.uleb128 0x3
 5487 0e9e 0A       		.byte	0xa
 5488 0e9f F401     		.2byte	0x1f4
 5489 0ea1 00       		.byte	0
 5490 0ea2 08       		.uleb128 0x8
 5491 0ea3 26020000 		.4byte	.LVL312
 5492 0ea7 9F060000 		.4byte	0x69f
 5493 0eab 09       		.uleb128 0x9
 5494 0eac 2E020000 		.4byte	.LVL313
 5495 0eb0 3D1D0000 		.4byte	0x1d3d
 5496 0eb4 C00E0000 		.4byte	0xec0
 5497 0eb8 0A       		.uleb128 0xa
 5498 0eb9 01       		.uleb128 0x1
ARM GAS  C:\Users\weiro\AppData\Local\Temp\ccpp9Q4b.s 			page 116


 5499 0eba 50       		.byte	0x50
 5500 0ebb 03       		.uleb128 0x3
 5501 0ebc 0A       		.byte	0xa
 5502 0ebd F401     		.2byte	0x1f4
 5503 0ebf 00       		.byte	0
 5504 0ec0 09       		.uleb128 0x9
 5505 0ec1 36020000 		.4byte	.LVL314
 5506 0ec5 18050000 		.4byte	0x518
 5507 0ec9 D80E0000 		.4byte	0xed8
 5508 0ecd 0A       		.uleb128 0xa
 5509 0ece 01       		.uleb128 0x1
 5510 0ecf 50       		.byte	0x50
 5511 0ed0 01       		.uleb128 0x1
 5512 0ed1 44       		.byte	0x44
 5513 0ed2 0A       		.uleb128 0xa
 5514 0ed3 01       		.uleb128 0x1
 5515 0ed4 51       		.byte	0x51
 5516 0ed5 01       		.uleb128 0x1
 5517 0ed6 31       		.byte	0x31
 5518 0ed7 00       		.byte	0
 5519 0ed8 09       		.uleb128 0x9
 5520 0ed9 3E020000 		.4byte	.LVL315
 5521 0edd 3D1D0000 		.4byte	0x1d3d
 5522 0ee1 ED0E0000 		.4byte	0xeed
 5523 0ee5 0A       		.uleb128 0xa
 5524 0ee6 01       		.uleb128 0x1
 5525 0ee7 50       		.byte	0x50
 5526 0ee8 03       		.uleb128 0x3
 5527 0ee9 0A       		.byte	0xa
 5528 0eea F401     		.2byte	0x1f4
 5529 0eec 00       		.byte	0
 5530 0eed 09       		.uleb128 0x9
 5531 0eee 4C020000 		.4byte	.LVL317
 5532 0ef2 78090000 		.4byte	0x978
 5533 0ef6 000F0000 		.4byte	0xf00
 5534 0efa 0A       		.uleb128 0xa
 5535 0efb 01       		.uleb128 0x1
 5536 0efc 51       		.byte	0x51
 5537 0efd 01       		.uleb128 0x1
 5538 0efe 30       		.byte	0x30
 5539 0eff 00       		.byte	0
 5540 0f00 09       		.uleb128 0x9
 5541 0f01 54020000 		.4byte	.LVL318
 5542 0f05 3D1D0000 		.4byte	0x1d3d
 5543 0f09 150F0000 		.4byte	0xf15
 5544 0f0d 0A       		.uleb128 0xa
 5545 0f0e 01       		.uleb128 0x1
 5546 0f0f 50       		.byte	0x50
 5547 0f10 03       		.uleb128 0x3
 5548 0f11 0A       		.byte	0xa
 5549 0f12 F401     		.2byte	0x1f4
 5550 0f14 00       		.byte	0
 5551 0f15 09       		.uleb128 0x9
 5552 0f16 5C020000 		.4byte	.LVL319
 5553 0f1a 18050000 		.4byte	0x518
 5554 0f1e 2D0F0000 		.4byte	0xf2d
 5555 0f22 0A       		.uleb128 0xa
ARM GAS  C:\Users\weiro\AppData\Local\Temp\ccpp9Q4b.s 			page 117


 5556 0f23 01       		.uleb128 0x1
 5557 0f24 50       		.byte	0x50
 5558 0f25 01       		.uleb128 0x1
 5559 0f26 4E       		.byte	0x4e
 5560 0f27 0A       		.uleb128 0xa
 5561 0f28 01       		.uleb128 0x1
 5562 0f29 51       		.byte	0x51
 5563 0f2a 01       		.uleb128 0x1
 5564 0f2b 31       		.byte	0x31
 5565 0f2c 00       		.byte	0
 5566 0f2d 09       		.uleb128 0x9
 5567 0f2e 64020000 		.4byte	.LVL320
 5568 0f32 3D1D0000 		.4byte	0x1d3d
 5569 0f36 420F0000 		.4byte	0xf42
 5570 0f3a 0A       		.uleb128 0xa
 5571 0f3b 01       		.uleb128 0x1
 5572 0f3c 50       		.byte	0x50
 5573 0f3d 03       		.uleb128 0x3
 5574 0f3e 0A       		.byte	0xa
 5575 0f3f F401     		.2byte	0x1f4
 5576 0f41 00       		.byte	0
 5577 0f42 08       		.uleb128 0x8
 5578 0f43 68020000 		.4byte	.LVL321
 5579 0f47 9F060000 		.4byte	0x69f
 5580 0f4b 09       		.uleb128 0x9
 5581 0f4c 70020000 		.4byte	.LVL322
 5582 0f50 3D1D0000 		.4byte	0x1d3d
 5583 0f54 600F0000 		.4byte	0xf60
 5584 0f58 0A       		.uleb128 0xa
 5585 0f59 01       		.uleb128 0x1
 5586 0f5a 50       		.byte	0x50
 5587 0f5b 03       		.uleb128 0x3
 5588 0f5c 0A       		.byte	0xa
 5589 0f5d F401     		.2byte	0x1f4
 5590 0f5f 00       		.byte	0
 5591 0f60 09       		.uleb128 0x9
 5592 0f61 78020000 		.4byte	.LVL323
 5593 0f65 18050000 		.4byte	0x518
 5594 0f69 780F0000 		.4byte	0xf78
 5595 0f6d 0A       		.uleb128 0xa
 5596 0f6e 01       		.uleb128 0x1
 5597 0f6f 50       		.byte	0x50
 5598 0f70 01       		.uleb128 0x1
 5599 0f71 44       		.byte	0x44
 5600 0f72 0A       		.uleb128 0xa
 5601 0f73 01       		.uleb128 0x1
 5602 0f74 51       		.byte	0x51
 5603 0f75 01       		.uleb128 0x1
 5604 0f76 31       		.byte	0x31
 5605 0f77 00       		.byte	0
 5606 0f78 09       		.uleb128 0x9
 5607 0f79 80020000 		.4byte	.LVL324
 5608 0f7d 3D1D0000 		.4byte	0x1d3d
 5609 0f81 8D0F0000 		.4byte	0xf8d
 5610 0f85 0A       		.uleb128 0xa
 5611 0f86 01       		.uleb128 0x1
 5612 0f87 50       		.byte	0x50
ARM GAS  C:\Users\weiro\AppData\Local\Temp\ccpp9Q4b.s 			page 118


 5613 0f88 03       		.uleb128 0x3
 5614 0f89 0A       		.byte	0xa
 5615 0f8a F401     		.2byte	0x1f4
 5616 0f8c 00       		.byte	0
 5617 0f8d 09       		.uleb128 0x9
 5618 0f8e 8E020000 		.4byte	.LVL326
 5619 0f92 78090000 		.4byte	0x978
 5620 0f96 A00F0000 		.4byte	0xfa0
 5621 0f9a 0A       		.uleb128 0xa
 5622 0f9b 01       		.uleb128 0x1
 5623 0f9c 51       		.byte	0x51
 5624 0f9d 01       		.uleb128 0x1
 5625 0f9e 30       		.byte	0x30
 5626 0f9f 00       		.byte	0
 5627 0fa0 09       		.uleb128 0x9
 5628 0fa1 96020000 		.4byte	.LVL327
 5629 0fa5 3D1D0000 		.4byte	0x1d3d
 5630 0fa9 B50F0000 		.4byte	0xfb5
 5631 0fad 0A       		.uleb128 0xa
 5632 0fae 01       		.uleb128 0x1
 5633 0faf 50       		.byte	0x50
 5634 0fb0 03       		.uleb128 0x3
 5635 0fb1 0A       		.byte	0xa
 5636 0fb2 F401     		.2byte	0x1f4
 5637 0fb4 00       		.byte	0
 5638 0fb5 09       		.uleb128 0x9
 5639 0fb6 9E020000 		.4byte	.LVL328
 5640 0fba 18050000 		.4byte	0x518
 5641 0fbe CD0F0000 		.4byte	0xfcd
 5642 0fc2 0A       		.uleb128 0xa
 5643 0fc3 01       		.uleb128 0x1
 5644 0fc4 50       		.byte	0x50
 5645 0fc5 01       		.uleb128 0x1
 5646 0fc6 44       		.byte	0x44
 5647 0fc7 0A       		.uleb128 0xa
 5648 0fc8 01       		.uleb128 0x1
 5649 0fc9 51       		.byte	0x51
 5650 0fca 01       		.uleb128 0x1
 5651 0fcb 31       		.byte	0x31
 5652 0fcc 00       		.byte	0
 5653 0fcd 09       		.uleb128 0x9
 5654 0fce A6020000 		.4byte	.LVL329
 5655 0fd2 3D1D0000 		.4byte	0x1d3d
 5656 0fd6 E20F0000 		.4byte	0xfe2
 5657 0fda 0A       		.uleb128 0xa
 5658 0fdb 01       		.uleb128 0x1
 5659 0fdc 50       		.byte	0x50
 5660 0fdd 03       		.uleb128 0x3
 5661 0fde 0A       		.byte	0xa
 5662 0fdf F401     		.2byte	0x1f4
 5663 0fe1 00       		.byte	0
 5664 0fe2 09       		.uleb128 0x9
 5665 0fe3 B4020000 		.4byte	.LVL331
 5666 0fe7 78090000 		.4byte	0x978
 5667 0feb F50F0000 		.4byte	0xff5
 5668 0fef 0A       		.uleb128 0xa
 5669 0ff0 01       		.uleb128 0x1
ARM GAS  C:\Users\weiro\AppData\Local\Temp\ccpp9Q4b.s 			page 119


 5670 0ff1 51       		.byte	0x51
 5671 0ff2 01       		.uleb128 0x1
 5672 0ff3 31       		.byte	0x31
 5673 0ff4 00       		.byte	0
 5674 0ff5 09       		.uleb128 0x9
 5675 0ff6 BC020000 		.4byte	.LVL332
 5676 0ffa 3D1D0000 		.4byte	0x1d3d
 5677 0ffe 0A100000 		.4byte	0x100a
 5678 1002 0A       		.uleb128 0xa
 5679 1003 01       		.uleb128 0x1
 5680 1004 50       		.byte	0x50
 5681 1005 03       		.uleb128 0x3
 5682 1006 0A       		.byte	0xa
 5683 1007 F401     		.2byte	0x1f4
 5684 1009 00       		.byte	0
 5685 100a 09       		.uleb128 0x9
 5686 100b C4020000 		.4byte	.LVL333
 5687 100f 18050000 		.4byte	0x518
 5688 1013 22100000 		.4byte	0x1022
 5689 1017 0A       		.uleb128 0xa
 5690 1018 01       		.uleb128 0x1
 5691 1019 50       		.byte	0x50
 5692 101a 01       		.uleb128 0x1
 5693 101b 44       		.byte	0x44
 5694 101c 0A       		.uleb128 0xa
 5695 101d 01       		.uleb128 0x1
 5696 101e 51       		.byte	0x51
 5697 101f 01       		.uleb128 0x1
 5698 1020 31       		.byte	0x31
 5699 1021 00       		.byte	0
 5700 1022 0B       		.uleb128 0xb
 5701 1023 CC020000 		.4byte	.LVL334
 5702 1027 3D1D0000 		.4byte	0x1d3d
 5703 102b 0A       		.uleb128 0xa
 5704 102c 01       		.uleb128 0x1
 5705 102d 50       		.byte	0x50
 5706 102e 03       		.uleb128 0x3
 5707 102f 0A       		.byte	0xa
 5708 1030 F401     		.2byte	0x1f4
 5709 1032 00       		.byte	0
 5710 1033 00       		.byte	0
 5711 1034 0D       		.uleb128 0xd
 5712 1035 90040000 		.4byte	.LASF47
 5713 1039 01       		.byte	0x1
 5714 103a 1403     		.2byte	0x314
 5715 103c 00000000 		.4byte	.LFB83
 5716 1040 5E000000 		.4byte	.LFE83-.LFB83
 5717 1044 01       		.uleb128 0x1
 5718 1045 9C       		.byte	0x9c
 5719 1046 59110000 		.4byte	0x1159
 5720 104a 09       		.uleb128 0x9
 5721 104b 0A000000 		.4byte	.LVL343
 5722 104f 1C1D0000 		.4byte	0x1d1c
 5723 1053 63100000 		.4byte	0x1063
 5724 1057 0A       		.uleb128 0xa
 5725 1058 01       		.uleb128 0x1
 5726 1059 50       		.byte	0x50
ARM GAS  C:\Users\weiro\AppData\Local\Temp\ccpp9Q4b.s 			page 120


 5727 105a 02       		.uleb128 0x2
 5728 105b 08       		.byte	0x8
 5729 105c 68       		.byte	0x68
 5730 105d 0A       		.uleb128 0xa
 5731 105e 01       		.uleb128 0x1
 5732 105f 51       		.byte	0x51
 5733 1060 01       		.uleb128 0x1
 5734 1061 30       		.byte	0x30
 5735 1062 00       		.byte	0
 5736 1063 09       		.uleb128 0x9
 5737 1064 10000000 		.4byte	.LVL344
 5738 1068 271D0000 		.4byte	0x1d27
 5739 106c 77100000 		.4byte	0x1077
 5740 1070 0A       		.uleb128 0xa
 5741 1071 01       		.uleb128 0x1
 5742 1072 50       		.byte	0x50
 5743 1073 02       		.uleb128 0x2
 5744 1074 08       		.byte	0x8
 5745 1075 6B       		.byte	0x6b
 5746 1076 00       		.byte	0
 5747 1077 09       		.uleb128 0x9
 5748 1078 16000000 		.4byte	.LVL345
 5749 107c 271D0000 		.4byte	0x1d27
 5750 1080 8A100000 		.4byte	0x108a
 5751 1084 0A       		.uleb128 0xa
 5752 1085 01       		.uleb128 0x1
 5753 1086 50       		.byte	0x50
 5754 1087 01       		.uleb128 0x1
 5755 1088 30       		.byte	0x30
 5756 1089 00       		.byte	0
 5757 108a 08       		.uleb128 0x8
 5758 108b 1A000000 		.4byte	.LVL346
 5759 108f 321D0000 		.4byte	0x1d32
 5760 1093 09       		.uleb128 0x9
 5761 1094 20000000 		.4byte	.LVL347
 5762 1098 3D1D0000 		.4byte	0x1d3d
 5763 109c A6100000 		.4byte	0x10a6
 5764 10a0 0A       		.uleb128 0xa
 5765 10a1 01       		.uleb128 0x1
 5766 10a2 50       		.byte	0x50
 5767 10a3 01       		.uleb128 0x1
 5768 10a4 31       		.byte	0x31
 5769 10a5 00       		.byte	0
 5770 10a6 09       		.uleb128 0x9
 5771 10a7 28000000 		.4byte	.LVL348
 5772 10ab 1C1D0000 		.4byte	0x1d1c
 5773 10af BF100000 		.4byte	0x10bf
 5774 10b3 0A       		.uleb128 0xa
 5775 10b4 01       		.uleb128 0x1
 5776 10b5 50       		.byte	0x50
 5777 10b6 02       		.uleb128 0x2
 5778 10b7 08       		.byte	0x8
 5779 10b8 68       		.byte	0x68
 5780 10b9 0A       		.uleb128 0xa
 5781 10ba 01       		.uleb128 0x1
 5782 10bb 51       		.byte	0x51
 5783 10bc 01       		.uleb128 0x1
ARM GAS  C:\Users\weiro\AppData\Local\Temp\ccpp9Q4b.s 			page 121


 5784 10bd 30       		.byte	0x30
 5785 10be 00       		.byte	0
 5786 10bf 09       		.uleb128 0x9
 5787 10c0 2E000000 		.4byte	.LVL349
 5788 10c4 271D0000 		.4byte	0x1d27
 5789 10c8 D2100000 		.4byte	0x10d2
 5790 10cc 0A       		.uleb128 0xa
 5791 10cd 01       		.uleb128 0x1
 5792 10ce 50       		.byte	0x50
 5793 10cf 01       		.uleb128 0x1
 5794 10d0 4B       		.byte	0x4b
 5795 10d1 00       		.byte	0
 5796 10d2 09       		.uleb128 0x9
 5797 10d3 34000000 		.4byte	.LVL350
 5798 10d7 271D0000 		.4byte	0x1d27
 5799 10db E5100000 		.4byte	0x10e5
 5800 10df 0A       		.uleb128 0xa
 5801 10e0 01       		.uleb128 0x1
 5802 10e1 50       		.byte	0x50
 5803 10e2 01       		.uleb128 0x1
 5804 10e3 38       		.byte	0x38
 5805 10e4 00       		.byte	0
 5806 10e5 08       		.uleb128 0x8
 5807 10e6 38000000 		.4byte	.LVL351
 5808 10ea 321D0000 		.4byte	0x1d32
 5809 10ee 09       		.uleb128 0x9
 5810 10ef 3E000000 		.4byte	.LVL352
 5811 10f3 3D1D0000 		.4byte	0x1d3d
 5812 10f7 01110000 		.4byte	0x1101
 5813 10fb 0A       		.uleb128 0xa
 5814 10fc 01       		.uleb128 0x1
 5815 10fd 50       		.byte	0x50
 5816 10fe 01       		.uleb128 0x1
 5817 10ff 31       		.byte	0x31
 5818 1100 00       		.byte	0
 5819 1101 09       		.uleb128 0x9
 5820 1102 46000000 		.4byte	.LVL353
 5821 1106 1C1D0000 		.4byte	0x1d1c
 5822 110a 1A110000 		.4byte	0x111a
 5823 110e 0A       		.uleb128 0xa
 5824 110f 01       		.uleb128 0x1
 5825 1110 50       		.byte	0x50
 5826 1111 02       		.uleb128 0x2
 5827 1112 08       		.byte	0x8
 5828 1113 68       		.byte	0x68
 5829 1114 0A       		.uleb128 0xa
 5830 1115 01       		.uleb128 0x1
 5831 1116 51       		.byte	0x51
 5832 1117 01       		.uleb128 0x1
 5833 1118 30       		.byte	0x30
 5834 1119 00       		.byte	0
 5835 111a 09       		.uleb128 0x9
 5836 111b 4C000000 		.4byte	.LVL354
 5837 111f 271D0000 		.4byte	0x1d27
 5838 1123 2D110000 		.4byte	0x112d
 5839 1127 0A       		.uleb128 0xa
 5840 1128 01       		.uleb128 0x1
ARM GAS  C:\Users\weiro\AppData\Local\Temp\ccpp9Q4b.s 			page 122


 5841 1129 50       		.byte	0x50
 5842 112a 01       		.uleb128 0x1
 5843 112b 4A       		.byte	0x4a
 5844 112c 00       		.byte	0
 5845 112d 09       		.uleb128 0x9
 5846 112e 52000000 		.4byte	.LVL355
 5847 1132 271D0000 		.4byte	0x1d27
 5848 1136 40110000 		.4byte	0x1140
 5849 113a 0A       		.uleb128 0xa
 5850 113b 01       		.uleb128 0x1
 5851 113c 50       		.byte	0x50
 5852 113d 01       		.uleb128 0x1
 5853 113e 35       		.byte	0x35
 5854 113f 00       		.byte	0
 5855 1140 08       		.uleb128 0x8
 5856 1141 56000000 		.4byte	.LVL356
 5857 1145 321D0000 		.4byte	0x1d32
 5858 1149 0B       		.uleb128 0xb
 5859 114a 5C000000 		.4byte	.LVL357
 5860 114e 3D1D0000 		.4byte	0x1d3d
 5861 1152 0A       		.uleb128 0xa
 5862 1153 01       		.uleb128 0x1
 5863 1154 50       		.byte	0x50
 5864 1155 01       		.uleb128 0x1
 5865 1156 31       		.byte	0x31
 5866 1157 00       		.byte	0
 5867 1158 00       		.byte	0
 5868 1159 0D       		.uleb128 0xd
 5869 115a 1C040000 		.4byte	.LASF48
 5870 115e 01       		.byte	0x1
 5871 115f 2E03     		.2byte	0x32e
 5872 1161 00000000 		.4byte	.LFB84
 5873 1165 28000000 		.4byte	.LFE84-.LFB84
 5874 1169 01       		.uleb128 0x1
 5875 116a 9C       		.byte	0x9c
 5876 116b F6110000 		.4byte	0x11f6
 5877 116f 12       		.uleb128 0x12
 5878 1170 3F080000 		.4byte	.LASF31
 5879 1174 01       		.byte	0x1
 5880 1175 3003     		.2byte	0x330
 5881 1177 6F000000 		.4byte	0x6f
 5882 117b 00       		.byte	0
 5883 117c 17       		.uleb128 0x17
 5884 117d 1E070000 		.4byte	.LASF49
 5885 1181 01       		.byte	0x1
 5886 1182 3103     		.2byte	0x331
 5887 1184 25000000 		.4byte	0x25
 5888 1188 08       		.byte	0x8
 5889 1189 00000000 		.4byte	0
 5890 118d 00001440 		.4byte	0x40140000
 5891 1191 09       		.uleb128 0x9
 5892 1192 08000000 		.4byte	.LVL359
 5893 1196 871E0000 		.4byte	0x1e87
 5894 119a A4110000 		.4byte	0x11a4
 5895 119e 0A       		.uleb128 0xa
 5896 119f 01       		.uleb128 0x1
 5897 11a0 50       		.byte	0x50
ARM GAS  C:\Users\weiro\AppData\Local\Temp\ccpp9Q4b.s 			page 123


 5898 11a1 01       		.uleb128 0x1
 5899 11a2 31       		.byte	0x31
 5900 11a3 00       		.byte	0
 5901 11a4 09       		.uleb128 0x9
 5902 11a5 10000000 		.4byte	.LVL360
 5903 11a9 3D1D0000 		.4byte	0x1d3d
 5904 11ad B9110000 		.4byte	0x11b9
 5905 11b1 0A       		.uleb128 0xa
 5906 11b2 01       		.uleb128 0x1
 5907 11b3 50       		.byte	0x50
 5908 11b4 03       		.uleb128 0x3
 5909 11b5 0A       		.byte	0xa
 5910 11b6 8813     		.2byte	0x1388
 5911 11b8 00       		.byte	0
 5912 11b9 09       		.uleb128 0x9
 5913 11ba 18000000 		.4byte	.LVL361
 5914 11be 18050000 		.4byte	0x518
 5915 11c2 D1110000 		.4byte	0x11d1
 5916 11c6 0A       		.uleb128 0xa
 5917 11c7 01       		.uleb128 0x1
 5918 11c8 50       		.byte	0x50
 5919 11c9 01       		.uleb128 0x1
 5920 11ca 35       		.byte	0x35
 5921 11cb 0A       		.uleb128 0xa
 5922 11cc 01       		.uleb128 0x1
 5923 11cd 51       		.byte	0x51
 5924 11ce 01       		.uleb128 0x1
 5925 11cf 30       		.byte	0x30
 5926 11d0 00       		.byte	0
 5927 11d1 09       		.uleb128 0x9
 5928 11d2 20000000 		.4byte	.LVL362
 5929 11d6 3D1D0000 		.4byte	0x1d3d
 5930 11da E6110000 		.4byte	0x11e6
 5931 11de 0A       		.uleb128 0xa
 5932 11df 01       		.uleb128 0x1
 5933 11e0 50       		.byte	0x50
 5934 11e1 03       		.uleb128 0x3
 5935 11e2 0A       		.byte	0xa
 5936 11e3 F401     		.2byte	0x1f4
 5937 11e5 00       		.byte	0
 5938 11e6 0B       		.uleb128 0xb
 5939 11e7 26000000 		.4byte	.LVL363
 5940 11eb 871E0000 		.4byte	0x1e87
 5941 11ef 0A       		.uleb128 0xa
 5942 11f0 01       		.uleb128 0x1
 5943 11f1 50       		.byte	0x50
 5944 11f2 01       		.uleb128 0x1
 5945 11f3 30       		.byte	0x30
 5946 11f4 00       		.byte	0
 5947 11f5 00       		.byte	0
 5948 11f6 18       		.uleb128 0x18
 5949 11f7 FA080000 		.4byte	.LASF50
 5950 11fb 01       		.byte	0x1
 5951 11fc 3903     		.2byte	0x339
 5952 11fe A0000000 		.4byte	0xa0
 5953 1202 00000000 		.4byte	.LFB85
 5954 1206 D4000000 		.4byte	.LFE85-.LFB85
ARM GAS  C:\Users\weiro\AppData\Local\Temp\ccpp9Q4b.s 			page 124


 5955 120a 01       		.uleb128 0x1
 5956 120b 9C       		.byte	0x9c
 5957 120c 3D130000 		.4byte	0x133d
 5958 1210 10       		.uleb128 0x10
 5959 1211 00070000 		.4byte	.LASF51
 5960 1215 01       		.byte	0x1
 5961 1216 3B03     		.2byte	0x33b
 5962 1218 6F000000 		.4byte	0x6f
 5963 121c 65040000 		.4byte	.LLST19
 5964 1220 10       		.uleb128 0x10
 5965 1221 C2050000 		.4byte	.LASF52
 5966 1225 01       		.byte	0x1
 5967 1226 3C03     		.2byte	0x33c
 5968 1228 A0000000 		.4byte	0xa0
 5969 122c 94040000 		.4byte	.LLST20
 5970 1230 10       		.uleb128 0x10
 5971 1231 56000000 		.4byte	.LASF53
 5972 1235 01       		.byte	0x1
 5973 1236 3D03     		.2byte	0x33d
 5974 1238 A0000000 		.4byte	0xa0
 5975 123c B7040000 		.4byte	.LLST21
 5976 1240 10       		.uleb128 0x10
 5977 1241 AE040000 		.4byte	.LASF54
 5978 1245 01       		.byte	0x1
 5979 1246 3E03     		.2byte	0x33e
 5980 1248 6F000000 		.4byte	0x6f
 5981 124c F0040000 		.4byte	.LLST22
 5982 1250 10       		.uleb128 0x10
 5983 1251 4E040000 		.4byte	.LASF55
 5984 1255 01       		.byte	0x1
 5985 1256 3F03     		.2byte	0x33f
 5986 1258 A0000000 		.4byte	0xa0
 5987 125c 0F050000 		.4byte	.LLST23
 5988 1260 10       		.uleb128 0x10
 5989 1261 85000000 		.4byte	.LASF56
 5990 1265 01       		.byte	0x1
 5991 1266 4003     		.2byte	0x340
 5992 1268 A0000000 		.4byte	0xa0
 5993 126c 32050000 		.4byte	.LLST24
 5994 1270 08       		.uleb128 0x8
 5995 1271 0C000000 		.4byte	.LVL366
 5996 1275 921E0000 		.4byte	0x1e92
 5997 1279 09       		.uleb128 0x9
 5998 127a 12000000 		.4byte	.LVL367
 5999 127e 9D1E0000 		.4byte	0x1e9d
 6000 1282 8C120000 		.4byte	0x128c
 6001 1286 0A       		.uleb128 0xa
 6002 1287 01       		.uleb128 0x1
 6003 1288 50       		.byte	0x50
 6004 1289 01       		.uleb128 0x1
 6005 128a 31       		.byte	0x31
 6006 128b 00       		.byte	0
 6007 128c 08       		.uleb128 0x8
 6008 128d 1A000000 		.4byte	.LVL368
 6009 1291 A81E0000 		.4byte	0x1ea8
 6010 1295 09       		.uleb128 0x9
 6011 1296 34000000 		.4byte	.LVL373
ARM GAS  C:\Users\weiro\AppData\Local\Temp\ccpp9Q4b.s 			page 125


 6012 129a 3D1D0000 		.4byte	0x1d3d
 6013 129e A8120000 		.4byte	0x12a8
 6014 12a2 0A       		.uleb128 0xa
 6015 12a3 01       		.uleb128 0x1
 6016 12a4 50       		.byte	0x50
 6017 12a5 01       		.uleb128 0x1
 6018 12a6 44       		.byte	0x44
 6019 12a7 00       		.byte	0
 6020 12a8 09       		.uleb128 0x9
 6021 12a9 6C000000 		.4byte	.LVL379
 6022 12ad B31E0000 		.4byte	0x1eb3
 6023 12b1 CA120000 		.4byte	0x12ca
 6024 12b5 0A       		.uleb128 0xa
 6025 12b6 06       		.uleb128 0x6
 6026 12b7 52       		.byte	0x52
 6027 12b8 93       		.byte	0x93
 6028 12b9 04       		.uleb128 0x4
 6029 12ba 53       		.byte	0x53
 6030 12bb 93       		.byte	0x93
 6031 12bc 04       		.uleb128 0x4
 6032 12bd 0B       		.uleb128 0xb
 6033 12be F4       		.byte	0xf4
 6034 12bf 25       		.uleb128 0x25
 6035 12c0 08       		.byte	0x8
 6036 12c1 1A578E1A 		.4byte	0x1a8e571a
 6037 12c5 578EEABF 		.4byte	0xbfea8e57
 6038 12c9 00       		.byte	0
 6039 12ca 09       		.uleb128 0x9
 6040 12cb 78000000 		.4byte	.LVL383
 6041 12cf 3D1D0000 		.4byte	0x1d3d
 6042 12d3 DE120000 		.4byte	0x12de
 6043 12d7 0A       		.uleb128 0xa
 6044 12d8 01       		.uleb128 0x1
 6045 12d9 50       		.byte	0x50
 6046 12da 02       		.uleb128 0x2
 6047 12db 08       		.byte	0x8
 6048 12dc C8       		.byte	0xc8
 6049 12dd 00       		.byte	0
 6050 12de 09       		.uleb128 0x9
 6051 12df 86000000 		.4byte	.LVL385
 6052 12e3 E51C0000 		.4byte	0x1ce5
 6053 12e7 FB120000 		.4byte	0x12fb
 6054 12eb 0A       		.uleb128 0xa
 6055 12ec 01       		.uleb128 0x1
 6056 12ed 50       		.byte	0x50
 6057 12ee 02       		.uleb128 0x2
 6058 12ef 74       		.byte	0x74
 6059 12f0 00       		.sleb128 0
 6060 12f1 0A       		.uleb128 0xa
 6061 12f2 01       		.uleb128 0x1
 6062 12f3 51       		.byte	0x51
 6063 12f4 05       		.uleb128 0x5
 6064 12f5 03       		.byte	0x3
 6065 12f6 7C000000 		.4byte	.LC8
 6066 12fa 00       		.byte	0
 6067 12fb 09       		.uleb128 0x9
 6068 12fc 8C000000 		.4byte	.LVL386
ARM GAS  C:\Users\weiro\AppData\Local\Temp\ccpp9Q4b.s 			page 126


 6069 1300 531D0000 		.4byte	0x1d53
 6070 1304 0F130000 		.4byte	0x130f
 6071 1308 0A       		.uleb128 0xa
 6072 1309 01       		.uleb128 0x1
 6073 130a 50       		.byte	0x50
 6074 130b 02       		.uleb128 0x2
 6075 130c 74       		.byte	0x74
 6076 130d 00       		.sleb128 0
 6077 130e 00       		.byte	0
 6078 130f 09       		.uleb128 0x9
 6079 1310 9E000000 		.4byte	.LVL388
 6080 1314 E51C0000 		.4byte	0x1ce5
 6081 1318 2C130000 		.4byte	0x132c
 6082 131c 0A       		.uleb128 0xa
 6083 131d 01       		.uleb128 0x1
 6084 131e 50       		.byte	0x50
 6085 131f 02       		.uleb128 0x2
 6086 1320 74       		.byte	0x74
 6087 1321 00       		.sleb128 0
 6088 1322 0A       		.uleb128 0xa
 6089 1323 01       		.uleb128 0x1
 6090 1324 51       		.byte	0x51
 6091 1325 05       		.uleb128 0x5
 6092 1326 03       		.byte	0x3
 6093 1327 8C000000 		.4byte	.LC9
 6094 132b 00       		.byte	0
 6095 132c 0B       		.uleb128 0xb
 6096 132d A4000000 		.4byte	.LVL389
 6097 1331 531D0000 		.4byte	0x1d53
 6098 1335 0A       		.uleb128 0xa
 6099 1336 01       		.uleb128 0x1
 6100 1337 50       		.byte	0x50
 6101 1338 02       		.uleb128 0x2
 6102 1339 74       		.byte	0x74
 6103 133a 00       		.sleb128 0
 6104 133b 00       		.byte	0
 6105 133c 00       		.byte	0
 6106 133d 19       		.uleb128 0x19
 6107 133e 3B020000 		.4byte	.LASF57
 6108 1342 01       		.byte	0x1
 6109 1343 5C03     		.2byte	0x35c
 6110 1345 00000000 		.4byte	.LFB86
 6111 1349 A8000000 		.4byte	.LFE86-.LFB86
 6112 134d 01       		.uleb128 0x1
 6113 134e 9C       		.byte	0x9c
 6114 134f CF140000 		.4byte	0x14cf
 6115 1353 0F       		.uleb128 0xf
 6116 1354 08040000 		.4byte	.LASF58
 6117 1358 01       		.byte	0x1
 6118 1359 5C03     		.2byte	0x35c
 6119 135b 6F000000 		.4byte	0x6f
 6120 135f 6B050000 		.4byte	.LLST25
 6121 1363 10       		.uleb128 0x10
 6122 1364 58070000 		.4byte	.LASF59
 6123 1368 01       		.byte	0x1
 6124 1369 5F03     		.2byte	0x35f
 6125 136b 6F000000 		.4byte	0x6f
ARM GAS  C:\Users\weiro\AppData\Local\Temp\ccpp9Q4b.s 			page 127


 6126 136f 97050000 		.4byte	.LLST26
 6127 1373 1A       		.uleb128 0x1a
 6128 1374 08000000 		.4byte	.LBB7
 6129 1378 88000000 		.4byte	.LBE7-.LBB7
 6130 137c 10       		.uleb128 0x10
 6131 137d 3F080000 		.4byte	.LASF31
 6132 1381 01       		.byte	0x1
 6133 1382 6303     		.2byte	0x363
 6134 1384 6F000000 		.4byte	0x6f
 6135 1388 B6050000 		.4byte	.LLST27
 6136 138c 10       		.uleb128 0x10
 6137 138d 1E070000 		.4byte	.LASF49
 6138 1391 01       		.byte	0x1
 6139 1392 6403     		.2byte	0x364
 6140 1394 6F000000 		.4byte	0x6f
 6141 1398 CA050000 		.4byte	.LLST28
 6142 139c 08       		.uleb128 0x8
 6143 139d 0C000000 		.4byte	.LVL394
 6144 13a1 94070000 		.4byte	0x794
 6145 13a5 09       		.uleb128 0x9
 6146 13a6 14000000 		.4byte	.LVL395
 6147 13aa 18050000 		.4byte	0x518
 6148 13ae BD130000 		.4byte	0x13bd
 6149 13b2 0A       		.uleb128 0xa
 6150 13b3 01       		.uleb128 0x1
 6151 13b4 50       		.byte	0x50
 6152 13b5 01       		.uleb128 0x1
 6153 13b6 34       		.byte	0x34
 6154 13b7 0A       		.uleb128 0xa
 6155 13b8 01       		.uleb128 0x1
 6156 13b9 51       		.byte	0x51
 6157 13ba 01       		.uleb128 0x1
 6158 13bb 31       		.byte	0x31
 6159 13bc 00       		.byte	0
 6160 13bd 09       		.uleb128 0x9
 6161 13be 1C000000 		.4byte	.LVL396
 6162 13c2 3D1D0000 		.4byte	0x1d3d
 6163 13c6 D2130000 		.4byte	0x13d2
 6164 13ca 0A       		.uleb128 0xa
 6165 13cb 01       		.uleb128 0x1
 6166 13cc 50       		.byte	0x50
 6167 13cd 03       		.uleb128 0x3
 6168 13ce 0A       		.byte	0xa
 6169 13cf F401     		.2byte	0x1f4
 6170 13d1 00       		.byte	0
 6171 13d2 08       		.uleb128 0x8
 6172 13d3 20000000 		.4byte	.LVL397
 6173 13d7 010A0000 		.4byte	0xa01
 6174 13db 09       		.uleb128 0x9
 6175 13dc 30000000 		.4byte	.LVL398
 6176 13e0 5B1E0000 		.4byte	0x1e5b
 6177 13e4 EE130000 		.4byte	0x13ee
 6178 13e8 0A       		.uleb128 0xa
 6179 13e9 01       		.uleb128 0x1
 6180 13ea 50       		.byte	0x50
 6181 13eb 01       		.uleb128 0x1
 6182 13ec 31       		.byte	0x31
ARM GAS  C:\Users\weiro\AppData\Local\Temp\ccpp9Q4b.s 			page 128


 6183 13ed 00       		.byte	0
 6184 13ee 09       		.uleb128 0x9
 6185 13ef 38000000 		.4byte	.LVL399
 6186 13f3 3D1D0000 		.4byte	0x1d3d
 6187 13f7 03140000 		.4byte	0x1403
 6188 13fb 0A       		.uleb128 0xa
 6189 13fc 01       		.uleb128 0x1
 6190 13fd 50       		.byte	0x50
 6191 13fe 03       		.uleb128 0x3
 6192 13ff 0A       		.byte	0xa
 6193 1400 E803     		.2byte	0x3e8
 6194 1402 00       		.byte	0
 6195 1403 09       		.uleb128 0x9
 6196 1404 3E000000 		.4byte	.LVL400
 6197 1408 5B1E0000 		.4byte	0x1e5b
 6198 140c 16140000 		.4byte	0x1416
 6199 1410 0A       		.uleb128 0xa
 6200 1411 01       		.uleb128 0x1
 6201 1412 50       		.byte	0x50
 6202 1413 01       		.uleb128 0x1
 6203 1414 30       		.byte	0x30
 6204 1415 00       		.byte	0
 6205 1416 09       		.uleb128 0x9
 6206 1417 44000000 		.4byte	.LVL401
 6207 141b 531D0000 		.4byte	0x1d53
 6208 141f 2D140000 		.4byte	0x142d
 6209 1423 0A       		.uleb128 0xa
 6210 1424 01       		.uleb128 0x1
 6211 1425 50       		.byte	0x50
 6212 1426 05       		.uleb128 0x5
 6213 1427 03       		.byte	0x3
 6214 1428 9C000000 		.4byte	.LC10
 6215 142c 00       		.byte	0
 6216 142d 09       		.uleb128 0x9
 6217 142e 50000000 		.4byte	.LVL402
 6218 1432 661E0000 		.4byte	0x1e66
 6219 1436 40140000 		.4byte	0x1440
 6220 143a 0A       		.uleb128 0xa
 6221 143b 01       		.uleb128 0x1
 6222 143c 50       		.byte	0x50
 6223 143d 01       		.uleb128 0x1
 6224 143e 31       		.byte	0x31
 6225 143f 00       		.byte	0
 6226 1440 09       		.uleb128 0x9
 6227 1441 58000000 		.4byte	.LVL403
 6228 1445 3D1D0000 		.4byte	0x1d3d
 6229 1449 55140000 		.4byte	0x1455
 6230 144d 0A       		.uleb128 0xa
 6231 144e 01       		.uleb128 0x1
 6232 144f 50       		.byte	0x50
 6233 1450 03       		.uleb128 0x3
 6234 1451 0A       		.byte	0xa
 6235 1452 E803     		.2byte	0x3e8
 6236 1454 00       		.byte	0
 6237 1455 09       		.uleb128 0x9
 6238 1456 5E000000 		.4byte	.LVL404
 6239 145a 661E0000 		.4byte	0x1e66
ARM GAS  C:\Users\weiro\AppData\Local\Temp\ccpp9Q4b.s 			page 129


 6240 145e 68140000 		.4byte	0x1468
 6241 1462 0A       		.uleb128 0xa
 6242 1463 01       		.uleb128 0x1
 6243 1464 50       		.byte	0x50
 6244 1465 01       		.uleb128 0x1
 6245 1466 30       		.byte	0x30
 6246 1467 00       		.byte	0
 6247 1468 09       		.uleb128 0x9
 6248 1469 64000000 		.4byte	.LVL405
 6249 146d 531D0000 		.4byte	0x1d53
 6250 1471 7F140000 		.4byte	0x147f
 6251 1475 0A       		.uleb128 0xa
 6252 1476 01       		.uleb128 0x1
 6253 1477 50       		.byte	0x50
 6254 1478 05       		.uleb128 0x5
 6255 1479 03       		.byte	0x3
 6256 147a A4000000 		.4byte	.LC11
 6257 147e 00       		.byte	0
 6258 147f 09       		.uleb128 0x9
 6259 1480 70000000 		.4byte	.LVL406
 6260 1484 711E0000 		.4byte	0x1e71
 6261 1488 92140000 		.4byte	0x1492
 6262 148c 0A       		.uleb128 0xa
 6263 148d 01       		.uleb128 0x1
 6264 148e 50       		.byte	0x50
 6265 148f 01       		.uleb128 0x1
 6266 1490 31       		.byte	0x31
 6267 1491 00       		.byte	0
 6268 1492 09       		.uleb128 0x9
 6269 1493 78000000 		.4byte	.LVL407
 6270 1497 3D1D0000 		.4byte	0x1d3d
 6271 149b A7140000 		.4byte	0x14a7
 6272 149f 0A       		.uleb128 0xa
 6273 14a0 01       		.uleb128 0x1
 6274 14a1 50       		.byte	0x50
 6275 14a2 03       		.uleb128 0x3
 6276 14a3 0A       		.byte	0xa
 6277 14a4 E803     		.2byte	0x3e8
 6278 14a6 00       		.byte	0
 6279 14a7 09       		.uleb128 0x9
 6280 14a8 7E000000 		.4byte	.LVL408
 6281 14ac 711E0000 		.4byte	0x1e71
 6282 14b0 BA140000 		.4byte	0x14ba
 6283 14b4 0A       		.uleb128 0xa
 6284 14b5 01       		.uleb128 0x1
 6285 14b6 50       		.byte	0x50
 6286 14b7 01       		.uleb128 0x1
 6287 14b8 30       		.byte	0x30
 6288 14b9 00       		.byte	0
 6289 14ba 0B       		.uleb128 0xb
 6290 14bb 84000000 		.4byte	.LVL409
 6291 14bf 531D0000 		.4byte	0x1d53
 6292 14c3 0A       		.uleb128 0xa
 6293 14c4 01       		.uleb128 0x1
 6294 14c5 50       		.byte	0x50
 6295 14c6 05       		.uleb128 0x5
 6296 14c7 03       		.byte	0x3
ARM GAS  C:\Users\weiro\AppData\Local\Temp\ccpp9Q4b.s 			page 130


 6297 14c8 B0000000 		.4byte	.LC12
 6298 14cc 00       		.byte	0
 6299 14cd 00       		.byte	0
 6300 14ce 00       		.byte	0
 6301 14cf 0D       		.uleb128 0xd
 6302 14d0 2F0B0000 		.4byte	.LASF60
 6303 14d4 01       		.byte	0x1
 6304 14d5 8403     		.2byte	0x384
 6305 14d7 00000000 		.4byte	.LFB87
 6306 14db 3C000000 		.4byte	.LFE87-.LFB87
 6307 14df 01       		.uleb128 0x1
 6308 14e0 9C       		.byte	0x9c
 6309 14e1 7A150000 		.4byte	0x157a
 6310 14e5 12       		.uleb128 0x12
 6311 14e6 3F080000 		.4byte	.LASF31
 6312 14ea 01       		.byte	0x1
 6313 14eb 8603     		.2byte	0x386
 6314 14ed 6F000000 		.4byte	0x6f
 6315 14f1 01       		.byte	0x1
 6316 14f2 17       		.uleb128 0x17
 6317 14f3 1E070000 		.4byte	.LASF49
 6318 14f7 01       		.byte	0x1
 6319 14f8 8703     		.2byte	0x387
 6320 14fa 25000000 		.4byte	0x25
 6321 14fe 08       		.byte	0x8
 6322 14ff 00000000 		.4byte	0
 6323 1503 00003240 		.4byte	0x40320000
 6324 1507 09       		.uleb128 0x9
 6325 1508 0A000000 		.4byte	.LVL413
 6326 150c 18050000 		.4byte	0x518
 6327 1510 1F150000 		.4byte	0x151f
 6328 1514 0A       		.uleb128 0xa
 6329 1515 01       		.uleb128 0x1
 6330 1516 50       		.byte	0x50
 6331 1517 01       		.uleb128 0x1
 6332 1518 42       		.byte	0x42
 6333 1519 0A       		.uleb128 0xa
 6334 151a 01       		.uleb128 0x1
 6335 151b 51       		.byte	0x51
 6336 151c 01       		.uleb128 0x1
 6337 151d 31       		.byte	0x31
 6338 151e 00       		.byte	0
 6339 151f 09       		.uleb128 0x9
 6340 1520 12000000 		.4byte	.LVL414
 6341 1524 3D1D0000 		.4byte	0x1d3d
 6342 1528 34150000 		.4byte	0x1534
 6343 152c 0A       		.uleb128 0xa
 6344 152d 01       		.uleb128 0x1
 6345 152e 50       		.byte	0x50
 6346 152f 03       		.uleb128 0x3
 6347 1530 0A       		.byte	0xa
 6348 1531 F401     		.2byte	0x1f4
 6349 1533 00       		.byte	0
 6350 1534 08       		.uleb128 0x8
 6351 1535 1A000000 		.4byte	.LVL415
 6352 1539 BE1E0000 		.4byte	0x1ebe
 6353 153d 09       		.uleb128 0x9
ARM GAS  C:\Users\weiro\AppData\Local\Temp\ccpp9Q4b.s 			page 131


 6354 153e 22000000 		.4byte	.LVL416
 6355 1542 3D1D0000 		.4byte	0x1d3d
 6356 1546 52150000 		.4byte	0x1552
 6357 154a 0A       		.uleb128 0xa
 6358 154b 01       		.uleb128 0x1
 6359 154c 50       		.byte	0x50
 6360 154d 03       		.uleb128 0x3
 6361 154e 0A       		.byte	0xa
 6362 154f E803     		.2byte	0x3e8
 6363 1551 00       		.byte	0
 6364 1552 08       		.uleb128 0x8
 6365 1553 28000000 		.4byte	.LVL417
 6366 1557 C91E0000 		.4byte	0x1ec9
 6367 155b 09       		.uleb128 0x9
 6368 155c 30000000 		.4byte	.LVL418
 6369 1560 3D1D0000 		.4byte	0x1d3d
 6370 1564 70150000 		.4byte	0x1570
 6371 1568 0A       		.uleb128 0xa
 6372 1569 01       		.uleb128 0x1
 6373 156a 50       		.byte	0x50
 6374 156b 03       		.uleb128 0x3
 6375 156c 0A       		.byte	0xa
 6376 156d E803     		.2byte	0x3e8
 6377 156f 00       		.byte	0
 6378 1570 08       		.uleb128 0x8
 6379 1571 36000000 		.4byte	.LVL419
 6380 1575 BE1E0000 		.4byte	0x1ebe
 6381 1579 00       		.byte	0
 6382 157a 0D       		.uleb128 0xd
 6383 157b 1C020000 		.4byte	.LASF61
 6384 157f 01       		.byte	0x1
 6385 1580 9103     		.2byte	0x391
 6386 1582 00000000 		.4byte	.LFB88
 6387 1586 3C000000 		.4byte	.LFE88-.LFB88
 6388 158a 01       		.uleb128 0x1
 6389 158b 9C       		.byte	0x9c
 6390 158c F4150000 		.4byte	0x15f4
 6391 1590 08       		.uleb128 0x8
 6392 1591 0A000000 		.4byte	.LVL420
 6393 1595 BE1E0000 		.4byte	0x1ebe
 6394 1599 09       		.uleb128 0x9
 6395 159a 12000000 		.4byte	.LVL421
 6396 159e 3D1D0000 		.4byte	0x1d3d
 6397 15a2 AE150000 		.4byte	0x15ae
 6398 15a6 0A       		.uleb128 0xa
 6399 15a7 01       		.uleb128 0x1
 6400 15a8 50       		.byte	0x50
 6401 15a9 03       		.uleb128 0x3
 6402 15aa 0A       		.byte	0xa
 6403 15ab E803     		.2byte	0x3e8
 6404 15ad 00       		.byte	0
 6405 15ae 08       		.uleb128 0x8
 6406 15af 18000000 		.4byte	.LVL422
 6407 15b3 C91E0000 		.4byte	0x1ec9
 6408 15b7 09       		.uleb128 0x9
 6409 15b8 20000000 		.4byte	.LVL423
 6410 15bc 3D1D0000 		.4byte	0x1d3d
ARM GAS  C:\Users\weiro\AppData\Local\Temp\ccpp9Q4b.s 			page 132


 6411 15c0 CC150000 		.4byte	0x15cc
 6412 15c4 0A       		.uleb128 0xa
 6413 15c5 01       		.uleb128 0x1
 6414 15c6 50       		.byte	0x50
 6415 15c7 03       		.uleb128 0x3
 6416 15c8 0A       		.byte	0xa
 6417 15c9 F401     		.2byte	0x1f4
 6418 15cb 00       		.byte	0
 6419 15cc 08       		.uleb128 0x8
 6420 15cd 26000000 		.4byte	.LVL424
 6421 15d1 BE1E0000 		.4byte	0x1ebe
 6422 15d5 09       		.uleb128 0x9
 6423 15d6 2E000000 		.4byte	.LVL425
 6424 15da 3D1D0000 		.4byte	0x1d3d
 6425 15de EA150000 		.4byte	0x15ea
 6426 15e2 0A       		.uleb128 0xa
 6427 15e3 01       		.uleb128 0x1
 6428 15e4 50       		.byte	0x50
 6429 15e5 03       		.uleb128 0x3
 6430 15e6 0A       		.byte	0xa
 6431 15e7 F401     		.2byte	0x1f4
 6432 15e9 00       		.byte	0
 6433 15ea 08       		.uleb128 0x8
 6434 15eb 34000000 		.4byte	.LVL426
 6435 15ef C91E0000 		.4byte	0x1ec9
 6436 15f3 00       		.byte	0
 6437 15f4 1B       		.uleb128 0x1b
 6438 15f5 AF0A0000 		.4byte	.LASF193
 6439 15f9 01       		.byte	0x1
 6440 15fa 9C03     		.2byte	0x39c
 6441 15fc 6F000000 		.4byte	0x6f
 6442 1600 00000000 		.4byte	.LFB89
 6443 1604 60010000 		.4byte	.LFE89-.LFB89
 6444 1608 01       		.uleb128 0x1
 6445 1609 9C       		.byte	0x9c
 6446 160a DC170000 		.4byte	0x17dc
 6447 160e 12       		.uleb128 0x12
 6448 160f 3F080000 		.4byte	.LASF31
 6449 1613 01       		.byte	0x1
 6450 1614 BF03     		.2byte	0x3bf
 6451 1616 6F000000 		.4byte	0x6f
 6452 161a 01       		.byte	0x1
 6453 161b 12       		.uleb128 0x12
 6454 161c 38060000 		.4byte	.LASF44
 6455 1620 01       		.byte	0x1
 6456 1621 C003     		.2byte	0x3c0
 6457 1623 6F000000 		.4byte	0x6f
 6458 1627 01       		.byte	0x1
 6459 1628 17       		.uleb128 0x17
 6460 1629 1E070000 		.4byte	.LASF49
 6461 162d 01       		.byte	0x1
 6462 162e C303     		.2byte	0x3c3
 6463 1630 25000000 		.4byte	0x25
 6464 1634 08       		.byte	0x8
 6465 1635 00000000 		.4byte	0
 6466 1639 00000000 		.4byte	0
 6467 163d 09       		.uleb128 0x9
ARM GAS  C:\Users\weiro\AppData\Local\Temp\ccpp9Q4b.s 			page 133


 6468 163e 84000000 		.4byte	.LVL433
 6469 1642 D41E0000 		.4byte	0x1ed4
 6470 1646 54160000 		.4byte	0x1654
 6471 164a 0A       		.uleb128 0xa
 6472 164b 01       		.uleb128 0x1
 6473 164c 50       		.byte	0x50
 6474 164d 05       		.uleb128 0x5
 6475 164e 03       		.byte	0x3
 6476 164f 00000000 		.4byte	Speed_Control
 6477 1653 00       		.byte	0
 6478 1654 09       		.uleb128 0x9
 6479 1655 8A000000 		.4byte	.LVL434
 6480 1659 DF1E0000 		.4byte	0x1edf
 6481 165d 6B160000 		.4byte	0x166b
 6482 1661 0A       		.uleb128 0xa
 6483 1662 01       		.uleb128 0x1
 6484 1663 50       		.byte	0x50
 6485 1664 05       		.uleb128 0x5
 6486 1665 03       		.byte	0x3
 6487 1666 00000000 		.4byte	Color_sensing
 6488 166a 00       		.byte	0
 6489 166b 08       		.uleb128 0x8
 6490 166c 8E000000 		.4byte	.LVL435
 6491 1670 EA1E0000 		.4byte	0x1eea
 6492 1674 08       		.uleb128 0x8
 6493 1675 92000000 		.4byte	.LVL436
 6494 1679 F51E0000 		.4byte	0x1ef5
 6495 167d 09       		.uleb128 0x9
 6496 167e 98000000 		.4byte	.LVL437
 6497 1682 001F0000 		.4byte	0x1f00
 6498 1686 94160000 		.4byte	0x1694
 6499 168a 0A       		.uleb128 0xa
 6500 168b 01       		.uleb128 0x1
 6501 168c 50       		.byte	0x50
 6502 168d 05       		.uleb128 0x5
 6503 168e 03       		.byte	0x3
 6504 168f 00000000 		.4byte	ultrasonic_echo
 6505 1693 00       		.byte	0
 6506 1694 08       		.uleb128 0x8
 6507 1695 9C000000 		.4byte	.LVL438
 6508 1699 0B1F0000 		.4byte	0x1f0b
 6509 169d 09       		.uleb128 0x9
 6510 169e A2000000 		.4byte	.LVL439
 6511 16a2 161F0000 		.4byte	0x1f16
 6512 16a6 B4160000 		.4byte	0x16b4
 6513 16aa 0A       		.uleb128 0xa
 6514 16ab 01       		.uleb128 0x1
 6515 16ac 50       		.byte	0x50
 6516 16ad 05       		.uleb128 0x5
 6517 16ae 03       		.byte	0x3
 6518 16af 00000000 		.4byte	Bluetooth
 6519 16b3 00       		.byte	0
 6520 16b4 09       		.uleb128 0x9
 6521 16b5 A8000000 		.4byte	.LVL440
 6522 16b9 871E0000 		.4byte	0x1e87
 6523 16bd C7160000 		.4byte	0x16c7
 6524 16c1 0A       		.uleb128 0xa
ARM GAS  C:\Users\weiro\AppData\Local\Temp\ccpp9Q4b.s 			page 134


 6525 16c2 01       		.uleb128 0x1
 6526 16c3 50       		.byte	0x50
 6527 16c4 01       		.uleb128 0x1
 6528 16c5 30       		.byte	0x30
 6529 16c6 00       		.byte	0
 6530 16c7 09       		.uleb128 0x9
 6531 16c8 AE000000 		.4byte	.LVL441
 6532 16cc C11D0000 		.4byte	0x1dc1
 6533 16d0 DA160000 		.4byte	0x16da
 6534 16d4 0A       		.uleb128 0xa
 6535 16d5 01       		.uleb128 0x1
 6536 16d6 50       		.byte	0x50
 6537 16d7 01       		.uleb128 0x1
 6538 16d8 30       		.byte	0x30
 6539 16d9 00       		.byte	0
 6540 16da 08       		.uleb128 0x8
 6541 16db B2000000 		.4byte	.LVL442
 6542 16df 211F0000 		.4byte	0x1f21
 6543 16e3 08       		.uleb128 0x8
 6544 16e4 B6000000 		.4byte	.LVL443
 6545 16e8 2C1F0000 		.4byte	0x1f2c
 6546 16ec 08       		.uleb128 0x8
 6547 16ed BA000000 		.4byte	.LVL444
 6548 16f1 371F0000 		.4byte	0x1f37
 6549 16f5 08       		.uleb128 0x8
 6550 16f6 BE000000 		.4byte	.LVL445
 6551 16fa 421F0000 		.4byte	0x1f42
 6552 16fe 09       		.uleb128 0x9
 6553 16ff C4000000 		.4byte	.LVL446
 6554 1703 8A1D0000 		.4byte	0x1d8a
 6555 1707 11170000 		.4byte	0x1711
 6556 170b 0A       		.uleb128 0xa
 6557 170c 01       		.uleb128 0x1
 6558 170d 50       		.byte	0x50
 6559 170e 01       		.uleb128 0x1
 6560 170f 30       		.byte	0x30
 6561 1710 00       		.byte	0
 6562 1711 08       		.uleb128 0x8
 6563 1712 C8000000 		.4byte	.LVL447
 6564 1716 4D1F0000 		.4byte	0x1f4d
 6565 171a 09       		.uleb128 0x9
 6566 171b CE000000 		.4byte	.LVL448
 6567 171f 951D0000 		.4byte	0x1d95
 6568 1723 2D170000 		.4byte	0x172d
 6569 1727 0A       		.uleb128 0xa
 6570 1728 01       		.uleb128 0x1
 6571 1729 50       		.byte	0x50
 6572 172a 01       		.uleb128 0x1
 6573 172b 30       		.byte	0x30
 6574 172c 00       		.byte	0
 6575 172d 08       		.uleb128 0x8
 6576 172e D2000000 		.4byte	.LVL449
 6577 1732 581F0000 		.4byte	0x1f58
 6578 1736 09       		.uleb128 0x9
 6579 1737 D8000000 		.4byte	.LVL450
 6580 173b 0E1E0000 		.4byte	0x1e0e
 6581 173f 49170000 		.4byte	0x1749
ARM GAS  C:\Users\weiro\AppData\Local\Temp\ccpp9Q4b.s 			page 135


 6582 1743 0A       		.uleb128 0xa
 6583 1744 01       		.uleb128 0x1
 6584 1745 50       		.byte	0x50
 6585 1746 01       		.uleb128 0x1
 6586 1747 30       		.byte	0x30
 6587 1748 00       		.byte	0
 6588 1749 08       		.uleb128 0x8
 6589 174a DC000000 		.4byte	.LVL451
 6590 174e 631F0000 		.4byte	0x1f63
 6591 1752 08       		.uleb128 0x8
 6592 1753 E0000000 		.4byte	.LVL452
 6593 1757 6E1F0000 		.4byte	0x1f6e
 6594 175b 09       		.uleb128 0x9
 6595 175c E6000000 		.4byte	.LVL453
 6596 1760 791F0000 		.4byte	0x1f79
 6597 1764 72170000 		.4byte	0x1772
 6598 1768 0A       		.uleb128 0xa
 6599 1769 01       		.uleb128 0x1
 6600 176a 50       		.byte	0x50
 6601 176b 05       		.uleb128 0x5
 6602 176c 03       		.byte	0x3
 6603 176d 00000000 		.4byte	Gyroscope
 6604 1771 00       		.byte	0
 6605 1772 08       		.uleb128 0x8
 6606 1773 EA000000 		.4byte	.LVL454
 6607 1777 34100000 		.4byte	0x1034
 6608 177b 08       		.uleb128 0x8
 6609 177c F8000000 		.4byte	.LVL455
 6610 1780 841F0000 		.4byte	0x1f84
 6611 1784 08       		.uleb128 0x8
 6612 1785 06010000 		.4byte	.LVL457
 6613 1789 ED1D0000 		.4byte	0x1ded
 6614 178d 08       		.uleb128 0x8
 6615 178e 14010000 		.4byte	.LVL459
 6616 1792 C41C0000 		.4byte	0x1cc4
 6617 1796 08       		.uleb128 0x8
 6618 1797 18010000 		.4byte	.LVL460
 6619 179b 8F1F0000 		.4byte	0x1f8f
 6620 179f 09       		.uleb128 0x9
 6621 17a0 24010000 		.4byte	.LVL461
 6622 17a4 3D1D0000 		.4byte	0x1d3d
 6623 17a8 B4170000 		.4byte	0x17b4
 6624 17ac 0A       		.uleb128 0xa
 6625 17ad 01       		.uleb128 0x1
 6626 17ae 50       		.byte	0x50
 6627 17af 03       		.uleb128 0x3
 6628 17b0 0A       		.byte	0xa
 6629 17b1 E803     		.2byte	0x3e8
 6630 17b3 00       		.byte	0
 6631 17b4 08       		.uleb128 0x8
 6632 17b5 28010000 		.4byte	.LVL462
 6633 17b9 C7050000 		.4byte	0x5c7
 6634 17bd 09       		.uleb128 0x9
 6635 17be 30010000 		.4byte	.LVL463
 6636 17c2 3D1D0000 		.4byte	0x1d3d
 6637 17c6 D2170000 		.4byte	0x17d2
 6638 17ca 0A       		.uleb128 0xa
ARM GAS  C:\Users\weiro\AppData\Local\Temp\ccpp9Q4b.s 			page 136


 6639 17cb 01       		.uleb128 0x1
 6640 17cc 50       		.byte	0x50
 6641 17cd 03       		.uleb128 0x3
 6642 17ce 0A       		.byte	0xa
 6643 17cf 1027     		.2byte	0x2710
 6644 17d1 00       		.byte	0
 6645 17d2 08       		.uleb128 0x8
 6646 17d3 34010000 		.4byte	.LVL464
 6647 17d7 010A0000 		.4byte	0xa01
 6648 17db 00       		.byte	0
 6649 17dc 1C       		.uleb128 0x1c
 6650 17dd 6B070000 		.4byte	.LASF62
 6651 17e1 05       		.byte	0x5
 6652 17e2 1207     		.2byte	0x712
 6653 17e4 E8170000 		.4byte	0x17e8
 6654 17e8 1D       		.uleb128 0x1d
 6655 17e9 7D000000 		.4byte	0x7d
 6656 17ed 1E       		.uleb128 0x1e
 6657 17ee EE000000 		.4byte	.LASF63
 6658 17f2 01       		.byte	0x1
 6659 17f3 15       		.byte	0x15
 6660 17f4 6F000000 		.4byte	0x6f
 6661 17f8 05       		.uleb128 0x5
 6662 17f9 03       		.byte	0x3
 6663 17fa 00000000 		.4byte	initial
 6664 17fe 1E       		.uleb128 0x1e
 6665 17ff F1060000 		.4byte	.LASF64
 6666 1803 01       		.byte	0x1
 6667 1804 16       		.byte	0x16
 6668 1805 25000000 		.4byte	0x25
 6669 1809 05       		.uleb128 0x5
 6670 180a 03       		.byte	0x3
 6671 180b 00000000 		.4byte	WHEEL_DIAMETER
 6672 180f 1E       		.uleb128 0x1e
 6673 1810 F3010000 		.4byte	.LASF65
 6674 1814 01       		.byte	0x1
 6675 1815 17       		.byte	0x17
 6676 1816 25000000 		.4byte	0x25
 6677 181a 05       		.uleb128 0x5
 6678 181b 03       		.byte	0x3
 6679 181c 00000000 		.4byte	WHEEL_CIRCUMFERENCE
 6680 1820 1E       		.uleb128 0x1e
 6681 1821 CB000000 		.4byte	.LASF66
 6682 1825 01       		.byte	0x1
 6683 1826 18       		.byte	0x18
 6684 1827 6F000000 		.4byte	0x6f
 6685 182b 05       		.uleb128 0x5
 6686 182c 03       		.byte	0x3
 6687 182d 00000000 		.4byte	CS_count_Red
 6688 1831 1E       		.uleb128 0x1e
 6689 1832 DD010000 		.4byte	.LASF67
 6690 1836 01       		.byte	0x1
 6691 1837 19       		.byte	0x19
 6692 1838 6F000000 		.4byte	0x6f
 6693 183c 05       		.uleb128 0x5
 6694 183d 03       		.byte	0x3
 6695 183e 00000000 		.4byte	CS_count_Blue
ARM GAS  C:\Users\weiro\AppData\Local\Temp\ccpp9Q4b.s 			page 137


 6696 1842 1E       		.uleb128 0x1e
 6697 1843 B9010000 		.4byte	.LASF68
 6698 1847 01       		.byte	0x1
 6699 1848 1A       		.byte	0x1a
 6700 1849 6F000000 		.4byte	0x6f
 6701 184d 05       		.uleb128 0x5
 6702 184e 03       		.byte	0x3
 6703 184f 00000000 		.4byte	CS_count_Green
 6704 1853 1E       		.uleb128 0x1e
 6705 1854 FC030000 		.4byte	.LASF69
 6706 1858 01       		.byte	0x1
 6707 1859 1B       		.byte	0x1b
 6708 185a 25000000 		.4byte	0x25
 6709 185e 05       		.uleb128 0x5
 6710 185f 03       		.byte	0x3
 6711 1860 00000000 		.4byte	COUNT_WHEEL
 6712 1864 1E       		.uleb128 0x1e
 6713 1865 41000000 		.4byte	.LASF70
 6714 1869 01       		.byte	0x1
 6715 186a 1C       		.byte	0x1c
 6716 186b 25000000 		.4byte	0x25
 6717 186f 05       		.uleb128 0x5
 6718 1870 03       		.byte	0x3
 6719 1871 00000000 		.4byte	CM_COUNT_CONV
 6720 1875 1E       		.uleb128 0x1e
 6721 1876 E1050000 		.4byte	.LASF71
 6722 187a 01       		.byte	0x1
 6723 187b 1D       		.byte	0x1d
 6724 187c 25000000 		.4byte	0x25
 6725 1880 05       		.uleb128 0x5
 6726 1881 03       		.byte	0x3
 6727 1882 00000000 		.4byte	DISTANCE_BETW_WHEEL
 6728 1886 1E       		.uleb128 0x1e
 6729 1887 52020000 		.4byte	.LASF72
 6730 188b 01       		.byte	0x1
 6731 188c 1E       		.byte	0x1e
 6732 188d 25000000 		.4byte	0x25
 6733 1891 05       		.uleb128 0x5
 6734 1892 03       		.byte	0x3
 6735 1893 00000000 		.4byte	DISTANCE_PT_TURN
 6736 1897 1E       		.uleb128 0x1e
 6737 1898 92020000 		.4byte	.LASF43
 6738 189c 01       		.byte	0x1
 6739 189d 1F       		.byte	0x1f
 6740 189e 25000000 		.4byte	0x25
 6741 18a2 05       		.uleb128 0x5
 6742 18a3 03       		.byte	0x3
 6743 18a4 00000000 		.4byte	PT_TURN_COUNT
 6744 18a8 1E       		.uleb128 0x1e
 6745 18a9 28080000 		.4byte	.LASF73
 6746 18ad 01       		.byte	0x1
 6747 18ae 20       		.byte	0x20
 6748 18af 6F000000 		.4byte	0x6f
 6749 18b3 05       		.uleb128 0x5
 6750 18b4 03       		.byte	0x3
 6751 18b5 00000000 		.4byte	Count_Master
 6752 18b9 1E       		.uleb128 0x1e
ARM GAS  C:\Users\weiro\AppData\Local\Temp\ccpp9Q4b.s 			page 138


 6753 18ba 12070000 		.4byte	.LASF74
 6754 18be 01       		.byte	0x1
 6755 18bf 21       		.byte	0x21
 6756 18c0 6F000000 		.4byte	0x6f
 6757 18c4 05       		.uleb128 0x5
 6758 18c5 03       		.byte	0x3
 6759 18c6 00000000 		.4byte	Count_Slave
 6760 18ca 1F       		.uleb128 0x1f
 6761 18cb A7000000 		.4byte	0xa7
 6762 18cf DA180000 		.4byte	0x18da
 6763 18d3 20       		.uleb128 0x20
 6764 18d4 B5000000 		.4byte	0xb5
 6765 18d8 C7       		.byte	0xc7
 6766 18d9 00       		.byte	0
 6767 18da 1E       		.uleb128 0x1e
 6768 18db BB0A0000 		.4byte	.LASF75
 6769 18df 01       		.byte	0x1
 6770 18e0 22       		.byte	0x22
 6771 18e1 CA180000 		.4byte	0x18ca
 6772 18e5 05       		.uleb128 0x5
 6773 18e6 03       		.byte	0x3
 6774 18e7 00000000 		.4byte	string_1
 6775 18eb 1E       		.uleb128 0x1e
 6776 18ec C40A0000 		.4byte	.LASF76
 6777 18f0 01       		.byte	0x1
 6778 18f1 23       		.byte	0x23
 6779 18f2 CA180000 		.4byte	0x18ca
 6780 18f6 05       		.uleb128 0x5
 6781 18f7 03       		.byte	0x3
 6782 18f8 00000000 		.4byte	string_2
 6783 18fc 1E       		.uleb128 0x1e
 6784 18fd CD0A0000 		.4byte	.LASF77
 6785 1901 01       		.byte	0x1
 6786 1902 24       		.byte	0x24
 6787 1903 CA180000 		.4byte	0x18ca
 6788 1907 05       		.uleb128 0x5
 6789 1908 03       		.byte	0x3
 6790 1909 00000000 		.4byte	string_3
 6791 190d 1E       		.uleb128 0x1e
 6792 190e A0010000 		.4byte	.LASF78
 6793 1912 01       		.byte	0x1
 6794 1913 25       		.byte	0x25
 6795 1914 25000000 		.4byte	0x25
 6796 1918 05       		.uleb128 0x5
 6797 1919 03       		.byte	0x3
 6798 191a 00000000 		.4byte	error
 6799 191e 1E       		.uleb128 0x1e
 6800 191f EA030000 		.4byte	.LASF79
 6801 1923 01       		.byte	0x1
 6802 1924 26       		.byte	0x26
 6803 1925 25000000 		.4byte	0x25
 6804 1929 05       		.uleb128 0x5
 6805 192a 03       		.byte	0x3
 6806 192b 00000000 		.4byte	accumulated_error
 6807 192f 1E       		.uleb128 0x1e
 6808 1930 C6080000 		.4byte	.LASF80
 6809 1934 01       		.byte	0x1
ARM GAS  C:\Users\weiro\AppData\Local\Temp\ccpp9Q4b.s 			page 139


 6810 1935 27       		.byte	0x27
 6811 1936 25000000 		.4byte	0x25
 6812 193a 05       		.uleb128 0x5
 6813 193b 03       		.byte	0x3
 6814 193c 00000000 		.4byte	last_error
 6815 1940 1E       		.uleb128 0x1e
 6816 1941 9E080000 		.4byte	.LASF81
 6817 1945 01       		.byte	0x1
 6818 1946 28       		.byte	0x28
 6819 1947 25000000 		.4byte	0x25
 6820 194b 05       		.uleb128 0x5
 6821 194c 03       		.byte	0x3
 6822 194d 00000000 		.4byte	derivative_error
 6823 1951 1E       		.uleb128 0x1e
 6824 1952 49010000 		.4byte	.LASF82
 6825 1956 01       		.byte	0x1
 6826 1957 29       		.byte	0x29
 6827 1958 25000000 		.4byte	0x25
 6828 195c 05       		.uleb128 0x5
 6829 195d 03       		.byte	0x3
 6830 195e 00000000 		.4byte	timer_period
 6831 1962 21       		.uleb128 0x21
 6832 1963 4B5F7000 		.ascii	"K_p\000"
 6833 1967 01       		.byte	0x1
 6834 1968 2A       		.byte	0x2a
 6835 1969 25000000 		.4byte	0x25
 6836 196d 05       		.uleb128 0x5
 6837 196e 03       		.byte	0x3
 6838 196f 00000000 		.4byte	K_p
 6839 1973 21       		.uleb128 0x21
 6840 1974 4B5F6900 		.ascii	"K_i\000"
 6841 1978 01       		.byte	0x1
 6842 1979 2B       		.byte	0x2b
 6843 197a 25000000 		.4byte	0x25
 6844 197e 05       		.uleb128 0x5
 6845 197f 03       		.byte	0x3
 6846 1980 00000000 		.4byte	K_i
 6847 1984 21       		.uleb128 0x21
 6848 1985 4B5F6400 		.ascii	"K_d\000"
 6849 1989 01       		.byte	0x1
 6850 198a 2C       		.byte	0x2c
 6851 198b 25000000 		.4byte	0x25
 6852 198f 05       		.uleb128 0x5
 6853 1990 03       		.byte	0x3
 6854 1991 00000000 		.4byte	K_d
 6855 1995 1E       		.uleb128 0x1e
 6856 1996 1B000000 		.4byte	.LASF83
 6857 199a 01       		.byte	0x1
 6858 199b 2D       		.byte	0x2d
 6859 199c A0000000 		.4byte	0xa0
 6860 19a0 05       		.uleb128 0x5
 6861 19a1 03       		.byte	0x3
 6862 19a2 00000000 		.4byte	PWM_Master
 6863 19a6 1E       		.uleb128 0x1e
 6864 19a7 3D090000 		.4byte	.LASF84
 6865 19ab 01       		.byte	0x1
 6866 19ac 2E       		.byte	0x2e
ARM GAS  C:\Users\weiro\AppData\Local\Temp\ccpp9Q4b.s 			page 140


 6867 19ad A0000000 		.4byte	0xa0
 6868 19b1 05       		.uleb128 0x5
 6869 19b2 03       		.byte	0x3
 6870 19b3 00000000 		.4byte	PWM_Cal
 6871 19b7 1E       		.uleb128 0x1e
 6872 19b8 53090000 		.4byte	.LASF85
 6873 19bc 01       		.byte	0x1
 6874 19bd 30       		.byte	0x30
 6875 19be A0000000 		.4byte	0xa0
 6876 19c2 05       		.uleb128 0x5
 6877 19c3 03       		.byte	0x3
 6878 19c4 00000000 		.4byte	PWM_Slave
 6879 19c8 1E       		.uleb128 0x1e
 6880 19c9 D5070000 		.4byte	.LASF86
 6881 19cd 01       		.byte	0x1
 6882 19ce 31       		.byte	0x31
 6883 19cf A0000000 		.4byte	0xa0
 6884 19d3 05       		.uleb128 0x5
 6885 19d4 03       		.byte	0x3
 6886 19d5 00000000 		.4byte	PWM_Master_puck
 6887 19d9 1E       		.uleb128 0x1e
 6888 19da 7A090000 		.4byte	.LASF87
 6889 19de 01       		.byte	0x1
 6890 19df 32       		.byte	0x32
 6891 19e0 A0000000 		.4byte	0xa0
 6892 19e4 05       		.uleb128 0x5
 6893 19e5 03       		.byte	0x3
 6894 19e6 00000000 		.4byte	PWM_Slave_puck
 6895 19ea 1E       		.uleb128 0x1e
 6896 19eb 00030000 		.4byte	.LASF88
 6897 19ef 01       		.byte	0x1
 6898 19f0 33       		.byte	0x33
 6899 19f1 6F000000 		.4byte	0x6f
 6900 19f5 05       		.uleb128 0x5
 6901 19f6 03       		.byte	0x3
 6902 19f7 00000000 		.4byte	is_moving
 6903 19fb 1E       		.uleb128 0x1e
 6904 19fc D60A0000 		.4byte	.LASF89
 6905 1a00 01       		.byte	0x1
 6906 1a01 34       		.byte	0x34
 6907 1a02 6F000000 		.4byte	0x6f
 6908 1a06 05       		.uleb128 0x5
 6909 1a07 03       		.byte	0x3
 6910 1a08 00000000 		.4byte	ultrasonic_count
 6911 1a0c 1E       		.uleb128 0x1e
 6912 1a0d 47050000 		.4byte	.LASF90
 6913 1a11 01       		.byte	0x1
 6914 1a12 35       		.byte	0x35
 6915 1a13 25000000 		.4byte	0x25
 6916 1a17 05       		.uleb128 0x5
 6917 1a18 03       		.byte	0x3
 6918 1a19 00000000 		.4byte	ultrasonic_measure
 6919 1a1d 1E       		.uleb128 0x1e
 6920 1a1e E5070000 		.4byte	.LASF91
 6921 1a22 01       		.byte	0x1
 6922 1a23 36       		.byte	0x36
 6923 1a24 25000000 		.4byte	0x25
ARM GAS  C:\Users\weiro\AppData\Local\Temp\ccpp9Q4b.s 			page 141


 6924 1a28 05       		.uleb128 0x5
 6925 1a29 03       		.byte	0x3
 6926 1a2a 00000000 		.4byte	front_measured_1
 6927 1a2e 1E       		.uleb128 0x1e
 6928 1a2f F6070000 		.4byte	.LASF92
 6929 1a33 01       		.byte	0x1
 6930 1a34 36       		.byte	0x36
 6931 1a35 25000000 		.4byte	0x25
 6932 1a39 05       		.uleb128 0x5
 6933 1a3a 03       		.byte	0x3
 6934 1a3b 00000000 		.4byte	front_measured_2
 6935 1a3f 1E       		.uleb128 0x1e
 6936 1a40 3A010000 		.4byte	.LASF93
 6937 1a44 01       		.byte	0x1
 6938 1a45 36       		.byte	0x36
 6939 1a46 25000000 		.4byte	0x25
 6940 1a4a 05       		.uleb128 0x5
 6941 1a4b 03       		.byte	0x3
 6942 1a4c 00000000 		.4byte	right_measured
 6943 1a50 1E       		.uleb128 0x1e
 6944 1a51 DC020000 		.4byte	.LASF94
 6945 1a55 01       		.byte	0x1
 6946 1a56 36       		.byte	0x36
 6947 1a57 25000000 		.4byte	0x25
 6948 1a5b 05       		.uleb128 0x5
 6949 1a5c 03       		.byte	0x3
 6950 1a5d 00000000 		.4byte	left_measured
 6951 1a61 1E       		.uleb128 0x1e
 6952 1a62 57080000 		.4byte	.LASF95
 6953 1a66 01       		.byte	0x1
 6954 1a67 37       		.byte	0x37
 6955 1a68 6F000000 		.4byte	0x6f
 6956 1a6c 05       		.uleb128 0x5
 6957 1a6d 03       		.byte	0x3
 6958 1a6e 00000000 		.4byte	echo_select
 6959 1a72 1E       		.uleb128 0x1e
 6960 1a73 45020000 		.4byte	.LASF96
 6961 1a77 01       		.byte	0x1
 6962 1a78 38       		.byte	0x38
 6963 1a79 25000000 		.4byte	0x25
 6964 1a7d 05       		.uleb128 0x5
 6965 1a7e 03       		.byte	0x3
 6966 1a7f 00000000 		.4byte	x_coord
 6967 1a83 1E       		.uleb128 0x1e
 6968 1a84 E9060000 		.4byte	.LASF97
 6969 1a88 01       		.byte	0x1
 6970 1a89 39       		.byte	0x39
 6971 1a8a 25000000 		.4byte	0x25
 6972 1a8e 05       		.uleb128 0x5
 6973 1a8f 03       		.byte	0x3
 6974 1a90 00000000 		.4byte	y_coord
 6975 1a94 1E       		.uleb128 0x1e
 6976 1a95 00000000 		.4byte	.LASF98
 6977 1a99 01       		.byte	0x1
 6978 1a9a 3A       		.byte	0x3a
 6979 1a9b 6F000000 		.4byte	0x6f
 6980 1a9f 05       		.uleb128 0x5
ARM GAS  C:\Users\weiro\AppData\Local\Temp\ccpp9Q4b.s 			page 142


 6981 1aa0 03       		.byte	0x3
 6982 1aa1 00000000 		.4byte	direction
 6983 1aa5 1E       		.uleb128 0x1e
 6984 1aa6 48060000 		.4byte	.LASF99
 6985 1aaa 01       		.byte	0x1
 6986 1aab 3B       		.byte	0x3b
 6987 1aac 6F000000 		.4byte	0x6f
 6988 1ab0 05       		.uleb128 0x5
 6989 1ab1 03       		.byte	0x3
 6990 1ab2 00000000 		.4byte	step
 6991 1ab6 1E       		.uleb128 0x1e
 6992 1ab7 7A060000 		.4byte	.LASF100
 6993 1abb 01       		.byte	0x1
 6994 1abc 3C       		.byte	0x3c
 6995 1abd 6F000000 		.4byte	0x6f
 6996 1ac1 05       		.uleb128 0x5
 6997 1ac2 03       		.byte	0x3
 6998 1ac3 00000000 		.4byte	compare_ready
 6999 1ac7 1E       		.uleb128 0x1e
 7000 1ac8 5D090000 		.4byte	.LASF101
 7001 1acc 01       		.byte	0x1
 7002 1acd 3D       		.byte	0x3d
 7003 1ace 6F000000 		.4byte	0x6f
 7004 1ad2 05       		.uleb128 0x5
 7005 1ad3 03       		.byte	0x3
 7006 1ad4 00000000 		.4byte	color_detected
 7007 1ad8 1E       		.uleb128 0x1e
 7008 1ad9 1E0B0000 		.4byte	.LASF102
 7009 1add 01       		.byte	0x1
 7010 1ade 3E       		.byte	0x3e
 7011 1adf 6F000000 		.4byte	0x6f
 7012 1ae3 05       		.uleb128 0x5
 7013 1ae4 03       		.byte	0x3
 7014 1ae5 00000000 		.4byte	wall_detected_10
 7015 1ae9 1E       		.uleb128 0x1e
 7016 1aea AB010000 		.4byte	.LASF103
 7017 1aee 01       		.byte	0x1
 7018 1aef 3F       		.byte	0x3f
 7019 1af0 6F000000 		.4byte	0x6f
 7020 1af4 05       		.uleb128 0x5
 7021 1af5 03       		.byte	0x3
 7022 1af6 00000000 		.4byte	slit_detected
 7023 1afa 1E       		.uleb128 0x1e
 7024 1afb 0A000000 		.4byte	.LASF104
 7025 1aff 01       		.byte	0x1
 7026 1b00 40       		.byte	0x40
 7027 1b01 6F000000 		.4byte	0x6f
 7028 1b05 05       		.uleb128 0x5
 7029 1b06 03       		.byte	0x3
 7030 1b07 00000000 		.4byte	down_big
 7031 1b0b 1E       		.uleb128 0x1e
 7032 1b0c B40A0000 		.4byte	.LASF105
 7033 1b10 01       		.byte	0x1
 7034 1b11 41       		.byte	0x41
 7035 1b12 6F000000 		.4byte	0x6f
 7036 1b16 05       		.uleb128 0x5
 7037 1b17 03       		.byte	0x3
ARM GAS  C:\Users\weiro\AppData\Local\Temp\ccpp9Q4b.s 			page 143


 7038 1b18 00000000 		.4byte	up_big
 7039 1b1c 1E       		.uleb128 0x1e
 7040 1b1d 1D080000 		.4byte	.LASF106
 7041 1b21 01       		.byte	0x1
 7042 1b22 42       		.byte	0x42
 7043 1b23 6F000000 		.4byte	0x6f
 7044 1b27 05       		.uleb128 0x5
 7045 1b28 03       		.byte	0x3
 7046 1b29 00000000 		.4byte	open_small
 7047 1b2d 1E       		.uleb128 0x1e
 7048 1b2e 86020000 		.4byte	.LASF107
 7049 1b32 01       		.byte	0x1
 7050 1b33 43       		.byte	0x43
 7051 1b34 6F000000 		.4byte	0x6f
 7052 1b38 05       		.uleb128 0x5
 7053 1b39 03       		.byte	0x3
 7054 1b3a 00000000 		.4byte	close_small
 7055 1b3e 21       		.uleb128 0x21
 7056 1b3f 527800   		.ascii	"Rx\000"
 7057 1b42 01       		.byte	0x1
 7058 1b43 45       		.byte	0x45
 7059 1b44 A7000000 		.4byte	0xa7
 7060 1b48 05       		.uleb128 0x5
 7061 1b49 03       		.byte	0x3
 7062 1b4a 00000000 		.4byte	Rx
 7063 1b4e 21       		.uleb128 0x21
 7064 1b4f 6900     		.ascii	"i\000"
 7065 1b51 01       		.byte	0x1
 7066 1b52 46       		.byte	0x46
 7067 1b53 6F000000 		.4byte	0x6f
 7068 1b57 05       		.uleb128 0x5
 7069 1b58 03       		.byte	0x3
 7070 1b59 00000000 		.4byte	i
 7071 1b5d 1E       		.uleb128 0x1e
 7072 1b5e C2060000 		.4byte	.LASF108
 7073 1b62 01       		.byte	0x1
 7074 1b63 47       		.byte	0x47
 7075 1b64 CA180000 		.4byte	0x18ca
 7076 1b68 05       		.uleb128 0x5
 7077 1b69 03       		.byte	0x3
 7078 1b6a 00000000 		.4byte	string_bt
 7079 1b6e 1E       		.uleb128 0x1e
 7080 1b6f E70A0000 		.4byte	.LASF109
 7081 1b73 01       		.byte	0x1
 7082 1b74 48       		.byte	0x48
 7083 1b75 6F000000 		.4byte	0x6f
 7084 1b79 05       		.uleb128 0x5
 7085 1b7a 03       		.byte	0x3
 7086 1b7b 00000000 		.4byte	stop_bt
 7087 1b7f 1E       		.uleb128 0x1e
 7088 1b80 EF0A0000 		.4byte	.LASF110
 7089 1b84 01       		.byte	0x1
 7090 1b85 49       		.byte	0x49
 7091 1b86 BC000000 		.4byte	0xbc
 7092 1b8a 05       		.uleb128 0x5
 7093 1b8b 03       		.byte	0x3
 7094 1b8c 00000000 		.4byte	tokenPtr
ARM GAS  C:\Users\weiro\AppData\Local\Temp\ccpp9Q4b.s 			page 144


 7095 1b90 1F       		.uleb128 0x1f
 7096 1b91 A7000000 		.4byte	0xa7
 7097 1b95 A61B0000 		.4byte	0x1ba6
 7098 1b99 20       		.uleb128 0x20
 7099 1b9a B5000000 		.4byte	0xb5
 7100 1b9e 02       		.byte	0x2
 7101 1b9f 20       		.uleb128 0x20
 7102 1ba0 B5000000 		.4byte	0xb5
 7103 1ba4 13       		.byte	0x13
 7104 1ba5 00       		.byte	0
 7105 1ba6 1E       		.uleb128 0x1e
 7106 1ba7 CD090000 		.4byte	.LASF111
 7107 1bab 01       		.byte	0x1
 7108 1bac 4A       		.byte	0x4a
 7109 1bad 901B0000 		.4byte	0x1b90
 7110 1bb1 05       		.uleb128 0x5
 7111 1bb2 03       		.byte	0x3
 7112 1bb3 00000000 		.4byte	task_info
 7113 1bb7 21       		.uleb128 0x21
 7114 1bb8 6A00     		.ascii	"j\000"
 7115 1bba 01       		.byte	0x1
 7116 1bbb 4B       		.byte	0x4b
 7117 1bbc 6F000000 		.4byte	0x6f
 7118 1bc0 05       		.uleb128 0x5
 7119 1bc1 03       		.byte	0x3
 7120 1bc2 00000000 		.4byte	j
 7121 1bc6 1F       		.uleb128 0x1f
 7122 1bc7 88000000 		.4byte	0x88
 7123 1bcb D61B0000 		.4byte	0x1bd6
 7124 1bcf 20       		.uleb128 0x20
 7125 1bd0 B5000000 		.4byte	0xb5
 7126 1bd4 05       		.byte	0x5
 7127 1bd5 00       		.byte	0
 7128 1bd6 1E       		.uleb128 0x1e
 7129 1bd7 E6000000 		.4byte	.LASF112
 7130 1bdb 01       		.byte	0x1
 7131 1bdc 4D       		.byte	0x4d
 7132 1bdd C61B0000 		.4byte	0x1bc6
 7133 1be1 05       		.uleb128 0x5
 7134 1be2 03       		.byte	0x3
 7135 1be3 00000000 		.4byte	array_1
 7136 1be7 1E       		.uleb128 0x1e
 7137 1be8 B6070000 		.4byte	.LASF113
 7138 1bec 01       		.byte	0x1
 7139 1bed 4E       		.byte	0x4e
 7140 1bee 94000000 		.4byte	0x94
 7141 1bf2 05       		.uleb128 0x5
 7142 1bf3 03       		.byte	0x3
 7143 1bf4 00000000 		.4byte	temp
 7144 1bf8 1E       		.uleb128 0x1e
 7145 1bf9 E4040000 		.4byte	.LASF114
 7146 1bfd 01       		.byte	0x1
 7147 1bfe 4F       		.byte	0x4f
 7148 1bff 25000000 		.4byte	0x25
 7149 1c03 05       		.uleb128 0x5
 7150 1c04 03       		.byte	0x3
 7151 1c05 00000000 		.4byte	yaw_rate
ARM GAS  C:\Users\weiro\AppData\Local\Temp\ccpp9Q4b.s 			page 145


 7152 1c09 1E       		.uleb128 0x1e
 7153 1c0a 62060000 		.4byte	.LASF115
 7154 1c0e 01       		.byte	0x1
 7155 1c0f 50       		.byte	0x50
 7156 1c10 25000000 		.4byte	0x25
 7157 1c14 05       		.uleb128 0x5
 7158 1c15 03       		.byte	0x3
 7159 1c16 00000000 		.4byte	yaw_angle
 7160 1c1a 1E       		.uleb128 0x1e
 7161 1c1b 3C0B0000 		.4byte	.LASF116
 7162 1c1f 01       		.byte	0x1
 7163 1c20 51       		.byte	0x51
 7164 1c21 25000000 		.4byte	0x25
 7165 1c25 05       		.uleb128 0x5
 7166 1c26 03       		.byte	0x3
 7167 1c27 00000000 		.4byte	previous_reading
 7168 1c2b 1E       		.uleb128 0x1e
 7169 1c2c 4C030000 		.4byte	.LASF117
 7170 1c30 01       		.byte	0x1
 7171 1c31 52       		.byte	0x52
 7172 1c32 25000000 		.4byte	0x25
 7173 1c36 05       		.uleb128 0x5
 7174 1c37 03       		.byte	0x3
 7175 1c38 00000000 		.4byte	current_reading
 7176 1c3c 1E       		.uleb128 0x1e
 7177 1c3d 9E050000 		.4byte	.LASF118
 7178 1c41 01       		.byte	0x1
 7179 1c42 53       		.byte	0x53
 7180 1c43 25000000 		.4byte	0x25
 7181 1c47 05       		.uleb128 0x5
 7182 1c48 03       		.byte	0x3
 7183 1c49 00000000 		.4byte	heading
 7184 1c4d 1E       		.uleb128 0x1e
 7185 1c4e 26000000 		.4byte	.LASF119
 7186 1c52 01       		.byte	0x1
 7187 1c53 54       		.byte	0x54
 7188 1c54 6F000000 		.4byte	0x6f
 7189 1c58 05       		.uleb128 0x5
 7190 1c59 03       		.byte	0x3
 7191 1c5a 00000000 		.4byte	cycles
 7192 1c5e 1E       		.uleb128 0x1e
 7193 1c5f 020A0000 		.4byte	.LASF120
 7194 1c63 01       		.byte	0x1
 7195 1c64 55       		.byte	0x55
 7196 1c65 CA180000 		.4byte	0x18ca
 7197 1c69 05       		.uleb128 0x5
 7198 1c6a 03       		.byte	0x3
 7199 1c6b 00000000 		.4byte	string_gyro
 7200 1c6f 21       		.uleb128 0x21
 7201 1c70 63616C00 		.ascii	"cal\000"
 7202 1c74 01       		.byte	0x1
 7203 1c75 56       		.byte	0x56
 7204 1c76 6F000000 		.4byte	0x6f
 7205 1c7a 05       		.uleb128 0x5
 7206 1c7b 03       		.byte	0x3
 7207 1c7c 00000000 		.4byte	cal
 7208 1c80 1E       		.uleb128 0x1e
ARM GAS  C:\Users\weiro\AppData\Local\Temp\ccpp9Q4b.s 			page 146


 7209 1c81 80020000 		.4byte	.LASF121
 7210 1c85 01       		.byte	0x1
 7211 1c86 57       		.byte	0x57
 7212 1c87 6F000000 		.4byte	0x6f
 7213 1c8b 05       		.uleb128 0x5
 7214 1c8c 03       		.byte	0x3
 7215 1c8d 00000000 		.4byte	count
 7216 1c91 1E       		.uleb128 0x1e
 7217 1c92 11010000 		.4byte	.LASF122
 7218 1c96 01       		.byte	0x1
 7219 1c97 58       		.byte	0x58
 7220 1c98 94000000 		.4byte	0x94
 7221 1c9c 05       		.uleb128 0x5
 7222 1c9d 03       		.byte	0x3
 7223 1c9e 00000000 		.4byte	error_gyro
 7224 1ca2 1E       		.uleb128 0x1e
 7225 1ca3 81010000 		.4byte	.LASF123
 7226 1ca7 01       		.byte	0x1
 7227 1ca8 59       		.byte	0x59
 7228 1ca9 94000000 		.4byte	0x94
 7229 1cad 05       		.uleb128 0x5
 7230 1cae 03       		.byte	0x3
 7231 1caf 00000000 		.4byte	error_gyro_avg
 7232 1cb3 1E       		.uleb128 0x1e
 7233 1cb4 210A0000 		.4byte	.LASF124
 7234 1cb8 01       		.byte	0x1
 7235 1cb9 5A       		.byte	0x5a
 7236 1cba 25000000 		.4byte	0x25
 7237 1cbe 05       		.uleb128 0x5
 7238 1cbf 03       		.byte	0x3
 7239 1cc0 00000000 		.4byte	threshold
 7240 1cc4 22       		.uleb128 0x22
 7241 1cc5 1C090000 		.4byte	.LASF125
 7242 1cc9 1C090000 		.4byte	.LASF125
 7243 1ccd 06       		.byte	0x6
 7244 1cce CA       		.byte	0xca
 7245 1ccf 22       		.uleb128 0x22
 7246 1cd0 56010000 		.4byte	.LASF126
 7247 1cd4 56010000 		.4byte	.LASF126
 7248 1cd8 07       		.byte	0x7
 7249 1cd9 5E       		.byte	0x5e
 7250 1cda 22       		.uleb128 0x22
 7251 1cdb 8A050000 		.4byte	.LASF127
 7252 1cdf 8A050000 		.4byte	.LASF127
 7253 1ce3 07       		.byte	0x7
 7254 1ce4 69       		.byte	0x69
 7255 1ce5 22       		.uleb128 0x22
 7256 1ce6 88060000 		.4byte	.LASF128
 7257 1cea 88060000 		.4byte	.LASF128
 7258 1cee 08       		.byte	0x8
 7259 1cef E7       		.byte	0xe7
 7260 1cf0 22       		.uleb128 0x22
 7261 1cf1 2A020000 		.4byte	.LASF129
 7262 1cf5 2A020000 		.4byte	.LASF129
 7263 1cf9 09       		.byte	0x9
 7264 1cfa 8B       		.byte	0x8b
 7265 1cfb 22       		.uleb128 0x22
ARM GAS  C:\Users\weiro\AppData\Local\Temp\ccpp9Q4b.s 			page 147


 7266 1cfc 00050000 		.4byte	.LASF130
 7267 1d00 00050000 		.4byte	.LASF130
 7268 1d04 0A       		.byte	0xa
 7269 1d05 97       		.byte	0x97
 7270 1d06 22       		.uleb128 0x22
 7271 1d07 050B0000 		.4byte	.LASF131
 7272 1d0b 050B0000 		.4byte	.LASF131
 7273 1d0f 0B       		.byte	0xb
 7274 1d10 71       		.byte	0x71
 7275 1d11 22       		.uleb128 0x22
 7276 1d12 AA020000 		.4byte	.LASF132
 7277 1d16 AA020000 		.4byte	.LASF132
 7278 1d1a 0C       		.byte	0xc
 7279 1d1b 5E       		.byte	0x5e
 7280 1d1c 22       		.uleb128 0x22
 7281 1d1d 42070000 		.4byte	.LASF133
 7282 1d21 42070000 		.4byte	.LASF133
 7283 1d25 0D       		.byte	0xd
 7284 1d26 B1       		.byte	0xb1
 7285 1d27 22       		.uleb128 0x22
 7286 1d28 EC090000 		.4byte	.LASF134
 7287 1d2c EC090000 		.4byte	.LASF134
 7288 1d30 0D       		.byte	0xd
 7289 1d31 B6       		.byte	0xb6
 7290 1d32 22       		.uleb128 0x22
 7291 1d33 07020000 		.4byte	.LASF135
 7292 1d37 07020000 		.4byte	.LASF135
 7293 1d3b 0D       		.byte	0xd
 7294 1d3c B5       		.byte	0xb5
 7295 1d3d 22       		.uleb128 0x22
 7296 1d3e 13000000 		.4byte	.LASF136
 7297 1d42 13000000 		.4byte	.LASF136
 7298 1d46 0E       		.byte	0xe
 7299 1d47 76       		.byte	0x76
 7300 1d48 22       		.uleb128 0x22
 7301 1d49 03060000 		.4byte	.LASF137
 7302 1d4d 03060000 		.4byte	.LASF137
 7303 1d51 0D       		.byte	0xd
 7304 1d52 B7       		.byte	0xb7
 7305 1d53 22       		.uleb128 0x22
 7306 1d54 2D040000 		.4byte	.LASF138
 7307 1d58 2D040000 		.4byte	.LASF138
 7308 1d5c 0B       		.byte	0xb
 7309 1d5d 8B       		.byte	0x8b
 7310 1d5e 22       		.uleb128 0x22
 7311 1d5f D1040000 		.4byte	.LASF139
 7312 1d63 D1040000 		.4byte	.LASF139
 7313 1d67 0F       		.byte	0xf
 7314 1d68 26       		.byte	0x26
 7315 1d69 22       		.uleb128 0x22
 7316 1d6a 9C090000 		.4byte	.LASF140
 7317 1d6e 9C090000 		.4byte	.LASF140
 7318 1d72 10       		.byte	0x10
 7319 1d73 26       		.byte	0x26
 7320 1d74 22       		.uleb128 0x22
 7321 1d75 89090000 		.4byte	.LASF141
 7322 1d79 89090000 		.4byte	.LASF141
ARM GAS  C:\Users\weiro\AppData\Local\Temp\ccpp9Q4b.s 			page 148


 7323 1d7d 11       		.byte	0x11
 7324 1d7e 26       		.byte	0x26
 7325 1d7f 22       		.uleb128 0x22
 7326 1d80 ED040000 		.4byte	.LASF142
 7327 1d84 ED040000 		.4byte	.LASF142
 7328 1d88 12       		.byte	0x12
 7329 1d89 26       		.byte	0x26
 7330 1d8a 22       		.uleb128 0x22
 7331 1d8b D7090000 		.4byte	.LASF143
 7332 1d8f D7090000 		.4byte	.LASF143
 7333 1d93 13       		.byte	0x13
 7334 1d94 4F       		.byte	0x4f
 7335 1d95 22       		.uleb128 0x22
 7336 1d96 B8090000 		.4byte	.LASF144
 7337 1d9a B8090000 		.4byte	.LASF144
 7338 1d9e 14       		.byte	0x14
 7339 1d9f 4F       		.byte	0x4f
 7340 1da0 22       		.uleb128 0x22
 7341 1da1 B6000000 		.4byte	.LASF145
 7342 1da5 B6000000 		.4byte	.LASF145
 7343 1da9 13       		.byte	0x13
 7344 1daa 4E       		.byte	0x4e
 7345 1dab 22       		.uleb128 0x22
 7346 1dac BC040000 		.4byte	.LASF146
 7347 1db0 BC040000 		.4byte	.LASF146
 7348 1db4 14       		.byte	0x14
 7349 1db5 4E       		.byte	0x4e
 7350 1db6 22       		.uleb128 0x22
 7351 1db7 2D000000 		.4byte	.LASF147
 7352 1dbb 2D000000 		.4byte	.LASF147
 7353 1dbf 15       		.byte	0x15
 7354 1dc0 2F       		.byte	0x2f
 7355 1dc1 22       		.uleb128 0x22
 7356 1dc2 13030000 		.4byte	.LASF148
 7357 1dc6 13030000 		.4byte	.LASF148
 7358 1dca 16       		.byte	0x16
 7359 1dcb 26       		.byte	0x26
 7360 1dcc 22       		.uleb128 0x22
 7361 1dcd A0020000 		.4byte	.LASF149
 7362 1dd1 A0020000 		.4byte	.LASF149
 7363 1dd5 0E       		.byte	0xe
 7364 1dd6 77       		.byte	0x77
 7365 1dd7 22       		.uleb128 0x22
 7366 1dd8 78070000 		.4byte	.LASF150
 7367 1ddc 78070000 		.4byte	.LASF150
 7368 1de0 17       		.byte	0x17
 7369 1de1 29       		.byte	0x29
 7370 1de2 22       		.uleb128 0x22
 7371 1de3 2C010000 		.4byte	.LASF151
 7372 1de7 2C010000 		.4byte	.LASF151
 7373 1deb 18       		.byte	0x18
 7374 1dec 29       		.byte	0x29
 7375 1ded 22       		.uleb128 0x22
 7376 1dee 03090000 		.4byte	.LASF152
 7377 1df2 03090000 		.4byte	.LASF152
 7378 1df6 06       		.byte	0x6
 7379 1df7 C7       		.byte	0xc7
ARM GAS  C:\Users\weiro\AppData\Local\Temp\ccpp9Q4b.s 			page 149


 7380 1df8 22       		.uleb128 0x22
 7381 1df9 CC070000 		.4byte	.LASF153
 7382 1dfd CC070000 		.4byte	.LASF153
 7383 1e01 19       		.byte	0x19
 7384 1e02 26       		.byte	0x26
 7385 1e03 22       		.uleb128 0x22
 7386 1e04 0A030000 		.4byte	.LASF154
 7387 1e08 0A030000 		.4byte	.LASF154
 7388 1e0c 1A       		.byte	0x1a
 7389 1e0d 26       		.byte	0x26
 7390 1e0e 22       		.uleb128 0x22
 7391 1e0f 78000000 		.4byte	.LASF155
 7392 1e13 78000000 		.4byte	.LASF155
 7393 1e17 1B       		.byte	0x1b
 7394 1e18 26       		.byte	0x26
 7395 1e19 22       		.uleb128 0x22
 7396 1e1a 93070000 		.4byte	.LASF156
 7397 1e1e 93070000 		.4byte	.LASF156
 7398 1e22 1C       		.byte	0x1c
 7399 1e23 4F       		.byte	0x4f
 7400 1e24 22       		.uleb128 0x22
 7401 1e25 AF090000 		.4byte	.LASF157
 7402 1e29 AF090000 		.4byte	.LASF157
 7403 1e2d 1D       		.byte	0x1d
 7404 1e2e 26       		.byte	0x26
 7405 1e2f 22       		.uleb128 0x22
 7406 1e30 23050000 		.4byte	.LASF158
 7407 1e34 23050000 		.4byte	.LASF158
 7408 1e38 1E       		.byte	0x1e
 7409 1e39 26       		.byte	0x26
 7410 1e3a 22       		.uleb128 0x22
 7411 1e3b 5A050000 		.4byte	.LASF159
 7412 1e3f 5A050000 		.4byte	.LASF159
 7413 1e43 1F       		.byte	0x1f
 7414 1e44 2F       		.byte	0x2f
 7415 1e45 22       		.uleb128 0x22
 7416 1e46 18060000 		.4byte	.LASF160
 7417 1e4a 18060000 		.4byte	.LASF160
 7418 1e4e 1C       		.byte	0x1c
 7419 1e4f 5E       		.byte	0x5e
 7420 1e50 22       		.uleb128 0x22
 7421 1e51 63080000 		.4byte	.LASF161
 7422 1e55 63080000 		.4byte	.LASF161
 7423 1e59 1C       		.byte	0x1c
 7424 1e5a 50       		.byte	0x50
 7425 1e5b 22       		.uleb128 0x22
 7426 1e5c 45090000 		.4byte	.LASF162
 7427 1e60 45090000 		.4byte	.LASF162
 7428 1e64 20       		.byte	0x20
 7429 1e65 26       		.byte	0x26
 7430 1e66 22       		.uleb128 0x22
 7431 1e67 90010000 		.4byte	.LASF163
 7432 1e6b 90010000 		.4byte	.LASF163
 7433 1e6f 21       		.byte	0x21
 7434 1e70 26       		.byte	0x26
 7435 1e71 22       		.uleb128 0x22
 7436 1e72 3D030000 		.4byte	.LASF164
ARM GAS  C:\Users\weiro\AppData\Local\Temp\ccpp9Q4b.s 			page 150


 7437 1e76 3D030000 		.4byte	.LASF164
 7438 1e7a 22       		.byte	0x22
 7439 1e7b 26       		.byte	0x26
 7440 1e7c 22       		.uleb128 0x22
 7441 1e7d 21030000 		.4byte	.LASF165
 7442 1e81 21030000 		.4byte	.LASF165
 7443 1e85 23       		.byte	0x23
 7444 1e86 29       		.byte	0x29
 7445 1e87 22       		.uleb128 0x22
 7446 1e88 6E050000 		.4byte	.LASF166
 7447 1e8c 6E050000 		.4byte	.LASF166
 7448 1e90 24       		.byte	0x24
 7449 1e91 26       		.byte	0x26
 7450 1e92 22       		.uleb128 0x22
 7451 1e93 69020000 		.4byte	.LASF167
 7452 1e97 69020000 		.4byte	.LASF167
 7453 1e9b 25       		.byte	0x25
 7454 1e9c D1       		.byte	0xd1
 7455 1e9d 22       		.uleb128 0x22
 7456 1e9e 5C040000 		.4byte	.LASF168
 7457 1ea2 5C040000 		.4byte	.LASF168
 7458 1ea6 25       		.byte	0x25
 7459 1ea7 39       		.byte	0x39
 7460 1ea8 22       		.uleb128 0x22
 7461 1ea9 7C080000 		.4byte	.LASF169
 7462 1ead 7C080000 		.4byte	.LASF169
 7463 1eb1 25       		.byte	0x25
 7464 1eb2 3A       		.byte	0x3a
 7465 1eb3 23       		.uleb128 0x23
 7466 1eb4 706F7700 		.ascii	"pow\000"
 7467 1eb8 706F7700 		.ascii	"pow\000"
 7468 1ebc 2F       		.byte	0x2f
 7469 1ebd 86       		.byte	0x86
 7470 1ebe 22       		.uleb128 0x22
 7471 1ebf 76040000 		.4byte	.LASF170
 7472 1ec3 76040000 		.4byte	.LASF170
 7473 1ec7 26       		.byte	0x26
 7474 1ec8 C3       		.byte	0xc3
 7475 1ec9 22       		.uleb128 0x22
 7476 1eca 9A060000 		.4byte	.LASF171
 7477 1ece 9A060000 		.4byte	.LASF171
 7478 1ed2 27       		.byte	0x27
 7479 1ed3 C3       		.byte	0xc3
 7480 1ed4 22       		.uleb128 0x22
 7481 1ed5 D8000000 		.4byte	.LASF172
 7482 1ed9 D8000000 		.4byte	.LASF172
 7483 1edd 28       		.byte	0x28
 7484 1ede 18       		.byte	0x18
 7485 1edf 22       		.uleb128 0x22
 7486 1ee0 A6050000 		.4byte	.LASF173
 7487 1ee4 A6050000 		.4byte	.LASF173
 7488 1ee8 29       		.byte	0x29
 7489 1ee9 18       		.byte	0x18
 7490 1eea 22       		.uleb128 0x22
 7491 1eeb 820A0000 		.4byte	.LASF174
 7492 1eef 820A0000 		.4byte	.LASF174
 7493 1ef3 2A       		.byte	0x2a
ARM GAS  C:\Users\weiro\AppData\Local\Temp\ccpp9Q4b.s 			page 151


 7494 1ef4 5A       		.byte	0x5a
 7495 1ef5 22       		.uleb128 0x22
 7496 1ef6 93000000 		.4byte	.LASF175
 7497 1efa 93000000 		.4byte	.LASF175
 7498 1efe 07       		.byte	0x7
 7499 1eff 5A       		.byte	0x5a
 7500 1f00 22       		.uleb128 0x22
 7501 1f01 CC060000 		.4byte	.LASF176
 7502 1f05 CC060000 		.4byte	.LASF176
 7503 1f09 2B       		.byte	0x2b
 7504 1f0a 18       		.byte	0x18
 7505 1f0b 22       		.uleb128 0x22
 7506 1f0c EA020000 		.4byte	.LASF177
 7507 1f10 EA020000 		.4byte	.LASF177
 7508 1f14 0A       		.byte	0xa
 7509 1f15 92       		.byte	0x92
 7510 1f16 22       		.uleb128 0x22
 7511 1f17 DA080000 		.4byte	.LASF178
 7512 1f1b DA080000 		.4byte	.LASF178
 7513 1f1f 2C       		.byte	0x2c
 7514 1f20 18       		.byte	0x18
 7515 1f21 22       		.uleb128 0x22
 7516 1f22 BB070000 		.4byte	.LASF179
 7517 1f26 BB070000 		.4byte	.LASF179
 7518 1f2a 06       		.byte	0x6
 7519 1f2b 92       		.byte	0x92
 7520 1f2c 22       		.uleb128 0x22
 7521 1f2d A1000000 		.4byte	.LASF180
 7522 1f31 A1000000 		.4byte	.LASF180
 7523 1f35 27       		.byte	0x27
 7524 1f36 92       		.byte	0x92
 7525 1f37 22       		.uleb128 0x22
 7526 1f38 65000000 		.4byte	.LASF181
 7527 1f3c 65000000 		.4byte	.LASF181
 7528 1f40 26       		.byte	0x26
 7529 1f41 92       		.byte	0x92
 7530 1f42 22       		.uleb128 0x22
 7531 1f43 71010000 		.4byte	.LASF182
 7532 1f47 71010000 		.4byte	.LASF182
 7533 1f4b 13       		.byte	0x13
 7534 1f4c 48       		.byte	0x48
 7535 1f4d 22       		.uleb128 0x22
 7536 1f4e 28070000 		.4byte	.LASF183
 7537 1f52 28070000 		.4byte	.LASF183
 7538 1f56 14       		.byte	0x14
 7539 1f57 48       		.byte	0x48
 7540 1f58 22       		.uleb128 0x22
 7541 1f59 91080000 		.4byte	.LASF184
 7542 1f5d 91080000 		.4byte	.LASF184
 7543 1f61 0B       		.byte	0xb
 7544 1f62 54       		.byte	0x54
 7545 1f63 22       		.uleb128 0x22
 7546 1f64 87070000 		.4byte	.LASF185
 7547 1f68 87070000 		.4byte	.LASF185
 7548 1f6c 0D       		.byte	0xd
 7549 1f6d 93       		.byte	0x93
 7550 1f6e 22       		.uleb128 0x22
ARM GAS  C:\Users\weiro\AppData\Local\Temp\ccpp9Q4b.s 			page 152


 7551 1f6f 7C050000 		.4byte	.LASF186
 7552 1f73 7C050000 		.4byte	.LASF186
 7553 1f77 0C       		.byte	0xc
 7554 1f78 5A       		.byte	0x5a
 7555 1f79 22       		.uleb128 0x22
 7556 1f7a F5050000 		.4byte	.LASF187
 7557 1f7e F5050000 		.4byte	.LASF187
 7558 1f82 2D       		.byte	0x2d
 7559 1f83 18       		.byte	0x18
 7560 1f84 22       		.uleb128 0x22
 7561 1f85 0F040000 		.4byte	.LASF188
 7562 1f89 0F040000 		.4byte	.LASF188
 7563 1f8d 09       		.byte	0x9
 7564 1f8e 54       		.byte	0x54
 7565 1f8f 22       		.uleb128 0x22
 7566 1f90 D4010000 		.4byte	.LASF189
 7567 1f94 D4010000 		.4byte	.LASF189
 7568 1f98 2E       		.byte	0x2e
 7569 1f99 29       		.byte	0x29
 7570 1f9a 00       		.byte	0
 7571              		.section	.debug_abbrev,"",%progbits
 7572              	.Ldebug_abbrev0:
 7573 0000 01       		.uleb128 0x1
 7574 0001 11       		.uleb128 0x11
 7575 0002 01       		.byte	0x1
 7576 0003 25       		.uleb128 0x25
 7577 0004 0E       		.uleb128 0xe
 7578 0005 13       		.uleb128 0x13
 7579 0006 0B       		.uleb128 0xb
 7580 0007 03       		.uleb128 0x3
 7581 0008 0E       		.uleb128 0xe
 7582 0009 1B       		.uleb128 0x1b
 7583 000a 0E       		.uleb128 0xe
 7584 000b 55       		.uleb128 0x55
 7585 000c 17       		.uleb128 0x17
 7586 000d 11       		.uleb128 0x11
 7587 000e 01       		.uleb128 0x1
 7588 000f 10       		.uleb128 0x10
 7589 0010 17       		.uleb128 0x17
 7590 0011 00       		.byte	0
 7591 0012 00       		.byte	0
 7592 0013 02       		.uleb128 0x2
 7593 0014 24       		.uleb128 0x24
 7594 0015 00       		.byte	0
 7595 0016 0B       		.uleb128 0xb
 7596 0017 0B       		.uleb128 0xb
 7597 0018 3E       		.uleb128 0x3e
 7598 0019 0B       		.uleb128 0xb
 7599 001a 03       		.uleb128 0x3
 7600 001b 0E       		.uleb128 0xe
 7601 001c 00       		.byte	0
 7602 001d 00       		.byte	0
 7603 001e 03       		.uleb128 0x3
 7604 001f 16       		.uleb128 0x16
 7605 0020 00       		.byte	0
 7606 0021 03       		.uleb128 0x3
 7607 0022 0E       		.uleb128 0xe
ARM GAS  C:\Users\weiro\AppData\Local\Temp\ccpp9Q4b.s 			page 153


 7608 0023 3A       		.uleb128 0x3a
 7609 0024 0B       		.uleb128 0xb
 7610 0025 3B       		.uleb128 0x3b
 7611 0026 0B       		.uleb128 0xb
 7612 0027 49       		.uleb128 0x49
 7613 0028 13       		.uleb128 0x13
 7614 0029 00       		.byte	0
 7615 002a 00       		.byte	0
 7616 002b 04       		.uleb128 0x4
 7617 002c 24       		.uleb128 0x24
 7618 002d 00       		.byte	0
 7619 002e 0B       		.uleb128 0xb
 7620 002f 0B       		.uleb128 0xb
 7621 0030 3E       		.uleb128 0x3e
 7622 0031 0B       		.uleb128 0xb
 7623 0032 03       		.uleb128 0x3
 7624 0033 08       		.uleb128 0x8
 7625 0034 00       		.byte	0
 7626 0035 00       		.byte	0
 7627 0036 05       		.uleb128 0x5
 7628 0037 16       		.uleb128 0x16
 7629 0038 00       		.byte	0
 7630 0039 03       		.uleb128 0x3
 7631 003a 0E       		.uleb128 0xe
 7632 003b 3A       		.uleb128 0x3a
 7633 003c 0B       		.uleb128 0xb
 7634 003d 3B       		.uleb128 0x3b
 7635 003e 05       		.uleb128 0x5
 7636 003f 49       		.uleb128 0x49
 7637 0040 13       		.uleb128 0x13
 7638 0041 00       		.byte	0
 7639 0042 00       		.byte	0
 7640 0043 06       		.uleb128 0x6
 7641 0044 0F       		.uleb128 0xf
 7642 0045 00       		.byte	0
 7643 0046 0B       		.uleb128 0xb
 7644 0047 0B       		.uleb128 0xb
 7645 0048 49       		.uleb128 0x49
 7646 0049 13       		.uleb128 0x13
 7647 004a 00       		.byte	0
 7648 004b 00       		.byte	0
 7649 004c 07       		.uleb128 0x7
 7650 004d 2E       		.uleb128 0x2e
 7651 004e 01       		.byte	0x1
 7652 004f 3F       		.uleb128 0x3f
 7653 0050 19       		.uleb128 0x19
 7654 0051 03       		.uleb128 0x3
 7655 0052 0E       		.uleb128 0xe
 7656 0053 3A       		.uleb128 0x3a
 7657 0054 0B       		.uleb128 0xb
 7658 0055 3B       		.uleb128 0x3b
 7659 0056 0B       		.uleb128 0xb
 7660 0057 27       		.uleb128 0x27
 7661 0058 19       		.uleb128 0x19
 7662 0059 11       		.uleb128 0x11
 7663 005a 01       		.uleb128 0x1
 7664 005b 12       		.uleb128 0x12
ARM GAS  C:\Users\weiro\AppData\Local\Temp\ccpp9Q4b.s 			page 154


 7665 005c 06       		.uleb128 0x6
 7666 005d 40       		.uleb128 0x40
 7667 005e 18       		.uleb128 0x18
 7668 005f 9642     		.uleb128 0x2116
 7669 0061 19       		.uleb128 0x19
 7670 0062 01       		.uleb128 0x1
 7671 0063 13       		.uleb128 0x13
 7672 0064 00       		.byte	0
 7673 0065 00       		.byte	0
 7674 0066 08       		.uleb128 0x8
 7675 0067 898201   		.uleb128 0x4109
 7676 006a 00       		.byte	0
 7677 006b 11       		.uleb128 0x11
 7678 006c 01       		.uleb128 0x1
 7679 006d 31       		.uleb128 0x31
 7680 006e 13       		.uleb128 0x13
 7681 006f 00       		.byte	0
 7682 0070 00       		.byte	0
 7683 0071 09       		.uleb128 0x9
 7684 0072 898201   		.uleb128 0x4109
 7685 0075 01       		.byte	0x1
 7686 0076 11       		.uleb128 0x11
 7687 0077 01       		.uleb128 0x1
 7688 0078 31       		.uleb128 0x31
 7689 0079 13       		.uleb128 0x13
 7690 007a 01       		.uleb128 0x1
 7691 007b 13       		.uleb128 0x13
 7692 007c 00       		.byte	0
 7693 007d 00       		.byte	0
 7694 007e 0A       		.uleb128 0xa
 7695 007f 8A8201   		.uleb128 0x410a
 7696 0082 00       		.byte	0
 7697 0083 02       		.uleb128 0x2
 7698 0084 18       		.uleb128 0x18
 7699 0085 9142     		.uleb128 0x2111
 7700 0087 18       		.uleb128 0x18
 7701 0088 00       		.byte	0
 7702 0089 00       		.byte	0
 7703 008a 0B       		.uleb128 0xb
 7704 008b 898201   		.uleb128 0x4109
 7705 008e 01       		.byte	0x1
 7706 008f 11       		.uleb128 0x11
 7707 0090 01       		.uleb128 0x1
 7708 0091 31       		.uleb128 0x31
 7709 0092 13       		.uleb128 0x13
 7710 0093 00       		.byte	0
 7711 0094 00       		.byte	0
 7712 0095 0C       		.uleb128 0xc
 7713 0096 2E       		.uleb128 0x2e
 7714 0097 01       		.byte	0x1
 7715 0098 3F       		.uleb128 0x3f
 7716 0099 19       		.uleb128 0x19
 7717 009a 03       		.uleb128 0x3
 7718 009b 0E       		.uleb128 0xe
 7719 009c 3A       		.uleb128 0x3a
 7720 009d 0B       		.uleb128 0xb
 7721 009e 3B       		.uleb128 0x3b
ARM GAS  C:\Users\weiro\AppData\Local\Temp\ccpp9Q4b.s 			page 155


 7722 009f 0B       		.uleb128 0xb
 7723 00a0 27       		.uleb128 0x27
 7724 00a1 19       		.uleb128 0x19
 7725 00a2 11       		.uleb128 0x11
 7726 00a3 01       		.uleb128 0x1
 7727 00a4 12       		.uleb128 0x12
 7728 00a5 06       		.uleb128 0x6
 7729 00a6 40       		.uleb128 0x40
 7730 00a7 18       		.uleb128 0x18
 7731 00a8 9742     		.uleb128 0x2117
 7732 00aa 19       		.uleb128 0x19
 7733 00ab 01       		.uleb128 0x1
 7734 00ac 13       		.uleb128 0x13
 7735 00ad 00       		.byte	0
 7736 00ae 00       		.byte	0
 7737 00af 0D       		.uleb128 0xd
 7738 00b0 2E       		.uleb128 0x2e
 7739 00b1 01       		.byte	0x1
 7740 00b2 3F       		.uleb128 0x3f
 7741 00b3 19       		.uleb128 0x19
 7742 00b4 03       		.uleb128 0x3
 7743 00b5 0E       		.uleb128 0xe
 7744 00b6 3A       		.uleb128 0x3a
 7745 00b7 0B       		.uleb128 0xb
 7746 00b8 3B       		.uleb128 0x3b
 7747 00b9 05       		.uleb128 0x5
 7748 00ba 11       		.uleb128 0x11
 7749 00bb 01       		.uleb128 0x1
 7750 00bc 12       		.uleb128 0x12
 7751 00bd 06       		.uleb128 0x6
 7752 00be 40       		.uleb128 0x40
 7753 00bf 18       		.uleb128 0x18
 7754 00c0 9742     		.uleb128 0x2117
 7755 00c2 19       		.uleb128 0x19
 7756 00c3 01       		.uleb128 0x1
 7757 00c4 13       		.uleb128 0x13
 7758 00c5 00       		.byte	0
 7759 00c6 00       		.byte	0
 7760 00c7 0E       		.uleb128 0xe
 7761 00c8 2E       		.uleb128 0x2e
 7762 00c9 01       		.byte	0x1
 7763 00ca 3F       		.uleb128 0x3f
 7764 00cb 19       		.uleb128 0x19
 7765 00cc 03       		.uleb128 0x3
 7766 00cd 0E       		.uleb128 0xe
 7767 00ce 3A       		.uleb128 0x3a
 7768 00cf 0B       		.uleb128 0xb
 7769 00d0 3B       		.uleb128 0x3b
 7770 00d1 05       		.uleb128 0x5
 7771 00d2 27       		.uleb128 0x27
 7772 00d3 19       		.uleb128 0x19
 7773 00d4 11       		.uleb128 0x11
 7774 00d5 01       		.uleb128 0x1
 7775 00d6 12       		.uleb128 0x12
 7776 00d7 06       		.uleb128 0x6
 7777 00d8 40       		.uleb128 0x40
 7778 00d9 18       		.uleb128 0x18
ARM GAS  C:\Users\weiro\AppData\Local\Temp\ccpp9Q4b.s 			page 156


 7779 00da 9642     		.uleb128 0x2116
 7780 00dc 19       		.uleb128 0x19
 7781 00dd 01       		.uleb128 0x1
 7782 00de 13       		.uleb128 0x13
 7783 00df 00       		.byte	0
 7784 00e0 00       		.byte	0
 7785 00e1 0F       		.uleb128 0xf
 7786 00e2 05       		.uleb128 0x5
 7787 00e3 00       		.byte	0
 7788 00e4 03       		.uleb128 0x3
 7789 00e5 0E       		.uleb128 0xe
 7790 00e6 3A       		.uleb128 0x3a
 7791 00e7 0B       		.uleb128 0xb
 7792 00e8 3B       		.uleb128 0x3b
 7793 00e9 05       		.uleb128 0x5
 7794 00ea 49       		.uleb128 0x49
 7795 00eb 13       		.uleb128 0x13
 7796 00ec 02       		.uleb128 0x2
 7797 00ed 17       		.uleb128 0x17
 7798 00ee 00       		.byte	0
 7799 00ef 00       		.byte	0
 7800 00f0 10       		.uleb128 0x10
 7801 00f1 34       		.uleb128 0x34
 7802 00f2 00       		.byte	0
 7803 00f3 03       		.uleb128 0x3
 7804 00f4 0E       		.uleb128 0xe
 7805 00f5 3A       		.uleb128 0x3a
 7806 00f6 0B       		.uleb128 0xb
 7807 00f7 3B       		.uleb128 0x3b
 7808 00f8 05       		.uleb128 0x5
 7809 00f9 49       		.uleb128 0x49
 7810 00fa 13       		.uleb128 0x13
 7811 00fb 02       		.uleb128 0x2
 7812 00fc 17       		.uleb128 0x17
 7813 00fd 00       		.byte	0
 7814 00fe 00       		.byte	0
 7815 00ff 11       		.uleb128 0x11
 7816 0100 2E       		.uleb128 0x2e
 7817 0101 01       		.byte	0x1
 7818 0102 3F       		.uleb128 0x3f
 7819 0103 19       		.uleb128 0x19
 7820 0104 03       		.uleb128 0x3
 7821 0105 0E       		.uleb128 0xe
 7822 0106 3A       		.uleb128 0x3a
 7823 0107 0B       		.uleb128 0xb
 7824 0108 3B       		.uleb128 0x3b
 7825 0109 05       		.uleb128 0x5
 7826 010a 11       		.uleb128 0x11
 7827 010b 01       		.uleb128 0x1
 7828 010c 12       		.uleb128 0x12
 7829 010d 06       		.uleb128 0x6
 7830 010e 40       		.uleb128 0x40
 7831 010f 18       		.uleb128 0x18
 7832 0110 9642     		.uleb128 0x2116
 7833 0112 19       		.uleb128 0x19
 7834 0113 01       		.uleb128 0x1
 7835 0114 13       		.uleb128 0x13
ARM GAS  C:\Users\weiro\AppData\Local\Temp\ccpp9Q4b.s 			page 157


 7836 0115 00       		.byte	0
 7837 0116 00       		.byte	0
 7838 0117 12       		.uleb128 0x12
 7839 0118 34       		.uleb128 0x34
 7840 0119 00       		.byte	0
 7841 011a 03       		.uleb128 0x3
 7842 011b 0E       		.uleb128 0xe
 7843 011c 3A       		.uleb128 0x3a
 7844 011d 0B       		.uleb128 0xb
 7845 011e 3B       		.uleb128 0x3b
 7846 011f 05       		.uleb128 0x5
 7847 0120 49       		.uleb128 0x49
 7848 0121 13       		.uleb128 0x13
 7849 0122 1C       		.uleb128 0x1c
 7850 0123 0B       		.uleb128 0xb
 7851 0124 00       		.byte	0
 7852 0125 00       		.byte	0
 7853 0126 13       		.uleb128 0x13
 7854 0127 0B       		.uleb128 0xb
 7855 0128 01       		.byte	0x1
 7856 0129 55       		.uleb128 0x55
 7857 012a 17       		.uleb128 0x17
 7858 012b 01       		.uleb128 0x1
 7859 012c 13       		.uleb128 0x13
 7860 012d 00       		.byte	0
 7861 012e 00       		.byte	0
 7862 012f 14       		.uleb128 0x14
 7863 0130 2E       		.uleb128 0x2e
 7864 0131 01       		.byte	0x1
 7865 0132 3F       		.uleb128 0x3f
 7866 0133 19       		.uleb128 0x19
 7867 0134 03       		.uleb128 0x3
 7868 0135 08       		.uleb128 0x8
 7869 0136 3A       		.uleb128 0x3a
 7870 0137 0B       		.uleb128 0xb
 7871 0138 3B       		.uleb128 0x3b
 7872 0139 05       		.uleb128 0x5
 7873 013a 27       		.uleb128 0x27
 7874 013b 19       		.uleb128 0x19
 7875 013c 11       		.uleb128 0x11
 7876 013d 01       		.uleb128 0x1
 7877 013e 12       		.uleb128 0x12
 7878 013f 06       		.uleb128 0x6
 7879 0140 40       		.uleb128 0x40
 7880 0141 18       		.uleb128 0x18
 7881 0142 9742     		.uleb128 0x2117
 7882 0144 19       		.uleb128 0x19
 7883 0145 01       		.uleb128 0x1
 7884 0146 13       		.uleb128 0x13
 7885 0147 00       		.byte	0
 7886 0148 00       		.byte	0
 7887 0149 15       		.uleb128 0x15
 7888 014a 0B       		.uleb128 0xb
 7889 014b 01       		.byte	0x1
 7890 014c 11       		.uleb128 0x11
 7891 014d 01       		.uleb128 0x1
 7892 014e 12       		.uleb128 0x12
ARM GAS  C:\Users\weiro\AppData\Local\Temp\ccpp9Q4b.s 			page 158


 7893 014f 06       		.uleb128 0x6
 7894 0150 01       		.uleb128 0x1
 7895 0151 13       		.uleb128 0x13
 7896 0152 00       		.byte	0
 7897 0153 00       		.byte	0
 7898 0154 16       		.uleb128 0x16
 7899 0155 34       		.uleb128 0x34
 7900 0156 00       		.byte	0
 7901 0157 03       		.uleb128 0x3
 7902 0158 08       		.uleb128 0x8
 7903 0159 3A       		.uleb128 0x3a
 7904 015a 0B       		.uleb128 0xb
 7905 015b 3B       		.uleb128 0x3b
 7906 015c 05       		.uleb128 0x5
 7907 015d 49       		.uleb128 0x49
 7908 015e 13       		.uleb128 0x13
 7909 015f 02       		.uleb128 0x2
 7910 0160 17       		.uleb128 0x17
 7911 0161 00       		.byte	0
 7912 0162 00       		.byte	0
 7913 0163 17       		.uleb128 0x17
 7914 0164 34       		.uleb128 0x34
 7915 0165 00       		.byte	0
 7916 0166 03       		.uleb128 0x3
 7917 0167 0E       		.uleb128 0xe
 7918 0168 3A       		.uleb128 0x3a
 7919 0169 0B       		.uleb128 0xb
 7920 016a 3B       		.uleb128 0x3b
 7921 016b 05       		.uleb128 0x5
 7922 016c 49       		.uleb128 0x49
 7923 016d 13       		.uleb128 0x13
 7924 016e 1C       		.uleb128 0x1c
 7925 016f 0A       		.uleb128 0xa
 7926 0170 00       		.byte	0
 7927 0171 00       		.byte	0
 7928 0172 18       		.uleb128 0x18
 7929 0173 2E       		.uleb128 0x2e
 7930 0174 01       		.byte	0x1
 7931 0175 3F       		.uleb128 0x3f
 7932 0176 19       		.uleb128 0x19
 7933 0177 03       		.uleb128 0x3
 7934 0178 0E       		.uleb128 0xe
 7935 0179 3A       		.uleb128 0x3a
 7936 017a 0B       		.uleb128 0xb
 7937 017b 3B       		.uleb128 0x3b
 7938 017c 05       		.uleb128 0x5
 7939 017d 49       		.uleb128 0x49
 7940 017e 13       		.uleb128 0x13
 7941 017f 11       		.uleb128 0x11
 7942 0180 01       		.uleb128 0x1
 7943 0181 12       		.uleb128 0x12
 7944 0182 06       		.uleb128 0x6
 7945 0183 40       		.uleb128 0x40
 7946 0184 18       		.uleb128 0x18
 7947 0185 9642     		.uleb128 0x2116
 7948 0187 19       		.uleb128 0x19
 7949 0188 01       		.uleb128 0x1
ARM GAS  C:\Users\weiro\AppData\Local\Temp\ccpp9Q4b.s 			page 159


 7950 0189 13       		.uleb128 0x13
 7951 018a 00       		.byte	0
 7952 018b 00       		.byte	0
 7953 018c 19       		.uleb128 0x19
 7954 018d 2E       		.uleb128 0x2e
 7955 018e 01       		.byte	0x1
 7956 018f 3F       		.uleb128 0x3f
 7957 0190 19       		.uleb128 0x19
 7958 0191 03       		.uleb128 0x3
 7959 0192 0E       		.uleb128 0xe
 7960 0193 3A       		.uleb128 0x3a
 7961 0194 0B       		.uleb128 0xb
 7962 0195 3B       		.uleb128 0x3b
 7963 0196 05       		.uleb128 0x5
 7964 0197 27       		.uleb128 0x27
 7965 0198 19       		.uleb128 0x19
 7966 0199 11       		.uleb128 0x11
 7967 019a 01       		.uleb128 0x1
 7968 019b 12       		.uleb128 0x12
 7969 019c 06       		.uleb128 0x6
 7970 019d 40       		.uleb128 0x40
 7971 019e 18       		.uleb128 0x18
 7972 019f 9742     		.uleb128 0x2117
 7973 01a1 19       		.uleb128 0x19
 7974 01a2 01       		.uleb128 0x1
 7975 01a3 13       		.uleb128 0x13
 7976 01a4 00       		.byte	0
 7977 01a5 00       		.byte	0
 7978 01a6 1A       		.uleb128 0x1a
 7979 01a7 0B       		.uleb128 0xb
 7980 01a8 01       		.byte	0x1
 7981 01a9 11       		.uleb128 0x11
 7982 01aa 01       		.uleb128 0x1
 7983 01ab 12       		.uleb128 0x12
 7984 01ac 06       		.uleb128 0x6
 7985 01ad 00       		.byte	0
 7986 01ae 00       		.byte	0
 7987 01af 1B       		.uleb128 0x1b
 7988 01b0 2E       		.uleb128 0x2e
 7989 01b1 01       		.byte	0x1
 7990 01b2 3F       		.uleb128 0x3f
 7991 01b3 19       		.uleb128 0x19
 7992 01b4 03       		.uleb128 0x3
 7993 01b5 0E       		.uleb128 0xe
 7994 01b6 3A       		.uleb128 0x3a
 7995 01b7 0B       		.uleb128 0xb
 7996 01b8 3B       		.uleb128 0x3b
 7997 01b9 05       		.uleb128 0x5
 7998 01ba 27       		.uleb128 0x27
 7999 01bb 19       		.uleb128 0x19
 8000 01bc 49       		.uleb128 0x49
 8001 01bd 13       		.uleb128 0x13
 8002 01be 8701     		.uleb128 0x87
 8003 01c0 19       		.uleb128 0x19
 8004 01c1 11       		.uleb128 0x11
 8005 01c2 01       		.uleb128 0x1
 8006 01c3 12       		.uleb128 0x12
ARM GAS  C:\Users\weiro\AppData\Local\Temp\ccpp9Q4b.s 			page 160


 8007 01c4 06       		.uleb128 0x6
 8008 01c5 40       		.uleb128 0x40
 8009 01c6 18       		.uleb128 0x18
 8010 01c7 9642     		.uleb128 0x2116
 8011 01c9 19       		.uleb128 0x19
 8012 01ca 01       		.uleb128 0x1
 8013 01cb 13       		.uleb128 0x13
 8014 01cc 00       		.byte	0
 8015 01cd 00       		.byte	0
 8016 01ce 1C       		.uleb128 0x1c
 8017 01cf 34       		.uleb128 0x34
 8018 01d0 00       		.byte	0
 8019 01d1 03       		.uleb128 0x3
 8020 01d2 0E       		.uleb128 0xe
 8021 01d3 3A       		.uleb128 0x3a
 8022 01d4 0B       		.uleb128 0xb
 8023 01d5 3B       		.uleb128 0x3b
 8024 01d6 05       		.uleb128 0x5
 8025 01d7 49       		.uleb128 0x49
 8026 01d8 13       		.uleb128 0x13
 8027 01d9 3F       		.uleb128 0x3f
 8028 01da 19       		.uleb128 0x19
 8029 01db 3C       		.uleb128 0x3c
 8030 01dc 19       		.uleb128 0x19
 8031 01dd 00       		.byte	0
 8032 01de 00       		.byte	0
 8033 01df 1D       		.uleb128 0x1d
 8034 01e0 35       		.uleb128 0x35
 8035 01e1 00       		.byte	0
 8036 01e2 49       		.uleb128 0x49
 8037 01e3 13       		.uleb128 0x13
 8038 01e4 00       		.byte	0
 8039 01e5 00       		.byte	0
 8040 01e6 1E       		.uleb128 0x1e
 8041 01e7 34       		.uleb128 0x34
 8042 01e8 00       		.byte	0
 8043 01e9 03       		.uleb128 0x3
 8044 01ea 0E       		.uleb128 0xe
 8045 01eb 3A       		.uleb128 0x3a
 8046 01ec 0B       		.uleb128 0xb
 8047 01ed 3B       		.uleb128 0x3b
 8048 01ee 0B       		.uleb128 0xb
 8049 01ef 49       		.uleb128 0x49
 8050 01f0 13       		.uleb128 0x13
 8051 01f1 3F       		.uleb128 0x3f
 8052 01f2 19       		.uleb128 0x19
 8053 01f3 02       		.uleb128 0x2
 8054 01f4 18       		.uleb128 0x18
 8055 01f5 00       		.byte	0
 8056 01f6 00       		.byte	0
 8057 01f7 1F       		.uleb128 0x1f
 8058 01f8 01       		.uleb128 0x1
 8059 01f9 01       		.byte	0x1
 8060 01fa 49       		.uleb128 0x49
 8061 01fb 13       		.uleb128 0x13
 8062 01fc 01       		.uleb128 0x1
 8063 01fd 13       		.uleb128 0x13
ARM GAS  C:\Users\weiro\AppData\Local\Temp\ccpp9Q4b.s 			page 161


 8064 01fe 00       		.byte	0
 8065 01ff 00       		.byte	0
 8066 0200 20       		.uleb128 0x20
 8067 0201 21       		.uleb128 0x21
 8068 0202 00       		.byte	0
 8069 0203 49       		.uleb128 0x49
 8070 0204 13       		.uleb128 0x13
 8071 0205 2F       		.uleb128 0x2f
 8072 0206 0B       		.uleb128 0xb
 8073 0207 00       		.byte	0
 8074 0208 00       		.byte	0
 8075 0209 21       		.uleb128 0x21
 8076 020a 34       		.uleb128 0x34
 8077 020b 00       		.byte	0
 8078 020c 03       		.uleb128 0x3
 8079 020d 08       		.uleb128 0x8
 8080 020e 3A       		.uleb128 0x3a
 8081 020f 0B       		.uleb128 0xb
 8082 0210 3B       		.uleb128 0x3b
 8083 0211 0B       		.uleb128 0xb
 8084 0212 49       		.uleb128 0x49
 8085 0213 13       		.uleb128 0x13
 8086 0214 3F       		.uleb128 0x3f
 8087 0215 19       		.uleb128 0x19
 8088 0216 02       		.uleb128 0x2
 8089 0217 18       		.uleb128 0x18
 8090 0218 00       		.byte	0
 8091 0219 00       		.byte	0
 8092 021a 22       		.uleb128 0x22
 8093 021b 2E       		.uleb128 0x2e
 8094 021c 00       		.byte	0
 8095 021d 3F       		.uleb128 0x3f
 8096 021e 19       		.uleb128 0x19
 8097 021f 3C       		.uleb128 0x3c
 8098 0220 19       		.uleb128 0x19
 8099 0221 6E       		.uleb128 0x6e
 8100 0222 0E       		.uleb128 0xe
 8101 0223 03       		.uleb128 0x3
 8102 0224 0E       		.uleb128 0xe
 8103 0225 3A       		.uleb128 0x3a
 8104 0226 0B       		.uleb128 0xb
 8105 0227 3B       		.uleb128 0x3b
 8106 0228 0B       		.uleb128 0xb
 8107 0229 00       		.byte	0
 8108 022a 00       		.byte	0
 8109 022b 23       		.uleb128 0x23
 8110 022c 2E       		.uleb128 0x2e
 8111 022d 00       		.byte	0
 8112 022e 3F       		.uleb128 0x3f
 8113 022f 19       		.uleb128 0x19
 8114 0230 3C       		.uleb128 0x3c
 8115 0231 19       		.uleb128 0x19
 8116 0232 6E       		.uleb128 0x6e
 8117 0233 08       		.uleb128 0x8
 8118 0234 03       		.uleb128 0x3
 8119 0235 08       		.uleb128 0x8
 8120 0236 3A       		.uleb128 0x3a
ARM GAS  C:\Users\weiro\AppData\Local\Temp\ccpp9Q4b.s 			page 162


 8121 0237 0B       		.uleb128 0xb
 8122 0238 3B       		.uleb128 0x3b
 8123 0239 0B       		.uleb128 0xb
 8124 023a 00       		.byte	0
 8125 023b 00       		.byte	0
 8126 023c 00       		.byte	0
 8127              		.section	.debug_loc,"",%progbits
 8128              	.Ldebug_loc0:
 8129              	.LLST0:
 8130 0000 00000000 		.4byte	.LVL74
 8131 0004 07000000 		.4byte	.LVL75-1
 8132 0008 0100     		.2byte	0x1
 8133 000a 50       		.byte	0x50
 8134 000b 07000000 		.4byte	.LVL75-1
 8135 000f 14010000 		.4byte	.LFE75
 8136 0013 0400     		.2byte	0x4
 8137 0015 F3       		.byte	0xf3
 8138 0016 01       		.uleb128 0x1
 8139 0017 50       		.byte	0x50
 8140 0018 9F       		.byte	0x9f
 8141 0019 00000000 		.4byte	0
 8142 001d 00000000 		.4byte	0
 8143              	.LLST1:
 8144 0021 00000000 		.4byte	.LVL74
 8145 0025 07000000 		.4byte	.LVL75-1
 8146 0029 0100     		.2byte	0x1
 8147 002b 51       		.byte	0x51
 8148 002c 07000000 		.4byte	.LVL75-1
 8149 0030 F6000000 		.4byte	.LVL106
 8150 0034 0100     		.2byte	0x1
 8151 0036 56       		.byte	0x56
 8152 0037 F6000000 		.4byte	.LVL106
 8153 003b 14010000 		.4byte	.LFE75
 8154 003f 0400     		.2byte	0x4
 8155 0041 F3       		.byte	0xf3
 8156 0042 01       		.uleb128 0x1
 8157 0043 51       		.byte	0x51
 8158 0044 9F       		.byte	0x9f
 8159 0045 00000000 		.4byte	0
 8160 0049 00000000 		.4byte	0
 8161              	.LLST2:
 8162 004d 70000000 		.4byte	.LVL88
 8163 0051 A0000000 		.4byte	.LVL92
 8164 0055 0600     		.2byte	0x6
 8165 0057 54       		.byte	0x54
 8166 0058 93       		.byte	0x93
 8167 0059 04       		.uleb128 0x4
 8168 005a 55       		.byte	0x55
 8169 005b 93       		.byte	0x93
 8170 005c 04       		.uleb128 0x4
 8171 005d AE000000 		.4byte	.LVL94
 8172 0061 B4000000 		.4byte	.LVL95
 8173 0065 0600     		.2byte	0x6
 8174 0067 54       		.byte	0x54
 8175 0068 93       		.byte	0x93
 8176 0069 04       		.uleb128 0x4
 8177 006a 55       		.byte	0x55
ARM GAS  C:\Users\weiro\AppData\Local\Temp\ccpp9Q4b.s 			page 163


 8178 006b 93       		.byte	0x93
 8179 006c 04       		.uleb128 0x4
 8180 006d C2000000 		.4byte	.LVL97
 8181 0071 C8000000 		.4byte	.LVL98
 8182 0075 0600     		.2byte	0x6
 8183 0077 54       		.byte	0x54
 8184 0078 93       		.byte	0x93
 8185 0079 04       		.uleb128 0x4
 8186 007a 55       		.byte	0x55
 8187 007b 93       		.byte	0x93
 8188 007c 04       		.uleb128 0x4
 8189 007d DA000000 		.4byte	.LVL101
 8190 0081 E0000000 		.4byte	.LVL102
 8191 0085 0600     		.2byte	0x6
 8192 0087 54       		.byte	0x54
 8193 0088 93       		.byte	0x93
 8194 0089 04       		.uleb128 0x4
 8195 008a 55       		.byte	0x55
 8196 008b 93       		.byte	0x93
 8197 008c 04       		.uleb128 0x4
 8198 008d 00000000 		.4byte	0
 8199 0091 00000000 		.4byte	0
 8200              	.LLST3:
 8201 0095 96000000 		.4byte	.LVL91
 8202 0099 A7000000 		.4byte	.LVL93-1
 8203 009d 0600     		.2byte	0x6
 8204 009f 50       		.byte	0x50
 8205 00a0 93       		.byte	0x93
 8206 00a1 04       		.uleb128 0x4
 8207 00a2 51       		.byte	0x51
 8208 00a3 93       		.byte	0x93
 8209 00a4 04       		.uleb128 0x4
 8210 00a5 AE000000 		.4byte	.LVL94
 8211 00a9 BB000000 		.4byte	.LVL96-1
 8212 00ad 0600     		.2byte	0x6
 8213 00af 50       		.byte	0x50
 8214 00b0 93       		.byte	0x93
 8215 00b1 04       		.uleb128 0x4
 8216 00b2 51       		.byte	0x51
 8217 00b3 93       		.byte	0x93
 8218 00b4 04       		.uleb128 0x4
 8219 00b5 C2000000 		.4byte	.LVL97
 8220 00b9 D0000000 		.4byte	.LVL99
 8221 00bd 0600     		.2byte	0x6
 8222 00bf 50       		.byte	0x50
 8223 00c0 93       		.byte	0x93
 8224 00c1 04       		.uleb128 0x4
 8225 00c2 51       		.byte	0x51
 8226 00c3 93       		.byte	0x93
 8227 00c4 04       		.uleb128 0x4
 8228 00c5 DA000000 		.4byte	.LVL101
 8229 00c9 E8000000 		.4byte	.LVL103
 8230 00cd 0600     		.2byte	0x6
 8231 00cf 50       		.byte	0x50
 8232 00d0 93       		.byte	0x93
 8233 00d1 04       		.uleb128 0x4
 8234 00d2 51       		.byte	0x51
ARM GAS  C:\Users\weiro\AppData\Local\Temp\ccpp9Q4b.s 			page 164


 8235 00d3 93       		.byte	0x93
 8236 00d4 04       		.uleb128 0x4
 8237 00d5 00000000 		.4byte	0
 8238 00d9 00000000 		.4byte	0
 8239              	.LLST4:
 8240 00dd 18000000 		.4byte	.LVL78
 8241 00e1 1A000000 		.4byte	.LVL79
 8242 00e5 0100     		.2byte	0x1
 8243 00e7 50       		.byte	0x50
 8244 00e8 1A000000 		.4byte	.LVL79
 8245 00ec 70000000 		.4byte	.LVL88
 8246 00f0 0100     		.2byte	0x1
 8247 00f2 55       		.byte	0x55
 8248 00f3 00000000 		.4byte	0
 8249 00f7 00000000 		.4byte	0
 8250              	.LLST5:
 8251 00fb 5A000000 		.4byte	.LVL118
 8252 00ff 8A000000 		.4byte	.LVL122
 8253 0103 0600     		.2byte	0x6
 8254 0105 54       		.byte	0x54
 8255 0106 93       		.byte	0x93
 8256 0107 04       		.uleb128 0x4
 8257 0108 55       		.byte	0x55
 8258 0109 93       		.byte	0x93
 8259 010a 04       		.uleb128 0x4
 8260 010b 98000000 		.4byte	.LVL124
 8261 010f 9E000000 		.4byte	.LVL125
 8262 0113 0600     		.2byte	0x6
 8263 0115 54       		.byte	0x54
 8264 0116 93       		.byte	0x93
 8265 0117 04       		.uleb128 0x4
 8266 0118 55       		.byte	0x55
 8267 0119 93       		.byte	0x93
 8268 011a 04       		.uleb128 0x4
 8269 011b AC000000 		.4byte	.LVL127
 8270 011f B2000000 		.4byte	.LVL128
 8271 0123 0600     		.2byte	0x6
 8272 0125 54       		.byte	0x54
 8273 0126 93       		.byte	0x93
 8274 0127 04       		.uleb128 0x4
 8275 0128 55       		.byte	0x55
 8276 0129 93       		.byte	0x93
 8277 012a 04       		.uleb128 0x4
 8278 012b C4000000 		.4byte	.LVL131
 8279 012f CA000000 		.4byte	.LVL132
 8280 0133 0600     		.2byte	0x6
 8281 0135 54       		.byte	0x54
 8282 0136 93       		.byte	0x93
 8283 0137 04       		.uleb128 0x4
 8284 0138 55       		.byte	0x55
 8285 0139 93       		.byte	0x93
 8286 013a 04       		.uleb128 0x4
 8287 013b 00000000 		.4byte	0
 8288 013f 00000000 		.4byte	0
 8289              	.LLST6:
 8290 0143 80000000 		.4byte	.LVL121
 8291 0147 91000000 		.4byte	.LVL123-1
ARM GAS  C:\Users\weiro\AppData\Local\Temp\ccpp9Q4b.s 			page 165


 8292 014b 0600     		.2byte	0x6
 8293 014d 50       		.byte	0x50
 8294 014e 93       		.byte	0x93
 8295 014f 04       		.uleb128 0x4
 8296 0150 51       		.byte	0x51
 8297 0151 93       		.byte	0x93
 8298 0152 04       		.uleb128 0x4
 8299 0153 98000000 		.4byte	.LVL124
 8300 0157 A5000000 		.4byte	.LVL126-1
 8301 015b 0600     		.2byte	0x6
 8302 015d 50       		.byte	0x50
 8303 015e 93       		.byte	0x93
 8304 015f 04       		.uleb128 0x4
 8305 0160 51       		.byte	0x51
 8306 0161 93       		.byte	0x93
 8307 0162 04       		.uleb128 0x4
 8308 0163 AC000000 		.4byte	.LVL127
 8309 0167 BA000000 		.4byte	.LVL129
 8310 016b 0600     		.2byte	0x6
 8311 016d 50       		.byte	0x50
 8312 016e 93       		.byte	0x93
 8313 016f 04       		.uleb128 0x4
 8314 0170 51       		.byte	0x51
 8315 0171 93       		.byte	0x93
 8316 0172 04       		.uleb128 0x4
 8317 0173 C4000000 		.4byte	.LVL131
 8318 0177 D2000000 		.4byte	.LVL133
 8319 017b 0600     		.2byte	0x6
 8320 017d 50       		.byte	0x50
 8321 017e 93       		.byte	0x93
 8322 017f 04       		.uleb128 0x4
 8323 0180 51       		.byte	0x51
 8324 0181 93       		.byte	0x93
 8325 0182 04       		.uleb128 0x4
 8326 0183 00000000 		.4byte	0
 8327 0187 00000000 		.4byte	0
 8328              	.LLST7:
 8329 018b 7A000000 		.4byte	.LVL149
 8330 018f AA000000 		.4byte	.LVL153
 8331 0193 0600     		.2byte	0x6
 8332 0195 54       		.byte	0x54
 8333 0196 93       		.byte	0x93
 8334 0197 04       		.uleb128 0x4
 8335 0198 55       		.byte	0x55
 8336 0199 93       		.byte	0x93
 8337 019a 04       		.uleb128 0x4
 8338 019b B8000000 		.4byte	.LVL155
 8339 019f BE000000 		.4byte	.LVL156
 8340 01a3 0600     		.2byte	0x6
 8341 01a5 54       		.byte	0x54
 8342 01a6 93       		.byte	0x93
 8343 01a7 04       		.uleb128 0x4
 8344 01a8 55       		.byte	0x55
 8345 01a9 93       		.byte	0x93
 8346 01aa 04       		.uleb128 0x4
 8347 01ab CC000000 		.4byte	.LVL158
 8348 01af D2000000 		.4byte	.LVL159
ARM GAS  C:\Users\weiro\AppData\Local\Temp\ccpp9Q4b.s 			page 166


 8349 01b3 0600     		.2byte	0x6
 8350 01b5 54       		.byte	0x54
 8351 01b6 93       		.byte	0x93
 8352 01b7 04       		.uleb128 0x4
 8353 01b8 55       		.byte	0x55
 8354 01b9 93       		.byte	0x93
 8355 01ba 04       		.uleb128 0x4
 8356 01bb E4000000 		.4byte	.LVL162
 8357 01bf EA000000 		.4byte	.LVL163
 8358 01c3 0600     		.2byte	0x6
 8359 01c5 54       		.byte	0x54
 8360 01c6 93       		.byte	0x93
 8361 01c7 04       		.uleb128 0x4
 8362 01c8 55       		.byte	0x55
 8363 01c9 93       		.byte	0x93
 8364 01ca 04       		.uleb128 0x4
 8365 01cb 00000000 		.4byte	0
 8366 01cf 00000000 		.4byte	0
 8367              	.LLST8:
 8368 01d3 A0000000 		.4byte	.LVL152
 8369 01d7 B1000000 		.4byte	.LVL154-1
 8370 01db 0600     		.2byte	0x6
 8371 01dd 50       		.byte	0x50
 8372 01de 93       		.byte	0x93
 8373 01df 04       		.uleb128 0x4
 8374 01e0 51       		.byte	0x51
 8375 01e1 93       		.byte	0x93
 8376 01e2 04       		.uleb128 0x4
 8377 01e3 B8000000 		.4byte	.LVL155
 8378 01e7 C5000000 		.4byte	.LVL157-1
 8379 01eb 0600     		.2byte	0x6
 8380 01ed 50       		.byte	0x50
 8381 01ee 93       		.byte	0x93
 8382 01ef 04       		.uleb128 0x4
 8383 01f0 51       		.byte	0x51
 8384 01f1 93       		.byte	0x93
 8385 01f2 04       		.uleb128 0x4
 8386 01f3 CC000000 		.4byte	.LVL158
 8387 01f7 DA000000 		.4byte	.LVL160
 8388 01fb 0600     		.2byte	0x6
 8389 01fd 50       		.byte	0x50
 8390 01fe 93       		.byte	0x93
 8391 01ff 04       		.uleb128 0x4
 8392 0200 51       		.byte	0x51
 8393 0201 93       		.byte	0x93
 8394 0202 04       		.uleb128 0x4
 8395 0203 E4000000 		.4byte	.LVL162
 8396 0207 F2000000 		.4byte	.LVL164
 8397 020b 0600     		.2byte	0x6
 8398 020d 50       		.byte	0x50
 8399 020e 93       		.byte	0x93
 8400 020f 04       		.uleb128 0x4
 8401 0210 51       		.byte	0x51
 8402 0211 93       		.byte	0x93
 8403 0212 04       		.uleb128 0x4
 8404 0213 00000000 		.4byte	0
 8405 0217 00000000 		.4byte	0
ARM GAS  C:\Users\weiro\AppData\Local\Temp\ccpp9Q4b.s 			page 167


 8406              	.LLST9:
 8407 021b 36000000 		.4byte	.LVL174
 8408 021f 66000000 		.4byte	.LVL178
 8409 0223 0600     		.2byte	0x6
 8410 0225 54       		.byte	0x54
 8411 0226 93       		.byte	0x93
 8412 0227 04       		.uleb128 0x4
 8413 0228 55       		.byte	0x55
 8414 0229 93       		.byte	0x93
 8415 022a 04       		.uleb128 0x4
 8416 022b 74000000 		.4byte	.LVL180
 8417 022f 7A000000 		.4byte	.LVL181
 8418 0233 0600     		.2byte	0x6
 8419 0235 54       		.byte	0x54
 8420 0236 93       		.byte	0x93
 8421 0237 04       		.uleb128 0x4
 8422 0238 55       		.byte	0x55
 8423 0239 93       		.byte	0x93
 8424 023a 04       		.uleb128 0x4
 8425 023b 88000000 		.4byte	.LVL183
 8426 023f 8E000000 		.4byte	.LVL184
 8427 0243 0600     		.2byte	0x6
 8428 0245 54       		.byte	0x54
 8429 0246 93       		.byte	0x93
 8430 0247 04       		.uleb128 0x4
 8431 0248 55       		.byte	0x55
 8432 0249 93       		.byte	0x93
 8433 024a 04       		.uleb128 0x4
 8434 024b A0000000 		.4byte	.LVL187
 8435 024f A6000000 		.4byte	.LVL188
 8436 0253 0600     		.2byte	0x6
 8437 0255 54       		.byte	0x54
 8438 0256 93       		.byte	0x93
 8439 0257 04       		.uleb128 0x4
 8440 0258 55       		.byte	0x55
 8441 0259 93       		.byte	0x93
 8442 025a 04       		.uleb128 0x4
 8443 025b 00000000 		.4byte	0
 8444 025f 00000000 		.4byte	0
 8445              	.LLST10:
 8446 0263 5C000000 		.4byte	.LVL177
 8447 0267 6D000000 		.4byte	.LVL179-1
 8448 026b 0600     		.2byte	0x6
 8449 026d 50       		.byte	0x50
 8450 026e 93       		.byte	0x93
 8451 026f 04       		.uleb128 0x4
 8452 0270 51       		.byte	0x51
 8453 0271 93       		.byte	0x93
 8454 0272 04       		.uleb128 0x4
 8455 0273 74000000 		.4byte	.LVL180
 8456 0277 81000000 		.4byte	.LVL182-1
 8457 027b 0600     		.2byte	0x6
 8458 027d 50       		.byte	0x50
 8459 027e 93       		.byte	0x93
 8460 027f 04       		.uleb128 0x4
 8461 0280 51       		.byte	0x51
 8462 0281 93       		.byte	0x93
ARM GAS  C:\Users\weiro\AppData\Local\Temp\ccpp9Q4b.s 			page 168


 8463 0282 04       		.uleb128 0x4
 8464 0283 88000000 		.4byte	.LVL183
 8465 0287 96000000 		.4byte	.LVL185
 8466 028b 0600     		.2byte	0x6
 8467 028d 50       		.byte	0x50
 8468 028e 93       		.byte	0x93
 8469 028f 04       		.uleb128 0x4
 8470 0290 51       		.byte	0x51
 8471 0291 93       		.byte	0x93
 8472 0292 04       		.uleb128 0x4
 8473 0293 A0000000 		.4byte	.LVL187
 8474 0297 AE000000 		.4byte	.LVL189
 8475 029b 0600     		.2byte	0x6
 8476 029d 50       		.byte	0x50
 8477 029e 93       		.byte	0x93
 8478 029f 04       		.uleb128 0x4
 8479 02a0 51       		.byte	0x51
 8480 02a1 93       		.byte	0x93
 8481 02a2 04       		.uleb128 0x4
 8482 02a3 00000000 		.4byte	0
 8483 02a7 00000000 		.4byte	0
 8484              	.LLST11:
 8485 02ab 02000000 		.4byte	.LVL192
 8486 02af 32000000 		.4byte	.LVL197
 8487 02b3 0200     		.2byte	0x2
 8488 02b5 30       		.byte	0x30
 8489 02b6 9F       		.byte	0x9f
 8490 02b7 32000000 		.4byte	.LVL197
 8491 02bb 36000000 		.4byte	.LVL198
 8492 02bf 0300     		.2byte	0x3
 8493 02c1 08       		.byte	0x8
 8494 02c2 B4       		.byte	0xb4
 8495 02c3 9F       		.byte	0x9f
 8496 02c4 36000000 		.4byte	.LVL198
 8497 02c8 3C000000 		.4byte	.LVL199
 8498 02cc 0400     		.2byte	0x4
 8499 02ce 0A       		.byte	0xa
 8500 02cf 0E01     		.2byte	0x10e
 8501 02d1 9F       		.byte	0x9f
 8502 02d2 3C000000 		.4byte	.LVL199
 8503 02d6 3E000000 		.4byte	.LVL200
 8504 02da 0200     		.2byte	0x2
 8505 02dc 30       		.byte	0x30
 8506 02dd 9F       		.byte	0x9f
 8507 02de 3E000000 		.4byte	.LVL200
 8508 02e2 6C000000 		.4byte	.LVL206
 8509 02e6 0100     		.2byte	0x1
 8510 02e8 54       		.byte	0x54
 8511 02e9 86000000 		.4byte	.LVL211
 8512 02ed 9C000000 		.4byte	.LVL216
 8513 02f1 0100     		.2byte	0x1
 8514 02f3 54       		.byte	0x54
 8515 02f4 9C000000 		.4byte	.LVL216
 8516 02f8 A8000000 		.4byte	.LFE79
 8517 02fc 0200     		.2byte	0x2
 8518 02fe 30       		.byte	0x30
 8519 02ff 9F       		.byte	0x9f
ARM GAS  C:\Users\weiro\AppData\Local\Temp\ccpp9Q4b.s 			page 169


 8520 0300 00000000 		.4byte	0
 8521 0304 00000000 		.4byte	0
 8522              	.LLST12:
 8523 0308 56000000 		.4byte	.LVL203
 8524 030c 63000000 		.4byte	.LVL204-1
 8525 0310 0100     		.2byte	0x1
 8526 0312 50       		.byte	0x50
 8527 0313 86000000 		.4byte	.LVL211
 8528 0317 8D000000 		.4byte	.LVL212-1
 8529 031b 0100     		.2byte	0x1
 8530 031d 50       		.byte	0x50
 8531 031e 90000000 		.4byte	.LVL213
 8532 0322 93000000 		.4byte	.LVL214-1
 8533 0326 0100     		.2byte	0x1
 8534 0328 50       		.byte	0x50
 8535 0329 00000000 		.4byte	0
 8536 032d 00000000 		.4byte	0
 8537              	.LLST13:
 8538 0331 02000000 		.4byte	.LVL217
 8539 0335 32000000 		.4byte	.LVL222
 8540 0339 0200     		.2byte	0x2
 8541 033b 30       		.byte	0x30
 8542 033c 9F       		.byte	0x9f
 8543 033d 32000000 		.4byte	.LVL222
 8544 0341 36000000 		.4byte	.LVL223
 8545 0345 0300     		.2byte	0x3
 8546 0347 08       		.byte	0x8
 8547 0348 B4       		.byte	0xb4
 8548 0349 9F       		.byte	0x9f
 8549 034a 36000000 		.4byte	.LVL223
 8550 034e 3C000000 		.4byte	.LVL224
 8551 0352 0400     		.2byte	0x4
 8552 0354 0A       		.byte	0xa
 8553 0355 0E01     		.2byte	0x10e
 8554 0357 9F       		.byte	0x9f
 8555 0358 3C000000 		.4byte	.LVL224
 8556 035c 3E000000 		.4byte	.LVL225
 8557 0360 0200     		.2byte	0x2
 8558 0362 30       		.byte	0x30
 8559 0363 9F       		.byte	0x9f
 8560 0364 3E000000 		.4byte	.LVL225
 8561 0368 6C000000 		.4byte	.LVL231
 8562 036c 0100     		.2byte	0x1
 8563 036e 54       		.byte	0x54
 8564 036f 86000000 		.4byte	.LVL236
 8565 0373 9C000000 		.4byte	.LVL241
 8566 0377 0100     		.2byte	0x1
 8567 0379 54       		.byte	0x54
 8568 037a 9C000000 		.4byte	.LVL241
 8569 037e A8000000 		.4byte	.LFE80
 8570 0382 0200     		.2byte	0x2
 8571 0384 30       		.byte	0x30
 8572 0385 9F       		.byte	0x9f
 8573 0386 00000000 		.4byte	0
 8574 038a 00000000 		.4byte	0
 8575              	.LLST14:
 8576 038e 56000000 		.4byte	.LVL228
ARM GAS  C:\Users\weiro\AppData\Local\Temp\ccpp9Q4b.s 			page 170


 8577 0392 63000000 		.4byte	.LVL229-1
 8578 0396 0100     		.2byte	0x1
 8579 0398 50       		.byte	0x50
 8580 0399 86000000 		.4byte	.LVL236
 8581 039d 8D000000 		.4byte	.LVL237-1
 8582 03a1 0100     		.2byte	0x1
 8583 03a3 50       		.byte	0x50
 8584 03a4 90000000 		.4byte	.LVL238
 8585 03a8 93000000 		.4byte	.LVL239-1
 8586 03ac 0100     		.2byte	0x1
 8587 03ae 50       		.byte	0x50
 8588 03af 00000000 		.4byte	0
 8589 03b3 00000000 		.4byte	0
 8590              	.LLST15:
 8591 03b7 00000000 		.4byte	.LVL242
 8592 03bb 08000000 		.4byte	.LVL243
 8593 03bf 0100     		.2byte	0x1
 8594 03c1 50       		.byte	0x50
 8595 03c2 08000000 		.4byte	.LVL243
 8596 03c6 90000000 		.4byte	.LVL252
 8597 03ca 0100     		.2byte	0x1
 8598 03cc 55       		.byte	0x55
 8599 03cd 90000000 		.4byte	.LVL252
 8600 03d1 94000000 		.4byte	.LFE81
 8601 03d5 0400     		.2byte	0x4
 8602 03d7 F3       		.byte	0xf3
 8603 03d8 01       		.uleb128 0x1
 8604 03d9 50       		.byte	0x50
 8605 03da 9F       		.byte	0x9f
 8606 03db 00000000 		.4byte	0
 8607 03df 00000000 		.4byte	0
 8608              	.LLST16:
 8609 03e3 00000000 		.4byte	.LVL242
 8610 03e7 08000000 		.4byte	.LVL243
 8611 03eb 0100     		.2byte	0x1
 8612 03ed 51       		.byte	0x51
 8613 03ee 08000000 		.4byte	.LVL243
 8614 03f2 90000000 		.4byte	.LVL252
 8615 03f6 0100     		.2byte	0x1
 8616 03f8 56       		.byte	0x56
 8617 03f9 90000000 		.4byte	.LVL252
 8618 03fd 94000000 		.4byte	.LFE81
 8619 0401 0400     		.2byte	0x4
 8620 0403 F3       		.byte	0xf3
 8621 0404 01       		.uleb128 0x1
 8622 0405 51       		.byte	0x51
 8623 0406 9F       		.byte	0x9f
 8624 0407 00000000 		.4byte	0
 8625 040b 00000000 		.4byte	0
 8626              	.LLST17:
 8627 040f 04000000 		.4byte	.LVL253
 8628 0413 6E000000 		.4byte	.LVL267
 8629 0417 0200     		.2byte	0x2
 8630 0419 31       		.byte	0x31
 8631 041a 9F       		.byte	0x9f
 8632 041b 6E000000 		.4byte	.LVL267
 8633 041f C8000000 		.4byte	.LVL279
ARM GAS  C:\Users\weiro\AppData\Local\Temp\ccpp9Q4b.s 			page 171


 8634 0423 0200     		.2byte	0x2
 8635 0425 32       		.byte	0x32
 8636 0426 9F       		.byte	0x9f
 8637 0427 C8000000 		.4byte	.LVL279
 8638 042b 22010000 		.4byte	.LVL291
 8639 042f 0200     		.2byte	0x2
 8640 0431 33       		.byte	0x33
 8641 0432 9F       		.byte	0x9f
 8642 0433 22010000 		.4byte	.LVL291
 8643 0437 50030000 		.4byte	.LFE82
 8644 043b 0200     		.2byte	0x2
 8645 043d 30       		.byte	0x30
 8646 043e 9F       		.byte	0x9f
 8647 043f 00000000 		.4byte	0
 8648 0443 00000000 		.4byte	0
 8649              	.LLST18:
 8650 0447 F2020000 		.4byte	.LVL336
 8651 044b FC020000 		.4byte	.LVL337
 8652 044f 0100     		.2byte	0x1
 8653 0451 50       		.byte	0x50
 8654 0452 FC020000 		.4byte	.LVL337
 8655 0456 22030000 		.4byte	.LVL342
 8656 045a 0100     		.2byte	0x1
 8657 045c 58       		.byte	0x58
 8658 045d 00000000 		.4byte	0
 8659 0461 00000000 		.4byte	0
 8660              	.LLST19:
 8661 0465 02000000 		.4byte	.LVL364
 8662 0469 08000000 		.4byte	.LVL365
 8663 046d 0200     		.2byte	0x2
 8664 046f 30       		.byte	0x30
 8665 0470 9F       		.byte	0x9f
 8666 0471 12000000 		.4byte	.LVL367
 8667 0475 19000000 		.4byte	.LVL368-1
 8668 0479 0600     		.2byte	0x6
 8669 047b 70       		.byte	0x70
 8670 047c 00       		.sleb128 0
 8671 047d 08       		.byte	0x8
 8672 047e FF       		.byte	0xff
 8673 047f 1A       		.byte	0x1a
 8674 0480 9F       		.byte	0x9f
 8675 0481 1A000000 		.4byte	.LVL368
 8676 0485 21000000 		.4byte	.LVL369-1
 8677 0489 0100     		.2byte	0x1
 8678 048b 50       		.byte	0x50
 8679 048c 00000000 		.4byte	0
 8680 0490 00000000 		.4byte	0
 8681              	.LLST20:
 8682 0494 02000000 		.4byte	.LVL364
 8683 0498 40000000 		.4byte	.LVL374
 8684 049c 0600     		.2byte	0x6
 8685 049e 9E       		.byte	0x9e
 8686 049f 04       		.uleb128 0x4
 8687 04a0 00000000 		.4byte	0
 8688 04a4 40000000 		.4byte	.LVL374
 8689 04a8 45000000 		.4byte	.LVL375-1
 8690 04ac 0100     		.2byte	0x1
ARM GAS  C:\Users\weiro\AppData\Local\Temp\ccpp9Q4b.s 			page 172


 8691 04ae 50       		.byte	0x50
 8692 04af 00000000 		.4byte	0
 8693 04b3 00000000 		.4byte	0
 8694              	.LLST21:
 8695 04b7 02000000 		.4byte	.LVL364
 8696 04bb 08000000 		.4byte	.LVL365
 8697 04bf 0600     		.2byte	0x6
 8698 04c1 9E       		.byte	0x9e
 8699 04c2 04       		.uleb128 0x4
 8700 04c3 00000000 		.4byte	0
 8701 04c7 08000000 		.4byte	.LVL365
 8702 04cb 2C000000 		.4byte	.LVL371
 8703 04cf 0100     		.2byte	0x1
 8704 04d1 55       		.byte	0x55
 8705 04d2 2C000000 		.4byte	.LVL371
 8706 04d6 2E000000 		.4byte	.LVL372
 8707 04da 0100     		.2byte	0x1
 8708 04dc 50       		.byte	0x50
 8709 04dd 2E000000 		.4byte	.LVL372
 8710 04e1 72000000 		.4byte	.LVL381
 8711 04e5 0100     		.2byte	0x1
 8712 04e7 55       		.byte	0x55
 8713 04e8 00000000 		.4byte	0
 8714 04ec 00000000 		.4byte	0
 8715              	.LLST22:
 8716 04f0 02000000 		.4byte	.LVL364
 8717 04f4 08000000 		.4byte	.LVL365
 8718 04f8 0200     		.2byte	0x2
 8719 04fa 30       		.byte	0x30
 8720 04fb 9F       		.byte	0x9f
 8721 04fc 08000000 		.4byte	.LVL365
 8722 0500 7A000000 		.4byte	.LVL384
 8723 0504 0100     		.2byte	0x1
 8724 0506 54       		.byte	0x54
 8725 0507 00000000 		.4byte	0
 8726 050b 00000000 		.4byte	0
 8727              	.LLST23:
 8728 050f 02000000 		.4byte	.LVL364
 8729 0513 46000000 		.4byte	.LVL375
 8730 0517 0600     		.2byte	0x6
 8731 0519 9E       		.byte	0x9e
 8732 051a 04       		.uleb128 0x4
 8733 051b 00000000 		.4byte	0
 8734 051f 46000000 		.4byte	.LVL375
 8735 0523 49000000 		.4byte	.LVL376-1
 8736 0527 0100     		.2byte	0x1
 8737 0529 50       		.byte	0x50
 8738 052a 00000000 		.4byte	0
 8739 052e 00000000 		.4byte	0
 8740              	.LLST24:
 8741 0532 02000000 		.4byte	.LVL364
 8742 0536 72000000 		.4byte	.LVL381
 8743 053a 0600     		.2byte	0x6
 8744 053c 9E       		.byte	0x9e
 8745 053d 04       		.uleb128 0x4
 8746 053e 00000000 		.4byte	0
 8747 0542 72000000 		.4byte	.LVL381
ARM GAS  C:\Users\weiro\AppData\Local\Temp\ccpp9Q4b.s 			page 173


 8748 0546 74000000 		.4byte	.LVL382
 8749 054a 0100     		.2byte	0x1
 8750 054c 50       		.byte	0x50
 8751 054d 74000000 		.4byte	.LVL382
 8752 0551 A8000000 		.4byte	.LVL390
 8753 0555 0100     		.2byte	0x1
 8754 0557 55       		.byte	0x55
 8755 0558 A8000000 		.4byte	.LVL390
 8756 055c D4000000 		.4byte	.LFE85
 8757 0560 0100     		.2byte	0x1
 8758 0562 50       		.byte	0x50
 8759 0563 00000000 		.4byte	0
 8760 0567 00000000 		.4byte	0
 8761              	.LLST25:
 8762 056b 00000000 		.4byte	.LVL391
 8763 056f 08000000 		.4byte	.LVL393
 8764 0573 0100     		.2byte	0x1
 8765 0575 50       		.byte	0x50
 8766 0576 08000000 		.4byte	.LVL393
 8767 057a 96000000 		.4byte	.LVL411
 8768 057e 0100     		.2byte	0x1
 8769 0580 55       		.byte	0x55
 8770 0581 96000000 		.4byte	.LVL411
 8771 0585 A8000000 		.4byte	.LFE86
 8772 0589 0400     		.2byte	0x4
 8773 058b F3       		.byte	0xf3
 8774 058c 01       		.uleb128 0x1
 8775 058d 50       		.byte	0x50
 8776 058e 9F       		.byte	0x9f
 8777 058f 00000000 		.4byte	0
 8778 0593 00000000 		.4byte	0
 8779              	.LLST26:
 8780 0597 04000000 		.4byte	.LVL392
 8781 059b 08000000 		.4byte	.LVL393
 8782 059f 0200     		.2byte	0x2
 8783 05a1 30       		.byte	0x30
 8784 05a2 9F       		.byte	0x9f
 8785 05a3 08000000 		.4byte	.LVL393
 8786 05a7 96000000 		.4byte	.LVL411
 8787 05ab 0100     		.2byte	0x1
 8788 05ad 54       		.byte	0x54
 8789 05ae 00000000 		.4byte	0
 8790 05b2 00000000 		.4byte	0
 8791              	.LLST27:
 8792 05b6 0C000000 		.4byte	.LVL394
 8793 05ba 90000000 		.4byte	.LVL410
 8794 05be 0200     		.2byte	0x2
 8795 05c0 31       		.byte	0x31
 8796 05c1 9F       		.byte	0x9f
 8797 05c2 00000000 		.4byte	0
 8798 05c6 00000000 		.4byte	0
 8799              	.LLST28:
 8800 05ca 0C000000 		.4byte	.LVL394
 8801 05ce 90000000 		.4byte	.LVL410
 8802 05d2 0200     		.2byte	0x2
 8803 05d4 34       		.byte	0x34
 8804 05d5 9F       		.byte	0x9f
ARM GAS  C:\Users\weiro\AppData\Local\Temp\ccpp9Q4b.s 			page 174


 8805 05d6 00000000 		.4byte	0
 8806 05da 00000000 		.4byte	0
 8807              		.section	.debug_aranges,"",%progbits
 8808 0000 E4000000 		.4byte	0xe4
 8809 0004 0200     		.2byte	0x2
 8810 0006 00000000 		.4byte	.Ldebug_info0
 8811 000a 04       		.byte	0x4
 8812 000b 00       		.byte	0
 8813 000c 0000     		.2byte	0
 8814 000e 0000     		.2byte	0
 8815 0010 00000000 		.4byte	.LFB64
 8816 0014 78000000 		.4byte	.LFE64-.LFB64
 8817 0018 00000000 		.4byte	.LFB65
 8818 001c E4000000 		.4byte	.LFE65-.LFB65
 8819 0020 00000000 		.4byte	.LFB66
 8820 0024 14000000 		.4byte	.LFE66-.LFB66
 8821 0028 00000000 		.4byte	.LFB67
 8822 002c 38000000 		.4byte	.LFE67-.LFB67
 8823 0030 00000000 		.4byte	.LFB68
 8824 0034 58020000 		.4byte	.LFE68-.LFB68
 8825 0038 00000000 		.4byte	.LFB69
 8826 003c 28000000 		.4byte	.LFE69-.LFB69
 8827 0040 00000000 		.4byte	.LFB70
 8828 0044 28000000 		.4byte	.LFE70-.LFB70
 8829 0048 00000000 		.4byte	.LFB71
 8830 004c 28000000 		.4byte	.LFE71-.LFB71
 8831 0050 00000000 		.4byte	.LFB72
 8832 0054 28000000 		.4byte	.LFE72-.LFB72
 8833 0058 00000000 		.4byte	.LFB73
 8834 005c 28000000 		.4byte	.LFE73-.LFB73
 8835 0060 00000000 		.4byte	.LFB74
 8836 0064 1C000000 		.4byte	.LFE74-.LFB74
 8837 0068 00000000 		.4byte	.LFB75
 8838 006c 14010000 		.4byte	.LFE75-.LFB75
 8839 0070 00000000 		.4byte	.LFB76
 8840 0074 F8000000 		.4byte	.LFE76-.LFB76
 8841 0078 00000000 		.4byte	.LFB77
 8842 007c 28010000 		.4byte	.LFE77-.LFB77
 8843 0080 00000000 		.4byte	.LFB78
 8844 0084 D8000000 		.4byte	.LFE78-.LFB78
 8845 0088 00000000 		.4byte	.LFB79
 8846 008c A8000000 		.4byte	.LFE79-.LFB79
 8847 0090 00000000 		.4byte	.LFB80
 8848 0094 A8000000 		.4byte	.LFE80-.LFB80
 8849 0098 00000000 		.4byte	.LFB81
 8850 009c 94000000 		.4byte	.LFE81-.LFB81
 8851 00a0 00000000 		.4byte	.LFB82
 8852 00a4 50030000 		.4byte	.LFE82-.LFB82
 8853 00a8 00000000 		.4byte	.LFB83
 8854 00ac 5E000000 		.4byte	.LFE83-.LFB83
 8855 00b0 00000000 		.4byte	.LFB84
 8856 00b4 28000000 		.4byte	.LFE84-.LFB84
 8857 00b8 00000000 		.4byte	.LFB85
 8858 00bc D4000000 		.4byte	.LFE85-.LFB85
 8859 00c0 00000000 		.4byte	.LFB86
 8860 00c4 A8000000 		.4byte	.LFE86-.LFB86
 8861 00c8 00000000 		.4byte	.LFB87
ARM GAS  C:\Users\weiro\AppData\Local\Temp\ccpp9Q4b.s 			page 175


 8862 00cc 3C000000 		.4byte	.LFE87-.LFB87
 8863 00d0 00000000 		.4byte	.LFB88
 8864 00d4 3C000000 		.4byte	.LFE88-.LFB88
 8865 00d8 00000000 		.4byte	.LFB89
 8866 00dc 60010000 		.4byte	.LFE89-.LFB89
 8867 00e0 00000000 		.4byte	0
 8868 00e4 00000000 		.4byte	0
 8869              		.section	.debug_ranges,"",%progbits
 8870              	.Ldebug_ranges0:
 8871 0000 3E000000 		.4byte	.LBB2
 8872 0004 64000000 		.4byte	.LBE2
 8873 0008 86000000 		.4byte	.LBB3
 8874 000c 9A000000 		.4byte	.LBE3
 8875 0010 00000000 		.4byte	0
 8876 0014 00000000 		.4byte	0
 8877 0018 3E000000 		.4byte	.LBB4
 8878 001c 64000000 		.4byte	.LBE4
 8879 0020 86000000 		.4byte	.LBB5
 8880 0024 9A000000 		.4byte	.LBE5
 8881 0028 00000000 		.4byte	0
 8882 002c 00000000 		.4byte	0
 8883 0030 00000000 		.4byte	.LFB64
 8884 0034 78000000 		.4byte	.LFE64
 8885 0038 00000000 		.4byte	.LFB65
 8886 003c E4000000 		.4byte	.LFE65
 8887 0040 00000000 		.4byte	.LFB66
 8888 0044 14000000 		.4byte	.LFE66
 8889 0048 00000000 		.4byte	.LFB67
 8890 004c 38000000 		.4byte	.LFE67
 8891 0050 00000000 		.4byte	.LFB68
 8892 0054 58020000 		.4byte	.LFE68
 8893 0058 00000000 		.4byte	.LFB69
 8894 005c 28000000 		.4byte	.LFE69
 8895 0060 00000000 		.4byte	.LFB70
 8896 0064 28000000 		.4byte	.LFE70
 8897 0068 00000000 		.4byte	.LFB71
 8898 006c 28000000 		.4byte	.LFE71
 8899 0070 00000000 		.4byte	.LFB72
 8900 0074 28000000 		.4byte	.LFE72
 8901 0078 00000000 		.4byte	.LFB73
 8902 007c 28000000 		.4byte	.LFE73
 8903 0080 00000000 		.4byte	.LFB74
 8904 0084 1C000000 		.4byte	.LFE74
 8905 0088 00000000 		.4byte	.LFB75
 8906 008c 14010000 		.4byte	.LFE75
 8907 0090 00000000 		.4byte	.LFB76
 8908 0094 F8000000 		.4byte	.LFE76
 8909 0098 00000000 		.4byte	.LFB77
 8910 009c 28010000 		.4byte	.LFE77
 8911 00a0 00000000 		.4byte	.LFB78
 8912 00a4 D8000000 		.4byte	.LFE78
 8913 00a8 00000000 		.4byte	.LFB79
 8914 00ac A8000000 		.4byte	.LFE79
 8915 00b0 00000000 		.4byte	.LFB80
 8916 00b4 A8000000 		.4byte	.LFE80
 8917 00b8 00000000 		.4byte	.LFB81
 8918 00bc 94000000 		.4byte	.LFE81
ARM GAS  C:\Users\weiro\AppData\Local\Temp\ccpp9Q4b.s 			page 176


 8919 00c0 00000000 		.4byte	.LFB82
 8920 00c4 50030000 		.4byte	.LFE82
 8921 00c8 00000000 		.4byte	.LFB83
 8922 00cc 5E000000 		.4byte	.LFE83
 8923 00d0 00000000 		.4byte	.LFB84
 8924 00d4 28000000 		.4byte	.LFE84
 8925 00d8 00000000 		.4byte	.LFB85
 8926 00dc D4000000 		.4byte	.LFE85
 8927 00e0 00000000 		.4byte	.LFB86
 8928 00e4 A8000000 		.4byte	.LFE86
 8929 00e8 00000000 		.4byte	.LFB87
 8930 00ec 3C000000 		.4byte	.LFE87
 8931 00f0 00000000 		.4byte	.LFB88
 8932 00f4 3C000000 		.4byte	.LFE88
 8933 00f8 00000000 		.4byte	.LFB89
 8934 00fc 60010000 		.4byte	.LFE89
 8935 0100 00000000 		.4byte	0
 8936 0104 00000000 		.4byte	0
 8937              		.section	.debug_line,"",%progbits
 8938              	.Ldebug_line0:
 8939 0000 01080000 		.section	.debug_str,"MS",%progbits,1
 8939      0200FC03 
 8939      00000201 
 8939      FB0E0D00 
 8939      01010101 
 8940              	.LASF98:
 8941 0000 64697265 		.ascii	"direction\000"
 8941      6374696F 
 8941      6E00
 8942              	.LASF104:
 8943 000a 646F776E 		.ascii	"down_big\000"
 8943      5F626967 
 8943      00
 8944              	.LASF136:
 8945 0013 43794465 		.ascii	"CyDelay\000"
 8945      6C617900 
 8946              	.LASF83:
 8947 001b 50574D5F 		.ascii	"PWM_Master\000"
 8947      4D617374 
 8947      657200
 8948              	.LASF119:
 8949 0026 6379636C 		.ascii	"cycles\000"
 8949      657300
 8950              	.LASF147:
 8951 002d 436F6E74 		.ascii	"Control_Reg_2_Write\000"
 8951      726F6C5F 
 8951      5265675F 
 8951      325F5772 
 8951      69746500 
 8952              	.LASF70:
 8953 0041 434D5F43 		.ascii	"CM_COUNT_CONV\000"
 8953      4F554E54 
 8953      5F434F4E 
 8953      5600
 8954              	.LASF191:
 8955 004f 6D61696E 		.ascii	"main.c\000"
 8955      2E6300
ARM GAS  C:\Users\weiro\AppData\Local\Temp\ccpp9Q4b.s 			page 177


 8956              	.LASF53:
 8957 0056 53686172 		.ascii	"Sharp_IR_sum_a\000"
 8957      705F4952 
 8957      5F73756D 
 8957      5F6100
 8958              	.LASF181:
 8959 0065 50574D5F 		.ascii	"PWM_BigServo_Start\000"
 8959      42696753 
 8959      6572766F 
 8959      5F537461 
 8959      727400
 8960              	.LASF155:
 8961 0078 43535F4C 		.ascii	"CS_LED_Write\000"
 8961      45445F57 
 8961      72697465 
 8961      00
 8962              	.LASF56:
 8963 0085 53686172 		.ascii	"Sharp_IR_dist\000"
 8963      705F4952 
 8963      5F646973 
 8963      7400
 8964              	.LASF175:
 8965 0093 54696D65 		.ascii	"Timer_3_Start\000"
 8965      725F335F 
 8965      53746172 
 8965      7400
 8966              	.LASF180:
 8967 00a1 50574D5F 		.ascii	"PWM_SmallServo_Start\000"
 8967      536D616C 
 8967      6C536572 
 8967      766F5F53 
 8967      74617274 
 8968              	.LASF145:
 8969 00b6 51756164 		.ascii	"QuadDec_1_GetCounter\000"
 8969      4465635F 
 8969      315F4765 
 8969      74436F75 
 8969      6E746572 
 8970              	.LASF66:
 8971 00cb 43535F63 		.ascii	"CS_count_Red\000"
 8971      6F756E74 
 8971      5F526564 
 8971      00
 8972              	.LASF172:
 8973 00d8 6973725F 		.ascii	"isr_1_StartEx\000"
 8973      315F5374 
 8973      61727445 
 8973      7800
 8974              	.LASF112:
 8975 00e6 61727261 		.ascii	"array_1\000"
 8975      795F3100 
 8976              	.LASF63:
 8977 00ee 696E6974 		.ascii	"initial\000"
 8977      69616C00 
 8978              	.LASF9:
 8979 00f6 756E7369 		.ascii	"unsigned int\000"
 8979      676E6564 
ARM GAS  C:\Users\weiro\AppData\Local\Temp\ccpp9Q4b.s 			page 178


 8979      20696E74 
 8979      00
 8980              	.LASF18:
 8981 0103 53706565 		.ascii	"Speed_Control\000"
 8981      645F436F 
 8981      6E74726F 
 8981      6C00
 8982              	.LASF122:
 8983 0111 6572726F 		.ascii	"error_gyro\000"
 8983      725F6779 
 8983      726F00
 8984              	.LASF10:
 8985 011c 5F5F696E 		.ascii	"__int32_t\000"
 8985      7433325F 
 8985      7400
 8986              	.LASF13:
 8987 0126 696E7431 		.ascii	"int16\000"
 8987      3600
 8988              	.LASF151:
 8989 012c 49525F69 		.ascii	"IR_input_Read\000"
 8989      6E707574 
 8989      5F526561 
 8989      6400
 8990              	.LASF93:
 8991 013a 72696768 		.ascii	"right_measured\000"
 8991      745F6D65 
 8991      61737572 
 8991      656400
 8992              	.LASF82:
 8993 0149 74696D65 		.ascii	"timer_period\000"
 8993      725F7065 
 8993      72696F64 
 8993      00
 8994              	.LASF126:
 8995 0156 54696D65 		.ascii	"Timer_3_ReadStatusRegister\000"
 8995      725F335F 
 8995      52656164 
 8995      53746174 
 8995      75735265 
 8996              	.LASF182:
 8997 0171 51756164 		.ascii	"QuadDec_1_Start\000"
 8997      4465635F 
 8997      315F5374 
 8997      61727400 
 8998              	.LASF123:
 8999 0181 6572726F 		.ascii	"error_gyro_avg\000"
 8999      725F6779 
 8999      726F5F61 
 8999      766700
 9000              	.LASF163:
 9001 0190 6C65645F 		.ascii	"led_green_Write\000"
 9001      67726565 
 9001      6E5F5772 
 9001      69746500 
 9002              	.LASF78:
 9003 01a0 6572726F 		.ascii	"error\000"
 9003      7200
ARM GAS  C:\Users\weiro\AppData\Local\Temp\ccpp9Q4b.s 			page 179


 9004              	.LASF46:
 9005 01a6 6D6F6465 		.ascii	"mode\000"
 9005      00
 9006              	.LASF103:
 9007 01ab 736C6974 		.ascii	"slit_detected\000"
 9007      5F646574 
 9007      65637465 
 9007      6400
 9008              	.LASF68:
 9009 01b9 43535F63 		.ascii	"CS_count_Green\000"
 9009      6F756E74 
 9009      5F477265 
 9009      656E00
 9010              	.LASF28:
 9011 01c8 72657365 		.ascii	"reset_count\000"
 9011      745F636F 
 9011      756E7400 
 9012              	.LASF189:
 9013 01d4 5357325F 		.ascii	"SW2_Read\000"
 9013      52656164 
 9013      00
 9014              	.LASF67:
 9015 01dd 43535F63 		.ascii	"CS_count_Blue\000"
 9015      6F756E74 
 9015      5F426C75 
 9015      6500
 9016              	.LASF25:
 9017 01eb 72657665 		.ascii	"reverse\000"
 9017      72736500 
 9018              	.LASF65:
 9019 01f3 57484545 		.ascii	"WHEEL_CIRCUMFERENCE\000"
 9019      4C5F4349 
 9019      5243554D 
 9019      46455245 
 9019      4E434500 
 9020              	.LASF135:
 9021 0207 4932435F 		.ascii	"I2C_1_MasterSendStop\000"
 9021      315F4D61 
 9021      73746572 
 9021      53656E64 
 9021      53746F70 
 9022              	.LASF61:
 9023 021c 5075745F 		.ascii	"Put_Down_Puck\000"
 9023      446F776E 
 9023      5F507563 
 9023      6B00
 9024              	.LASF129:
 9025 022a 55415254 		.ascii	"UART_2_PutString\000"
 9025      5F325F50 
 9025      75745374 
 9025      72696E67 
 9025      00
 9026              	.LASF57:
 9027 023b 46696E64 		.ascii	"Find_Puck\000"
 9027      5F507563 
 9027      6B00
 9028              	.LASF96:
ARM GAS  C:\Users\weiro\AppData\Local\Temp\ccpp9Q4b.s 			page 180


 9029 0245 785F636F 		.ascii	"x_coord\000"
 9029      6F726400 
 9030              	.LASF23:
 9031 024d 73746F70 		.ascii	"stop\000"
 9031      00
 9032              	.LASF72:
 9033 0252 44495354 		.ascii	"DISTANCE_PT_TURN\000"
 9033      414E4345 
 9033      5F50545F 
 9033      5455524E 
 9033      00
 9034              	.LASF14:
 9035 0263 666C6F61 		.ascii	"float\000"
 9035      7400
 9036              	.LASF167:
 9037 0269 4144435F 		.ascii	"ADC_SAR_1_StartConvert\000"
 9037      5341525F 
 9037      315F5374 
 9037      61727443 
 9037      6F6E7665 
 9038              	.LASF121:
 9039 0280 636F756E 		.ascii	"count\000"
 9039      7400
 9040              	.LASF107:
 9041 0286 636C6F73 		.ascii	"close_small\000"
 9041      655F736D 
 9041      616C6C00 
 9042              	.LASF43:
 9043 0292 50545F54 		.ascii	"PT_TURN_COUNT\000"
 9043      55524E5F 
 9043      434F554E 
 9043      5400
 9044              	.LASF149:
 9045 02a0 43794465 		.ascii	"CyDelayUs\000"
 9045      6C617955 
 9045      7300
 9046              	.LASF132:
 9047 02aa 54696D65 		.ascii	"Timer_2_ReadStatusRegister\000"
 9047      725F325F 
 9047      52656164 
 9047      53746174 
 9047      75735265 
 9048              	.LASF8:
 9049 02c5 6C6F6E67 		.ascii	"long long unsigned int\000"
 9049      206C6F6E 
 9049      6720756E 
 9049      7369676E 
 9049      65642069 
 9050              	.LASF94:
 9051 02dc 6C656674 		.ascii	"left_measured\000"
 9051      5F6D6561 
 9051      73757265 
 9051      6400
 9052              	.LASF177:
 9053 02ea 50574D5F 		.ascii	"PWM_ColorSensor_Start\000"
 9053      436F6C6F 
 9053      7253656E 
ARM GAS  C:\Users\weiro\AppData\Local\Temp\ccpp9Q4b.s 			page 181


 9053      736F725F 
 9053      53746172 
 9054              	.LASF88:
 9055 0300 69735F6D 		.ascii	"is_moving\000"
 9055      6F76696E 
 9055      6700
 9056              	.LASF154:
 9057 030a 53315F57 		.ascii	"S1_Write\000"
 9057      72697465 
 9057      00
 9058              	.LASF148:
 9059 0313 54726967 		.ascii	"Trigger_Write\000"
 9059      6765725F 
 9059      57726974 
 9059      6500
 9060              	.LASF165:
 9061 0321 46726F6E 		.ascii	"Front_Echo_2_Read\000"
 9061      745F4563 
 9061      686F5F32 
 9061      5F526561 
 9061      6400
 9062              	.LASF36:
 9063 0333 6D6F7665 		.ascii	"move2slit\000"
 9063      32736C69 
 9063      7400
 9064              	.LASF164:
 9065 033d 6C65645F 		.ascii	"led_blue_Write\000"
 9065      626C7565 
 9065      5F577269 
 9065      746500
 9066              	.LASF117:
 9067 034c 63757272 		.ascii	"current_reading\000"
 9067      656E745F 
 9067      72656164 
 9067      696E6700 
 9068              	.LASF190:
 9069 035c 474E5520 		.ascii	"GNU C11 5.4.1 20160609 (release) [ARM/embedded-5-br"
 9069      43313120 
 9069      352E342E 
 9069      31203230 
 9069      31363036 
 9070 038f 616E6368 		.ascii	"anch revision 237715] -mcpu=cortex-m3 -mthumb -g -O"
 9070      20726576 
 9070      6973696F 
 9070      6E203233 
 9070      37373135 
 9071 03c2 67202D66 		.ascii	"g -ffunction-sections -ffat-lto-objects\000"
 9071      66756E63 
 9071      74696F6E 
 9071      2D736563 
 9071      74696F6E 
 9072              	.LASF79:
 9073 03ea 61636375 		.ascii	"accumulated_error\000"
 9073      6D756C61 
 9073      7465645F 
 9073      6572726F 
 9073      7200
ARM GAS  C:\Users\weiro\AppData\Local\Temp\ccpp9Q4b.s 			page 182


 9074              	.LASF69:
 9075 03fc 434F554E 		.ascii	"COUNT_WHEEL\000"
 9075      545F5748 
 9075      45454C00 
 9076              	.LASF58:
 9077 0408 74617267 		.ascii	"target\000"
 9077      657400
 9078              	.LASF188:
 9079 040f 55415254 		.ascii	"UART_2_Start\000"
 9079      5F325F53 
 9079      74617274 
 9079      00
 9080              	.LASF48:
 9081 041c 466C6963 		.ascii	"Flicker_Function\000"
 9081      6B65725F 
 9081      46756E63 
 9081      74696F6E 
 9081      00
 9082              	.LASF138:
 9083 042d 55415254 		.ascii	"UART_1_PutString\000"
 9083      5F315F50 
 9083      75745374 
 9083      72696E67 
 9083      00
 9084              	.LASF39:
 9085 043e 414E474C 		.ascii	"ANGLE_TOLERANCE\000"
 9085      455F544F 
 9085      4C455241 
 9085      4E434500 
 9086              	.LASF55:
 9087 044e 53686172 		.ascii	"Sharp_IR_volt\000"
 9087      705F4952 
 9087      5F766F6C 
 9087      7400
 9088              	.LASF168:
 9089 045c 4144435F 		.ascii	"ADC_SAR_1_IsEndConversion\000"
 9089      5341525F 
 9089      315F4973 
 9089      456E6443 
 9089      6F6E7665 
 9090              	.LASF170:
 9091 0476 50574D5F 		.ascii	"PWM_BigServo_WriteCompare\000"
 9091      42696753 
 9091      6572766F 
 9091      5F577269 
 9091      7465436F 
 9092              	.LASF47:
 9093 0490 4779726F 		.ascii	"Gyroscope_Function\000"
 9093      73636F70 
 9093      655F4675 
 9093      6E637469 
 9093      6F6E00
 9094              	.LASF34:
 9095 04a3 64697374 		.ascii	"dist_count\000"
 9095      5F636F75 
 9095      6E7400
 9096              	.LASF54:
ARM GAS  C:\Users\weiro\AppData\Local\Temp\ccpp9Q4b.s 			page 183


 9097 04ae 53686172 		.ascii	"Sharp_IR_iter\000"
 9097      705F4952 
 9097      5F697465 
 9097      7200
 9098              	.LASF146:
 9099 04bc 51756164 		.ascii	"QuadDec_2_GetCounter\000"
 9099      4465635F 
 9099      325F4765 
 9099      74436F75 
 9099      6E746572 
 9100              	.LASF139:
 9101 04d1 4D6F746F 		.ascii	"Motor_1_IN_1_Write\000"
 9101      725F315F 
 9101      494E5F31 
 9101      5F577269 
 9101      746500
 9102              	.LASF114:
 9103 04e4 7961775F 		.ascii	"yaw_rate\000"
 9103      72617465 
 9103      00
 9104              	.LASF142:
 9105 04ed 4D6F746F 		.ascii	"Motor_2_IN_4_Write\000"
 9105      725F325F 
 9105      494E5F34 
 9105      5F577269 
 9105      746500
 9106              	.LASF130:
 9107 0500 50574D5F 		.ascii	"PWM_ColorSensor_ReadStatusRegister\000"
 9107      436F6C6F 
 9107      7253656E 
 9107      736F725F 
 9107      52656164 
 9108              	.LASF158:
 9109 0523 53335F57 		.ascii	"S3_Write\000"
 9109      72697465 
 9109      00
 9110              	.LASF15:
 9111 052c 63686172 		.ascii	"char\000"
 9111      00
 9112              	.LASF40:
 9113 0531 74617267 		.ascii	"targetAngle\000"
 9113      6574416E 
 9113      676C6500 
 9114              	.LASF35:
 9115 053d 6D6F7665 		.ascii	"move2wall\000"
 9115      3277616C 
 9115      6C00
 9116              	.LASF90:
 9117 0547 756C7472 		.ascii	"ultrasonic_measure\000"
 9117      61736F6E 
 9117      69635F6D 
 9117      65617375 
 9117      726500
 9118              	.LASF159:
 9119 055a 436F6E74 		.ascii	"Control_Reg_1_Write\000"
 9119      726F6C5F 
 9119      5265675F 
ARM GAS  C:\Users\weiro\AppData\Local\Temp\ccpp9Q4b.s 			page 184


 9119      315F5772 
 9119      69746500 
 9120              	.LASF166:
 9121 056e 466C6963 		.ascii	"Flicker_Write\000"
 9121      6B65725F 
 9121      57726974 
 9121      6500
 9122              	.LASF186:
 9123 057c 54696D65 		.ascii	"Timer_2_Start\000"
 9123      725F325F 
 9123      53746172 
 9123      7400
 9124              	.LASF127:
 9125 058a 54696D65 		.ascii	"Timer_3_ReadCounter\000"
 9125      725F335F 
 9125      52656164 
 9125      436F756E 
 9125      74657200 
 9126              	.LASF118:
 9127 059e 68656164 		.ascii	"heading\000"
 9127      696E6700 
 9128              	.LASF173:
 9129 05a6 6973725F 		.ascii	"isr_6_StartEx\000"
 9129      365F5374 
 9129      61727445 
 9129      7800
 9130              	.LASF7:
 9131 05b4 6C6F6E67 		.ascii	"long long int\000"
 9131      206C6F6E 
 9131      6720696E 
 9131      7400
 9132              	.LASF52:
 9133 05c2 53686172 		.ascii	"Sharp_IR_avg_a\000"
 9133      705F4952 
 9133      5F617667 
 9133      5F6100
 9134              	.LASF29:
 9135 05d1 6D6F7665 		.ascii	"move_fixed_dist\000"
 9135      5F666978 
 9135      65645F64 
 9135      69737400 
 9136              	.LASF71:
 9137 05e1 44495354 		.ascii	"DISTANCE_BETW_WHEEL\000"
 9137      414E4345 
 9137      5F424554 
 9137      575F5748 
 9137      45454C00 
 9138              	.LASF187:
 9139 05f5 6973725F 		.ascii	"isr_2_StartEx\000"
 9139      325F5374 
 9139      61727445 
 9139      7800
 9140              	.LASF137:
 9141 0603 4932435F 		.ascii	"I2C_1_MasterReadByte\000"
 9141      315F4D61 
 9141      73746572 
 9141      52656164 
ARM GAS  C:\Users\weiro\AppData\Local\Temp\ccpp9Q4b.s 			page 185


 9141      42797465 
 9142              	.LASF160:
 9143 0618 436F756E 		.ascii	"Counter_ColorSensor_ReadCapture\000"
 9143      7465725F 
 9143      436F6C6F 
 9143      7253656E 
 9143      736F725F 
 9144              	.LASF44:
 9145 0638 666C6167 		.ascii	"flag_CW\000"
 9145      5F435700 
 9146              	.LASF24:
 9147 0640 666F7277 		.ascii	"forward\000"
 9147      61726400 
 9148              	.LASF99:
 9149 0648 73746570 		.ascii	"step\000"
 9149      00
 9150              	.LASF19:
 9151 064d 756C7472 		.ascii	"ultrasonic_echo\000"
 9151      61736F6E 
 9151      69635F65 
 9151      63686F00 
 9152              	.LASF30:
 9153 065d 64697374 		.ascii	"dist\000"
 9153      00
 9154              	.LASF115:
 9155 0662 7961775F 		.ascii	"yaw_angle\000"
 9155      616E676C 
 9155      6500
 9156              	.LASF20:
 9157 066c 436F6C6F 		.ascii	"Color_sensing\000"
 9157      725F7365 
 9157      6E73696E 
 9157      6700
 9158              	.LASF100:
 9159 067a 636F6D70 		.ascii	"compare_ready\000"
 9159      6172655F 
 9159      72656164 
 9159      7900
 9160              	.LASF128:
 9161 0688 73707269 		.ascii	"sprintf\000"
 9161      6E746600 
 9162              	.LASF22:
 9163 0690 4779726F 		.ascii	"Gyroscope\000"
 9163      73636F70 
 9163      6500
 9164              	.LASF171:
 9165 069a 50574D5F 		.ascii	"PWM_SmallServo_WriteCompare\000"
 9165      536D616C 
 9165      6C536572 
 9165      766F5F57 
 9165      72697465 
 9166              	.LASF16:
 9167 06b6 6C6F6E67 		.ascii	"long double\000"
 9167      20646F75 
 9167      626C6500 
 9168              	.LASF108:
 9169 06c2 73747269 		.ascii	"string_bt\000"
ARM GAS  C:\Users\weiro\AppData\Local\Temp\ccpp9Q4b.s 			page 186


 9169      6E675F62 
 9169      7400
 9170              	.LASF176:
 9171 06cc 6973725F 		.ascii	"isr_3_StartEx\000"
 9171      335F5374 
 9171      61727445 
 9171      7800
 9172              	.LASF27:
 9173 06da 7475726E 		.ascii	"turn_clockwise\000"
 9173      5F636C6F 
 9173      636B7769 
 9173      736500
 9174              	.LASF97:
 9175 06e9 795F636F 		.ascii	"y_coord\000"
 9175      6F726400 
 9176              	.LASF64:
 9177 06f1 57484545 		.ascii	"WHEEL_DIAMETER\000"
 9177      4C5F4449 
 9177      414D4554 
 9177      455200
 9178              	.LASF51:
 9179 0700 53686172 		.ascii	"Sharp_IR_analogue\000"
 9179      705F4952 
 9179      5F616E61 
 9179      6C6F6775 
 9179      6500
 9180              	.LASF74:
 9181 0712 436F756E 		.ascii	"Count_Slave\000"
 9181      745F536C 
 9181      61766500 
 9182              	.LASF49:
 9183 071e 64697374 		.ascii	"dist_trav\000"
 9183      5F747261 
 9183      7600
 9184              	.LASF183:
 9185 0728 51756164 		.ascii	"QuadDec_2_Start\000"
 9185      4465635F 
 9185      325F5374 
 9185      61727400 
 9186              	.LASF3:
 9187 0738 73686F72 		.ascii	"short int\000"
 9187      7420696E 
 9187      7400
 9188              	.LASF133:
 9189 0742 4932435F 		.ascii	"I2C_1_MasterSendStart\000"
 9189      315F4D61 
 9189      73746572 
 9189      53656E64 
 9189      53746172 
 9190              	.LASF59:
 9191 0758 6F626A65 		.ascii	"objective\000"
 9191      63746976 
 9191      6500
 9192              	.LASF5:
 9193 0762 6C6F6E67 		.ascii	"long int\000"
 9193      20696E74 
 9193      00
ARM GAS  C:\Users\weiro\AppData\Local\Temp\ccpp9Q4b.s 			page 187


 9194              	.LASF62:
 9195 076b 49544D5F 		.ascii	"ITM_RxBuffer\000"
 9195      52784275 
 9195      66666572 
 9195      00
 9196              	.LASF150:
 9197 0778 4C656674 		.ascii	"Left_Echo_Read\000"
 9197      5F456368 
 9197      6F5F5265 
 9197      616400
 9198              	.LASF185:
 9199 0787 4932435F 		.ascii	"I2C_1_Start\000"
 9199      315F5374 
 9199      61727400 
 9200              	.LASF156:
 9201 0793 436F756E 		.ascii	"Counter_ColorSensor_Start\000"
 9201      7465725F 
 9201      436F6C6F 
 9201      7253656E 
 9201      736F725F 
 9202              	.LASF33:
 9203 07ad 6176675F 		.ascii	"avg_dist\000"
 9203      64697374 
 9203      00
 9204              	.LASF113:
 9205 07b6 74656D70 		.ascii	"temp\000"
 9205      00
 9206              	.LASF179:
 9207 07bb 50574D5F 		.ascii	"PWM_Wheels_Start\000"
 9207      57686565 
 9207      6C735F53 
 9207      74617274 
 9207      00
 9208              	.LASF153:
 9209 07cc 53305F57 		.ascii	"S0_Write\000"
 9209      72697465 
 9209      00
 9210              	.LASF86:
 9211 07d5 50574D5F 		.ascii	"PWM_Master_puck\000"
 9211      4D617374 
 9211      65725F70 
 9211      75636B00 
 9212              	.LASF91:
 9213 07e5 66726F6E 		.ascii	"front_measured_1\000"
 9213      745F6D65 
 9213      61737572 
 9213      65645F31 
 9213      00
 9214              	.LASF92:
 9215 07f6 66726F6E 		.ascii	"front_measured_2\000"
 9215      745F6D65 
 9215      61737572 
 9215      65645F32 
 9215      00
 9216              	.LASF38:
 9217 0807 6779726F 		.ascii	"gyro_cal_1\000"
 9217      5F63616C 
ARM GAS  C:\Users\weiro\AppData\Local\Temp\ccpp9Q4b.s 			page 188


 9217      5F3100
 9218              	.LASF42:
 9219 0812 6779726F 		.ascii	"gyro_cal_2\000"
 9219      5F63616C 
 9219      5F3200
 9220              	.LASF106:
 9221 081d 6F70656E 		.ascii	"open_small\000"
 9221      5F736D61 
 9221      6C6C00
 9222              	.LASF73:
 9223 0828 436F756E 		.ascii	"Count_Master\000"
 9223      745F4D61 
 9223      73746572 
 9223      00
 9224              	.LASF37:
 9225 0835 6D6F7665 		.ascii	"move2puck\000"
 9225      32707563 
 9225      6B00
 9226              	.LASF31:
 9227 083f 666C6167 		.ascii	"flag_FR\000"
 9227      5F465200 
 9228              	.LASF41:
 9229 0847 616E676C 		.ascii	"angleDifference\000"
 9229      65446966 
 9229      66657265 
 9229      6E636500 
 9230              	.LASF95:
 9231 0857 6563686F 		.ascii	"echo_select\000"
 9231      5F73656C 
 9231      65637400 
 9232              	.LASF161:
 9233 0863 436F756E 		.ascii	"Counter_ColorSensor_Stop\000"
 9233      7465725F 
 9233      436F6C6F 
 9233      7253656E 
 9233      736F725F 
 9234              	.LASF169:
 9235 087c 4144435F 		.ascii	"ADC_SAR_1_GetResult8\000"
 9235      5341525F 
 9235      315F4765 
 9235      74526573 
 9235      756C7438 
 9236              	.LASF184:
 9237 0891 55415254 		.ascii	"UART_1_Start\000"
 9237      5F315F53 
 9237      74617274 
 9237      00
 9238              	.LASF81:
 9239 089e 64657269 		.ascii	"derivative_error\000"
 9239      76617469 
 9239      76655F65 
 9239      72726F72 
 9239      00
 9240              	.LASF45:
 9241 08af 436F6C6F 		.ascii	"Color_Sensing_Function\000"
 9241      725F5365 
 9241      6E73696E 
ARM GAS  C:\Users\weiro\AppData\Local\Temp\ccpp9Q4b.s 			page 189


 9241      675F4675 
 9241      6E637469 
 9242              	.LASF80:
 9243 08c6 6C617374 		.ascii	"last_error\000"
 9243      5F657272 
 9243      6F7200
 9244              	.LASF17:
 9245 08d1 73697A65 		.ascii	"sizetype\000"
 9245      74797065 
 9245      00
 9246              	.LASF178:
 9247 08da 6973725F 		.ascii	"isr_7_StartEx\000"
 9247      375F5374 
 9247      61727445 
 9247      7800
 9248              	.LASF6:
 9249 08e8 6C6F6E67 		.ascii	"long unsigned int\000"
 9249      20756E73 
 9249      69676E65 
 9249      6420696E 
 9249      7400
 9250              	.LASF50:
 9251 08fa 53686172 		.ascii	"Sharp_IR\000"
 9251      705F4952 
 9251      00
 9252              	.LASF152:
 9253 0903 50574D5F 		.ascii	"PWM_Wheels_WriteCompare1\000"
 9253      57686565 
 9253      6C735F57 
 9253      72697465 
 9253      436F6D70 
 9254              	.LASF125:
 9255 091c 50574D5F 		.ascii	"PWM_Wheels_WriteCompare2\000"
 9255      57686565 
 9255      6C735F57 
 9255      72697465 
 9255      436F6D70 
 9256              	.LASF11:
 9257 0935 696E7433 		.ascii	"int32_t\000"
 9257      325F7400 
 9258              	.LASF84:
 9259 093d 50574D5F 		.ascii	"PWM_Cal\000"
 9259      43616C00 
 9260              	.LASF162:
 9261 0945 6C65645F 		.ascii	"led_red_Write\000"
 9261      7265645F 
 9261      57726974 
 9261      6500
 9262              	.LASF85:
 9263 0953 50574D5F 		.ascii	"PWM_Slave\000"
 9263      536C6176 
 9263      6500
 9264              	.LASF101:
 9265 095d 636F6C6F 		.ascii	"color_detected\000"
 9265      725F6465 
 9265      74656374 
 9265      656400
ARM GAS  C:\Users\weiro\AppData\Local\Temp\ccpp9Q4b.s 			page 190


 9266              	.LASF2:
 9267 096c 756E7369 		.ascii	"unsigned char\000"
 9267      676E6564 
 9267      20636861 
 9267      7200
 9268              	.LASF87:
 9269 097a 50574D5F 		.ascii	"PWM_Slave_puck\000"
 9269      536C6176 
 9269      655F7075 
 9269      636B00
 9270              	.LASF141:
 9271 0989 4D6F746F 		.ascii	"Motor_2_IN_3_Write\000"
 9271      725F325F 
 9271      494E5F33 
 9271      5F577269 
 9271      746500
 9272              	.LASF140:
 9273 099c 4D6F746F 		.ascii	"Motor_1_IN_2_Write\000"
 9273      725F315F 
 9273      494E5F32 
 9273      5F577269 
 9273      746500
 9274              	.LASF157:
 9275 09af 53325F57 		.ascii	"S2_Write\000"
 9275      72697465 
 9275      00
 9276              	.LASF144:
 9277 09b8 51756164 		.ascii	"QuadDec_2_SetCounter\000"
 9277      4465635F 
 9277      325F5365 
 9277      74436F75 
 9277      6E746572 
 9278              	.LASF111:
 9279 09cd 7461736B 		.ascii	"task_info\000"
 9279      5F696E66 
 9279      6F00
 9280              	.LASF143:
 9281 09d7 51756164 		.ascii	"QuadDec_1_SetCounter\000"
 9281      4465635F 
 9281      315F5365 
 9281      74436F75 
 9281      6E746572 
 9282              	.LASF134:
 9283 09ec 4932435F 		.ascii	"I2C_1_MasterWriteByte\000"
 9283      315F4D61 
 9283      73746572 
 9283      57726974 
 9283      65427974 
 9284              	.LASF120:
 9285 0a02 73747269 		.ascii	"string_gyro\000"
 9285      6E675F67 
 9285      79726F00 
 9286              	.LASF26:
 9287 0a0e 7475726E 		.ascii	"turn_anticlockwise\000"
 9287      5F616E74 
 9287      69636C6F 
 9287      636B7769 
ARM GAS  C:\Users\weiro\AppData\Local\Temp\ccpp9Q4b.s 			page 191


 9287      736500
 9288              	.LASF124:
 9289 0a21 74687265 		.ascii	"threshold\000"
 9289      73686F6C 
 9289      6400
 9290              	.LASF32:
 9291 0a2b 6176675F 		.ascii	"avg_count\000"
 9291      636F756E 
 9291      7400
 9292              	.LASF192:
 9293 0a35 433A5C55 		.ascii	"C:\\Users\\weiro\\code repository for ece4191\\ece4"
 9293      73657273 
 9293      5C776569 
 9293      726F5C63 
 9293      6F646520 
 9294 0a64 3139315C 		.ascii	"191\\DC_Motor_1\\Design01.cydsn\000"
 9294      44435F4D 
 9294      6F746F72 
 9294      5F315C44 
 9294      65736967 
 9295              	.LASF174:
 9296 0a82 54696D65 		.ascii	"Timer_1_Start\000"
 9296      725F315F 
 9296      53746172 
 9296      7400
 9297              	.LASF1:
 9298 0a90 7369676E 		.ascii	"signed char\000"
 9298      65642063 
 9298      68617200 
 9299              	.LASF4:
 9300 0a9c 73686F72 		.ascii	"short unsigned int\000"
 9300      7420756E 
 9300      7369676E 
 9300      65642069 
 9300      6E7400
 9301              	.LASF193:
 9302 0aaf 6D61696E 		.ascii	"main\000"
 9302      00
 9303              	.LASF105:
 9304 0ab4 75705F62 		.ascii	"up_big\000"
 9304      696700
 9305              	.LASF75:
 9306 0abb 73747269 		.ascii	"string_1\000"
 9306      6E675F31 
 9306      00
 9307              	.LASF76:
 9308 0ac4 73747269 		.ascii	"string_2\000"
 9308      6E675F32 
 9308      00
 9309              	.LASF77:
 9310 0acd 73747269 		.ascii	"string_3\000"
 9310      6E675F33 
 9310      00
 9311              	.LASF89:
 9312 0ad6 756C7472 		.ascii	"ultrasonic_count\000"
 9312      61736F6E 
 9312      69635F63 
ARM GAS  C:\Users\weiro\AppData\Local\Temp\ccpp9Q4b.s 			page 192


 9312      6F756E74 
 9312      00
 9313              	.LASF109:
 9314 0ae7 73746F70 		.ascii	"stop_bt\000"
 9314      5F627400 
 9315              	.LASF110:
 9316 0aef 746F6B65 		.ascii	"tokenPtr\000"
 9316      6E507472 
 9316      00
 9317              	.LASF12:
 9318 0af8 75696E74 		.ascii	"uint8\000"
 9318      3800
 9319              	.LASF0:
 9320 0afe 646F7562 		.ascii	"double\000"
 9320      6C6500
 9321              	.LASF131:
 9322 0b05 55415254 		.ascii	"UART_1_GetChar\000"
 9322      5F315F47 
 9322      65744368 
 9322      617200
 9323              	.LASF21:
 9324 0b14 426C7565 		.ascii	"Bluetooth\000"
 9324      746F6F74 
 9324      6800
 9325              	.LASF102:
 9326 0b1e 77616C6C 		.ascii	"wall_detected_10\000"
 9326      5F646574 
 9326      65637465 
 9326      645F3130 
 9326      00
 9327              	.LASF60:
 9328 0b2f 5069636B 		.ascii	"Pick_Up_Puck\000"
 9328      5F55705F 
 9328      5075636B 
 9328      00
 9329              	.LASF116:
 9330 0b3c 70726576 		.ascii	"previous_reading\000"
 9330      696F7573 
 9330      5F726561 
 9330      64696E67 
 9330      00
 9331              		.ident	"GCC: (GNU Tools for ARM Embedded Processors) 5.4.1 20160609 (release) [ARM/embedded-5-bran
