ARM GAS  C:\Users\weiro\AppData\Local\Temp\ccK6dLS7.s 			page 1


   1              		.syntax unified
   2              		.cpu cortex-m3
   3              		.fpu softvfp
   4              		.eabi_attribute 20, 1
   5              		.eabi_attribute 21, 1
   6              		.eabi_attribute 23, 3
   7              		.eabi_attribute 24, 1
   8              		.eabi_attribute 25, 1
   9              		.eabi_attribute 26, 1
  10              		.eabi_attribute 30, 1
  11              		.eabi_attribute 34, 1
  12              		.eabi_attribute 18, 4
  13              		.thumb
  14              		.syntax unified
  15              		.file	"main.c"
  16              		.text
  17              	.Ltext0:
  18              		.cfi_sections	.debug_frame
  19              		.global	__aeabi_i2d
  20              		.global	__aeabi_dmul
  21              		.global	__aeabi_f2d
  22              		.global	__aeabi_dadd
  23              		.global	__aeabi_d2f
  24              		.global	__aeabi_f2uiz
  25              		.section	.text.Speed_Control,"ax",%progbits
  26              		.align	2
  27              		.global	Speed_Control
  28              		.thumb
  29              		.thumb_func
  30              		.type	Speed_Control, %function
  31              	Speed_Control:
  32              	.LFB64:
  33              		.file 1 "main.c"
   1:main.c        **** /* ========================================
   2:main.c        ****  *
   3:main.c        ****  * Copyright YOUR COMPANY, THE YEAR
   4:main.c        ****  * All Rights Reserved
   5:main.c        ****  * UNPUBLISHED, LICENSED SOFTWARE.
   6:main.c        ****  *
   7:main.c        ****  * CONFIDENTIAL AND PROPRIETARY INFORMATION
   8:main.c        ****  * WHICH IS THE PROPERTY OF your company.
   9:main.c        ****  *
  10:main.c        ****  * ========================================
  11:main.c        **** */
  12:main.c        **** // ECE4191 Group 3
  13:main.c        **** 
  14:main.c        **** #include "project.h"
  15:main.c        **** #include <stdio.h>
  16:main.c        **** #include <stdlib.h>
  17:main.c        **** #include <math.h> 
  18:main.c        **** #include <string.h>
  19:main.c        **** #define MPU6050 0x68
  20:main.c        **** 
  21:main.c        **** int initial = 0; /// 0 --> initial position at left side, 1 --> inital position at right side
  22:main.c        **** double WHEEL_DIAMETER = 5.4; //cm
  23:main.c        **** double WHEEL_CIRCUMFERENCE = 0;
  24:main.c        **** int CS_count_Red = 0;
ARM GAS  C:\Users\weiro\AppData\Local\Temp\ccK6dLS7.s 			page 2


  25:main.c        **** int CS_count_Blue = 0;
  26:main.c        **** int CS_count_Green = 0;
  27:main.c        **** double COUNT_WHEEL = 3667; // Count per rotation
  28:main.c        **** double CM_COUNT_CONV = 0;
  29:main.c        **** double DISTANCE_BETW_WHEEL = 22.30;
  30:main.c        **** double DISTANCE_PT_TURN = 0;
  31:main.c        **** double PT_TURN_COUNT = 0;
  32:main.c        **** int Count_Master = 0;
  33:main.c        **** int Count_Slave = 0;
  34:main.c        **** char string_1[200];
  35:main.c        **** char string_2[200];
  36:main.c        **** char string_3[200];
  37:main.c        **** double error = 0;
  38:main.c        **** double accumulated_error = 0;
  39:main.c        **** double last_error = 0;
  40:main.c        **** double derivative_error = 0;
  41:main.c        **** double timer_period = 5;
  42:main.c        **** double K_p = 5;
  43:main.c        **** double K_i = 0;
  44:main.c        **** double K_d = 0;
  45:main.c        **** float PWM_Master = 20000;
  46:main.c        **** float PWM_Cal = 10000;
  47:main.c        **** 
  48:main.c        **** float PWM_Slave = 20000;
  49:main.c        **** float PWM_Master_puck = 5000;
  50:main.c        **** float PWM_Slave_puck = 5000;
  51:main.c        **** int is_moving = 0;
  52:main.c        **** int ultrasonic_count = 0;
  53:main.c        **** double ultrasonic_measure = 0;
  54:main.c        **** double front_measured_1, front_measured_2, right_measured, left_measured = 0;
  55:main.c        **** int echo_select = 0;
  56:main.c        **** double x_coord = 0;
  57:main.c        **** double y_coord = 0;
  58:main.c        **** int direction = 0; // 0(front[0]), 1(right[90]),  2(back[180]),  3(left[270])
  59:main.c        **** int step = -1;
  60:main.c        **** int compare_ready = 0;
  61:main.c        **** int color_detected = 0; // 1-red, 2-green, 3-blue
  62:main.c        **** int wall_detected_10 = 0;
  63:main.c        **** int slit_detected = 0;
  64:main.c        **** int down_big = 615;
  65:main.c        **** int up_big = 525;
  66:main.c        **** int open_small = 980;
  67:main.c        **** int close_small  = 940;
  68:main.c        **** // bluetooth
  69:main.c        **** char Rx;
  70:main.c        **** int i = 0;
  71:main.c        **** char string_bt[200];
  72:main.c        **** int stop_bt = 0;
  73:main.c        **** char* tokenPtr;
  74:main.c        **** char task_info[3][20];
  75:main.c        **** int j = 0;
  76:main.c        **** // gyroscope
  77:main.c        **** uint8 array_1[6] = {0};
  78:main.c        **** int16 temp = 0;
  79:main.c        **** double yaw_rate = 0;
  80:main.c        **** double yaw_angle = 0;
  81:main.c        **** double previous_reading = 0;
ARM GAS  C:\Users\weiro\AppData\Local\Temp\ccK6dLS7.s 			page 3


  82:main.c        **** double current_reading = 0;
  83:main.c        **** double heading = 0;
  84:main.c        **** int cycles = 0;
  85:main.c        **** char string_gyro[200] = "\0";
  86:main.c        **** int cal = 1;
  87:main.c        **** int count = 0;
  88:main.c        **** int16 error_gyro = 0; //to find the error in gyroscope readings when stationary
  89:main.c        **** int16 error_gyro_avg = 0; //average error in gyroscope readings when stationary
  90:main.c        **** double threshold = 0.1; //to prevent accumulation of error due to integration
  91:main.c        **** 
  92:main.c        **** CY_ISR (Speed_Control)
  93:main.c        **** {
  34              		.loc 1 93 0
  35              		.cfi_startproc
  36              		@ args = 0, pretend = 0, frame = 0
  37              		@ frame_needed = 0, uses_anonymous_args = 0
  38 0000 F8B5     		push	{r3, r4, r5, r6, r7, lr}
  39              		.cfi_def_cfa_offset 24
  40              		.cfi_offset 3, -24
  41              		.cfi_offset 4, -20
  42              		.cfi_offset 5, -16
  43              		.cfi_offset 6, -12
  44              		.cfi_offset 7, -8
  45              		.cfi_offset 14, -4
  94:main.c        ****     if(is_moving == 1)
  46              		.loc 1 94 0
  47 0002 1B4B     		ldr	r3, .L4+8
  48 0004 1B68     		ldr	r3, [r3]
  49 0006 012B     		cmp	r3, #1
  50 0008 2CD1     		bne	.L1
  95:main.c        ****     {
  96:main.c        ****         error = abs(Count_Master) - abs(Count_Slave);
  51              		.loc 1 96 0
  52 000a 194C     		ldr	r4, .L4+8
  53 000c 6068     		ldr	r0, [r4, #4]
  54 000e 0028     		cmp	r0, #0
  55 0010 B8BF     		it	lt
  56 0012 4042     		rsblt	r0, r0, #0
  57 0014 A368     		ldr	r3, [r4, #8]
  58 0016 002B     		cmp	r3, #0
  59 0018 B8BF     		it	lt
  60 001a 5B42     		rsblt	r3, r3, #0
  61 001c C01A     		subs	r0, r0, r3
  62 001e FFF7FEFF 		bl	__aeabi_i2d
  63              	.LVL0:
  64 0022 C4E90401 		strd	r0, [r4, #16]
  97:main.c        ****     	//accumulated_error = accumulated_error + (error*timer_period);
  98:main.c        ****         //derivative_error = (error - last_error)/timer_period;
  99:main.c        ****         //K_i = 1.2 * K_p / timer_period;
 100:main.c        ****         //K_d = 0.075 * K_p * timer_period;
 101:main.c        ****         //PWM_Slave = 25000 - (K_p*error + K_i*accumulated_error + K_d*derivative_error);
 102:main.c        ****         PWM_Slave = 0.65*(PWM_Master + K_p*error);
  65              		.loc 1 102 0
  66 0026 134D     		ldr	r5, .L4+12
  67 0028 D5E90023 		ldrd	r2, [r5]
  68 002c FFF7FEFF 		bl	__aeabi_dmul
  69              	.LVL1:
ARM GAS  C:\Users\weiro\AppData\Local\Temp\ccK6dLS7.s 			page 4


  70 0030 0646     		mov	r6, r0
  71 0032 0F46     		mov	r7, r1
  72 0034 A868     		ldr	r0, [r5, #8]	@ float
  73 0036 FFF7FEFF 		bl	__aeabi_f2d
  74              	.LVL2:
  75 003a 3246     		mov	r2, r6
  76 003c 3B46     		mov	r3, r7
  77 003e FFF7FEFF 		bl	__aeabi_dadd
  78              	.LVL3:
  79 0042 09A3     		adr	r3, .L4
  80 0044 D3E90023 		ldrd	r2, [r3]
  81 0048 FFF7FEFF 		bl	__aeabi_dmul
  82              	.LVL4:
  83 004c FFF7FEFF 		bl	__aeabi_d2f
  84              	.LVL5:
  85 0050 E860     		str	r0, [r5, #12]	@ float
 103:main.c        ****         //if (PWM_Slave>25000)
 104:main.c        ****         //{
 105:main.c        ****         //    PWM_Slave = 23000;
 106:main.c        ****         //}
 107:main.c        ****     
 108:main.c        ****         PWM_Wheels_WriteCompare2(PWM_Slave);
  86              		.loc 1 108 0
  87 0052 FFF7FEFF 		bl	__aeabi_f2uiz
  88              	.LVL6:
  89 0056 80B2     		uxth	r0, r0
  90 0058 FFF7FEFF 		bl	PWM_Wheels_WriteCompare2
  91              	.LVL7:
 109:main.c        ****         last_error = error;
  92              		.loc 1 109 0
  93 005c D4E90423 		ldrd	r2, [r4, #16]
  94 0060 C4E90623 		strd	r2, [r4, #24]
  95              	.L1:
  96 0064 F8BD     		pop	{r3, r4, r5, r6, r7, pc}
  97              	.L5:
  98 0066 00BF     		.align	3
  99              	.L4:
 100 0068 CDCCCCCC 		.word	-858993459
 101 006c CCCCE43F 		.word	1071959244
 102 0070 00000000 		.word	.LANCHOR0
 103 0074 00000000 		.word	.LANCHOR1
 104              		.cfi_endproc
 105              	.LFE64:
 106              		.size	Speed_Control, .-Speed_Control
 107              		.global	__aeabi_dcmple
 108              		.section	.text.ultrasonic_echo,"ax",%progbits
 109              		.align	2
 110              		.global	ultrasonic_echo
 111              		.thumb
 112              		.thumb_func
 113              		.type	ultrasonic_echo, %function
 114              	ultrasonic_echo:
 115              	.LFB65:
 110:main.c        ****     }
 111:main.c        **** 
 112:main.c        ****     //sprintf(string_3, "PWM_Slave: %f\n", PWM_Slave);
 113:main.c        ****     //UART_1_PutString(string_3);
ARM GAS  C:\Users\weiro\AppData\Local\Temp\ccK6dLS7.s 			page 5


 114:main.c        **** }
 115:main.c        **** 
 116:main.c        **** CY_ISR(ultrasonic_echo)
 117:main.c        **** {
 116              		.loc 1 117 0
 117              		.cfi_startproc
 118              		@ args = 0, pretend = 0, frame = 0
 119              		@ frame_needed = 0, uses_anonymous_args = 0
 120 0000 10B5     		push	{r4, lr}
 121              		.cfi_def_cfa_offset 8
 122              		.cfi_offset 4, -8
 123              		.cfi_offset 14, -4
 118:main.c        ****     Timer_3_ReadStatusRegister();
 124              		.loc 1 118 0
 125 0002 FFF7FEFF 		bl	Timer_3_ReadStatusRegister
 126              	.LVL8:
 119:main.c        ****     ultrasonic_count = Timer_3_ReadCounter();
 127              		.loc 1 119 0
 128 0006 FFF7FEFF 		bl	Timer_3_ReadCounter
 129              	.LVL9:
 130 000a 234C     		ldr	r4, .L17
 131 000c 2062     		str	r0, [r4, #32]
 120:main.c        ****     ultrasonic_measure = (65535-ultrasonic_count)/58;
 132              		.loc 1 120 0
 133 000e C0F57F43 		rsb	r3, r0, #65280
 134 0012 FF33     		adds	r3, r3, #255
 135 0014 2148     		ldr	r0, .L17+4
 136 0016 80FB0320 		smull	r2, r0, r0, r3
 137 001a 1844     		add	r0, r0, r3
 138 001c DB17     		asrs	r3, r3, #31
 139 001e C3EB6010 		rsb	r0, r3, r0, asr #5
 140 0022 FFF7FEFF 		bl	__aeabi_i2d
 141              	.LVL10:
 142 0026 0246     		mov	r2, r0
 143 0028 0B46     		mov	r3, r1
 144 002a C4E90A23 		strd	r2, [r4, #40]
 121:main.c        ****     sprintf(string_1, "Front dist 1: %lf\n", ultrasonic_measure);
 145              		.loc 1 121 0
 146 002e 1C49     		ldr	r1, .L17+8
 147 0030 1C48     		ldr	r0, .L17+12
 148 0032 FFF7FEFF 		bl	sprintf
 149              	.LVL11:
 122:main.c        ****     
 123:main.c        ****     if (echo_select == 0)
 150              		.loc 1 123 0
 151 0036 236B     		ldr	r3, [r4, #48]
 152 0038 2BB9     		cbnz	r3, .L7
 124:main.c        ****     {
 125:main.c        ****         // front 1
 126:main.c        ****         front_measured_1 = ultrasonic_measure;
 153              		.loc 1 126 0
 154 003a D4E90A01 		ldrd	r0, [r4, #40]
 155 003e 1A4B     		ldr	r3, .L17+16
 156 0040 C3E90001 		strd	r0, [r3]
 157 0044 18E0     		b	.L8
 158              	.L7:
 127:main.c        ****     }
ARM GAS  C:\Users\weiro\AppData\Local\Temp\ccK6dLS7.s 			page 6


 128:main.c        ****     else if (echo_select == 1)
 159              		.loc 1 128 0
 160 0046 012B     		cmp	r3, #1
 161 0048 06D1     		bne	.L9
 129:main.c        ****     {
 130:main.c        ****         // front 2
 131:main.c        ****         front_measured_2 = ultrasonic_measure;
 162              		.loc 1 131 0
 163 004a 134B     		ldr	r3, .L17
 164 004c D3E90A01 		ldrd	r0, [r3, #40]
 165 0050 164B     		ldr	r3, .L17+20
 166 0052 C3E90001 		strd	r0, [r3]
 167 0056 0FE0     		b	.L8
 168              	.L9:
 132:main.c        ****     }
 133:main.c        ****     else if (echo_select == 2)
 169              		.loc 1 133 0
 170 0058 022B     		cmp	r3, #2
 171 005a 05D1     		bne	.L10
 134:main.c        ****     {
 135:main.c        ****         // left
 136:main.c        ****         left_measured = ultrasonic_measure;
 172              		.loc 1 136 0
 173 005c 0E4B     		ldr	r3, .L17
 174 005e D3E90A01 		ldrd	r0, [r3, #40]
 175 0062 C3E90E01 		strd	r0, [r3, #56]
 176 0066 07E0     		b	.L8
 177              	.L10:
 137:main.c        ****     }
 138:main.c        ****     else if (echo_select == 3)
 178              		.loc 1 138 0
 179 0068 032B     		cmp	r3, #3
 180 006a 05D1     		bne	.L8
 139:main.c        ****     {
 140:main.c        ****         // right
 141:main.c        ****         right_measured = ultrasonic_measure;
 181              		.loc 1 141 0
 182 006c 0A4B     		ldr	r3, .L17
 183 006e D3E90A01 		ldrd	r0, [r3, #40]
 184 0072 0F4B     		ldr	r3, .L17+24
 185 0074 C3E90001 		strd	r0, [r3]
 186              	.L8:
 142:main.c        ****     }
 143:main.c        ****     
 144:main.c        ****     if(front_measured_1 <= 15)
 187              		.loc 1 144 0
 188 0078 0022     		movs	r2, #0
 189 007a 0E4B     		ldr	r3, .L17+28
 190 007c 0A49     		ldr	r1, .L17+16
 191 007e D1E90001 		ldrd	r0, [r1]
 192 0082 FFF7FEFF 		bl	__aeabi_dcmple
 193              	.LVL12:
 194 0086 18B1     		cbz	r0, .L15
 145:main.c        ****     {
 146:main.c        ****         wall_detected_10 = 1;
 195              		.loc 1 146 0
 196 0088 0122     		movs	r2, #1
ARM GAS  C:\Users\weiro\AppData\Local\Temp\ccK6dLS7.s 			page 7


 197 008a 034B     		ldr	r3, .L17
 198 008c 1A64     		str	r2, [r3, #64]
 199 008e 10BD     		pop	{r4, pc}
 200              	.L15:
 147:main.c        ****     }
 148:main.c        ****     else
 149:main.c        ****     {
 150:main.c        ****         wall_detected_10 = 0;
 201              		.loc 1 150 0
 202 0090 0022     		movs	r2, #0
 203 0092 014B     		ldr	r3, .L17
 204 0094 1A64     		str	r2, [r3, #64]
 205 0096 10BD     		pop	{r4, pc}
 206              	.L18:
 207              		.align	2
 208              	.L17:
 209 0098 00000000 		.word	.LANCHOR0
 210 009c 09CB3D8D 		.word	-1925330167
 211 00a0 00000000 		.word	.LC0
 212 00a4 00000000 		.word	string_1
 213 00a8 00000000 		.word	front_measured_1
 214 00ac 00000000 		.word	front_measured_2
 215 00b0 00000000 		.word	right_measured
 216 00b4 00002E40 		.word	1076756480
 217              		.cfi_endproc
 218              	.LFE65:
 219              		.size	ultrasonic_echo, .-ultrasonic_echo
 220              		.section	.text.Color_sensing,"ax",%progbits
 221              		.align	2
 222              		.global	Color_sensing
 223              		.thumb
 224              		.thumb_func
 225              		.type	Color_sensing, %function
 226              	Color_sensing:
 227              	.LFB66:
 151:main.c        ****     }
 152:main.c        **** }
 153:main.c        **** 
 154:main.c        **** CY_ISR(Color_sensing)
 155:main.c        **** {
 228              		.loc 1 155 0
 229              		.cfi_startproc
 230              		@ args = 0, pretend = 0, frame = 0
 231              		@ frame_needed = 0, uses_anonymous_args = 0
 232 0000 08B5     		push	{r3, lr}
 233              		.cfi_def_cfa_offset 8
 234              		.cfi_offset 3, -8
 235              		.cfi_offset 14, -4
 156:main.c        ****     // Ready to do the capture --> to count the pulse
 157:main.c        ****     PWM_ColorSensor_ReadStatusRegister();
 236              		.loc 1 157 0
 237 0002 FFF7FEFF 		bl	PWM_ColorSensor_ReadStatusRegister
 238              	.LVL13:
 158:main.c        ****     compare_ready = 1;
 239              		.loc 1 158 0
 240 0006 0122     		movs	r2, #1
 241 0008 014B     		ldr	r3, .L21
ARM GAS  C:\Users\weiro\AppData\Local\Temp\ccK6dLS7.s 			page 8


 242 000a 5A64     		str	r2, [r3, #68]
 243 000c 08BD     		pop	{r3, pc}
 244              	.L22:
 245 000e 00BF     		.align	2
 246              	.L21:
 247 0010 00000000 		.word	.LANCHOR0
 248              		.cfi_endproc
 249              	.LFE66:
 250              		.size	Color_sensing, .-Color_sensing
 251              		.section	.text.Bluetooth,"ax",%progbits
 252              		.align	2
 253              		.global	Bluetooth
 254              		.thumb
 255              		.thumb_func
 256              		.type	Bluetooth, %function
 257              	Bluetooth:
 258              	.LFB67:
 159:main.c        **** }
 160:main.c        **** 
 161:main.c        **** CY_ISR(Bluetooth)
 162:main.c        **** {
 259              		.loc 1 162 0
 260              		.cfi_startproc
 261              		@ args = 0, pretend = 0, frame = 0
 262              		@ frame_needed = 0, uses_anonymous_args = 0
 263 0000 08B5     		push	{r3, lr}
 264              		.cfi_def_cfa_offset 8
 265              		.cfi_offset 3, -8
 266              		.cfi_offset 14, -4
 163:main.c        ****     Rx = UART_1_GetChar();
 267              		.loc 1 163 0
 268 0002 FFF7FEFF 		bl	UART_1_GetChar
 269              	.LVL14:
 270 0006 094B     		ldr	r3, .L27
 271 0008 1870     		strb	r0, [r3]
 164:main.c        ****     if (Rx != '!')
 272              		.loc 1 164 0
 273 000a 2128     		cmp	r0, #33
 274 000c 06D0     		beq	.L24
 165:main.c        ****     {
 166:main.c        ****         string_bt[i] = Rx;
 275              		.loc 1 166 0
 276 000e 084A     		ldr	r2, .L27+4
 277 0010 936C     		ldr	r3, [r2, #72]
 278 0012 0849     		ldr	r1, .L27+8
 279 0014 C854     		strb	r0, [r1, r3]
 167:main.c        ****         i++;
 280              		.loc 1 167 0
 281 0016 0133     		adds	r3, r3, #1
 282 0018 9364     		str	r3, [r2, #72]
 283 001a 08BD     		pop	{r3, pc}
 284              	.L24:
 168:main.c        ****     }
 169:main.c        ****     else
 170:main.c        ****     {
 171:main.c        ****         string_bt[i] = '\0'; // terminate
 285              		.loc 1 171 0
ARM GAS  C:\Users\weiro\AppData\Local\Temp\ccK6dLS7.s 			page 9


 286 001c 044B     		ldr	r3, .L27+4
 287 001e 9A6C     		ldr	r2, [r3, #72]
 288 0020 0020     		movs	r0, #0
 289 0022 0449     		ldr	r1, .L27+8
 290 0024 8854     		strb	r0, [r1, r2]
 172:main.c        ****         stop_bt = 1;
 291              		.loc 1 172 0
 292 0026 0122     		movs	r2, #1
 293 0028 DA64     		str	r2, [r3, #76]
 294 002a 08BD     		pop	{r3, pc}
 295              	.L28:
 296              		.align	2
 297              	.L27:
 298 002c 00000000 		.word	Rx
 299 0030 00000000 		.word	.LANCHOR0
 300 0034 00000000 		.word	string_bt
 301              		.cfi_endproc
 302              	.LFE67:
 303              		.size	Bluetooth, .-Bluetooth
 304              		.global	__aeabi_ddiv
 305              		.global	__aeabi_dsub
 306              		.global	__aeabi_dcmpgt
 307              		.global	__aeabi_d2iz
 308              		.global	__aeabi_dcmplt
 309              		.section	.text.Gyroscope,"ax",%progbits
 310              		.align	2
 311              		.global	Gyroscope
 312              		.thumb
 313              		.thumb_func
 314              		.type	Gyroscope, %function
 315              	Gyroscope:
 316              	.LFB68:
 173:main.c        ****     }
 174:main.c        **** }
 175:main.c        **** 
 176:main.c        **** CY_ISR(Gyroscope)
 177:main.c        **** {
 317              		.loc 1 177 0
 318              		.cfi_startproc
 319              		@ args = 0, pretend = 0, frame = 0
 320              		@ frame_needed = 0, uses_anonymous_args = 0
 321 0000 2DE9F041 		push	{r4, r5, r6, r7, r8, lr}
 322              		.cfi_def_cfa_offset 24
 323              		.cfi_offset 4, -24
 324              		.cfi_offset 5, -20
 325              		.cfi_offset 6, -16
 326              		.cfi_offset 7, -12
 327              		.cfi_offset 8, -8
 328              		.cfi_offset 14, -4
 178:main.c        ****     Timer_2_ReadStatusRegister();
 329              		.loc 1 178 0
 330 0004 FFF7FEFF 		bl	Timer_2_ReadStatusRegister
 331              	.LVL15:
 179:main.c        ****     //Timer_2_ReadStatusRegister();
 180:main.c        ****     
 181:main.c        ****     //Writing the register number from where the read operation starts
 182:main.c        ****     I2C_1_MasterSendStart(MPU6050,0); //Steps 1-2
ARM GAS  C:\Users\weiro\AppData\Local\Temp\ccK6dLS7.s 			page 10


 332              		.loc 1 182 0
 333 0008 0021     		movs	r1, #0
 334 000a 6820     		movs	r0, #104
 335 000c FFF7FEFF 		bl	I2C_1_MasterSendStart
 336              	.LVL16:
 183:main.c        ****     I2C_1_MasterWriteByte(0x43); //Step 3
 337              		.loc 1 183 0
 338 0010 4320     		movs	r0, #67
 339 0012 FFF7FEFF 		bl	I2C_1_MasterWriteByte
 340              	.LVL17:
 184:main.c        ****     I2C_1_MasterSendStop(); //Step 4
 341              		.loc 1 184 0
 342 0016 FFF7FEFF 		bl	I2C_1_MasterSendStop
 343              	.LVL18:
 185:main.c        ****     CyDelay(1);
 344              		.loc 1 185 0
 345 001a 0120     		movs	r0, #1
 346 001c FFF7FEFF 		bl	CyDelay
 347              	.LVL19:
 186:main.c        ****     
 187:main.c        ****     //Read data starting from register 0x43
 188:main.c        ****     I2C_1_MasterSendStart(MPU6050,1); //Steps 5-6
 348              		.loc 1 188 0
 349 0020 0121     		movs	r1, #1
 350 0022 6820     		movs	r0, #104
 351 0024 FFF7FEFF 		bl	I2C_1_MasterSendStart
 352              	.LVL20:
 189:main.c        ****     
 190:main.c        ****     //Step 7
 191:main.c        ****     array_1[0] = I2C_1_MasterReadByte(I2C_1_ACK_DATA); //GYRO_XOUT_H
 353              		.loc 1 191 0
 354 0028 0120     		movs	r0, #1
 355 002a FFF7FEFF 		bl	I2C_1_MasterReadByte
 356              	.LVL21:
 357 002e 844C     		ldr	r4, .L47+16
 358 0030 84F85000 		strb	r0, [r4, #80]
 192:main.c        ****     array_1[1] = I2C_1_MasterReadByte(I2C_1_ACK_DATA); //GYRO_XOUT_L
 359              		.loc 1 192 0
 360 0034 0120     		movs	r0, #1
 361 0036 FFF7FEFF 		bl	I2C_1_MasterReadByte
 362              	.LVL22:
 363 003a 84F85100 		strb	r0, [r4, #81]
 193:main.c        ****     array_1[2] = I2C_1_MasterReadByte(I2C_1_ACK_DATA); //GYRO_YOUT_H
 364              		.loc 1 193 0
 365 003e 0120     		movs	r0, #1
 366 0040 FFF7FEFF 		bl	I2C_1_MasterReadByte
 367              	.LVL23:
 368 0044 84F85200 		strb	r0, [r4, #82]
 194:main.c        ****     array_1[3] = I2C_1_MasterReadByte(I2C_1_ACK_DATA); //GYRO_YOUT_L
 369              		.loc 1 194 0
 370 0048 0120     		movs	r0, #1
 371 004a FFF7FEFF 		bl	I2C_1_MasterReadByte
 372              	.LVL24:
 373 004e 84F85300 		strb	r0, [r4, #83]
 195:main.c        ****     array_1[4] = I2C_1_MasterReadByte(I2C_1_ACK_DATA); //GYRO_ZOUT_H
 374              		.loc 1 195 0
 375 0052 0120     		movs	r0, #1
ARM GAS  C:\Users\weiro\AppData\Local\Temp\ccK6dLS7.s 			page 11


 376 0054 FFF7FEFF 		bl	I2C_1_MasterReadByte
 377              	.LVL25:
 378 0058 84F85400 		strb	r0, [r4, #84]
 196:main.c        ****     array_1[5] = I2C_1_MasterReadByte(I2C_1_NAK_DATA); //GYRO_ZOUT_L
 379              		.loc 1 196 0
 380 005c 0020     		movs	r0, #0
 381 005e FFF7FEFF 		bl	I2C_1_MasterReadByte
 382              	.LVL26:
 383 0062 84F85500 		strb	r0, [r4, #85]
 197:main.c        ****     
 198:main.c        ****     I2C_1_MasterSendStop(); //Step 8
 384              		.loc 1 198 0
 385 0066 FFF7FEFF 		bl	I2C_1_MasterSendStop
 386              	.LVL27:
 199:main.c        ****     CyDelay(1);
 387              		.loc 1 199 0
 388 006a 0120     		movs	r0, #1
 389 006c FFF7FEFF 		bl	CyDelay
 390              	.LVL28:
 200:main.c        ****     
 201:main.c        ****     temp = array_1[4] << 8 | array_1[5];
 391              		.loc 1 201 0
 392 0070 94F85400 		ldrb	r0, [r4, #84]	@ zero_extendqisi2
 393 0074 94F85530 		ldrb	r3, [r4, #85]	@ zero_extendqisi2
 394 0078 43EA0023 		orr	r3, r3, r0, lsl #8
 395 007c 1BB2     		sxth	r3, r3
 396 007e A4F85630 		strh	r3, [r4, #86]	@ movhi
 202:main.c        ****         
 203:main.c        ****     if (cal == 1 && count < 20) //while calibrating
 397              		.loc 1 203 0
 398 0082 704A     		ldr	r2, .L47+20
 399 0084 1269     		ldr	r2, [r2, #16]
 400 0086 012A     		cmp	r2, #1
 401 0088 11D1     		bne	.L30
 402              		.loc 1 203 0 is_stmt 0 discriminator 1
 403 008a A16D     		ldr	r1, [r4, #88]
 404 008c 1329     		cmp	r1, #19
 405 008e 0EDC     		bgt	.L30
 204:main.c        ****     {
 205:main.c        ****         UART_1_PutString("Calibrating\n");
 406              		.loc 1 205 0 is_stmt 1
 407 0090 6D48     		ldr	r0, .L47+24
 408 0092 FFF7FEFF 		bl	UART_1_PutString
 409              	.LVL29:
 206:main.c        ****         error_gyro += temp;
 410              		.loc 1 206 0
 411 0096 B4F85C10 		ldrh	r1, [r4, #92]
 412 009a B4F85620 		ldrh	r2, [r4, #86]
 413 009e 0A44     		add	r2, r2, r1
 414 00a0 A4F85C20 		strh	r2, [r4, #92]	@ movhi
 207:main.c        ****         count++;
 415              		.loc 1 207 0
 416 00a4 A26D     		ldr	r2, [r4, #88]
 417 00a6 0132     		adds	r2, r2, #1
 418 00a8 A265     		str	r2, [r4, #88]
 419 00aa BDE8F081 		pop	{r4, r5, r6, r7, r8, pc}
 420              	.L30:
ARM GAS  C:\Users\weiro\AppData\Local\Temp\ccK6dLS7.s 			page 12


 208:main.c        ****     }
 209:main.c        ****     else if (cal == 1 && count == 20) //end of calibration and computation of average error
 421              		.loc 1 209 0
 422 00ae 012A     		cmp	r2, #1
 423 00b0 13D1     		bne	.L32
 424              		.loc 1 209 0 is_stmt 0 discriminator 1
 425 00b2 634A     		ldr	r2, .L47+16
 426 00b4 926D     		ldr	r2, [r2, #88]
 427 00b6 142A     		cmp	r2, #20
 428 00b8 0FD1     		bne	.L32
 210:main.c        ****     {
 211:main.c        ****         error_gyro_avg = error_gyro/20;
 429              		.loc 1 211 0 is_stmt 1
 430 00ba 6149     		ldr	r1, .L47+16
 431 00bc B1F95C30 		ldrsh	r3, [r1, #92]
 432 00c0 624A     		ldr	r2, .L47+28
 433 00c2 82FB0302 		smull	r0, r2, r2, r3
 434 00c6 DB17     		asrs	r3, r3, #31
 435 00c8 C3EBE203 		rsb	r3, r3, r2, asr #3
 436 00cc A1F85E30 		strh	r3, [r1, #94]	@ movhi
 212:main.c        ****         cal = 0;
 437              		.loc 1 212 0
 438 00d0 0022     		movs	r2, #0
 439 00d2 5C4B     		ldr	r3, .L47+20
 440 00d4 1A61     		str	r2, [r3, #16]
 441 00d6 BDE8F081 		pop	{r4, r5, r6, r7, r8, pc}
 442              	.L32:
 213:main.c        ****     }
 214:main.c        ****     else //after calibration and with average error computed
 215:main.c        ****     {
 216:main.c        ****         temp = temp - error_gyro_avg;
 443              		.loc 1 216 0
 444 00da 594C     		ldr	r4, .L47+16
 445 00dc B4F85E00 		ldrh	r0, [r4, #94]
 446 00e0 181A     		subs	r0, r3, r0
 447 00e2 00B2     		sxth	r0, r0
 448 00e4 A4F85600 		strh	r0, [r4, #86]	@ movhi
 217:main.c        ****         yaw_rate = temp/65.535;
 449              		.loc 1 217 0
 450 00e8 FFF7FEFF 		bl	__aeabi_i2d
 451              	.LVL30:
 452 00ec 50A3     		adr	r3, .L47
 453 00ee D3E90023 		ldrd	r2, [r3]
 454 00f2 FFF7FEFF 		bl	__aeabi_ddiv
 455              	.LVL31:
 456 00f6 0646     		mov	r6, r0
 457 00f8 0F46     		mov	r7, r1
 458 00fa C4E91867 		strd	r6, [r4, #96]
 218:main.c        **** 
 219:main.c        ****         current_reading = yaw_rate;   
 459              		.loc 1 219 0
 460 00fe C4E91A67 		strd	r6, [r4, #104]
 220:main.c        ****        
 221:main.c        ****         if (fabs(current_reading - previous_reading) > threshold)
 461              		.loc 1 221 0
 462 0102 04F17005 		add	r5, r4, #112
 463 0106 D5E90045 		ldrd	r4, [r5]
ARM GAS  C:\Users\weiro\AppData\Local\Temp\ccK6dLS7.s 			page 13


 464 010a 2246     		mov	r2, r4
 465 010c 2B46     		mov	r3, r5
 466 010e FFF7FEFF 		bl	__aeabi_dsub
 467              	.LVL32:
 468 0112 8446     		mov	ip, r0
 469 0114 8E46     		mov	lr, r1
 470 0116 4B4B     		ldr	r3, .L47+20
 471 0118 D3E90623 		ldrd	r2, [r3, #24]
 472 011c 6046     		mov	r0, ip
 473 011e 2EF00041 		bic	r1, lr, #-2147483648
 474 0122 FFF7FEFF 		bl	__aeabi_dcmpgt
 475              	.LVL33:
 476 0126 0028     		cmp	r0, #0
 477 0128 70D0     		beq	.L44
 222:main.c        ****         {
 223:main.c        ****             //integration of yaw_rate
 224:main.c        ****             yaw_angle = yaw_angle + 0.5*0.1*(previous_reading + current_reading);
 478              		.loc 1 224 0
 479 012a 2246     		mov	r2, r4
 480 012c 2B46     		mov	r3, r5
 481 012e 3046     		mov	r0, r6
 482 0130 3946     		mov	r1, r7
 483 0132 FFF7FEFF 		bl	__aeabi_dadd
 484              	.LVL34:
 485 0136 40A3     		adr	r3, .L47+8
 486 0138 D3E90023 		ldrd	r2, [r3]
 487 013c FFF7FEFF 		bl	__aeabi_dmul
 488              	.LVL35:
 489 0140 DFF8FC80 		ldr	r8, .L47+16
 490 0144 D8E91E23 		ldrd	r2, [r8, #120]
 491 0148 FFF7FEFF 		bl	__aeabi_dadd
 492              	.LVL36:
 493 014c 0546     		mov	r5, r0
 494 014e 0C46     		mov	r4, r1
 495 0150 0246     		mov	r2, r0
 496 0152 0B46     		mov	r3, r1
 497 0154 C8E91E23 		strd	r2, [r8, #120]
 225:main.c        ****             previous_reading = current_reading;
 498              		.loc 1 225 0
 499 0158 C8E91C67 		strd	r6, [r8, #112]
 226:main.c        ****             
 227:main.c        ****             //counting cycles beyond +360 or -360
 228:main.c        ****             cycles = fabs(yaw_angle)/360;
 500              		.loc 1 228 0
 501 015c 0022     		movs	r2, #0
 502 015e 3C4B     		ldr	r3, .L47+32
 503 0160 2846     		mov	r0, r5
 504 0162 24F00041 		bic	r1, r4, #-2147483648
 505 0166 FFF7FEFF 		bl	__aeabi_ddiv
 506              	.LVL37:
 507 016a FFF7FEFF 		bl	__aeabi_d2iz
 508              	.LVL38:
 509 016e 0646     		mov	r6, r0
 510 0170 C8F88000 		str	r0, [r8, #128]
 229:main.c        ****             
 230:main.c        ****             if (cycles > 0)
 511              		.loc 1 230 0
ARM GAS  C:\Users\weiro\AppData\Local\Temp\ccK6dLS7.s 			page 14


 512 0174 0028     		cmp	r0, #0
 513 0176 23DD     		ble	.L35
 231:main.c        ****             {
 232:main.c        ****                 if (yaw_angle < 0)
 514              		.loc 1 232 0
 515 0178 0022     		movs	r2, #0
 516 017a 0023     		movs	r3, #0
 517 017c 2846     		mov	r0, r5
 518 017e 2146     		mov	r1, r4
 519 0180 FFF7FEFF 		bl	__aeabi_dcmplt
 520              	.LVL39:
 521 0184 60B1     		cbz	r0, .L45
 233:main.c        ****                 {
 234:main.c        ****                     heading = yaw_angle + cycles*360;
 522              		.loc 1 234 0
 523 0186 4FF4B470 		mov	r0, #360
 524 018a 00FB06F0 		mul	r0, r0, r6
 525 018e FFF7FEFF 		bl	__aeabi_i2d
 526              	.LVL40:
 527 0192 2A46     		mov	r2, r5
 528 0194 2346     		mov	r3, r4
 529 0196 FFF7FEFF 		bl	__aeabi_dadd
 530              	.LVL41:
 531 019a C8E92201 		strd	r0, [r8, #136]
 532 019e 14E0     		b	.L38
 533              	.L45:
 235:main.c        ****                 }
 236:main.c        ****                 else
 237:main.c        ****                 {
 238:main.c        ****                     heading = yaw_angle - cycles*360;
 534              		.loc 1 238 0
 535 01a0 4FF4B470 		mov	r0, #360
 536 01a4 00FB06F0 		mul	r0, r0, r6
 537 01a8 FFF7FEFF 		bl	__aeabi_i2d
 538              	.LVL42:
 539 01ac 0246     		mov	r2, r0
 540 01ae 0B46     		mov	r3, r1
 541 01b0 2846     		mov	r0, r5
 542 01b2 2146     		mov	r1, r4
 543 01b4 FFF7FEFF 		bl	__aeabi_dsub
 544              	.LVL43:
 545 01b8 214B     		ldr	r3, .L47+16
 546 01ba C3E92201 		strd	r0, [r3, #136]
 547 01be 04E0     		b	.L38
 548              	.L35:
 239:main.c        ****                 }
 240:main.c        ****             }
 241:main.c        ****             else
 242:main.c        ****             {
 243:main.c        ****                 heading = yaw_angle;
 549              		.loc 1 243 0
 550 01c0 2A46     		mov	r2, r5
 551 01c2 2346     		mov	r3, r4
 552 01c4 1E49     		ldr	r1, .L47+16
 553 01c6 C1E92223 		strd	r2, [r1, #136]
 554              	.L38:
 244:main.c        ****             }
ARM GAS  C:\Users\weiro\AppData\Local\Temp\ccK6dLS7.s 			page 15


 245:main.c        ****             
 246:main.c        ****             //wrapping the heading within 0 - 360 degrees
 247:main.c        ****             if (heading < 0)
 555              		.loc 1 247 0
 556 01ca 1D4B     		ldr	r3, .L47+16
 557 01cc D3E92245 		ldrd	r4, [r3, #136]
 558 01d0 0022     		movs	r2, #0
 559 01d2 0023     		movs	r3, #0
 560 01d4 2046     		mov	r0, r4
 561 01d6 2946     		mov	r1, r5
 562 01d8 FFF7FEFF 		bl	__aeabi_dcmplt
 563              	.LVL44:
 564 01dc 40B1     		cbz	r0, .L39
 248:main.c        ****             {
 249:main.c        ****                 heading = heading + 360;
 565              		.loc 1 249 0
 566 01de 0022     		movs	r2, #0
 567 01e0 1B4B     		ldr	r3, .L47+32
 568 01e2 2046     		mov	r0, r4
 569 01e4 2946     		mov	r1, r5
 570 01e6 FFF7FEFF 		bl	__aeabi_dadd
 571              	.LVL45:
 572 01ea 154B     		ldr	r3, .L47+16
 573 01ec C3E92201 		strd	r0, [r3, #136]
 574              	.L39:
 250:main.c        ****             }
 251:main.c        ****             
 252:main.c        ****             sprintf(string_gyro,"Heading: %lf\n",heading);
 575              		.loc 1 252 0
 576 01f0 134B     		ldr	r3, .L47+16
 577 01f2 03F19004 		add	r4, r3, #144
 578 01f6 D3E92223 		ldrd	r2, [r3, #136]
 579 01fa 1649     		ldr	r1, .L47+36
 580 01fc 2046     		mov	r0, r4
 581 01fe FFF7FEFF 		bl	sprintf
 582              	.LVL46:
 253:main.c        ****             UART_1_PutString(string_gyro);
 583              		.loc 1 253 0
 584 0202 2046     		mov	r0, r4
 585 0204 FFF7FEFF 		bl	UART_1_PutString
 586              	.LVL47:
 587 0208 BDE8F081 		pop	{r4, r5, r6, r7, r8, pc}
 588              	.L44:
 254:main.c        ****         }
 255:main.c        ****         else
 256:main.c        ****         {
 257:main.c        ****             previous_reading = current_reading;
 589              		.loc 1 257 0
 590 020c 0C4B     		ldr	r3, .L47+16
 591 020e C3E91C67 		strd	r6, [r3, #112]
 258:main.c        ****             sprintf(string_gyro,"Heading: %lf\n",heading);
 592              		.loc 1 258 0
 593 0212 03F19004 		add	r4, r3, #144
 594 0216 D3E92223 		ldrd	r2, [r3, #136]
 595 021a 0E49     		ldr	r1, .L47+36
 596 021c 2046     		mov	r0, r4
 597 021e FFF7FEFF 		bl	sprintf
ARM GAS  C:\Users\weiro\AppData\Local\Temp\ccK6dLS7.s 			page 16


 598              	.LVL48:
 259:main.c        ****             UART_1_PutString(string_gyro);
 599              		.loc 1 259 0
 600 0222 2046     		mov	r0, r4
 601 0224 FFF7FEFF 		bl	UART_1_PutString
 602              	.LVL49:
 603 0228 BDE8F081 		pop	{r4, r5, r6, r7, r8, pc}
 604              	.L48:
 605 022c AFF30080 		.align	3
 606              	.L47:
 607 0230 0AD7A370 		.word	1889785610
 608 0234 3D625040 		.word	1079009853
 609 0238 9A999999 		.word	-1717986918
 610 023c 9999A93F 		.word	1068079513
 611 0240 00000000 		.word	.LANCHOR0
 612 0244 00000000 		.word	.LANCHOR1
 613 0248 14000000 		.word	.LC1
 614 024c 67666666 		.word	1717986919
 615 0250 00807640 		.word	1081507840
 616 0254 24000000 		.word	.LC2
 617              		.cfi_endproc
 618              	.LFE68:
 619              		.size	Gyroscope, .-Gyroscope
 620              		.section	.text.stop,"ax",%progbits
 621              		.align	2
 622              		.global	stop
 623              		.thumb
 624              		.thumb_func
 625              		.type	stop, %function
 626              	stop:
 627              	.LFB69:
 260:main.c        ****         }
 261:main.c        ****             
 262:main.c        ****     }
 263:main.c        **** }
 264:main.c        **** 
 265:main.c        **** void stop()
 266:main.c        **** {
 628              		.loc 1 266 0
 629              		.cfi_startproc
 630              		@ args = 0, pretend = 0, frame = 0
 631              		@ frame_needed = 0, uses_anonymous_args = 0
 632 0000 10B5     		push	{r4, lr}
 633              		.cfi_def_cfa_offset 8
 634              		.cfi_offset 4, -8
 635              		.cfi_offset 14, -4
 267:main.c        ****     is_moving = 0;
 636              		.loc 1 267 0
 637 0002 0024     		movs	r4, #0
 638 0004 074B     		ldr	r3, .L51
 639 0006 1C60     		str	r4, [r3]
 268:main.c        ****     Motor_1_IN_1_Write(0);
 640              		.loc 1 268 0
 641 0008 2046     		mov	r0, r4
 642 000a FFF7FEFF 		bl	Motor_1_IN_1_Write
 643              	.LVL50:
 269:main.c        ****     Motor_1_IN_2_Write(0);
ARM GAS  C:\Users\weiro\AppData\Local\Temp\ccK6dLS7.s 			page 17


 644              		.loc 1 269 0
 645 000e 2046     		mov	r0, r4
 646 0010 FFF7FEFF 		bl	Motor_1_IN_2_Write
 647              	.LVL51:
 270:main.c        ****     Motor_2_IN_3_Write(0);
 648              		.loc 1 270 0
 649 0014 2046     		mov	r0, r4
 650 0016 FFF7FEFF 		bl	Motor_2_IN_3_Write
 651              	.LVL52:
 271:main.c        ****     Motor_2_IN_4_Write(0);
 652              		.loc 1 271 0
 653 001a 2046     		mov	r0, r4
 654 001c FFF7FEFF 		bl	Motor_2_IN_4_Write
 655              	.LVL53:
 656 0020 10BD     		pop	{r4, pc}
 657              	.L52:
 658 0022 00BF     		.align	2
 659              	.L51:
 660 0024 00000000 		.word	.LANCHOR0
 661              		.cfi_endproc
 662              	.LFE69:
 663              		.size	stop, .-stop
 664              		.section	.text.forward,"ax",%progbits
 665              		.align	2
 666              		.global	forward
 667              		.thumb
 668              		.thumb_func
 669              		.type	forward, %function
 670              	forward:
 671              	.LFB70:
 272:main.c        **** }
 273:main.c        **** 
 274:main.c        **** void forward()
 275:main.c        **** {
 672              		.loc 1 275 0
 673              		.cfi_startproc
 674              		@ args = 0, pretend = 0, frame = 0
 675              		@ frame_needed = 0, uses_anonymous_args = 0
 676 0000 10B5     		push	{r4, lr}
 677              		.cfi_def_cfa_offset 8
 678              		.cfi_offset 4, -8
 679              		.cfi_offset 14, -4
 276:main.c        ****     is_moving = 1;
 680              		.loc 1 276 0
 681 0002 0124     		movs	r4, #1
 682 0004 074B     		ldr	r3, .L55
 683 0006 1C60     		str	r4, [r3]
 277:main.c        ****     Motor_1_IN_1_Write(0);
 684              		.loc 1 277 0
 685 0008 0020     		movs	r0, #0
 686 000a FFF7FEFF 		bl	Motor_1_IN_1_Write
 687              	.LVL54:
 278:main.c        ****     Motor_1_IN_2_Write(1);
 688              		.loc 1 278 0
 689 000e 2046     		mov	r0, r4
 690 0010 FFF7FEFF 		bl	Motor_1_IN_2_Write
 691              	.LVL55:
ARM GAS  C:\Users\weiro\AppData\Local\Temp\ccK6dLS7.s 			page 18


 279:main.c        ****     Motor_2_IN_3_Write(0);
 692              		.loc 1 279 0
 693 0014 0020     		movs	r0, #0
 694 0016 FFF7FEFF 		bl	Motor_2_IN_3_Write
 695              	.LVL56:
 280:main.c        ****     Motor_2_IN_4_Write(1);
 696              		.loc 1 280 0
 697 001a 2046     		mov	r0, r4
 698 001c FFF7FEFF 		bl	Motor_2_IN_4_Write
 699              	.LVL57:
 700 0020 10BD     		pop	{r4, pc}
 701              	.L56:
 702 0022 00BF     		.align	2
 703              	.L55:
 704 0024 00000000 		.word	.LANCHOR0
 705              		.cfi_endproc
 706              	.LFE70:
 707              		.size	forward, .-forward
 708              		.section	.text.reverse,"ax",%progbits
 709              		.align	2
 710              		.global	reverse
 711              		.thumb
 712              		.thumb_func
 713              		.type	reverse, %function
 714              	reverse:
 715              	.LFB71:
 281:main.c        **** }
 282:main.c        **** 
 283:main.c        **** void reverse()
 284:main.c        **** {
 716              		.loc 1 284 0
 717              		.cfi_startproc
 718              		@ args = 0, pretend = 0, frame = 0
 719              		@ frame_needed = 0, uses_anonymous_args = 0
 720 0000 10B5     		push	{r4, lr}
 721              		.cfi_def_cfa_offset 8
 722              		.cfi_offset 4, -8
 723              		.cfi_offset 14, -4
 285:main.c        ****     is_moving = 1;
 724              		.loc 1 285 0
 725 0002 0124     		movs	r4, #1
 726 0004 074B     		ldr	r3, .L59
 727 0006 1C60     		str	r4, [r3]
 286:main.c        ****     Motor_1_IN_1_Write(1);
 728              		.loc 1 286 0
 729 0008 2046     		mov	r0, r4
 730 000a FFF7FEFF 		bl	Motor_1_IN_1_Write
 731              	.LVL58:
 287:main.c        ****     Motor_1_IN_2_Write(0);
 732              		.loc 1 287 0
 733 000e 0020     		movs	r0, #0
 734 0010 FFF7FEFF 		bl	Motor_1_IN_2_Write
 735              	.LVL59:
 288:main.c        ****     Motor_2_IN_3_Write(1);
 736              		.loc 1 288 0
 737 0014 2046     		mov	r0, r4
 738 0016 FFF7FEFF 		bl	Motor_2_IN_3_Write
ARM GAS  C:\Users\weiro\AppData\Local\Temp\ccK6dLS7.s 			page 19


 739              	.LVL60:
 289:main.c        ****     Motor_2_IN_4_Write(0);
 740              		.loc 1 289 0
 741 001a 0020     		movs	r0, #0
 742 001c FFF7FEFF 		bl	Motor_2_IN_4_Write
 743              	.LVL61:
 744 0020 10BD     		pop	{r4, pc}
 745              	.L60:
 746 0022 00BF     		.align	2
 747              	.L59:
 748 0024 00000000 		.word	.LANCHOR0
 749              		.cfi_endproc
 750              	.LFE71:
 751              		.size	reverse, .-reverse
 752              		.section	.text.turn_anticlockwise,"ax",%progbits
 753              		.align	2
 754              		.global	turn_anticlockwise
 755              		.thumb
 756              		.thumb_func
 757              		.type	turn_anticlockwise, %function
 758              	turn_anticlockwise:
 759              	.LFB72:
 290:main.c        **** }
 291:main.c        **** 
 292:main.c        **** void turn_anticlockwise()
 293:main.c        **** {
 760              		.loc 1 293 0
 761              		.cfi_startproc
 762              		@ args = 0, pretend = 0, frame = 0
 763              		@ frame_needed = 0, uses_anonymous_args = 0
 764 0000 10B5     		push	{r4, lr}
 765              		.cfi_def_cfa_offset 8
 766              		.cfi_offset 4, -8
 767              		.cfi_offset 14, -4
 294:main.c        ****     is_moving = 1;
 768              		.loc 1 294 0
 769 0002 0124     		movs	r4, #1
 770 0004 074B     		ldr	r3, .L63
 771 0006 1C60     		str	r4, [r3]
 295:main.c        ****     Motor_1_IN_1_Write(0);
 772              		.loc 1 295 0
 773 0008 0020     		movs	r0, #0
 774 000a FFF7FEFF 		bl	Motor_1_IN_1_Write
 775              	.LVL62:
 296:main.c        ****     Motor_1_IN_2_Write(1);
 776              		.loc 1 296 0
 777 000e 2046     		mov	r0, r4
 778 0010 FFF7FEFF 		bl	Motor_1_IN_2_Write
 779              	.LVL63:
 297:main.c        ****     Motor_2_IN_3_Write(1);
 780              		.loc 1 297 0
 781 0014 2046     		mov	r0, r4
 782 0016 FFF7FEFF 		bl	Motor_2_IN_3_Write
 783              	.LVL64:
 298:main.c        ****     Motor_2_IN_4_Write(0);
 784              		.loc 1 298 0
 785 001a 0020     		movs	r0, #0
ARM GAS  C:\Users\weiro\AppData\Local\Temp\ccK6dLS7.s 			page 20


 786 001c FFF7FEFF 		bl	Motor_2_IN_4_Write
 787              	.LVL65:
 788 0020 10BD     		pop	{r4, pc}
 789              	.L64:
 790 0022 00BF     		.align	2
 791              	.L63:
 792 0024 00000000 		.word	.LANCHOR0
 793              		.cfi_endproc
 794              	.LFE72:
 795              		.size	turn_anticlockwise, .-turn_anticlockwise
 796              		.section	.text.turn_clockwise,"ax",%progbits
 797              		.align	2
 798              		.global	turn_clockwise
 799              		.thumb
 800              		.thumb_func
 801              		.type	turn_clockwise, %function
 802              	turn_clockwise:
 803              	.LFB73:
 299:main.c        **** }
 300:main.c        **** 
 301:main.c        **** void turn_clockwise()
 302:main.c        **** {
 804              		.loc 1 302 0
 805              		.cfi_startproc
 806              		@ args = 0, pretend = 0, frame = 0
 807              		@ frame_needed = 0, uses_anonymous_args = 0
 808 0000 10B5     		push	{r4, lr}
 809              		.cfi_def_cfa_offset 8
 810              		.cfi_offset 4, -8
 811              		.cfi_offset 14, -4
 303:main.c        ****     is_moving = 1;
 812              		.loc 1 303 0
 813 0002 0124     		movs	r4, #1
 814 0004 074B     		ldr	r3, .L67
 815 0006 1C60     		str	r4, [r3]
 304:main.c        ****     Motor_1_IN_1_Write(1);
 816              		.loc 1 304 0
 817 0008 2046     		mov	r0, r4
 818 000a FFF7FEFF 		bl	Motor_1_IN_1_Write
 819              	.LVL66:
 305:main.c        ****     Motor_1_IN_2_Write(0);
 820              		.loc 1 305 0
 821 000e 0020     		movs	r0, #0
 822 0010 FFF7FEFF 		bl	Motor_1_IN_2_Write
 823              	.LVL67:
 306:main.c        ****     Motor_2_IN_3_Write(0);
 824              		.loc 1 306 0
 825 0014 0020     		movs	r0, #0
 826 0016 FFF7FEFF 		bl	Motor_2_IN_3_Write
 827              	.LVL68:
 307:main.c        ****     Motor_2_IN_4_Write(1);
 828              		.loc 1 307 0
 829 001a 2046     		mov	r0, r4
 830 001c FFF7FEFF 		bl	Motor_2_IN_4_Write
 831              	.LVL69:
 832 0020 10BD     		pop	{r4, pc}
 833              	.L68:
ARM GAS  C:\Users\weiro\AppData\Local\Temp\ccK6dLS7.s 			page 21


 834 0022 00BF     		.align	2
 835              	.L67:
 836 0024 00000000 		.word	.LANCHOR0
 837              		.cfi_endproc
 838              	.LFE73:
 839              		.size	turn_clockwise, .-turn_clockwise
 840              		.section	.text.reset_count,"ax",%progbits
 841              		.align	2
 842              		.global	reset_count
 843              		.thumb
 844              		.thumb_func
 845              		.type	reset_count, %function
 846              	reset_count:
 847              	.LFB74:
 308:main.c        **** }
 309:main.c        **** /*
 310:main.c        **** void F_or_R(int dist_count, int flag_FR, int direction, int min_distance, int max_distance)
 311:main.c        **** {
 312:main.c        ****     double avg_count, avg_dist;
 313:main.c        ****     int flag_stop = 0;
 314:main.c        ****     //while(abs(Count_Master) <= dist_count && abs(Count_Slave) <= dist_count && front_measured>10)
 315:main.c        ****     if direction == 1
 316:main.c        ****     {
 317:main.c        ****         US_measured = front_measured;
 318:main.c        ****     }
 319:main.c        ****     else if direction == 2
 320:main.c        ****     {
 321:main.c        ****         US_measured = left
 322:main.c        ****     
 323:main.c        ****     while(abs(Count_Master) <= dist_count && abs(Count_Slave) <= dist_count && US_measured > min_di
 324:main.c        ****     {
 325:main.c        ****         // Place your application code here. 
 326:main.c        ****         Count_Master = QuadDec_1_GetCounter();
 327:main.c        ****         Count_Slave = QuadDec_2_GetCounter();
 328:main.c        ****         
 329:main.c        ****         sprintf(string_1, "Right (Master): %d\n", Count_Master);
 330:main.c        ****         UART_1_PutString(string_1);
 331:main.c        ****         sprintf(string_2, "Left (Slave): %d\n", Count_Slave);
 332:main.c        ****         UART_1_PutString(string_2);
 333:main.c        ****         sprintf(string_3, "PWM_Slave: %f\n", PWM_Slave);
 334:main.c        ****         UART_1_PutString(string_3);
 335:main.c        **** 
 336:main.c        ****         CyDelay(100);
 337:main.c        ****         
 338:main.c        ****         if (flag_FR==1)
 339:main.c        ****         {
 340:main.c        ****             forward();
 341:main.c        ****         }
 342:main.c        ****         else
 343:main.c        ****         {
 344:main.c        ****             reverse();
 345:main.c        ****         }
 346:main.c        ****         CyDelay(50);
 347:main.c        ****         while(Front_Echo_Read()==0)
 348:main.c        ****         {
 349:main.c        ****             Front_Trigger_Write(1);
 350:main.c        ****             CyDelayUs(10);
ARM GAS  C:\Users\weiro\AppData\Local\Temp\ccK6dLS7.s 			page 22


 351:main.c        ****             Front_Trigger_Write(0);
 352:main.c        ****         }
 353:main.c        ****     }
 354:main.c        ****     stop();
 355:main.c        ****     avg_count = (QuadDec_1_GetCounter()+QuadDec_2_GetCounter())/2;
 356:main.c        ****     avg_dist = avg_count*(M_PI*WHEEL_DIAMETER/3667);
 357:main.c        ****     if (direction ==0)
 358:main.c        ****     {
 359:main.c        ****         y_coord = y_coord + avg_dist;
 360:main.c        ****     }
 361:main.c        ****     else if (direction ==1)
 362:main.c        ****     {
 363:main.c        ****         
 364:main.c        ****         x_coord = x_coord + avg_dist;
 365:main.c        ****     }
 366:main.c        ****     else if (direction ==2)
 367:main.c        ****     {
 368:main.c        ****         
 369:main.c        ****         y_coord = y_coord - avg_dist;
 370:main.c        ****     }
 371:main.c        ****     else if (direction ==3)
 372:main.c        ****     {
 373:main.c        ****         
 374:main.c        ****         x_coord = x_coord - avg_dist;
 375:main.c        ****     }
 376:main.c        ****     step = step +1;
 377:main.c        ****     //
 378:main.c        ****     //QuadDec_2_SetCounter(0);
 379:main.c        **** }
 380:main.c        **** */
 381:main.c        **** 
 382:main.c        **** void reset_count()
 383:main.c        **** {
 848              		.loc 1 383 0
 849              		.cfi_startproc
 850              		@ args = 0, pretend = 0, frame = 0
 851              		@ frame_needed = 0, uses_anonymous_args = 0
 852 0000 08B5     		push	{r3, lr}
 853              		.cfi_def_cfa_offset 8
 854              		.cfi_offset 3, -8
 855              		.cfi_offset 14, -4
 384:main.c        ****     QuadDec_1_SetCounter(0);
 856              		.loc 1 384 0
 857 0002 0020     		movs	r0, #0
 858 0004 FFF7FEFF 		bl	QuadDec_1_SetCounter
 859              	.LVL70:
 385:main.c        ****     QuadDec_2_SetCounter(0);
 860              		.loc 1 385 0
 861 0008 0020     		movs	r0, #0
 862 000a FFF7FEFF 		bl	QuadDec_2_SetCounter
 863              	.LVL71:
 386:main.c        ****     Count_Master = 0;
 864              		.loc 1 386 0
 865 000e 024B     		ldr	r3, .L71
 866 0010 0022     		movs	r2, #0
 867 0012 5A60     		str	r2, [r3, #4]
 387:main.c        ****     Count_Slave = 0;
ARM GAS  C:\Users\weiro\AppData\Local\Temp\ccK6dLS7.s 			page 23


 868              		.loc 1 387 0
 869 0014 9A60     		str	r2, [r3, #8]
 870 0016 08BD     		pop	{r3, pc}
 871              	.L72:
 872              		.align	2
 873              	.L71:
 874 0018 00000000 		.word	.LANCHOR0
 875              		.cfi_endproc
 876              	.LFE74:
 877              		.size	reset_count, .-reset_count
 878              		.section	.text.move_fixed_dist,"ax",%progbits
 879              		.align	2
 880              		.global	move_fixed_dist
 881              		.thumb
 882              		.thumb_func
 883              		.type	move_fixed_dist, %function
 884              	move_fixed_dist:
 885              	.LFB75:
 388:main.c        **** }
 389:main.c        **** 
 390:main.c        **** void move_fixed_dist(int dist, int flag_FR)
 391:main.c        **** {
 886              		.loc 1 391 0
 887              		.cfi_startproc
 888              		@ args = 0, pretend = 0, frame = 0
 889              		@ frame_needed = 0, uses_anonymous_args = 0
 890              	.LVL72:
 891 0000 70B5     		push	{r4, r5, r6, lr}
 892              		.cfi_def_cfa_offset 16
 893              		.cfi_offset 4, -16
 894              		.cfi_offset 5, -12
 895              		.cfi_offset 6, -8
 896              		.cfi_offset 14, -4
 897 0002 0E46     		mov	r6, r1
 392:main.c        ****     double avg_count, avg_dist;
 393:main.c        ****     int dist_count = dist * CM_COUNT_CONV; // convert dist to count
 898              		.loc 1 393 0
 899 0004 FFF7FEFF 		bl	__aeabi_i2d
 900              	.LVL73:
 901 0008 3F4B     		ldr	r3, .L84+16
 902 000a D3E90023 		ldrd	r2, [r3]
 903 000e FFF7FEFF 		bl	__aeabi_dmul
 904              	.LVL74:
 905 0012 FFF7FEFF 		bl	__aeabi_d2iz
 906              	.LVL75:
 907 0016 0546     		mov	r5, r0
 908              	.LVL76:
 394:main.c        ****     while(abs(Count_Master) <= dist_count && abs(Count_Slave) <= dist_count)
 909              		.loc 1 394 0
 910 0018 0DE0     		b	.L74
 911              	.LVL77:
 912              	.L78:
 395:main.c        ****     {
 396:main.c        ****         Count_Master = QuadDec_1_GetCounter();
 913              		.loc 1 396 0
 914 001a FFF7FEFF 		bl	QuadDec_1_GetCounter
 915              	.LVL78:
ARM GAS  C:\Users\weiro\AppData\Local\Temp\ccK6dLS7.s 			page 24


 916 001e 3B4C     		ldr	r4, .L84+20
 917 0020 6060     		str	r0, [r4, #4]
 397:main.c        ****         Count_Slave = QuadDec_2_GetCounter();
 918              		.loc 1 397 0
 919 0022 FFF7FEFF 		bl	QuadDec_2_GetCounter
 920              	.LVL79:
 921 0026 A060     		str	r0, [r4, #8]
 398:main.c        ****         if (flag_FR==1)
 922              		.loc 1 398 0
 923 0028 012E     		cmp	r6, #1
 924 002a 02D1     		bne	.L75
 399:main.c        ****         {
 400:main.c        ****             forward();
 925              		.loc 1 400 0
 926 002c FFF7FEFF 		bl	forward
 927              	.LVL80:
 928 0030 01E0     		b	.L74
 929              	.L75:
 401:main.c        ****         }
 402:main.c        ****         else
 403:main.c        ****         {
 404:main.c        ****             reverse();
 930              		.loc 1 404 0
 931 0032 FFF7FEFF 		bl	reverse
 932              	.LVL81:
 933              	.L74:
 394:main.c        ****     {
 934              		.loc 1 394 0
 935 0036 354B     		ldr	r3, .L84+20
 936 0038 5B68     		ldr	r3, [r3, #4]
 937 003a 002B     		cmp	r3, #0
 938 003c B8BF     		it	lt
 939 003e 5B42     		rsblt	r3, r3, #0
 940 0040 9D42     		cmp	r5, r3
 941 0042 06DB     		blt	.L77
 394:main.c        ****     {
 942              		.loc 1 394 0 is_stmt 0 discriminator 1
 943 0044 314B     		ldr	r3, .L84+20
 944 0046 9B68     		ldr	r3, [r3, #8]
 945 0048 002B     		cmp	r3, #0
 946 004a B8BF     		it	lt
 947 004c 5B42     		rsblt	r3, r3, #0
 948 004e 9D42     		cmp	r5, r3
 949 0050 E3DA     		bge	.L78
 950              	.L77:
 405:main.c        ****         }
 406:main.c        ****     }
 407:main.c        ****     stop();
 951              		.loc 1 407 0 is_stmt 1
 952 0052 FFF7FEFF 		bl	stop
 953              	.LVL82:
 408:main.c        ****     avg_count = (QuadDec_1_GetCounter()+QuadDec_2_GetCounter())/2;
 954              		.loc 1 408 0
 955 0056 FFF7FEFF 		bl	QuadDec_1_GetCounter
 956              	.LVL83:
 957 005a 0446     		mov	r4, r0
 958 005c FFF7FEFF 		bl	QuadDec_2_GetCounter
ARM GAS  C:\Users\weiro\AppData\Local\Temp\ccK6dLS7.s 			page 25


 959              	.LVL84:
 960 0060 2044     		add	r0, r0, r4
 961 0062 00EBD070 		add	r0, r0, r0, lsr #31
 962 0066 4010     		asrs	r0, r0, #1
 963 0068 FFF7FEFF 		bl	__aeabi_i2d
 964              	.LVL85:
 965 006c 0446     		mov	r4, r0
 966 006e 0D46     		mov	r5, r1
 967              	.LVL86:
 409:main.c        ****     avg_dist = avg_count*(M_PI*WHEEL_DIAMETER/3667);
 968              		.loc 1 409 0
 969 0070 21A3     		adr	r3, .L84
 970 0072 D3E90023 		ldrd	r2, [r3]
 971 0076 2649     		ldr	r1, .L84+24
 972 0078 D1E90801 		ldrd	r0, [r1, #32]
 973 007c FFF7FEFF 		bl	__aeabi_dmul
 974              	.LVL87:
 975 0080 1FA3     		adr	r3, .L84+8
 976 0082 D3E90023 		ldrd	r2, [r3]
 977 0086 FFF7FEFF 		bl	__aeabi_ddiv
 978              	.LVL88:
 979 008a 0246     		mov	r2, r0
 980 008c 0B46     		mov	r3, r1
 981 008e 2046     		mov	r0, r4
 982 0090 2946     		mov	r1, r5
 983 0092 FFF7FEFF 		bl	__aeabi_dmul
 984              	.LVL89:
 410:main.c        ****     if (direction ==0)
 985              		.loc 1 410 0
 986 0096 1D4B     		ldr	r3, .L84+20
 987 0098 D3F86031 		ldr	r3, [r3, #352]
 988 009c 3BB9     		cbnz	r3, .L79
 411:main.c        ****     {
 412:main.c        ****         y_coord = y_coord + avg_dist;
 989              		.loc 1 412 0
 990 009e 1B4C     		ldr	r4, .L84+20
 991              	.LVL90:
 992 00a0 F4E95A23 		ldrd	r2, [r4, #360]!
 993 00a4 FFF7FEFF 		bl	__aeabi_dadd
 994              	.LVL91:
 995 00a8 C4E90001 		strd	r0, [r4]
 996 00ac 20E0     		b	.L80
 997              	.LVL92:
 998              	.L79:
 413:main.c        ****     }
 414:main.c        ****     else if (direction ==1)
 999              		.loc 1 414 0
 1000 00ae 012B     		cmp	r3, #1
 1001 00b0 07D1     		bne	.L81
 415:main.c        ****     {
 416:main.c        ****         
 417:main.c        ****         x_coord = x_coord + avg_dist;
 1002              		.loc 1 417 0
 1003 00b2 164C     		ldr	r4, .L84+20
 1004              	.LVL93:
 1005 00b4 F4E95C23 		ldrd	r2, [r4, #368]!
 1006 00b8 FFF7FEFF 		bl	__aeabi_dadd
ARM GAS  C:\Users\weiro\AppData\Local\Temp\ccK6dLS7.s 			page 26


 1007              	.LVL94:
 1008 00bc C4E90001 		strd	r0, [r4]
 1009 00c0 16E0     		b	.L80
 1010              	.LVL95:
 1011              	.L81:
 418:main.c        ****     }
 419:main.c        ****     else if (direction ==2)
 1012              		.loc 1 419 0
 1013 00c2 022B     		cmp	r3, #2
 1014 00c4 09D1     		bne	.L82
 420:main.c        ****     {
 421:main.c        ****         
 422:main.c        ****         y_coord = y_coord - avg_dist;
 1015              		.loc 1 422 0
 1016 00c6 114C     		ldr	r4, .L84+20
 1017              	.LVL96:
 1018 00c8 0246     		mov	r2, r0
 1019 00ca 0B46     		mov	r3, r1
 1020 00cc F4E95A01 		ldrd	r0, [r4, #360]!
 1021              	.LVL97:
 1022 00d0 FFF7FEFF 		bl	__aeabi_dsub
 1023              	.LVL98:
 1024 00d4 C4E90001 		strd	r0, [r4]
 1025 00d8 0AE0     		b	.L80
 1026              	.LVL99:
 1027              	.L82:
 423:main.c        ****     }
 424:main.c        ****     else if (direction ==3)
 1028              		.loc 1 424 0
 1029 00da 032B     		cmp	r3, #3
 1030 00dc 08D1     		bne	.L80
 425:main.c        ****     {
 426:main.c        ****         
 427:main.c        ****         x_coord = x_coord - avg_dist;
 1031              		.loc 1 427 0
 1032 00de 0B4C     		ldr	r4, .L84+20
 1033              	.LVL100:
 1034 00e0 0246     		mov	r2, r0
 1035 00e2 0B46     		mov	r3, r1
 1036 00e4 F4E95C01 		ldrd	r0, [r4, #368]!
 1037              	.LVL101:
 1038 00e8 FFF7FEFF 		bl	__aeabi_dsub
 1039              	.LVL102:
 1040 00ec C4E90001 		strd	r0, [r4]
 1041              	.L80:
 428:main.c        ****     }
 429:main.c        ****     reset_count();
 1042              		.loc 1 429 0
 1043 00f0 FFF7FEFF 		bl	reset_count
 1044              	.LVL103:
 1045 00f4 70BD     		pop	{r4, r5, r6, pc}
 1046              	.LVL104:
 1047              	.L85:
 1048 00f6 00BF     		.align	3
 1049              	.L84:
 1050 00f8 182D4454 		.word	1413754136
 1051 00fc FB210940 		.word	1074340347
ARM GAS  C:\Users\weiro\AppData\Local\Temp\ccK6dLS7.s 			page 27


 1052 0100 00000000 		.word	0
 1053 0104 00A6AC40 		.word	1085056512
 1054 0108 58010000 		.word	.LANCHOR0+344
 1055 010c 00000000 		.word	.LANCHOR0
 1056 0110 00000000 		.word	.LANCHOR1
 1057              		.cfi_endproc
 1058              	.LFE75:
 1059              		.size	move_fixed_dist, .-move_fixed_dist
 1060              		.section	.text.forward2wall,"ax",%progbits
 1061              		.align	2
 1062              		.global	forward2wall
 1063              		.thumb
 1064              		.thumb_func
 1065              		.type	forward2wall, %function
 1066              	forward2wall:
 1067              	.LFB76:
 430:main.c        **** }
 431:main.c        **** 
 432:main.c        **** void forward2wall()
 433:main.c        **** {
 1068              		.loc 1 433 0
 1069              		.cfi_startproc
 1070              		@ args = 0, pretend = 0, frame = 0
 1071              		@ frame_needed = 0, uses_anonymous_args = 0
 1072 0000 38B5     		push	{r3, r4, r5, lr}
 1073              		.cfi_def_cfa_offset 16
 1074              		.cfi_offset 3, -16
 1075              		.cfi_offset 4, -12
 1076              		.cfi_offset 5, -8
 1077              		.cfi_offset 14, -4
 434:main.c        ****     double avg_count, avg_dist;
 435:main.c        ****     while (wall_detected_10 == 0)
 1078              		.loc 1 435 0
 1079 0002 1BE0     		b	.L87
 1080              	.L90:
 436:main.c        ****     {
 437:main.c        ****         forward();
 1081              		.loc 1 437 0
 1082 0004 FFF7FEFF 		bl	forward
 1083              	.LVL105:
 438:main.c        ****         CyDelay(50);
 1084              		.loc 1 438 0
 1085 0008 3220     		movs	r0, #50
 1086 000a FFF7FEFF 		bl	CyDelay
 1087              	.LVL106:
 439:main.c        ****         while(Front_Echo_1_Read()==0)
 1088              		.loc 1 439 0
 1089 000e 11E0     		b	.L88
 1090              	.L89:
 440:main.c        ****         {
 441:main.c        ****             echo_select = 0;
 1091              		.loc 1 441 0
 1092 0010 0024     		movs	r4, #0
 1093 0012 394B     		ldr	r3, .L96+16
 1094 0014 1C63     		str	r4, [r3, #48]
 442:main.c        ****             Control_Reg_2_Write(echo_select);
 1095              		.loc 1 442 0
ARM GAS  C:\Users\weiro\AppData\Local\Temp\ccK6dLS7.s 			page 28


 1096 0016 2046     		mov	r0, r4
 1097 0018 FFF7FEFF 		bl	Control_Reg_2_Write
 1098              	.LVL107:
 443:main.c        ****             CyDelay(50);
 1099              		.loc 1 443 0
 1100 001c 3220     		movs	r0, #50
 1101 001e FFF7FEFF 		bl	CyDelay
 1102              	.LVL108:
 444:main.c        ****             Trigger_Write(1);
 1103              		.loc 1 444 0
 1104 0022 0120     		movs	r0, #1
 1105 0024 FFF7FEFF 		bl	Trigger_Write
 1106              	.LVL109:
 445:main.c        ****             CyDelayUs(10);
 1107              		.loc 1 445 0
 1108 0028 0A20     		movs	r0, #10
 1109 002a FFF7FEFF 		bl	CyDelayUs
 1110              	.LVL110:
 446:main.c        ****             Trigger_Write(0);
 1111              		.loc 1 446 0
 1112 002e 2046     		mov	r0, r4
 1113 0030 FFF7FEFF 		bl	Trigger_Write
 1114              	.LVL111:
 1115              	.L88:
 439:main.c        ****         {
 1116              		.loc 1 439 0
 1117 0034 FFF7FEFF 		bl	Front_Echo_1_Read
 1118              	.LVL112:
 1119 0038 0028     		cmp	r0, #0
 1120 003a E9D0     		beq	.L89
 1121              	.L87:
 435:main.c        ****     {
 1122              		.loc 1 435 0
 1123 003c 2E4B     		ldr	r3, .L96+16
 1124 003e 1B6C     		ldr	r3, [r3, #64]
 1125 0040 002B     		cmp	r3, #0
 1126 0042 DFD0     		beq	.L90
 447:main.c        ****         }
 448:main.c        ****     }
 449:main.c        ****     stop();
 1127              		.loc 1 449 0
 1128 0044 FFF7FEFF 		bl	stop
 1129              	.LVL113:
 450:main.c        ****     avg_count = (QuadDec_1_GetCounter()+QuadDec_2_GetCounter())/2;
 1130              		.loc 1 450 0
 1131 0048 FFF7FEFF 		bl	QuadDec_1_GetCounter
 1132              	.LVL114:
 1133 004c 0446     		mov	r4, r0
 1134 004e FFF7FEFF 		bl	QuadDec_2_GetCounter
 1135              	.LVL115:
 1136 0052 2044     		add	r0, r0, r4
 1137 0054 00EBD070 		add	r0, r0, r0, lsr #31
 1138 0058 4010     		asrs	r0, r0, #1
 1139 005a FFF7FEFF 		bl	__aeabi_i2d
 1140              	.LVL116:
 1141 005e 0446     		mov	r4, r0
 1142 0060 0D46     		mov	r5, r1
ARM GAS  C:\Users\weiro\AppData\Local\Temp\ccK6dLS7.s 			page 29


 1143              	.LVL117:
 451:main.c        ****     avg_dist = avg_count*(M_PI*WHEEL_DIAMETER/3667);
 1144              		.loc 1 451 0
 1145 0062 21A3     		adr	r3, .L96
 1146 0064 D3E90023 		ldrd	r2, [r3]
 1147 0068 2449     		ldr	r1, .L96+20
 1148 006a D1E90801 		ldrd	r0, [r1, #32]
 1149 006e FFF7FEFF 		bl	__aeabi_dmul
 1150              	.LVL118:
 1151 0072 1FA3     		adr	r3, .L96+8
 1152 0074 D3E90023 		ldrd	r2, [r3]
 1153 0078 FFF7FEFF 		bl	__aeabi_ddiv
 1154              	.LVL119:
 1155 007c 0246     		mov	r2, r0
 1156 007e 0B46     		mov	r3, r1
 1157 0080 2046     		mov	r0, r4
 1158 0082 2946     		mov	r1, r5
 1159 0084 FFF7FEFF 		bl	__aeabi_dmul
 1160              	.LVL120:
 452:main.c        ****     if (direction ==0)
 1161              		.loc 1 452 0
 1162 0088 1B4B     		ldr	r3, .L96+16
 1163 008a D3F86031 		ldr	r3, [r3, #352]
 1164 008e 3BB9     		cbnz	r3, .L91
 453:main.c        ****     {
 454:main.c        ****         y_coord = y_coord + avg_dist;
 1165              		.loc 1 454 0
 1166 0090 194C     		ldr	r4, .L96+16
 1167              	.LVL121:
 1168 0092 F4E95A23 		ldrd	r2, [r4, #360]!
 1169 0096 FFF7FEFF 		bl	__aeabi_dadd
 1170              	.LVL122:
 1171 009a C4E90001 		strd	r0, [r4]
 1172 009e 20E0     		b	.L92
 1173              	.LVL123:
 1174              	.L91:
 455:main.c        ****     }
 456:main.c        ****     else if (direction ==1)
 1175              		.loc 1 456 0
 1176 00a0 012B     		cmp	r3, #1
 1177 00a2 07D1     		bne	.L93
 457:main.c        ****     {
 458:main.c        ****         
 459:main.c        ****         x_coord = x_coord + avg_dist;
 1178              		.loc 1 459 0
 1179 00a4 144C     		ldr	r4, .L96+16
 1180              	.LVL124:
 1181 00a6 F4E95C23 		ldrd	r2, [r4, #368]!
 1182 00aa FFF7FEFF 		bl	__aeabi_dadd
 1183              	.LVL125:
 1184 00ae C4E90001 		strd	r0, [r4]
 1185 00b2 16E0     		b	.L92
 1186              	.LVL126:
 1187              	.L93:
 460:main.c        ****     }
 461:main.c        ****     else if (direction ==2)
 1188              		.loc 1 461 0
ARM GAS  C:\Users\weiro\AppData\Local\Temp\ccK6dLS7.s 			page 30


 1189 00b4 022B     		cmp	r3, #2
 1190 00b6 09D1     		bne	.L94
 462:main.c        ****     {
 463:main.c        ****         
 464:main.c        ****         y_coord = y_coord - avg_dist;
 1191              		.loc 1 464 0
 1192 00b8 0F4C     		ldr	r4, .L96+16
 1193              	.LVL127:
 1194 00ba 0246     		mov	r2, r0
 1195 00bc 0B46     		mov	r3, r1
 1196 00be F4E95A01 		ldrd	r0, [r4, #360]!
 1197              	.LVL128:
 1198 00c2 FFF7FEFF 		bl	__aeabi_dsub
 1199              	.LVL129:
 1200 00c6 C4E90001 		strd	r0, [r4]
 1201 00ca 0AE0     		b	.L92
 1202              	.LVL130:
 1203              	.L94:
 465:main.c        ****     }
 466:main.c        ****     else if (direction ==3)
 1204              		.loc 1 466 0
 1205 00cc 032B     		cmp	r3, #3
 1206 00ce 08D1     		bne	.L92
 467:main.c        ****     {
 468:main.c        ****         
 469:main.c        ****         x_coord = x_coord - avg_dist;
 1207              		.loc 1 469 0
 1208 00d0 094C     		ldr	r4, .L96+16
 1209              	.LVL131:
 1210 00d2 0246     		mov	r2, r0
 1211 00d4 0B46     		mov	r3, r1
 1212 00d6 F4E95C01 		ldrd	r0, [r4, #368]!
 1213              	.LVL132:
 1214 00da FFF7FEFF 		bl	__aeabi_dsub
 1215              	.LVL133:
 1216 00de C4E90001 		strd	r0, [r4]
 1217              	.L92:
 470:main.c        ****     }
 471:main.c        ****     reset_count();
 1218              		.loc 1 471 0
 1219 00e2 FFF7FEFF 		bl	reset_count
 1220              	.LVL134:
 1221 00e6 38BD     		pop	{r3, r4, r5, pc}
 1222              	.L97:
 1223              		.align	3
 1224              	.L96:
 1225 00e8 182D4454 		.word	1413754136
 1226 00ec FB210940 		.word	1074340347
 1227 00f0 00000000 		.word	0
 1228 00f4 00A6AC40 		.word	1085056512
 1229 00f8 00000000 		.word	.LANCHOR0
 1230 00fc 00000000 		.word	.LANCHOR1
 1231              		.cfi_endproc
 1232              	.LFE76:
 1233              		.size	forward2wall, .-forward2wall
 1234              		.section	.text.move2slit,"ax",%progbits
 1235              		.align	2
ARM GAS  C:\Users\weiro\AppData\Local\Temp\ccK6dLS7.s 			page 31


 1236              		.global	move2slit
 1237              		.thumb
 1238              		.thumb_func
 1239              		.type	move2slit, %function
 1240              	move2slit:
 1241              	.LFB77:
 472:main.c        **** }
 473:main.c        **** 
 474:main.c        **** void move2slit()
 475:main.c        **** {
 1242              		.loc 1 475 0
 1243              		.cfi_startproc
 1244              		@ args = 0, pretend = 0, frame = 0
 1245              		@ frame_needed = 0, uses_anonymous_args = 0
 1246 0000 38B5     		push	{r3, r4, r5, lr}
 1247              		.cfi_def_cfa_offset 16
 1248              		.cfi_offset 3, -16
 1249              		.cfi_offset 4, -12
 1250              		.cfi_offset 5, -8
 1251              		.cfi_offset 14, -4
 476:main.c        ****     double avg_count, avg_dist;
 477:main.c        ****     CyDelay(500);
 1252              		.loc 1 477 0
 1253 0002 4FF4FA70 		mov	r0, #500
 1254 0006 FFF7FEFF 		bl	CyDelay
 1255              	.LVL135:
 478:main.c        ****     while (slit_detected == 0)
 1256              		.loc 1 478 0
 1257 000a 27E0     		b	.L99
 1258              	.L102:
 479:main.c        ****     {
 480:main.c        ****         forward();
 1259              		.loc 1 480 0
 1260 000c FFF7FEFF 		bl	forward
 1261              	.LVL136:
 481:main.c        ****         sprintf(string_1, "moving to slit");
 1262              		.loc 1 481 0
 1263 0010 434C     		ldr	r4, .L108+16
 1264 0012 444B     		ldr	r3, .L108+20
 1265 0014 07CB     		ldmia	r3!, {r0, r1, r2}
 1266 0016 2060     		str	r0, [r4]	@ unaligned
 1267 0018 6160     		str	r1, [r4, #4]	@ unaligned
 1268 001a A260     		str	r2, [r4, #8]	@ unaligned
 1269 001c 1A88     		ldrh	r2, [r3]	@ unaligned
 1270 001e 9B78     		ldrb	r3, [r3, #2]	@ zero_extendqisi2
 1271 0020 A281     		strh	r2, [r4, #12]	@ unaligned
 1272 0022 A373     		strb	r3, [r4, #14]
 482:main.c        ****         UART_1_PutString(string_1);
 1273              		.loc 1 482 0
 1274 0024 2046     		mov	r0, r4
 1275 0026 FFF7FEFF 		bl	UART_1_PutString
 1276              	.LVL137:
 483:main.c        ****         CyDelay(100);
 1277              		.loc 1 483 0
 1278 002a 6420     		movs	r0, #100
 1279 002c FFF7FEFF 		bl	CyDelay
 1280              	.LVL138:
ARM GAS  C:\Users\weiro\AppData\Local\Temp\ccK6dLS7.s 			page 32


 484:main.c        ****         while(Left_Echo_Read()==0)
 1281              		.loc 1 484 0
 1282 0030 10E0     		b	.L100
 1283              	.L101:
 485:main.c        ****         {
 486:main.c        ****             echo_select = 2;
 1284              		.loc 1 486 0
 1285 0032 0220     		movs	r0, #2
 1286 0034 3C4B     		ldr	r3, .L108+24
 1287 0036 1863     		str	r0, [r3, #48]
 487:main.c        ****             Control_Reg_2_Write(echo_select);
 1288              		.loc 1 487 0
 1289 0038 FFF7FEFF 		bl	Control_Reg_2_Write
 1290              	.LVL139:
 488:main.c        ****             CyDelay(50);
 1291              		.loc 1 488 0
 1292 003c 3220     		movs	r0, #50
 1293 003e FFF7FEFF 		bl	CyDelay
 1294              	.LVL140:
 489:main.c        ****             Trigger_Write(1);
 1295              		.loc 1 489 0
 1296 0042 0120     		movs	r0, #1
 1297 0044 FFF7FEFF 		bl	Trigger_Write
 1298              	.LVL141:
 490:main.c        ****             CyDelayUs(10);
 1299              		.loc 1 490 0
 1300 0048 0A20     		movs	r0, #10
 1301 004a FFF7FEFF 		bl	CyDelayUs
 1302              	.LVL142:
 491:main.c        ****             Trigger_Write(0);
 1303              		.loc 1 491 0
 1304 004e 0020     		movs	r0, #0
 1305 0050 FFF7FEFF 		bl	Trigger_Write
 1306              	.LVL143:
 1307              	.L100:
 484:main.c        ****         {
 1308              		.loc 1 484 0
 1309 0054 FFF7FEFF 		bl	Left_Echo_Read
 1310              	.LVL144:
 1311 0058 0028     		cmp	r0, #0
 1312 005a EAD0     		beq	.L101
 1313              	.L99:
 478:main.c        ****     {
 1314              		.loc 1 478 0
 1315 005c 324B     		ldr	r3, .L108+24
 1316 005e D3F87831 		ldr	r3, [r3, #376]
 1317 0062 002B     		cmp	r3, #0
 1318 0064 D2D0     		beq	.L102
 492:main.c        ****         }
 493:main.c        ****     }
 494:main.c        ****     stop();
 1319              		.loc 1 494 0
 1320 0066 FFF7FEFF 		bl	stop
 1321              	.LVL145:
 495:main.c        ****     avg_count = (QuadDec_1_GetCounter()+QuadDec_2_GetCounter())/2;
 1322              		.loc 1 495 0
 1323 006a FFF7FEFF 		bl	QuadDec_1_GetCounter
ARM GAS  C:\Users\weiro\AppData\Local\Temp\ccK6dLS7.s 			page 33


 1324              	.LVL146:
 1325 006e 0446     		mov	r4, r0
 1326 0070 FFF7FEFF 		bl	QuadDec_2_GetCounter
 1327              	.LVL147:
 1328 0074 2044     		add	r0, r0, r4
 1329 0076 00EBD070 		add	r0, r0, r0, lsr #31
 1330 007a 4010     		asrs	r0, r0, #1
 1331 007c FFF7FEFF 		bl	__aeabi_i2d
 1332              	.LVL148:
 1333 0080 0446     		mov	r4, r0
 1334 0082 0D46     		mov	r5, r1
 1335              	.LVL149:
 496:main.c        ****     avg_dist = avg_count*(M_PI*WHEEL_DIAMETER/3667);
 1336              		.loc 1 496 0
 1337 0084 22A3     		adr	r3, .L108
 1338 0086 D3E90023 		ldrd	r2, [r3]
 1339 008a 2849     		ldr	r1, .L108+28
 1340 008c D1E90801 		ldrd	r0, [r1, #32]
 1341 0090 FFF7FEFF 		bl	__aeabi_dmul
 1342              	.LVL150:
 1343 0094 20A3     		adr	r3, .L108+8
 1344 0096 D3E90023 		ldrd	r2, [r3]
 1345 009a FFF7FEFF 		bl	__aeabi_ddiv
 1346              	.LVL151:
 1347 009e 0246     		mov	r2, r0
 1348 00a0 0B46     		mov	r3, r1
 1349 00a2 2046     		mov	r0, r4
 1350 00a4 2946     		mov	r1, r5
 1351 00a6 FFF7FEFF 		bl	__aeabi_dmul
 1352              	.LVL152:
 497:main.c        ****     if (direction ==0)
 1353              		.loc 1 497 0
 1354 00aa 1F4B     		ldr	r3, .L108+24
 1355 00ac D3F86031 		ldr	r3, [r3, #352]
 1356 00b0 3BB9     		cbnz	r3, .L103
 498:main.c        ****     {
 499:main.c        ****         y_coord = y_coord + avg_dist;
 1357              		.loc 1 499 0
 1358 00b2 1D4C     		ldr	r4, .L108+24
 1359              	.LVL153:
 1360 00b4 F4E95A23 		ldrd	r2, [r4, #360]!
 1361 00b8 FFF7FEFF 		bl	__aeabi_dadd
 1362              	.LVL154:
 1363 00bc C4E90001 		strd	r0, [r4]
 1364 00c0 20E0     		b	.L104
 1365              	.LVL155:
 1366              	.L103:
 500:main.c        ****     }
 501:main.c        ****     else if (direction ==1)
 1367              		.loc 1 501 0
 1368 00c2 012B     		cmp	r3, #1
 1369 00c4 07D1     		bne	.L105
 502:main.c        ****     {
 503:main.c        ****         
 504:main.c        ****         x_coord = x_coord + avg_dist;
 1370              		.loc 1 504 0
 1371 00c6 184C     		ldr	r4, .L108+24
ARM GAS  C:\Users\weiro\AppData\Local\Temp\ccK6dLS7.s 			page 34


 1372              	.LVL156:
 1373 00c8 F4E95C23 		ldrd	r2, [r4, #368]!
 1374 00cc FFF7FEFF 		bl	__aeabi_dadd
 1375              	.LVL157:
 1376 00d0 C4E90001 		strd	r0, [r4]
 1377 00d4 16E0     		b	.L104
 1378              	.LVL158:
 1379              	.L105:
 505:main.c        ****     }
 506:main.c        ****     else if (direction ==2)
 1380              		.loc 1 506 0
 1381 00d6 022B     		cmp	r3, #2
 1382 00d8 09D1     		bne	.L106
 507:main.c        ****     {
 508:main.c        ****         
 509:main.c        ****         y_coord = y_coord - avg_dist;
 1383              		.loc 1 509 0
 1384 00da 134C     		ldr	r4, .L108+24
 1385              	.LVL159:
 1386 00dc 0246     		mov	r2, r0
 1387 00de 0B46     		mov	r3, r1
 1388 00e0 F4E95A01 		ldrd	r0, [r4, #360]!
 1389              	.LVL160:
 1390 00e4 FFF7FEFF 		bl	__aeabi_dsub
 1391              	.LVL161:
 1392 00e8 C4E90001 		strd	r0, [r4]
 1393 00ec 0AE0     		b	.L104
 1394              	.LVL162:
 1395              	.L106:
 510:main.c        ****     }
 511:main.c        ****     else if (direction ==3)
 1396              		.loc 1 511 0
 1397 00ee 032B     		cmp	r3, #3
 1398 00f0 08D1     		bne	.L104
 512:main.c        ****     {
 513:main.c        ****         
 514:main.c        ****         x_coord = x_coord - avg_dist;
 1399              		.loc 1 514 0
 1400 00f2 0D4C     		ldr	r4, .L108+24
 1401              	.LVL163:
 1402 00f4 0246     		mov	r2, r0
 1403 00f6 0B46     		mov	r3, r1
 1404 00f8 F4E95C01 		ldrd	r0, [r4, #368]!
 1405              	.LVL164:
 1406 00fc FFF7FEFF 		bl	__aeabi_dsub
 1407              	.LVL165:
 1408 0100 C4E90001 		strd	r0, [r4]
 1409              	.L104:
 515:main.c        ****     }
 516:main.c        ****     reset_count();
 1410              		.loc 1 516 0
 1411 0104 FFF7FEFF 		bl	reset_count
 1412              	.LVL166:
 1413 0108 38BD     		pop	{r3, r4, r5, pc}
 1414              	.L109:
 1415 010a 00BFAFF3 		.align	3
 1415      0080
ARM GAS  C:\Users\weiro\AppData\Local\Temp\ccK6dLS7.s 			page 35


 1416              	.L108:
 1417 0110 182D4454 		.word	1413754136
 1418 0114 FB210940 		.word	1074340347
 1419 0118 00000000 		.word	0
 1420 011c 00A6AC40 		.word	1085056512
 1421 0120 00000000 		.word	string_1
 1422 0124 34000000 		.word	.LC3
 1423 0128 00000000 		.word	.LANCHOR0
 1424 012c 00000000 		.word	.LANCHOR1
 1425              		.cfi_endproc
 1426              	.LFE77:
 1427              		.size	move2slit, .-move2slit
 1428              		.section	.text.move2puck,"ax",%progbits
 1429              		.align	2
 1430              		.global	move2puck
 1431              		.thumb
 1432              		.thumb_func
 1433              		.type	move2puck, %function
 1434              	move2puck:
 1435              	.LFB78:
 517:main.c        **** }
 518:main.c        **** 
 519:main.c        **** void move2puck()
 520:main.c        **** {
 1436              		.loc 1 520 0
 1437              		.cfi_startproc
 1438              		@ args = 0, pretend = 0, frame = 0
 1439              		@ frame_needed = 0, uses_anonymous_args = 0
 1440 0000 38B5     		push	{r3, r4, r5, lr}
 1441              		.cfi_def_cfa_offset 16
 1442              		.cfi_offset 3, -16
 1443              		.cfi_offset 4, -12
 1444              		.cfi_offset 5, -8
 1445              		.cfi_offset 14, -4
 521:main.c        ****     double avg_count, avg_dist;
 522:main.c        ****     while (IR_input_Read() == 1)
 1446              		.loc 1 522 0
 1447 0002 01E0     		b	.L111
 1448              	.L112:
 523:main.c        ****     {
 524:main.c        ****         forward();
 1449              		.loc 1 524 0
 1450 0004 FFF7FEFF 		bl	forward
 1451              	.LVL167:
 1452              	.L111:
 522:main.c        ****     {
 1453              		.loc 1 522 0
 1454 0008 FFF7FEFF 		bl	IR_input_Read
 1455              	.LVL168:
 1456 000c 0128     		cmp	r0, #1
 1457 000e F9D0     		beq	.L112
 525:main.c        ****     }
 526:main.c        ****     stop();
 1458              		.loc 1 526 0
 1459 0010 FFF7FEFF 		bl	stop
 1460              	.LVL169:
 527:main.c        ****     CyDelay(500);
ARM GAS  C:\Users\weiro\AppData\Local\Temp\ccK6dLS7.s 			page 36


 1461              		.loc 1 527 0
 1462 0014 4FF4FA70 		mov	r0, #500
 1463 0018 FFF7FEFF 		bl	CyDelay
 1464              	.LVL170:
 528:main.c        ****     
 529:main.c        ****     avg_count = (QuadDec_1_GetCounter()+QuadDec_2_GetCounter())/2;
 1465              		.loc 1 529 0
 1466 001c FFF7FEFF 		bl	QuadDec_1_GetCounter
 1467              	.LVL171:
 1468 0020 0446     		mov	r4, r0
 1469 0022 FFF7FEFF 		bl	QuadDec_2_GetCounter
 1470              	.LVL172:
 1471 0026 2044     		add	r0, r0, r4
 1472 0028 00EBD070 		add	r0, r0, r0, lsr #31
 1473 002c 4010     		asrs	r0, r0, #1
 1474 002e FFF7FEFF 		bl	__aeabi_i2d
 1475              	.LVL173:
 1476 0032 0446     		mov	r4, r0
 1477 0034 0D46     		mov	r5, r1
 1478              	.LVL174:
 530:main.c        ****     avg_dist = avg_count*(M_PI*WHEEL_DIAMETER/3667);
 1479              		.loc 1 530 0
 1480 0036 22A3     		adr	r3, .L118
 1481 0038 D3E90023 		ldrd	r2, [r3]
 1482 003c 2449     		ldr	r1, .L118+16
 1483 003e D1E90801 		ldrd	r0, [r1, #32]
 1484 0042 FFF7FEFF 		bl	__aeabi_dmul
 1485              	.LVL175:
 1486 0046 20A3     		adr	r3, .L118+8
 1487 0048 D3E90023 		ldrd	r2, [r3]
 1488 004c FFF7FEFF 		bl	__aeabi_ddiv
 1489              	.LVL176:
 1490 0050 0246     		mov	r2, r0
 1491 0052 0B46     		mov	r3, r1
 1492 0054 2046     		mov	r0, r4
 1493 0056 2946     		mov	r1, r5
 1494 0058 FFF7FEFF 		bl	__aeabi_dmul
 1495              	.LVL177:
 531:main.c        ****     if (direction ==0)
 1496              		.loc 1 531 0
 1497 005c 1D4B     		ldr	r3, .L118+20
 1498 005e D3F86031 		ldr	r3, [r3, #352]
 1499 0062 3BB9     		cbnz	r3, .L113
 532:main.c        ****     {
 533:main.c        ****         y_coord = y_coord + avg_dist;
 1500              		.loc 1 533 0
 1501 0064 1B4C     		ldr	r4, .L118+20
 1502              	.LVL178:
 1503 0066 F4E95A23 		ldrd	r2, [r4, #360]!
 1504 006a FFF7FEFF 		bl	__aeabi_dadd
 1505              	.LVL179:
 1506 006e C4E90001 		strd	r0, [r4]
 1507 0072 20E0     		b	.L114
 1508              	.LVL180:
 1509              	.L113:
 534:main.c        ****     }
 535:main.c        ****     else if (direction ==1)
ARM GAS  C:\Users\weiro\AppData\Local\Temp\ccK6dLS7.s 			page 37


 1510              		.loc 1 535 0
 1511 0074 012B     		cmp	r3, #1
 1512 0076 07D1     		bne	.L115
 536:main.c        ****     {
 537:main.c        ****         
 538:main.c        ****         x_coord = x_coord + avg_dist;
 1513              		.loc 1 538 0
 1514 0078 164C     		ldr	r4, .L118+20
 1515              	.LVL181:
 1516 007a F4E95C23 		ldrd	r2, [r4, #368]!
 1517 007e FFF7FEFF 		bl	__aeabi_dadd
 1518              	.LVL182:
 1519 0082 C4E90001 		strd	r0, [r4]
 1520 0086 16E0     		b	.L114
 1521              	.LVL183:
 1522              	.L115:
 539:main.c        ****     }
 540:main.c        ****     else if (direction ==2)
 1523              		.loc 1 540 0
 1524 0088 022B     		cmp	r3, #2
 1525 008a 09D1     		bne	.L116
 541:main.c        ****     {
 542:main.c        ****         
 543:main.c        ****         y_coord = y_coord - avg_dist;
 1526              		.loc 1 543 0
 1527 008c 114C     		ldr	r4, .L118+20
 1528              	.LVL184:
 1529 008e 0246     		mov	r2, r0
 1530 0090 0B46     		mov	r3, r1
 1531 0092 F4E95A01 		ldrd	r0, [r4, #360]!
 1532              	.LVL185:
 1533 0096 FFF7FEFF 		bl	__aeabi_dsub
 1534              	.LVL186:
 1535 009a C4E90001 		strd	r0, [r4]
 1536 009e 0AE0     		b	.L114
 1537              	.LVL187:
 1538              	.L116:
 544:main.c        ****     }
 545:main.c        ****     else if (direction ==3)
 1539              		.loc 1 545 0
 1540 00a0 032B     		cmp	r3, #3
 1541 00a2 08D1     		bne	.L114
 546:main.c        ****     {
 547:main.c        ****         
 548:main.c        ****         x_coord = x_coord - avg_dist;
 1542              		.loc 1 548 0
 1543 00a4 0B4C     		ldr	r4, .L118+20
 1544              	.LVL188:
 1545 00a6 0246     		mov	r2, r0
 1546 00a8 0B46     		mov	r3, r1
 1547 00aa F4E95C01 		ldrd	r0, [r4, #368]!
 1548              	.LVL189:
 1549 00ae FFF7FEFF 		bl	__aeabi_dsub
 1550              	.LVL190:
 1551 00b2 C4E90001 		strd	r0, [r4]
 1552              	.L114:
 549:main.c        ****     }
ARM GAS  C:\Users\weiro\AppData\Local\Temp\ccK6dLS7.s 			page 38


 550:main.c        ****     reset_count();
 1553              		.loc 1 550 0
 1554 00b6 FFF7FEFF 		bl	reset_count
 1555              	.LVL191:
 1556 00ba 38BD     		pop	{r3, r4, r5, pc}
 1557              	.L119:
 1558 00bc AFF30080 		.align	3
 1559              	.L118:
 1560 00c0 182D4454 		.word	1413754136
 1561 00c4 FB210940 		.word	1074340347
 1562 00c8 00000000 		.word	0
 1563 00cc 00A6AC40 		.word	1085056512
 1564 00d0 00000000 		.word	.LANCHOR1
 1565 00d4 00000000 		.word	.LANCHOR0
 1566              		.cfi_endproc
 1567              	.LFE78:
 1568              		.size	move2puck, .-move2puck
 1569              		.section	.text.gyro_cal_1,"ax",%progbits
 1570              		.align	2
 1571              		.global	gyro_cal_1
 1572              		.thumb
 1573              		.thumb_func
 1574              		.type	gyro_cal_1, %function
 1575              	gyro_cal_1:
 1576              	.LFB79:
 551:main.c        **** }
 552:main.c        **** 
 553:main.c        **** void gyro_cal_1()
 554:main.c        **** {
 1577              		.loc 1 554 0
 1578              		.cfi_startproc
 1579              		@ args = 0, pretend = 0, frame = 0
 1580              		@ frame_needed = 0, uses_anonymous_args = 0
 1581 0000 10B5     		push	{r4, lr}
 1582              		.cfi_def_cfa_offset 8
 1583              		.cfi_offset 4, -8
 1584              		.cfi_offset 14, -4
 1585              	.LVL192:
 555:main.c        ****     // Determine the target angle based on the 'direction' variable
 556:main.c        ****     int ANGLE_TOLERANCE = 5;
 557:main.c        ****     int targetAngle = 0;
 558:main.c        ****     PWM_Wheels_WriteCompare1(PWM_Cal);
 1586              		.loc 1 558 0
 1587 0002 274C     		ldr	r4, .L133
 1588 0004 A06A     		ldr	r0, [r4, #40]	@ float
 1589 0006 FFF7FEFF 		bl	__aeabi_f2uiz
 1590              	.LVL193:
 1591 000a 80B2     		uxth	r0, r0
 1592 000c FFF7FEFF 		bl	PWM_Wheels_WriteCompare1
 1593              	.LVL194:
 559:main.c        ****     PWM_Wheels_WriteCompare2(PWM_Cal);
 1594              		.loc 1 559 0
 1595 0010 A06A     		ldr	r0, [r4, #40]	@ float
 1596 0012 FFF7FEFF 		bl	__aeabi_f2uiz
 1597              	.LVL195:
 1598 0016 80B2     		uxth	r0, r0
 1599 0018 FFF7FEFF 		bl	PWM_Wheels_WriteCompare2
ARM GAS  C:\Users\weiro\AppData\Local\Temp\ccK6dLS7.s 			page 39


 1600              	.LVL196:
 560:main.c        ****     switch (direction) {
 1601              		.loc 1 560 0
 1602 001c 214B     		ldr	r3, .L133+4
 1603 001e D3F86031 		ldr	r3, [r3, #352]
 1604 0022 032B     		cmp	r3, #3
 1605 0024 3AD8     		bhi	.L120
 1606 0026 DFE803F0 		tbb	[pc, r3]
 1607              	.L123:
 1608 002a 02       		.byte	(.L122-.L123)/2
 1609 002b 09       		.byte	(.L131-.L123)/2
 1610 002c 04       		.byte	(.L125-.L123)/2
 1611 002d 06       		.byte	(.L126-.L123)/2
 1612              		.p2align 1
 1613              	.L122:
 561:main.c        ****         case 0:
 562:main.c        ****             targetAngle = 0;
 1614              		.loc 1 562 0
 1615 002e 0024     		movs	r4, #0
 1616 0030 05E0     		b	.L130
 1617              	.L125:
 1618              	.LVL197:
 563:main.c        ****             break;
 564:main.c        ****         case 1:
 565:main.c        ****             targetAngle = 90;
 566:main.c        ****             break;
 567:main.c        ****         case 2:
 568:main.c        ****             targetAngle = 180;
 1619              		.loc 1 568 0
 1620 0032 B424     		movs	r4, #180
 569:main.c        ****             break;
 1621              		.loc 1 569 0
 1622 0034 03E0     		b	.L130
 1623              	.LVL198:
 1624              	.L126:
 570:main.c        ****         case 3:
 571:main.c        ****             targetAngle = 270;
 1625              		.loc 1 571 0
 1626 0036 4FF48774 		mov	r4, #270
 572:main.c        ****             break;
 1627              		.loc 1 572 0
 1628 003a 00E0     		b	.L130
 1629              	.LVL199:
 1630              	.L131:
 565:main.c        ****             break;
 1631              		.loc 1 565 0
 1632 003c 5A24     		movs	r4, #90
 1633              	.LVL200:
 1634              	.L130:
 1635              	.LBB2:
 573:main.c        ****         default:
 574:main.c        ****             // Handle invalid direction
 575:main.c        ****             return;
 576:main.c        ****     }
 577:main.c        **** 
 578:main.c        ****     // Perform calibration by continuously checking heading
 579:main.c        ****     while (1) {
ARM GAS  C:\Users\weiro\AppData\Local\Temp\ccK6dLS7.s 			page 40


 580:main.c        ****         // Calculate the difference between the current heading and the target angle
 581:main.c        ****         int angleDifference = heading - targetAngle;
 1636              		.loc 1 581 0
 1637 003e 2046     		mov	r0, r4
 1638 0040 FFF7FEFF 		bl	__aeabi_i2d
 1639              	.LVL201:
 1640 0044 0246     		mov	r2, r0
 1641 0046 0B46     		mov	r3, r1
 1642 0048 1649     		ldr	r1, .L133+4
 1643 004a D1E92201 		ldrd	r0, [r1, #136]
 1644 004e FFF7FEFF 		bl	__aeabi_dsub
 1645              	.LVL202:
 1646 0052 FFF7FEFF 		bl	__aeabi_d2iz
 1647              	.LVL203:
 582:main.c        **** 
 583:main.c        ****         // Check if we are within the tolerance range
 584:main.c        ****         if (angleDifference >= -ANGLE_TOLERANCE && angleDifference <= ANGLE_TOLERANCE) {
 1648              		.loc 1 584 0
 1649 0056 10F1050F 		cmn	r0, #5
 1650 005a 14DB     		blt	.L127
 1651              		.loc 1 584 0 is_stmt 0 discriminator 1
 1652 005c 0528     		cmp	r0, #5
 1653 005e 12DC     		bgt	.L127
 585:main.c        ****             // Calibration complete, within tolerance
 586:main.c        ****             stop();
 1654              		.loc 1 586 0 is_stmt 1
 1655 0060 FFF7FEFF 		bl	stop
 1656              	.LVL204:
 1657              	.LBE2:
 587:main.c        ****             break;
 588:main.c        ****             CyDelay(500);
 589:main.c        ****         } else if (angleDifference > 0) {
 590:main.c        ****             // Turn counterclockwise
 591:main.c        ****             turn_anticlockwise();
 592:main.c        ****         } else {
 593:main.c        ****             // Turn clockwise
 594:main.c        ****             turn_clockwise();
 595:main.c        ****         }
 596:main.c        ****         
 597:main.c        ****         CyDelay(50);
 598:main.c        ****     }
 599:main.c        ****     CyDelay(200);
 1658              		.loc 1 599 0
 1659 0064 C820     		movs	r0, #200
 1660 0066 FFF7FEFF 		bl	CyDelay
 1661              	.LVL205:
 600:main.c        ****     PWM_Wheels_WriteCompare1(PWM_Master);
 1662              		.loc 1 600 0
 1663 006a 0D4C     		ldr	r4, .L133
 1664              	.LVL206:
 1665 006c A068     		ldr	r0, [r4, #8]	@ float
 1666 006e FFF7FEFF 		bl	__aeabi_f2uiz
 1667              	.LVL207:
 1668 0072 80B2     		uxth	r0, r0
 1669 0074 FFF7FEFF 		bl	PWM_Wheels_WriteCompare1
 1670              	.LVL208:
 601:main.c        ****     PWM_Wheels_WriteCompare2(PWM_Master);
ARM GAS  C:\Users\weiro\AppData\Local\Temp\ccK6dLS7.s 			page 41


 1671              		.loc 1 601 0
 1672 0078 A068     		ldr	r0, [r4, #8]	@ float
 1673 007a FFF7FEFF 		bl	__aeabi_f2uiz
 1674              	.LVL209:
 1675 007e 80B2     		uxth	r0, r0
 1676 0080 FFF7FEFF 		bl	PWM_Wheels_WriteCompare2
 1677              	.LVL210:
 1678 0084 10BD     		pop	{r4, pc}
 1679              	.LVL211:
 1680              	.L127:
 1681              	.LBB3:
 589:main.c        ****             // Turn counterclockwise
 1682              		.loc 1 589 0
 1683 0086 0028     		cmp	r0, #0
 1684 0088 02DD     		ble	.L128
 591:main.c        ****         } else {
 1685              		.loc 1 591 0
 1686 008a FFF7FEFF 		bl	turn_anticlockwise
 1687              	.LVL212:
 1688 008e 01E0     		b	.L129
 1689              	.LVL213:
 1690              	.L128:
 594:main.c        ****         }
 1691              		.loc 1 594 0
 1692 0090 FFF7FEFF 		bl	turn_clockwise
 1693              	.LVL214:
 1694              	.L129:
 597:main.c        ****     }
 1695              		.loc 1 597 0
 1696 0094 3220     		movs	r0, #50
 1697 0096 FFF7FEFF 		bl	CyDelay
 1698              	.LVL215:
 1699              	.LBE3:
 598:main.c        ****     CyDelay(200);
 1700              		.loc 1 598 0
 1701 009a D0E7     		b	.L130
 1702              	.LVL216:
 1703              	.L120:
 1704 009c 10BD     		pop	{r4, pc}
 1705              	.L134:
 1706 009e 00BF     		.align	2
 1707              	.L133:
 1708 00a0 00000000 		.word	.LANCHOR1
 1709 00a4 00000000 		.word	.LANCHOR0
 1710              		.cfi_endproc
 1711              	.LFE79:
 1712              		.size	gyro_cal_1, .-gyro_cal_1
 1713              		.section	.text.gyro_cal_2,"ax",%progbits
 1714              		.align	2
 1715              		.global	gyro_cal_2
 1716              		.thumb
 1717              		.thumb_func
 1718              		.type	gyro_cal_2, %function
 1719              	gyro_cal_2:
 1720              	.LFB80:
 602:main.c        **** }
 603:main.c        **** void gyro_cal_2()
ARM GAS  C:\Users\weiro\AppData\Local\Temp\ccK6dLS7.s 			page 42


 604:main.c        **** {
 1721              		.loc 1 604 0
 1722              		.cfi_startproc
 1723              		@ args = 0, pretend = 0, frame = 0
 1724              		@ frame_needed = 0, uses_anonymous_args = 0
 1725 0000 10B5     		push	{r4, lr}
 1726              		.cfi_def_cfa_offset 8
 1727              		.cfi_offset 4, -8
 1728              		.cfi_offset 14, -4
 1729              	.LVL217:
 605:main.c        ****     // Determine the target angle based on the 'direction' variable
 606:main.c        ****     int ANGLE_TOLERANCE = 1;
 607:main.c        ****     int targetAngle = 0;
 608:main.c        ****     PWM_Wheels_WriteCompare1(PWM_Cal);
 1730              		.loc 1 608 0
 1731 0002 274C     		ldr	r4, .L148
 1732 0004 A06A     		ldr	r0, [r4, #40]	@ float
 1733 0006 FFF7FEFF 		bl	__aeabi_f2uiz
 1734              	.LVL218:
 1735 000a 80B2     		uxth	r0, r0
 1736 000c FFF7FEFF 		bl	PWM_Wheels_WriteCompare1
 1737              	.LVL219:
 609:main.c        ****     PWM_Wheels_WriteCompare2(PWM_Cal);
 1738              		.loc 1 609 0
 1739 0010 A06A     		ldr	r0, [r4, #40]	@ float
 1740 0012 FFF7FEFF 		bl	__aeabi_f2uiz
 1741              	.LVL220:
 1742 0016 80B2     		uxth	r0, r0
 1743 0018 FFF7FEFF 		bl	PWM_Wheels_WriteCompare2
 1744              	.LVL221:
 610:main.c        ****     switch (direction) {
 1745              		.loc 1 610 0
 1746 001c 214B     		ldr	r3, .L148+4
 1747 001e D3F86031 		ldr	r3, [r3, #352]
 1748 0022 032B     		cmp	r3, #3
 1749 0024 3AD8     		bhi	.L135
 1750 0026 DFE803F0 		tbb	[pc, r3]
 1751              	.L138:
 1752 002a 02       		.byte	(.L137-.L138)/2
 1753 002b 09       		.byte	(.L146-.L138)/2
 1754 002c 04       		.byte	(.L140-.L138)/2
 1755 002d 06       		.byte	(.L141-.L138)/2
 1756              		.p2align 1
 1757              	.L137:
 611:main.c        ****         case 0:
 612:main.c        ****             targetAngle = 0;
 1758              		.loc 1 612 0
 1759 002e 0024     		movs	r4, #0
 1760 0030 05E0     		b	.L145
 1761              	.L140:
 1762              	.LVL222:
 613:main.c        ****             break;
 614:main.c        ****         case 1:
 615:main.c        ****             targetAngle = 90;
 616:main.c        ****             break;
 617:main.c        ****         case 2:
 618:main.c        ****             targetAngle = 180;
ARM GAS  C:\Users\weiro\AppData\Local\Temp\ccK6dLS7.s 			page 43


 1763              		.loc 1 618 0
 1764 0032 B424     		movs	r4, #180
 619:main.c        ****             break;
 1765              		.loc 1 619 0
 1766 0034 03E0     		b	.L145
 1767              	.LVL223:
 1768              	.L141:
 620:main.c        ****         case 3:
 621:main.c        ****             targetAngle = 270;
 1769              		.loc 1 621 0
 1770 0036 4FF48774 		mov	r4, #270
 622:main.c        ****             break;
 1771              		.loc 1 622 0
 1772 003a 00E0     		b	.L145
 1773              	.LVL224:
 1774              	.L146:
 615:main.c        ****             break;
 1775              		.loc 1 615 0
 1776 003c 5A24     		movs	r4, #90
 1777              	.LVL225:
 1778              	.L145:
 1779              	.LBB4:
 623:main.c        ****         default:
 624:main.c        ****             // Handle invalid direction
 625:main.c        ****             return;
 626:main.c        ****     }
 627:main.c        **** 
 628:main.c        ****     // Perform calibration by continuously checking heading
 629:main.c        ****     while (1) {
 630:main.c        ****         // Calculate the difference between the current heading and the target angle
 631:main.c        ****         int angleDifference = heading - targetAngle;
 1780              		.loc 1 631 0
 1781 003e 2046     		mov	r0, r4
 1782 0040 FFF7FEFF 		bl	__aeabi_i2d
 1783              	.LVL226:
 1784 0044 0246     		mov	r2, r0
 1785 0046 0B46     		mov	r3, r1
 1786 0048 1649     		ldr	r1, .L148+4
 1787 004a D1E92201 		ldrd	r0, [r1, #136]
 1788 004e FFF7FEFF 		bl	__aeabi_dsub
 1789              	.LVL227:
 1790 0052 FFF7FEFF 		bl	__aeabi_d2iz
 1791              	.LVL228:
 632:main.c        **** 
 633:main.c        ****         // Check if we are within the tolerance range
 634:main.c        ****         if (angleDifference >= -ANGLE_TOLERANCE && angleDifference <= ANGLE_TOLERANCE) {
 1792              		.loc 1 634 0
 1793 0056 B0F1FF3F 		cmp	r0, #-1
 1794 005a 14DB     		blt	.L142
 1795              		.loc 1 634 0 is_stmt 0 discriminator 1
 1796 005c 0128     		cmp	r0, #1
 1797 005e 12DC     		bgt	.L142
 635:main.c        ****             // Calibration complete, within tolerance
 636:main.c        ****             stop();
 1798              		.loc 1 636 0 is_stmt 1
 1799 0060 FFF7FEFF 		bl	stop
 1800              	.LVL229:
ARM GAS  C:\Users\weiro\AppData\Local\Temp\ccK6dLS7.s 			page 44


 1801              	.LBE4:
 637:main.c        ****             break;
 638:main.c        ****             CyDelay(500);
 639:main.c        ****         } else if (angleDifference > 0) {
 640:main.c        ****             // Turn counterclockwise
 641:main.c        ****             turn_anticlockwise();
 642:main.c        ****         } else {
 643:main.c        ****             // Turn clockwise
 644:main.c        ****             turn_clockwise();
 645:main.c        ****         }
 646:main.c        ****         
 647:main.c        ****         CyDelay(50);
 648:main.c        ****     }
 649:main.c        ****     CyDelay(200);
 1802              		.loc 1 649 0
 1803 0064 C820     		movs	r0, #200
 1804 0066 FFF7FEFF 		bl	CyDelay
 1805              	.LVL230:
 650:main.c        ****     PWM_Wheels_WriteCompare1(PWM_Master);
 1806              		.loc 1 650 0
 1807 006a 0D4C     		ldr	r4, .L148
 1808              	.LVL231:
 1809 006c A068     		ldr	r0, [r4, #8]	@ float
 1810 006e FFF7FEFF 		bl	__aeabi_f2uiz
 1811              	.LVL232:
 1812 0072 80B2     		uxth	r0, r0
 1813 0074 FFF7FEFF 		bl	PWM_Wheels_WriteCompare1
 1814              	.LVL233:
 651:main.c        ****     PWM_Wheels_WriteCompare2(PWM_Master);
 1815              		.loc 1 651 0
 1816 0078 A068     		ldr	r0, [r4, #8]	@ float
 1817 007a FFF7FEFF 		bl	__aeabi_f2uiz
 1818              	.LVL234:
 1819 007e 80B2     		uxth	r0, r0
 1820 0080 FFF7FEFF 		bl	PWM_Wheels_WriteCompare2
 1821              	.LVL235:
 1822 0084 10BD     		pop	{r4, pc}
 1823              	.LVL236:
 1824              	.L142:
 1825              	.LBB5:
 639:main.c        ****             // Turn counterclockwise
 1826              		.loc 1 639 0
 1827 0086 0028     		cmp	r0, #0
 1828 0088 02DD     		ble	.L143
 641:main.c        ****         } else {
 1829              		.loc 1 641 0
 1830 008a FFF7FEFF 		bl	turn_anticlockwise
 1831              	.LVL237:
 1832 008e 01E0     		b	.L144
 1833              	.LVL238:
 1834              	.L143:
 644:main.c        ****         }
 1835              		.loc 1 644 0
 1836 0090 FFF7FEFF 		bl	turn_clockwise
 1837              	.LVL239:
 1838              	.L144:
 647:main.c        ****     }
ARM GAS  C:\Users\weiro\AppData\Local\Temp\ccK6dLS7.s 			page 45


 1839              		.loc 1 647 0
 1840 0094 3220     		movs	r0, #50
 1841 0096 FFF7FEFF 		bl	CyDelay
 1842              	.LVL240:
 1843              	.LBE5:
 648:main.c        ****     CyDelay(200);
 1844              		.loc 1 648 0
 1845 009a D0E7     		b	.L145
 1846              	.LVL241:
 1847              	.L135:
 1848 009c 10BD     		pop	{r4, pc}
 1849              	.L149:
 1850 009e 00BF     		.align	2
 1851              	.L148:
 1852 00a0 00000000 		.word	.LANCHOR1
 1853 00a4 00000000 		.word	.LANCHOR0
 1854              		.cfi_endproc
 1855              	.LFE80:
 1856              		.size	gyro_cal_2, .-gyro_cal_2
 1857              		.section	.text.CW,"ax",%progbits
 1858              		.align	2
 1859              		.global	CW
 1860              		.thumb
 1861              		.thumb_func
 1862              		.type	CW, %function
 1863              	CW:
 1864              	.LFB81:
 652:main.c        **** }
 653:main.c        **** void CW(int PT_TURN_COUNT, int flag_CW)
 654:main.c        **** {
 1865              		.loc 1 654 0
 1866              		.cfi_startproc
 1867              		@ args = 0, pretend = 0, frame = 0
 1868              		@ frame_needed = 0, uses_anonymous_args = 0
 1869              	.LVL242:
 1870 0000 70B5     		push	{r4, r5, r6, lr}
 1871              		.cfi_def_cfa_offset 16
 1872              		.cfi_offset 4, -16
 1873              		.cfi_offset 5, -12
 1874              		.cfi_offset 6, -8
 1875              		.cfi_offset 14, -4
 1876 0002 0546     		mov	r5, r0
 1877 0004 0E46     		mov	r6, r1
 655:main.c        ****     while(abs(Count_Master) <= PT_TURN_COUNT && abs(Count_Slave) <= PT_TURN_COUNT)
 1878              		.loc 1 655 0
 1879 0006 0DE0     		b	.L151
 1880              	.LVL243:
 1881              	.L155:
 656:main.c        ****     {
 657:main.c        ****         Count_Master = QuadDec_1_GetCounter();
 1882              		.loc 1 657 0
 1883 0008 FFF7FEFF 		bl	QuadDec_1_GetCounter
 1884              	.LVL244:
 1885 000c 234C     		ldr	r4, .L161
 1886 000e 6060     		str	r0, [r4, #4]
 658:main.c        ****         Count_Slave = QuadDec_2_GetCounter();
 1887              		.loc 1 658 0
ARM GAS  C:\Users\weiro\AppData\Local\Temp\ccK6dLS7.s 			page 46


 1888 0010 FFF7FEFF 		bl	QuadDec_2_GetCounter
 1889              	.LVL245:
 1890 0014 A060     		str	r0, [r4, #8]
 659:main.c        ****         if (flag_CW == 1)
 1891              		.loc 1 659 0
 1892 0016 012E     		cmp	r6, #1
 1893 0018 02D1     		bne	.L152
 660:main.c        ****         {
 661:main.c        ****             turn_clockwise();
 1894              		.loc 1 661 0
 1895 001a FFF7FEFF 		bl	turn_clockwise
 1896              	.LVL246:
 1897 001e 01E0     		b	.L151
 1898              	.L152:
 662:main.c        ****         }
 663:main.c        ****         else 
 664:main.c        ****         {
 665:main.c        ****             turn_anticlockwise();
 1899              		.loc 1 665 0
 1900 0020 FFF7FEFF 		bl	turn_anticlockwise
 1901              	.LVL247:
 1902              	.L151:
 655:main.c        ****     {
 1903              		.loc 1 655 0
 1904 0024 1D4B     		ldr	r3, .L161
 1905 0026 5B68     		ldr	r3, [r3, #4]
 1906 0028 002B     		cmp	r3, #0
 1907 002a B8BF     		it	lt
 1908 002c 5B42     		rsblt	r3, r3, #0
 1909 002e AB42     		cmp	r3, r5
 1910 0030 06DC     		bgt	.L154
 655:main.c        ****     {
 1911              		.loc 1 655 0 is_stmt 0 discriminator 1
 1912 0032 1A4B     		ldr	r3, .L161
 1913 0034 9B68     		ldr	r3, [r3, #8]
 1914 0036 002B     		cmp	r3, #0
 1915 0038 B8BF     		it	lt
 1916 003a 5B42     		rsblt	r3, r3, #0
 1917 003c 9D42     		cmp	r5, r3
 1918 003e E3DA     		bge	.L155
 1919              	.L154:
 666:main.c        ****         }
 667:main.c        ****     }
 668:main.c        ****     stop();    
 1920              		.loc 1 668 0 is_stmt 1
 1921 0040 FFF7FEFF 		bl	stop
 1922              	.LVL248:
 669:main.c        ****     if (flag_CW == 1)
 1923              		.loc 1 669 0
 1924 0044 012E     		cmp	r6, #1
 1925 0046 0ED1     		bne	.L156
 670:main.c        ****     {
 671:main.c        ****         if (direction == 3)
 1926              		.loc 1 671 0
 1927 0048 144B     		ldr	r3, .L161
 1928 004a D3F86031 		ldr	r3, [r3, #352]
 1929 004e 032B     		cmp	r3, #3
ARM GAS  C:\Users\weiro\AppData\Local\Temp\ccK6dLS7.s 			page 47


 1930 0050 04D1     		bne	.L157
 672:main.c        ****         {
 673:main.c        ****             direction = 0;
 1931              		.loc 1 673 0
 1932 0052 0022     		movs	r2, #0
 1933 0054 114B     		ldr	r3, .L161
 1934 0056 C3F86021 		str	r2, [r3, #352]
 1935 005a 11E0     		b	.L158
 1936              	.L157:
 674:main.c        ****         }
 675:main.c        ****         else
 676:main.c        ****         {
 677:main.c        ****             direction = direction +1;
 1937              		.loc 1 677 0
 1938 005c 0133     		adds	r3, r3, #1
 1939 005e 0F4A     		ldr	r2, .L161
 1940 0060 C2F86031 		str	r3, [r2, #352]
 1941 0064 0CE0     		b	.L158
 1942              	.L156:
 678:main.c        ****         }
 679:main.c        ****     }
 680:main.c        ****     else
 681:main.c        ****     {
 682:main.c        ****         if (direction ==0)
 1943              		.loc 1 682 0
 1944 0066 0D4B     		ldr	r3, .L161
 1945 0068 D3F86031 		ldr	r3, [r3, #352]
 1946 006c 23B9     		cbnz	r3, .L159
 683:main.c        ****         {
 684:main.c        ****             direction = 3;
 1947              		.loc 1 684 0
 1948 006e 0322     		movs	r2, #3
 1949 0070 0A4B     		ldr	r3, .L161
 1950 0072 C3F86021 		str	r2, [r3, #352]
 1951 0076 03E0     		b	.L158
 1952              	.L159:
 685:main.c        ****         }
 686:main.c        ****         else
 687:main.c        ****         {
 688:main.c        ****             direction = direction -1;
 1953              		.loc 1 688 0
 1954 0078 013B     		subs	r3, r3, #1
 1955 007a 084A     		ldr	r2, .L161
 1956 007c C2F86031 		str	r3, [r2, #352]
 1957              	.L158:
 689:main.c        ****         }
 690:main.c        ****     }
 691:main.c        ****     CyDelay(50);
 1958              		.loc 1 691 0
 1959 0080 3220     		movs	r0, #50
 1960 0082 FFF7FEFF 		bl	CyDelay
 1961              	.LVL249:
 692:main.c        ****     gyro_cal_1();
 1962              		.loc 1 692 0
 1963 0086 FFF7FEFF 		bl	gyro_cal_1
 1964              	.LVL250:
 693:main.c        ****     CyDelay(500);
ARM GAS  C:\Users\weiro\AppData\Local\Temp\ccK6dLS7.s 			page 48


 1965              		.loc 1 693 0
 1966 008a 4FF4FA70 		mov	r0, #500
 1967 008e FFF7FEFF 		bl	CyDelay
 1968              	.LVL251:
 694:main.c        ****     gyro_cal_2();
 1969              		.loc 1 694 0
 1970 0092 FFF7FEFF 		bl	gyro_cal_2
 1971              	.LVL252:
 695:main.c        ****     reset_count();
 1972              		.loc 1 695 0
 1973 0096 FFF7FEFF 		bl	reset_count
 1974              	.LVL253:
 1975 009a 70BD     		pop	{r4, r5, r6, pc}
 1976              	.LVL254:
 1977              	.L162:
 1978              		.align	2
 1979              	.L161:
 1980 009c 00000000 		.word	.LANCHOR0
 1981              		.cfi_endproc
 1982              	.LFE81:
 1983              		.size	CW, .-CW
 1984              		.section	.text.Color_Sensing_Function,"ax",%progbits
 1985              		.align	2
 1986              		.global	Color_Sensing_Function
 1987              		.thumb
 1988              		.thumb_func
 1989              		.type	Color_Sensing_Function, %function
 1990              	Color_Sensing_Function:
 1991              	.LFB82:
 696:main.c        **** }
 697:main.c        **** 
 698:main.c        **** void Color_Sensing_Function()
 699:main.c        **** {
 1992              		.loc 1 699 0
 1993              		.cfi_startproc
 1994              		@ args = 0, pretend = 0, frame = 0
 1995              		@ frame_needed = 0, uses_anonymous_args = 0
 1996 0000 38B5     		push	{r3, r4, r5, lr}
 1997              		.cfi_def_cfa_offset 16
 1998              		.cfi_offset 3, -16
 1999              		.cfi_offset 4, -12
 2000              		.cfi_offset 5, -8
 2001              		.cfi_offset 14, -4
 2002              	.LVL255:
 700:main.c        ****     int mode = 1;
 701:main.c        **** 
 702:main.c        ****     //int count = 0;
 703:main.c        ****     
 704:main.c        ****     S0_Write(1);
 2003              		.loc 1 704 0
 2004 0002 0120     		movs	r0, #1
 2005 0004 FFF7FEFF 		bl	S0_Write
 2006              	.LVL256:
 705:main.c        ****     S1_Write(1);
 2007              		.loc 1 705 0
 2008 0008 0120     		movs	r0, #1
 2009 000a FFF7FEFF 		bl	S1_Write
ARM GAS  C:\Users\weiro\AppData\Local\Temp\ccK6dLS7.s 			page 49


 2010              	.LVL257:
 706:main.c        ****     CS_LED_Write(1);
 2011              		.loc 1 706 0
 2012 000e 0120     		movs	r0, #1
 2013 0010 FFF7FEFF 		bl	CS_LED_Write
 2014              	.LVL258:
 707:main.c        ****     CyDelay(10);
 2015              		.loc 1 707 0
 2016 0014 0A20     		movs	r0, #10
 2017 0016 FFF7FEFF 		bl	CyDelay
 2018              	.LVL259:
 708:main.c        ****     Counter_ColorSensor_Start();
 2019              		.loc 1 708 0
 2020 001a FFF7FEFF 		bl	Counter_ColorSensor_Start
 2021              	.LVL260:
 709:main.c        ****     
 710:main.c        ****     if (mode == 1) // red mode --> red filter
 711:main.c        ****     {
 712:main.c        ****         compare_ready = 0;
 2022              		.loc 1 712 0
 2023 001e 0024     		movs	r4, #0
 2024 0020 664B     		ldr	r3, .L171
 2025 0022 5C64     		str	r4, [r3, #68]
 713:main.c        ****         S2_Write(0);
 2026              		.loc 1 713 0
 2027 0024 2046     		mov	r0, r4
 2028 0026 FFF7FEFF 		bl	S2_Write
 2029              	.LVL261:
 714:main.c        ****         S3_Write(0);
 2030              		.loc 1 714 0
 2031 002a 2046     		mov	r0, r4
 2032 002c FFF7FEFF 		bl	S3_Write
 2033              	.LVL262:
 715:main.c        ****         CyDelay(20);
 2034              		.loc 1 715 0
 2035 0030 1420     		movs	r0, #20
 2036 0032 FFF7FEFF 		bl	CyDelay
 2037              	.LVL263:
 716:main.c        ****         Control_Reg_1_Write(1);
 2038              		.loc 1 716 0
 2039 0036 0120     		movs	r0, #1
 2040 0038 FFF7FEFF 		bl	Control_Reg_1_Write
 2041              	.LVL264:
 717:main.c        ****         CyDelay(1);
 2042              		.loc 1 717 0
 2043 003c 0120     		movs	r0, #1
 2044 003e FFF7FEFF 		bl	CyDelay
 2045              	.LVL265:
 718:main.c        ****         Control_Reg_1_Write(0);
 2046              		.loc 1 718 0
 2047 0042 2046     		mov	r0, r4
 2048 0044 FFF7FEFF 		bl	Control_Reg_1_Write
 2049              	.LVL266:
 2050              	.L164:
 719:main.c        ****         while(compare_ready==0)
 2051              		.loc 1 719 0 discriminator 1
 2052 0048 5C4B     		ldr	r3, .L171
ARM GAS  C:\Users\weiro\AppData\Local\Temp\ccK6dLS7.s 			page 50


 2053 004a 5B6C     		ldr	r3, [r3, #68]
 2054 004c 002B     		cmp	r3, #0
 2055 004e FBD0     		beq	.L164
 720:main.c        ****         {
 721:main.c        ****             // waiting period (until compare ready = 1
 722:main.c        ****             //sprintf(string_1,"waiting\n");
 723:main.c        ****             //UART_1_PutString(string_1);
 724:main.c        ****         }
 725:main.c        ****         CS_count_Red = Counter_ColorSensor_ReadCapture();
 2056              		.loc 1 725 0
 2057 0050 FFF7FEFF 		bl	Counter_ColorSensor_ReadCapture
 2058              	.LVL267:
 2059 0054 0246     		mov	r2, r0
 2060 0056 594D     		ldr	r5, .L171
 2061 0058 C5F87C01 		str	r0, [r5, #380]
 726:main.c        ****         sprintf(string_1,"red: %d\n", CS_count_Red);
 2062              		.loc 1 726 0
 2063 005c 584C     		ldr	r4, .L171+4
 2064 005e 5949     		ldr	r1, .L171+8
 2065 0060 2046     		mov	r0, r4
 2066 0062 FFF7FEFF 		bl	sprintf
 2067              	.LVL268:
 727:main.c        ****         UART_1_PutString(string_1);
 2068              		.loc 1 727 0
 2069 0066 2046     		mov	r0, r4
 2070 0068 FFF7FEFF 		bl	UART_1_PutString
 2071              	.LVL269:
 728:main.c        ****         mode = 2;
 729:main.c        ****     }
 730:main.c        ****     Counter_ColorSensor_Stop();
 2072              		.loc 1 730 0
 2073 006c FFF7FEFF 		bl	Counter_ColorSensor_Stop
 2074              	.LVL270:
 731:main.c        ****     CyDelay(100);
 2075              		.loc 1 731 0
 2076 0070 6420     		movs	r0, #100
 2077 0072 FFF7FEFF 		bl	CyDelay
 2078              	.LVL271:
 732:main.c        ****     Counter_ColorSensor_Start();
 2079              		.loc 1 732 0
 2080 0076 FFF7FEFF 		bl	Counter_ColorSensor_Start
 2081              	.LVL272:
 733:main.c        ****     if (mode == 2) // green mode --> green filter
 734:main.c        ****     {
 735:main.c        ****         compare_ready = 0;
 2082              		.loc 1 735 0
 2083 007a 0024     		movs	r4, #0
 2084 007c 6C64     		str	r4, [r5, #68]
 736:main.c        ****         S2_Write(1);
 2085              		.loc 1 736 0
 2086 007e 0120     		movs	r0, #1
 2087 0080 FFF7FEFF 		bl	S2_Write
 2088              	.LVL273:
 737:main.c        ****         S3_Write(1);
 2089              		.loc 1 737 0
 2090 0084 0120     		movs	r0, #1
 2091 0086 FFF7FEFF 		bl	S3_Write
ARM GAS  C:\Users\weiro\AppData\Local\Temp\ccK6dLS7.s 			page 51


 2092              	.LVL274:
 738:main.c        ****         CyDelay(20);
 2093              		.loc 1 738 0
 2094 008a 1420     		movs	r0, #20
 2095 008c FFF7FEFF 		bl	CyDelay
 2096              	.LVL275:
 739:main.c        ****         Control_Reg_1_Write(1);
 2097              		.loc 1 739 0
 2098 0090 0120     		movs	r0, #1
 2099 0092 FFF7FEFF 		bl	Control_Reg_1_Write
 2100              	.LVL276:
 740:main.c        ****         CyDelay(1);
 2101              		.loc 1 740 0
 2102 0096 0120     		movs	r0, #1
 2103 0098 FFF7FEFF 		bl	CyDelay
 2104              	.LVL277:
 741:main.c        ****         Control_Reg_1_Write(0);
 2105              		.loc 1 741 0
 2106 009c 2046     		mov	r0, r4
 2107 009e FFF7FEFF 		bl	Control_Reg_1_Write
 2108              	.LVL278:
 2109              	.L165:
 742:main.c        ****         while(compare_ready==0)
 2110              		.loc 1 742 0 discriminator 1
 2111 00a2 464B     		ldr	r3, .L171
 2112 00a4 5B6C     		ldr	r3, [r3, #68]
 2113 00a6 002B     		cmp	r3, #0
 2114 00a8 FBD0     		beq	.L165
 743:main.c        ****         {
 744:main.c        ****             // waiting period (until compare ready = 1
 745:main.c        ****         }
 746:main.c        ****         CS_count_Green = Counter_ColorSensor_ReadCapture();
 2115              		.loc 1 746 0
 2116 00aa FFF7FEFF 		bl	Counter_ColorSensor_ReadCapture
 2117              	.LVL279:
 2118 00ae 0246     		mov	r2, r0
 2119 00b0 424D     		ldr	r5, .L171
 2120 00b2 C5F88001 		str	r0, [r5, #384]
 747:main.c        ****         sprintf(string_1,"green: %d\n", CS_count_Green);
 2121              		.loc 1 747 0
 2122 00b6 424C     		ldr	r4, .L171+4
 2123 00b8 4349     		ldr	r1, .L171+12
 2124 00ba 2046     		mov	r0, r4
 2125 00bc FFF7FEFF 		bl	sprintf
 2126              	.LVL280:
 748:main.c        ****         UART_1_PutString(string_1);
 2127              		.loc 1 748 0
 2128 00c0 2046     		mov	r0, r4
 2129 00c2 FFF7FEFF 		bl	UART_1_PutString
 2130              	.LVL281:
 749:main.c        ****         mode = 3;
 750:main.c        ****     }
 751:main.c        ****     Counter_ColorSensor_Stop();
 2131              		.loc 1 751 0
 2132 00c6 FFF7FEFF 		bl	Counter_ColorSensor_Stop
 2133              	.LVL282:
 752:main.c        ****     CyDelay(100);
ARM GAS  C:\Users\weiro\AppData\Local\Temp\ccK6dLS7.s 			page 52


 2134              		.loc 1 752 0
 2135 00ca 6420     		movs	r0, #100
 2136 00cc FFF7FEFF 		bl	CyDelay
 2137              	.LVL283:
 753:main.c        ****     Counter_ColorSensor_Start();
 2138              		.loc 1 753 0
 2139 00d0 FFF7FEFF 		bl	Counter_ColorSensor_Start
 2140              	.LVL284:
 754:main.c        ****     if (mode == 3) // blue mode --> blue filter
 755:main.c        ****     {
 756:main.c        ****         compare_ready = 0;
 2141              		.loc 1 756 0
 2142 00d4 0024     		movs	r4, #0
 2143 00d6 6C64     		str	r4, [r5, #68]
 757:main.c        ****         S2_Write(0);
 2144              		.loc 1 757 0
 2145 00d8 2046     		mov	r0, r4
 2146 00da FFF7FEFF 		bl	S2_Write
 2147              	.LVL285:
 758:main.c        ****         S3_Write(1);
 2148              		.loc 1 758 0
 2149 00de 0120     		movs	r0, #1
 2150 00e0 FFF7FEFF 		bl	S3_Write
 2151              	.LVL286:
 759:main.c        ****         CyDelay(20);
 2152              		.loc 1 759 0
 2153 00e4 1420     		movs	r0, #20
 2154 00e6 FFF7FEFF 		bl	CyDelay
 2155              	.LVL287:
 760:main.c        ****         Control_Reg_1_Write(1);
 2156              		.loc 1 760 0
 2157 00ea 0120     		movs	r0, #1
 2158 00ec FFF7FEFF 		bl	Control_Reg_1_Write
 2159              	.LVL288:
 761:main.c        ****         CyDelay(1);
 2160              		.loc 1 761 0
 2161 00f0 0120     		movs	r0, #1
 2162 00f2 FFF7FEFF 		bl	CyDelay
 2163              	.LVL289:
 762:main.c        ****         Control_Reg_1_Write(0);
 2164              		.loc 1 762 0
 2165 00f6 2046     		mov	r0, r4
 2166 00f8 FFF7FEFF 		bl	Control_Reg_1_Write
 2167              	.LVL290:
 2168              	.L166:
 763:main.c        ****         while(compare_ready==0)
 2169              		.loc 1 763 0 discriminator 1
 2170 00fc 2F4B     		ldr	r3, .L171
 2171 00fe 5B6C     		ldr	r3, [r3, #68]
 2172 0100 002B     		cmp	r3, #0
 2173 0102 FBD0     		beq	.L166
 764:main.c        ****         {
 765:main.c        ****             // waiting period (until compare ready = 1
 766:main.c        ****         }
 767:main.c        ****         CS_count_Blue = Counter_ColorSensor_ReadCapture();
 2174              		.loc 1 767 0
 2175 0104 FFF7FEFF 		bl	Counter_ColorSensor_ReadCapture
ARM GAS  C:\Users\weiro\AppData\Local\Temp\ccK6dLS7.s 			page 53


 2176              	.LVL291:
 2177 0108 0246     		mov	r2, r0
 2178 010a 2C4C     		ldr	r4, .L171
 2179 010c C4F88401 		str	r0, [r4, #388]
 768:main.c        ****         sprintf(string_1,"blue: %d\n", CS_count_Blue);
 2180              		.loc 1 768 0
 2181 0110 2B4D     		ldr	r5, .L171+4
 2182 0112 2E49     		ldr	r1, .L171+16
 2183 0114 2846     		mov	r0, r5
 2184 0116 FFF7FEFF 		bl	sprintf
 2185              	.LVL292:
 769:main.c        ****         UART_1_PutString(string_1);
 2186              		.loc 1 769 0
 2187 011a 2846     		mov	r0, r5
 2188 011c FFF7FEFF 		bl	UART_1_PutString
 2189              	.LVL293:
 770:main.c        ****         mode = 0;
 771:main.c        ****     }
 772:main.c        ****     Counter_ColorSensor_Stop();
 2190              		.loc 1 772 0
 2191 0120 FFF7FEFF 		bl	Counter_ColorSensor_Stop
 2192              	.LVL294:
 773:main.c        ****     if (CS_count_Red > CS_count_Green && CS_count_Red > CS_count_Blue)
 2193              		.loc 1 773 0
 2194 0124 D4F87C31 		ldr	r3, [r4, #380]
 2195 0128 D4F88021 		ldr	r2, [r4, #384]
 2196 012c 9342     		cmp	r3, r2
 2197 012e 0FDD     		ble	.L167
 2198              		.loc 1 773 0 is_stmt 0 discriminator 1
 2199 0130 D4F88421 		ldr	r2, [r4, #388]
 2200 0134 9342     		cmp	r3, r2
 2201 0136 0BDD     		ble	.L167
 774:main.c        ****     {
 775:main.c        ****         color_detected = 1; //red
 2202              		.loc 1 775 0 is_stmt 1
 2203 0138 0120     		movs	r0, #1
 2204 013a C4F88801 		str	r0, [r4, #392]
 776:main.c        ****         led_red_Write(1);
 2205              		.loc 1 776 0
 2206 013e FFF7FEFF 		bl	led_red_Write
 2207              	.LVL295:
 777:main.c        ****         CyDelay(1000);
 2208              		.loc 1 777 0
 2209 0142 4FF47A70 		mov	r0, #1000
 2210 0146 FFF7FEFF 		bl	CyDelay
 2211              	.LVL296:
 778:main.c        ****         led_red_Write(0);
 2212              		.loc 1 778 0
 2213 014a 0020     		movs	r0, #0
 2214 014c FFF7FEFF 		bl	led_red_Write
 2215              	.LVL297:
 2216              	.L167:
 779:main.c        ****     }
 780:main.c        ****     if (CS_count_Green > CS_count_Red && CS_count_Green > CS_count_Blue)
 2217              		.loc 1 780 0
 2218 0150 1A4B     		ldr	r3, .L171
 2219 0152 D3F88021 		ldr	r2, [r3, #384]
ARM GAS  C:\Users\weiro\AppData\Local\Temp\ccK6dLS7.s 			page 54


 2220 0156 D3F87C31 		ldr	r3, [r3, #380]
 2221 015a 9A42     		cmp	r2, r3
 2222 015c 12DD     		ble	.L168
 2223              		.loc 1 780 0 is_stmt 0 discriminator 1
 2224 015e 174B     		ldr	r3, .L171
 2225 0160 D3F88431 		ldr	r3, [r3, #388]
 2226 0164 9A42     		cmp	r2, r3
 2227 0166 0DDD     		ble	.L168
 781:main.c        ****     {
 782:main.c        ****         color_detected = 2; //green
 2228              		.loc 1 782 0 is_stmt 1
 2229 0168 0222     		movs	r2, #2
 2230 016a 144B     		ldr	r3, .L171
 2231 016c C3F88821 		str	r2, [r3, #392]
 783:main.c        ****         led_green_Write(1);
 2232              		.loc 1 783 0
 2233 0170 0120     		movs	r0, #1
 2234 0172 FFF7FEFF 		bl	led_green_Write
 2235              	.LVL298:
 784:main.c        ****         CyDelay(1000);
 2236              		.loc 1 784 0
 2237 0176 4FF47A70 		mov	r0, #1000
 2238 017a FFF7FEFF 		bl	CyDelay
 2239              	.LVL299:
 785:main.c        ****         led_green_Write(0);
 2240              		.loc 1 785 0
 2241 017e 0020     		movs	r0, #0
 2242 0180 FFF7FEFF 		bl	led_green_Write
 2243              	.LVL300:
 2244              	.L168:
 786:main.c        ****     }
 787:main.c        ****     if (CS_count_Blue > CS_count_Red && CS_count_Blue > CS_count_Green)
 2245              		.loc 1 787 0
 2246 0184 0D4B     		ldr	r3, .L171
 2247 0186 D3F88421 		ldr	r2, [r3, #388]
 2248 018a D3F87C31 		ldr	r3, [r3, #380]
 2249 018e 9A42     		cmp	r2, r3
 2250 0190 12DD     		ble	.L163
 2251              		.loc 1 787 0 is_stmt 0 discriminator 1
 2252 0192 0A4B     		ldr	r3, .L171
 2253 0194 D3F88031 		ldr	r3, [r3, #384]
 2254 0198 9A42     		cmp	r2, r3
 2255 019a 0DDD     		ble	.L163
 788:main.c        ****     {
 789:main.c        ****         color_detected = 3; //blue
 2256              		.loc 1 789 0 is_stmt 1
 2257 019c 0322     		movs	r2, #3
 2258 019e 074B     		ldr	r3, .L171
 2259 01a0 C3F88821 		str	r2, [r3, #392]
 790:main.c        ****         led_blue_Write(1);
 2260              		.loc 1 790 0
 2261 01a4 0120     		movs	r0, #1
 2262 01a6 FFF7FEFF 		bl	led_blue_Write
 2263              	.LVL301:
 791:main.c        ****         CyDelay(1000);
 2264              		.loc 1 791 0
 2265 01aa 4FF47A70 		mov	r0, #1000
ARM GAS  C:\Users\weiro\AppData\Local\Temp\ccK6dLS7.s 			page 55


 2266 01ae FFF7FEFF 		bl	CyDelay
 2267              	.LVL302:
 792:main.c        ****         led_blue_Write(0);
 2268              		.loc 1 792 0
 2269 01b2 0020     		movs	r0, #0
 2270 01b4 FFF7FEFF 		bl	led_blue_Write
 2271              	.LVL303:
 2272              	.L163:
 2273 01b8 38BD     		pop	{r3, r4, r5, pc}
 2274              	.L172:
 2275 01ba 00BF     		.align	2
 2276              	.L171:
 2277 01bc 00000000 		.word	.LANCHOR0
 2278 01c0 00000000 		.word	string_1
 2279 01c4 44000000 		.word	.LC4
 2280 01c8 50000000 		.word	.LC5
 2281 01cc 5C000000 		.word	.LC6
 2282              		.cfi_endproc
 2283              	.LFE82:
 2284              		.size	Color_Sensing_Function, .-Color_Sensing_Function
 2285              		.section	.text.Gyroscope_Function,"ax",%progbits
 2286              		.align	2
 2287              		.global	Gyroscope_Function
 2288              		.thumb
 2289              		.thumb_func
 2290              		.type	Gyroscope_Function, %function
 2291              	Gyroscope_Function:
 2292              	.LFB83:
 793:main.c        ****     }
 794:main.c        ****     
 795:main.c        ****     //step = step +1;
 796:main.c        **** }
 797:main.c        **** 
 798:main.c        **** void Gyroscope_Function()
 799:main.c        **** {
 2293              		.loc 1 799 0
 2294              		.cfi_startproc
 2295              		@ args = 0, pretend = 0, frame = 0
 2296              		@ frame_needed = 0, uses_anonymous_args = 0
 2297 0000 08B5     		push	{r3, lr}
 2298              		.cfi_def_cfa_offset 8
 2299              		.cfi_offset 3, -8
 2300              		.cfi_offset 14, -4
 800:main.c        ****     //Bring the sensor out of sleep mode
 801:main.c        ****     I2C_1_MasterSendStart(MPU6050,0); //Steps 1-2
 2301              		.loc 1 801 0
 2302 0002 0021     		movs	r1, #0
 2303 0004 6820     		movs	r0, #104
 2304 0006 FFF7FEFF 		bl	I2C_1_MasterSendStart
 2305              	.LVL304:
 802:main.c        ****     I2C_1_MasterWriteByte(0x6B); //Step 3
 2306              		.loc 1 802 0
 2307 000a 6B20     		movs	r0, #107
 2308 000c FFF7FEFF 		bl	I2C_1_MasterWriteByte
 2309              	.LVL305:
 803:main.c        ****     I2C_1_MasterWriteByte(0x00); //Step 4
 2310              		.loc 1 803 0
ARM GAS  C:\Users\weiro\AppData\Local\Temp\ccK6dLS7.s 			page 56


 2311 0010 0020     		movs	r0, #0
 2312 0012 FFF7FEFF 		bl	I2C_1_MasterWriteByte
 2313              	.LVL306:
 804:main.c        ****     I2C_1_MasterSendStop(); //Step 5
 2314              		.loc 1 804 0
 2315 0016 FFF7FEFF 		bl	I2C_1_MasterSendStop
 2316              	.LVL307:
 805:main.c        ****     CyDelay(1);
 2317              		.loc 1 805 0
 2318 001a 0120     		movs	r0, #1
 2319 001c FFF7FEFF 		bl	CyDelay
 2320              	.LVL308:
 806:main.c        ****     
 807:main.c        ****     
 808:main.c        ****     //Set the scaling factor of the sensor
 809:main.c        ****     I2C_1_MasterSendStart(MPU6050,0); //Steps 1-2
 2321              		.loc 1 809 0
 2322 0020 0021     		movs	r1, #0
 2323 0022 6820     		movs	r0, #104
 2324 0024 FFF7FEFF 		bl	I2C_1_MasterSendStart
 2325              	.LVL309:
 810:main.c        ****     I2C_1_MasterWriteByte(0x1B); //Step 3
 2326              		.loc 1 810 0
 2327 0028 1B20     		movs	r0, #27
 2328 002a FFF7FEFF 		bl	I2C_1_MasterWriteByte
 2329              	.LVL310:
 811:main.c        ****     I2C_1_MasterWriteByte(0x08); //Step 4
 2330              		.loc 1 811 0
 2331 002e 0820     		movs	r0, #8
 2332 0030 FFF7FEFF 		bl	I2C_1_MasterWriteByte
 2333              	.LVL311:
 812:main.c        ****     I2C_1_MasterSendStop(); //Step 5
 2334              		.loc 1 812 0
 2335 0034 FFF7FEFF 		bl	I2C_1_MasterSendStop
 2336              	.LVL312:
 813:main.c        ****     CyDelay(1);
 2337              		.loc 1 813 0
 2338 0038 0120     		movs	r0, #1
 2339 003a FFF7FEFF 		bl	CyDelay
 2340              	.LVL313:
 814:main.c        ****     
 815:main.c        ****     
 816:main.c        ****     //Activating the low-pass filter
 817:main.c        ****     I2C_1_MasterSendStart(MPU6050,0); //Steps 1-2
 2341              		.loc 1 817 0
 2342 003e 0021     		movs	r1, #0
 2343 0040 6820     		movs	r0, #104
 2344 0042 FFF7FEFF 		bl	I2C_1_MasterSendStart
 2345              	.LVL314:
 818:main.c        ****     I2C_1_MasterWriteByte(0x1A); //Step 3
 2346              		.loc 1 818 0
 2347 0046 1A20     		movs	r0, #26
 2348 0048 FFF7FEFF 		bl	I2C_1_MasterWriteByte
 2349              	.LVL315:
 819:main.c        ****     I2C_1_MasterWriteByte(0x05); //Step 4
 2350              		.loc 1 819 0
 2351 004c 0520     		movs	r0, #5
ARM GAS  C:\Users\weiro\AppData\Local\Temp\ccK6dLS7.s 			page 57


 2352 004e FFF7FEFF 		bl	I2C_1_MasterWriteByte
 2353              	.LVL316:
 820:main.c        ****     I2C_1_MasterSendStop(); //Step 5    
 2354              		.loc 1 820 0
 2355 0052 FFF7FEFF 		bl	I2C_1_MasterSendStop
 2356              	.LVL317:
 821:main.c        ****     CyDelay(1);
 2357              		.loc 1 821 0
 2358 0056 0120     		movs	r0, #1
 2359 0058 FFF7FEFF 		bl	CyDelay
 2360              	.LVL318:
 2361 005c 08BD     		pop	{r3, pc}
 2362              		.cfi_endproc
 2363              	.LFE83:
 2364              		.size	Gyroscope_Function, .-Gyroscope_Function
 2365 005e 00BF     		.section	.text.Flicker_Function,"ax",%progbits
 2366              		.align	2
 2367              		.global	Flicker_Function
 2368              		.thumb
 2369              		.thumb_func
 2370              		.type	Flicker_Function, %function
 2371              	Flicker_Function:
 2372              	.LFB84:
 822:main.c        **** }
 823:main.c        **** 
 824:main.c        **** void Flicker_Function()
 825:main.c        **** {
 2373              		.loc 1 825 0
 2374              		.cfi_startproc
 2375              		@ args = 0, pretend = 0, frame = 0
 2376              		@ frame_needed = 0, uses_anonymous_args = 0
 2377 0000 08B5     		push	{r3, lr}
 2378              		.cfi_def_cfa_offset 8
 2379              		.cfi_offset 3, -8
 2380              		.cfi_offset 14, -4
 2381              	.LVL319:
 826:main.c        ****     int flag_FR = 0;
 827:main.c        ****     double dist_trav = 5;
 828:main.c        ****     Flicker_Write(1);
 2382              		.loc 1 828 0
 2383 0002 0120     		movs	r0, #1
 2384 0004 FFF7FEFF 		bl	Flicker_Write
 2385              	.LVL320:
 829:main.c        ****     CyDelay(1000);
 2386              		.loc 1 829 0
 2387 0008 4FF47A70 		mov	r0, #1000
 2388 000c FFF7FEFF 		bl	CyDelay
 2389              	.LVL321:
 830:main.c        ****     move_fixed_dist(dist_trav, flag_FR); // move forward
 2390              		.loc 1 830 0
 2391 0010 0021     		movs	r1, #0
 2392 0012 0520     		movs	r0, #5
 2393 0014 FFF7FEFF 		bl	move_fixed_dist
 2394              	.LVL322:
 831:main.c        ****     CyDelay(500);
 2395              		.loc 1 831 0
 2396 0018 4FF4FA70 		mov	r0, #500
ARM GAS  C:\Users\weiro\AppData\Local\Temp\ccK6dLS7.s 			page 58


 2397 001c FFF7FEFF 		bl	CyDelay
 2398              	.LVL323:
 832:main.c        ****     Flicker_Write(0);
 2399              		.loc 1 832 0
 2400 0020 0020     		movs	r0, #0
 2401 0022 FFF7FEFF 		bl	Flicker_Write
 2402              	.LVL324:
 2403 0026 08BD     		pop	{r3, pc}
 2404              		.cfi_endproc
 2405              	.LFE84:
 2406              		.size	Flicker_Function, .-Flicker_Function
 2407              		.global	__aeabi_i2f
 2408              		.global	__aeabi_fadd
 2409              		.global	__aeabi_fdiv
 2410              		.section	.text.Sharp_IR,"ax",%progbits
 2411              		.align	2
 2412              		.global	Sharp_IR
 2413              		.thumb
 2414              		.thumb_func
 2415              		.type	Sharp_IR, %function
 2416              	Sharp_IR:
 2417              	.LFB85:
 833:main.c        ****     
 834:main.c        **** }
 835:main.c        **** 
 836:main.c        **** float Sharp_IR()
 837:main.c        **** {
 2418              		.loc 1 837 0
 2419              		.cfi_startproc
 2420              		@ args = 0, pretend = 0, frame = 0
 2421              		@ frame_needed = 0, uses_anonymous_args = 0
 2422 0000 F8B5     		push	{r3, r4, r5, r6, r7, lr}
 2423              		.cfi_def_cfa_offset 24
 2424              		.cfi_offset 3, -24
 2425              		.cfi_offset 4, -20
 2426              		.cfi_offset 5, -16
 2427              		.cfi_offset 6, -12
 2428              		.cfi_offset 7, -8
 2429              		.cfi_offset 14, -4
 2430              	.LVL325:
 838:main.c        ****     int Sharp_IR_analogue = 0;
 839:main.c        ****     float Sharp_IR_avg_a = 0;
 840:main.c        ****     float Sharp_IR_sum_a = 0;
 841:main.c        ****     int Sharp_IR_iter = 0;
 2431              		.loc 1 841 0
 2432 0002 0024     		movs	r4, #0
 840:main.c        ****     int Sharp_IR_iter = 0;
 2433              		.loc 1 840 0
 2434 0004 0025     		movs	r5, #0
 842:main.c        ****     float Sharp_IR_volt = 0;
 843:main.c        ****     float Sharp_IR_dist = 0;
 844:main.c        ****     while (Sharp_IR_iter < 21)
 2435              		.loc 1 844 0
 2436 0006 15E0     		b	.L178
 2437              	.LVL326:
 2438              	.L181:
 845:main.c        ****     {
ARM GAS  C:\Users\weiro\AppData\Local\Temp\ccK6dLS7.s 			page 59


 846:main.c        ****         ADC_SAR_1_StartConvert();
 2439              		.loc 1 846 0
 2440 0008 FFF7FEFF 		bl	ADC_SAR_1_StartConvert
 2441              	.LVL327:
 2442              	.L179:
 847:main.c        ****         do
 848:main.c        ****         {
 849:main.c        ****             Sharp_IR_analogue = ADC_SAR_1_IsEndConversion(ADC_SAR_1_RETURN_STATUS);
 2443              		.loc 1 849 0 discriminator 1
 2444 000c 0120     		movs	r0, #1
 2445 000e FFF7FEFF 		bl	ADC_SAR_1_IsEndConversion
 2446              	.LVL328:
 850:main.c        ****         }
 851:main.c        ****         while(Sharp_IR_analogue==0);
 2447              		.loc 1 851 0 discriminator 1
 2448 0012 0028     		cmp	r0, #0
 2449 0014 FAD0     		beq	.L179
 852:main.c        ****         Sharp_IR_analogue = ADC_SAR_1_GetResult8();
 2450              		.loc 1 852 0
 2451 0016 FFF7FEFF 		bl	ADC_SAR_1_GetResult8
 2452              	.LVL329:
 853:main.c        ****         if (Sharp_IR_analogue > 0)
 2453              		.loc 1 853 0
 2454 001a 0028     		cmp	r0, #0
 2455 001c 07DD     		ble	.L180
 854:main.c        ****         {
 855:main.c        ****             Sharp_IR_sum_a = Sharp_IR_sum_a + Sharp_IR_analogue;
 2456              		.loc 1 855 0
 2457 001e FFF7FEFF 		bl	__aeabi_i2f
 2458              	.LVL330:
 2459 0022 0146     		mov	r1, r0
 2460 0024 2846     		mov	r0, r5
 2461 0026 FFF7FEFF 		bl	__aeabi_fadd
 2462              	.LVL331:
 2463 002a 0546     		mov	r5, r0
 2464              	.LVL332:
 856:main.c        ****             Sharp_IR_iter++;
 2465              		.loc 1 856 0
 2466 002c 0134     		adds	r4, r4, #1
 2467              	.LVL333:
 2468              	.L180:
 857:main.c        ****         }
 858:main.c        ****         CyDelay(20);
 2469              		.loc 1 858 0
 2470 002e 1420     		movs	r0, #20
 2471 0030 FFF7FEFF 		bl	CyDelay
 2472              	.LVL334:
 2473              	.L178:
 844:main.c        ****     {
 2474              		.loc 1 844 0
 2475 0034 142C     		cmp	r4, #20
 2476 0036 E7DD     		ble	.L181
 859:main.c        ****     }
 860:main.c        ****     Sharp_IR_avg_a = Sharp_IR_sum_a/20;
 2477              		.loc 1 860 0
 2478 0038 2149     		ldr	r1, .L183+24
 2479 003a 2846     		mov	r0, r5
ARM GAS  C:\Users\weiro\AppData\Local\Temp\ccK6dLS7.s 			page 60


 2480 003c FFF7FEFF 		bl	__aeabi_fdiv
 2481              	.LVL335:
 861:main.c        ****     Sharp_IR_volt = Sharp_IR_avg_a/51;
 2482              		.loc 1 861 0
 2483 0040 2049     		ldr	r1, .L183+28
 2484 0042 FFF7FEFF 		bl	__aeabi_fdiv
 2485              	.LVL336:
 862:main.c        ****     Sharp_IR_dist = pow((Sharp_IR_volt-0.2)/(27.728*1.3),-1/1.205);
 2486              		.loc 1 862 0
 2487 0046 FFF7FEFF 		bl	__aeabi_f2d
 2488              	.LVL337:
 2489 004a 0646     		mov	r6, r0
 2490 004c 0F46     		mov	r7, r1
 2491 004e 16A3     		adr	r3, .L183
 2492 0050 D3E90023 		ldrd	r2, [r3]
 2493 0054 FFF7FEFF 		bl	__aeabi_dsub
 2494              	.LVL338:
 2495 0058 15A3     		adr	r3, .L183+8
 2496 005a D3E90023 		ldrd	r2, [r3]
 2497 005e FFF7FEFF 		bl	__aeabi_ddiv
 2498              	.LVL339:
 2499 0062 15A3     		adr	r3, .L183+16
 2500 0064 D3E90023 		ldrd	r2, [r3]
 2501 0068 FFF7FEFF 		bl	pow
 2502              	.LVL340:
 2503 006c FFF7FEFF 		bl	__aeabi_d2f
 2504              	.LVL341:
 2505 0070 0546     		mov	r5, r0
 2506              	.LVL342:
 863:main.c        ****     CyDelay(200);
 2507              		.loc 1 863 0
 2508 0072 C820     		movs	r0, #200
 2509              	.LVL343:
 2510 0074 FFF7FEFF 		bl	CyDelay
 2511              	.LVL344:
 864:main.c        ****     sprintf(string_1,"volt(V): %lf\n",Sharp_IR_volt);
 2512              		.loc 1 864 0
 2513 0078 134C     		ldr	r4, .L183+32
 2514              	.LVL345:
 2515 007a 3246     		mov	r2, r6
 2516 007c 3B46     		mov	r3, r7
 2517 007e 1349     		ldr	r1, .L183+36
 2518 0080 2046     		mov	r0, r4
 2519 0082 FFF7FEFF 		bl	sprintf
 2520              	.LVL346:
 865:main.c        ****     UART_1_PutString(string_1);
 2521              		.loc 1 865 0
 2522 0086 2046     		mov	r0, r4
 2523 0088 FFF7FEFF 		bl	UART_1_PutString
 2524              	.LVL347:
 866:main.c        ****     sprintf(string_1,"dist(cm): %lf\n",Sharp_IR_dist);
 2525              		.loc 1 866 0
 2526 008c 2846     		mov	r0, r5
 2527 008e FFF7FEFF 		bl	__aeabi_f2d
 2528              	.LVL348:
 2529 0092 0246     		mov	r2, r0
 2530 0094 0B46     		mov	r3, r1
ARM GAS  C:\Users\weiro\AppData\Local\Temp\ccK6dLS7.s 			page 61


 2531 0096 0E49     		ldr	r1, .L183+40
 2532 0098 2046     		mov	r0, r4
 2533 009a FFF7FEFF 		bl	sprintf
 2534              	.LVL349:
 867:main.c        ****     UART_1_PutString(string_1);
 2535              		.loc 1 867 0
 2536 009e 2046     		mov	r0, r4
 2537 00a0 FFF7FEFF 		bl	UART_1_PutString
 2538              	.LVL350:
 868:main.c        ****     return Sharp_IR_dist;
 869:main.c        **** }
 2539              		.loc 1 869 0
 2540 00a4 2846     		mov	r0, r5
 2541 00a6 F8BD     		pop	{r3, r4, r5, r6, r7, pc}
 2542              	.LVL351:
 2543              	.L184:
 2544              		.align	3
 2545              	.L183:
 2546 00a8 9A999999 		.word	-1717986918
 2547 00ac 9999C93F 		.word	1070176665
 2548 00b0 6844696F 		.word	1869169768
 2549 00b4 F0054240 		.word	1078068720
 2550 00b8 1A578E1A 		.word	445536026
 2551 00bc 578EEABF 		.word	-1075147177
 2552 00c0 0000A041 		.word	1101004800
 2553 00c4 00004C42 		.word	1112276992
 2554 00c8 00000000 		.word	string_1
 2555 00cc 68000000 		.word	.LC7
 2556 00d0 78000000 		.word	.LC8
 2557              		.cfi_endproc
 2558              	.LFE85:
 2559              		.size	Sharp_IR, .-Sharp_IR
 2560              		.section	.text.main,"ax",%progbits
 2561              		.align	2
 2562              		.global	main
 2563              		.thumb
 2564              		.thumb_func
 2565              		.type	main, %function
 2566              	main:
 2567              	.LFB86:
 870:main.c        ****             
 871:main.c        **** int main(void)
 872:main.c        **** {
 2568              		.loc 1 872 0
 2569              		.cfi_startproc
 2570              		@ args = 0, pretend = 0, frame = 0
 2571              		@ frame_needed = 0, uses_anonymous_args = 0
 2572 0000 2DE9F84F 		push	{r3, r4, r5, r6, r7, r8, r9, r10, fp, lr}
 2573              		.cfi_def_cfa_offset 40
 2574              		.cfi_offset 3, -40
 2575              		.cfi_offset 4, -36
 2576              		.cfi_offset 5, -32
 2577              		.cfi_offset 6, -28
 2578              		.cfi_offset 7, -24
 2579              		.cfi_offset 8, -20
 2580              		.cfi_offset 9, -16
 2581              		.cfi_offset 10, -12
ARM GAS  C:\Users\weiro\AppData\Local\Temp\ccK6dLS7.s 			page 62


 2582              		.cfi_offset 11, -8
 2583              		.cfi_offset 14, -4
 873:main.c        ****     CyGlobalIntEnable; /* Enable global interrupts. */
 2584              		.loc 1 873 0
 2585              		.syntax unified
 2586              	@ 873 "main.c" 1
 2587 0004 62B6     		CPSIE   i
 2588              	@ 0 "" 2
 874:main.c        **** 
 875:main.c        ****     WHEEL_CIRCUMFERENCE = M_PI*WHEEL_DIAMETER;
 2589              		.loc 1 875 0
 2590              		.thumb
 2591              		.syntax unified
 2592 0006 DFF83CB3 		ldr	fp, .L237+52
 2593 000a C1A3     		adr	r3, .L237
 2594 000c D3E90023 		ldrd	r2, [r3]
 2595 0010 DBE90801 		ldrd	r0, [fp, #32]
 2596 0014 FFF7FEFF 		bl	__aeabi_dmul
 2597              	.LVL352:
 2598 0018 0446     		mov	r4, r0
 2599 001a 0D46     		mov	r5, r1
 2600 001c DFF810A3 		ldr	r10, .L237+32
 2601 0020 0AF5C873 		add	r3, r10, #400
 2602 0024 C3E90045 		strd	r4, [r3]
 876:main.c        ****     DISTANCE_PT_TURN = M_PI*DISTANCE_BETW_WHEEL/4;
 2603              		.loc 1 876 0
 2604 0028 B9A3     		adr	r3, .L237
 2605 002a D3E90023 		ldrd	r2, [r3]
 2606 002e DBE90C01 		ldrd	r0, [fp, #48]
 2607 0032 FFF7FEFF 		bl	__aeabi_dmul
 2608              	.LVL353:
 2609 0036 0022     		movs	r2, #0
 2610 0038 B74B     		ldr	r3, .L237+8
 2611 003a FFF7FEFF 		bl	__aeabi_dmul
 2612              	.LVL354:
 2613 003e 0646     		mov	r6, r0
 2614 0040 0F46     		mov	r7, r1
 2615 0042 0AF5CC73 		add	r3, r10, #408
 2616 0046 C3E90067 		strd	r6, [r3]
 877:main.c        ****     CM_COUNT_CONV = COUNT_WHEEL/WHEEL_CIRCUMFERENCE;
 2617              		.loc 1 877 0
 2618 004a DBE90E89 		ldrd	r8, [fp, #56]
 2619 004e 2246     		mov	r2, r4
 2620 0050 2B46     		mov	r3, r5
 2621 0052 4046     		mov	r0, r8
 2622 0054 4946     		mov	r1, r9
 2623 0056 FFF7FEFF 		bl	__aeabi_ddiv
 2624              	.LVL355:
 2625 005a 0AF5AC73 		add	r3, r10, #344
 2626 005e C3E90001 		strd	r0, [r3]
 878:main.c        ****     PT_TURN_COUNT = COUNT_WHEEL * DISTANCE_PT_TURN/(M_PI*WHEEL_DIAMETER);
 2627              		.loc 1 878 0
 2628 0062 4246     		mov	r2, r8
 2629 0064 4B46     		mov	r3, r9
 2630 0066 3046     		mov	r0, r6
 2631 0068 3946     		mov	r1, r7
 2632 006a FFF7FEFF 		bl	__aeabi_dmul
ARM GAS  C:\Users\weiro\AppData\Local\Temp\ccK6dLS7.s 			page 63


 2633              	.LVL356:
 2634 006e 2246     		mov	r2, r4
 2635 0070 2B46     		mov	r3, r5
 2636 0072 FFF7FEFF 		bl	__aeabi_ddiv
 2637              	.LVL357:
 2638 0076 0AF5D07A 		add	r10, r10, #416
 2639 007a CAE90001 		strd	r0, [r10]
 879:main.c        ****     isr_1_StartEx(Speed_Control);
 2640              		.loc 1 879 0
 2641 007e A748     		ldr	r0, .L237+12
 2642 0080 FFF7FEFF 		bl	isr_1_StartEx
 2643              	.LVL358:
 880:main.c        ****     isr_6_StartEx(Color_sensing);
 2644              		.loc 1 880 0
 2645 0084 A648     		ldr	r0, .L237+16
 2646 0086 FFF7FEFF 		bl	isr_6_StartEx
 2647              	.LVL359:
 881:main.c        ****     Timer_1_Start();
 2648              		.loc 1 881 0
 2649 008a FFF7FEFF 		bl	Timer_1_Start
 2650              	.LVL360:
 882:main.c        ****     isr_3_StartEx(ultrasonic_echo);
 2651              		.loc 1 882 0
 2652 008e A548     		ldr	r0, .L237+20
 2653 0090 FFF7FEFF 		bl	isr_3_StartEx
 2654              	.LVL361:
 883:main.c        ****     PWM_ColorSensor_Start();
 2655              		.loc 1 883 0
 2656 0094 FFF7FEFF 		bl	PWM_ColorSensor_Start
 2657              	.LVL362:
 884:main.c        ****     isr_7_StartEx(Bluetooth);
 2658              		.loc 1 884 0
 2659 0098 A348     		ldr	r0, .L237+24
 2660 009a FFF7FEFF 		bl	isr_7_StartEx
 2661              	.LVL363:
 885:main.c        ****     Flicker_Write(0);
 2662              		.loc 1 885 0
 2663 009e 0020     		movs	r0, #0
 2664 00a0 FFF7FEFF 		bl	Flicker_Write
 2665              	.LVL364:
 886:main.c        ****     PWM_Wheels_Start();
 2666              		.loc 1 886 0
 2667 00a4 FFF7FEFF 		bl	PWM_Wheels_Start
 2668              	.LVL365:
 887:main.c        ****     PWM_SmallServo_Start();
 2669              		.loc 1 887 0
 2670 00a8 FFF7FEFF 		bl	PWM_SmallServo_Start
 2671              	.LVL366:
 888:main.c        ****     PWM_BigServo_Start();
 2672              		.loc 1 888 0
 2673 00ac FFF7FEFF 		bl	PWM_BigServo_Start
 2674              	.LVL367:
 889:main.c        ****     QuadDec_1_Start();
 2675              		.loc 1 889 0
 2676 00b0 FFF7FEFF 		bl	QuadDec_1_Start
 2677              	.LVL368:
 890:main.c        ****     QuadDec_1_SetCounter(0);
ARM GAS  C:\Users\weiro\AppData\Local\Temp\ccK6dLS7.s 			page 64


 2678              		.loc 1 890 0
 2679 00b4 0020     		movs	r0, #0
 2680 00b6 FFF7FEFF 		bl	QuadDec_1_SetCounter
 2681              	.LVL369:
 891:main.c        ****     QuadDec_2_Start();
 2682              		.loc 1 891 0
 2683 00ba FFF7FEFF 		bl	QuadDec_2_Start
 2684              	.LVL370:
 892:main.c        ****     QuadDec_2_SetCounter(0);
 2685              		.loc 1 892 0
 2686 00be 0020     		movs	r0, #0
 2687 00c0 FFF7FEFF 		bl	QuadDec_2_SetCounter
 2688              	.LVL371:
 893:main.c        ****     UART_1_Start();
 2689              		.loc 1 893 0
 2690 00c4 FFF7FEFF 		bl	UART_1_Start
 2691              	.LVL372:
 894:main.c        ****     CS_LED_Write(0);
 2692              		.loc 1 894 0
 2693 00c8 0020     		movs	r0, #0
 2694 00ca FFF7FEFF 		bl	CS_LED_Write
 2695              	.LVL373:
 895:main.c        ****     //ADC_SAR_1_Start();
 896:main.c        ****     I2C_1_Start();
 2696              		.loc 1 896 0
 2697 00ce FFF7FEFF 		bl	I2C_1_Start
 2698              	.LVL374:
 897:main.c        ****     Timer_2_Start();
 2699              		.loc 1 897 0
 2700 00d2 FFF7FEFF 		bl	Timer_2_Start
 2701              	.LVL375:
 898:main.c        ****     isr_2_StartEx(Gyroscope);
 2702              		.loc 1 898 0
 2703 00d6 9548     		ldr	r0, .L237+28
 2704 00d8 FFF7FEFF 		bl	isr_2_StartEx
 2705              	.LVL376:
 899:main.c        ****     Gyroscope_Function();
 2706              		.loc 1 899 0
 2707 00dc FFF7FEFF 		bl	Gyroscope_Function
 2708              	.LVL377:
 900:main.c        **** 
 901:main.c        ****     int flag_FR = 1;
 902:main.c        ****     int flag_CW = 1;
 903:main.c        ****     PWM_Wheels_WriteCompare1(PWM_Master);
 2709              		.loc 1 903 0
 2710 00e0 DBF80800 		ldr	r0, [fp, #8]	@ float
 2711 00e4 FFF7FEFF 		bl	__aeabi_f2uiz
 2712              	.LVL378:
 2713 00e8 80B2     		uxth	r0, r0
 2714 00ea FFF7FEFF 		bl	PWM_Wheels_WriteCompare1
 2715              	.LVL379:
 904:main.c        ****     PWM_Wheels_WriteCompare2(PWM_Master);
 2716              		.loc 1 904 0
 2717 00ee DBF80800 		ldr	r0, [fp, #8]	@ float
 2718 00f2 FFF7FEFF 		bl	__aeabi_f2uiz
 2719              	.LVL380:
 2720 00f6 80B2     		uxth	r0, r0
ARM GAS  C:\Users\weiro\AppData\Local\Temp\ccK6dLS7.s 			page 65


 2721 00f8 FFF7FEFF 		bl	PWM_Wheels_WriteCompare2
 2722              	.LVL381:
 2723              	.L186:
 905:main.c        ****     double dist_trav = 0;
 906:main.c        ****     //double dist_count = dist_trav*CM_COUNT_CONV;
 907:main.c        ****     
 908:main.c        ****     //Flicker_Write(1);
 909:main.c        ****     //CyDelay(5000);
 910:main.c        ****     //Flicker_Write(0);
 911:main.c        ****     
 912:main.c        ****     for(;;)
 913:main.c        ****     {   
 914:main.c        ****         /* Place your application code here. */
 915:main.c        ****         if (stop_bt == 1)
 2724              		.loc 1 915 0
 2725 00fc 8C4B     		ldr	r3, .L237+32
 2726 00fe DB6C     		ldr	r3, [r3, #76]
 2727 0100 012B     		cmp	r3, #1
 2728 0102 FBD1     		bne	.L186
 916:main.c        ****         {
 917:main.c        ****             if (strcmp(string_bt, "Are you ready?") == 0)
 2729              		.loc 1 917 0
 2730 0104 8B49     		ldr	r1, .L237+36
 2731 0106 8C48     		ldr	r0, .L237+40
 2732 0108 FFF7FEFF 		bl	strcmp
 2733              	.LVL382:
 2734 010c 18B9     		cbnz	r0, .L187
 918:main.c        ****             {
 919:main.c        ****                 UART_1_PutString("Ready  \n"); // insert 2 white spaces to terminate
 2735              		.loc 1 919 0
 2736 010e 8B48     		ldr	r0, .L237+44
 2737 0110 FFF7FEFF 		bl	UART_1_PutString
 2738              	.LVL383:
 2739 0114 89E2     		b	.L188
 2740              	.L187:
 920:main.c        ****             }
 921:main.c        ****             else if (strcmp(string_bt, "Start") == 0)
 2741              		.loc 1 921 0
 2742 0116 8A49     		ldr	r1, .L237+48
 2743 0118 8748     		ldr	r0, .L237+40
 2744 011a FFF7FEFF 		bl	strcmp
 2745              	.LVL384:
 2746 011e 0028     		cmp	r0, #0
 2747 0120 40F05682 		bne	.L189
 922:main.c        ****             {
 923:main.c        ****                 // start main program
 924:main.c        ****                 // move to hug left wall
 925:main.c        ****                 CyDelay(1000);
 2748              		.loc 1 925 0
 2749 0124 4FF47A70 		mov	r0, #1000
 2750 0128 FFF7FEFF 		bl	CyDelay
 2751              	.LVL385:
 926:main.c        ****                 move_fixed_dist(15, 1);
 2752              		.loc 1 926 0
 2753 012c 0121     		movs	r1, #1
 2754 012e 0F20     		movs	r0, #15
 2755 0130 FFF7FEFF 		bl	move_fixed_dist
ARM GAS  C:\Users\weiro\AppData\Local\Temp\ccK6dLS7.s 			page 66


 2756              	.LVL386:
 927:main.c        ****                 CyDelay(500);
 2757              		.loc 1 927 0
 2758 0134 4FF4FA70 		mov	r0, #500
 2759 0138 FFF7FEFF 		bl	CyDelay
 2760              	.LVL387:
 928:main.c        ****                 CW(PT_TURN_COUNT, 0);
 2761              		.loc 1 928 0
 2762 013c 7C4C     		ldr	r4, .L237+32
 2763 013e F4E96801 		ldrd	r0, [r4, #416]!
 2764 0142 FFF7FEFF 		bl	__aeabi_d2iz
 2765              	.LVL388:
 2766 0146 0021     		movs	r1, #0
 2767 0148 FFF7FEFF 		bl	CW
 2768              	.LVL389:
 929:main.c        ****                 CyDelay(500);
 2769              		.loc 1 929 0
 2770 014c 4FF4FA70 		mov	r0, #500
 2771 0150 FFF7FEFF 		bl	CyDelay
 2772              	.LVL390:
 930:main.c        ****                 CW(PT_TURN_COUNT, 0);
 2773              		.loc 1 930 0
 2774 0154 D4E90001 		ldrd	r0, [r4]
 2775 0158 FFF7FEFF 		bl	__aeabi_d2iz
 2776              	.LVL391:
 2777 015c 0021     		movs	r1, #0
 2778 015e FFF7FEFF 		bl	CW
 2779              	.LVL392:
 931:main.c        ****                 CyDelay(500);
 2780              		.loc 1 931 0
 2781 0162 4FF4FA70 		mov	r0, #500
 2782 0166 FFF7FEFF 		bl	CyDelay
 2783              	.LVL393:
 932:main.c        ****                 CW(PT_TURN_COUNT, 0);
 2784              		.loc 1 932 0
 2785 016a D4E90001 		ldrd	r0, [r4]
 2786 016e FFF7FEFF 		bl	__aeabi_d2iz
 2787              	.LVL394:
 2788 0172 0021     		movs	r1, #0
 2789 0174 FFF7FEFF 		bl	CW
 2790              	.LVL395:
 933:main.c        ****                 CyDelay(500);
 2791              		.loc 1 933 0
 2792 0178 4FF4FA70 		mov	r0, #500
 2793 017c FFF7FEFF 		bl	CyDelay
 2794              	.LVL396:
 934:main.c        ****                 CW(PT_TURN_COUNT, 0);
 2795              		.loc 1 934 0
 2796 0180 D4E90001 		ldrd	r0, [r4]
 2797 0184 FFF7FEFF 		bl	__aeabi_d2iz
 2798              	.LVL397:
 2799 0188 0021     		movs	r1, #0
 2800 018a FFF7FEFF 		bl	CW
 2801              	.LVL398:
 935:main.c        ****                 CyDelay(500);
 2802              		.loc 1 935 0
 2803 018e 4FF4FA70 		mov	r0, #500
ARM GAS  C:\Users\weiro\AppData\Local\Temp\ccK6dLS7.s 			page 67


 2804 0192 FFF7FEFF 		bl	CyDelay
 2805              	.LVL399:
 936:main.c        ****                 CW(PT_TURN_COUNT, 1);
 2806              		.loc 1 936 0
 2807 0196 D4E90001 		ldrd	r0, [r4]
 2808 019a FFF7FEFF 		bl	__aeabi_d2iz
 2809              	.LVL400:
 2810 019e 0121     		movs	r1, #1
 2811 01a0 FFF7FEFF 		bl	CW
 2812              	.LVL401:
 937:main.c        ****                 CyDelay(500);
 2813              		.loc 1 937 0
 2814 01a4 4FF4FA70 		mov	r0, #500
 2815 01a8 FFF7FEFF 		bl	CyDelay
 2816              	.LVL402:
 938:main.c        ****                 //CW(PT_TURN_COUNT, 0);
 939:main.c        ****                 while (step == 0)
 2817              		.loc 1 939 0
 2818 01ac 18E0     		b	.L190
 2819              	.L191:
 2820              	.LVL403:
 940:main.c        ****                 {
 941:main.c        ****                     flag_FR = 1;
 942:main.c        ****                     dist_trav = 50;
 943:main.c        ****                     move_fixed_dist(dist_trav, flag_FR); // move forward
 2821              		.loc 1 943 0
 2822 01ae 0121     		movs	r1, #1
 2823 01b0 3220     		movs	r0, #50
 2824 01b2 FFF7FEFF 		bl	move_fixed_dist
 2825              	.LVL404:
 944:main.c        ****                     
 945:main.c        ****                     flag_CW = 0;
 946:main.c        ****                     CW(PT_TURN_COUNT, flag_CW); // turn CCW facing left wall
 2826              		.loc 1 946 0
 2827 01b6 5E4C     		ldr	r4, .L237+32
 2828 01b8 F4E96801 		ldrd	r0, [r4, #416]!
 2829 01bc FFF7FEFF 		bl	__aeabi_d2iz
 2830              	.LVL405:
 2831 01c0 0021     		movs	r1, #0
 2832 01c2 FFF7FEFF 		bl	CW
 2833              	.LVL406:
 947:main.c        ****                     
 948:main.c        ****                     forward2wall(); // move to left wall
 2834              		.loc 1 948 0
 2835 01c6 FFF7FEFF 		bl	forward2wall
 2836              	.LVL407:
 949:main.c        ****                     flag_CW = 1;
 950:main.c        ****                     CW(PT_TURN_COUNT, flag_CW); // turn CW facing front wall
 2837              		.loc 1 950 0
 2838 01ca D4E90001 		ldrd	r0, [r4]
 2839 01ce FFF7FEFF 		bl	__aeabi_d2iz
 2840              	.LVL408:
 2841 01d2 0121     		movs	r1, #1
 2842 01d4 FFF7FEFF 		bl	CW
 2843              	.LVL409:
 951:main.c        ****                     
 952:main.c        ****                     step++; 
ARM GAS  C:\Users\weiro\AppData\Local\Temp\ccK6dLS7.s 			page 68


 2844              		.loc 1 952 0
 2845 01d8 5A4A     		ldr	r2, .L237+52
 2846 01da 136C     		ldr	r3, [r2, #64]
 2847 01dc 0133     		adds	r3, r3, #1
 2848 01de 1364     		str	r3, [r2, #64]
 2849              	.LVL410:
 2850              	.L190:
 939:main.c        ****                 {
 2851              		.loc 1 939 0
 2852 01e0 584B     		ldr	r3, .L237+52
 2853 01e2 1B6C     		ldr	r3, [r3, #64]
 2854 01e4 002B     		cmp	r3, #0
 2855 01e6 E2D0     		beq	.L191
 953:main.c        ****                 }
 954:main.c        ****                 wall_detected_10 = 0;
 2856              		.loc 1 954 0
 2857 01e8 0022     		movs	r2, #0
 2858 01ea 514B     		ldr	r3, .L237+32
 2859 01ec 1A64     		str	r2, [r3, #64]
 955:main.c        ****                 CyDelay(500);
 2860              		.loc 1 955 0
 2861 01ee 4FF4FA70 		mov	r0, #500
 2862 01f2 FFF7FEFF 		bl	CyDelay
 2863              	.LVL411:
 956:main.c        ****                 
 957:main.c        ****                 // move forward to front wall & turn 90 deg CW facing right wall
 958:main.c        ****                 while (step == 1)
 2864              		.loc 1 958 0
 2865 01f6 11E0     		b	.L192
 2866              	.L193:
 959:main.c        ****                 {
 960:main.c        ****                     /*flag_FR = 1;
 961:main.c        ****                     dist_trav = 150;
 962:main.c        ****                     dist_count = dist_trav*CM_COUNT_CONV;
 963:main.c        ****                     F_or_R_1(dist_count, flag_FR);*/
 964:main.c        ****                     forward2wall(); // move to front wall
 2867              		.loc 1 964 0
 2868 01f8 FFF7FEFF 		bl	forward2wall
 2869              	.LVL412:
 965:main.c        ****                     CyDelay(500);
 2870              		.loc 1 965 0
 2871 01fc 4FF4FA70 		mov	r0, #500
 2872 0200 FFF7FEFF 		bl	CyDelay
 2873              	.LVL413:
 966:main.c        ****                     flag_CW = 1;
 967:main.c        ****                     CW(PT_TURN_COUNT, flag_CW); // turn CW facing right wall --> problem: Step 2 wi
 2874              		.loc 1 967 0
 2875 0204 504B     		ldr	r3, .L237+56
 2876 0206 D3E90001 		ldrd	r0, [r3]
 2877 020a FFF7FEFF 		bl	__aeabi_d2iz
 2878              	.LVL414:
 2879 020e 0121     		movs	r1, #1
 2880 0210 FFF7FEFF 		bl	CW
 2881              	.LVL415:
 968:main.c        ****                     step++;
 2882              		.loc 1 968 0
 2883 0214 4B4A     		ldr	r2, .L237+52
ARM GAS  C:\Users\weiro\AppData\Local\Temp\ccK6dLS7.s 			page 69


 2884 0216 136C     		ldr	r3, [r2, #64]
 2885 0218 0133     		adds	r3, r3, #1
 2886 021a 1364     		str	r3, [r2, #64]
 2887              	.LVL416:
 2888              	.L192:
 958:main.c        ****                 {
 2889              		.loc 1 958 0
 2890 021c 494B     		ldr	r3, .L237+52
 2891 021e 1B6C     		ldr	r3, [r3, #64]
 2892 0220 012B     		cmp	r3, #1
 2893 0222 E9D0     		beq	.L193
 969:main.c        ****                 }
 970:main.c        ****                 CyDelay(1000);
 2894              		.loc 1 970 0
 2895 0224 4FF47A70 		mov	r0, #1000
 2896 0228 FFF7FEFF 		bl	CyDelay
 2897              	.LVL417:
 971:main.c        ****                 
 972:main.c        ****                 // look for slit & adjust so that robot can fit through slit
 973:main.c        ****                 while (step == 2)
 2898              		.loc 1 973 0
 2899 022c 14E0     		b	.L194
 2900              	.L195:
 974:main.c        ****                 {
 975:main.c        ****                     /*flag_FR = 1;
 976:main.c        ****                     dist_trav = 200;
 977:main.c        ****                     dist_count = dist_trav*CM_COUNT_CONV;
 978:main.c        ****                     F_or_R_2(dist_count, flag_FR);*/
 979:main.c        ****                     move2slit();
 2901              		.loc 1 979 0
 2902 022e FFF7FEFF 		bl	move2slit
 2903              	.LVL418:
 980:main.c        ****                     sprintf(string_1, "step 2");
 2904              		.loc 1 980 0
 2905 0232 464B     		ldr	r3, .L237+60
 2906 0234 464A     		ldr	r2, .L237+64
 2907 0236 1068     		ldr	r0, [r2]	@ unaligned
 2908 0238 1860     		str	r0, [r3]	@ unaligned
 2909 023a 9188     		ldrh	r1, [r2, #4]	@ unaligned
 2910 023c 9279     		ldrb	r2, [r2, #6]	@ zero_extendqisi2
 2911 023e 9980     		strh	r1, [r3, #4]	@ unaligned
 2912 0240 9A71     		strb	r2, [r3, #6]
 981:main.c        ****                     UART_1_PutString(string_1);
 2913              		.loc 1 981 0
 2914 0242 1846     		mov	r0, r3
 2915 0244 FFF7FEFF 		bl	UART_1_PutString
 2916              	.LVL419:
 982:main.c        ****                     CyDelay(500);
 2917              		.loc 1 982 0
 2918 0248 4FF4FA70 		mov	r0, #500
 2919 024c FFF7FEFF 		bl	CyDelay
 2920              	.LVL420:
 983:main.c        ****                     
 984:main.c        ****                     step++;
 2921              		.loc 1 984 0
 2922 0250 3C4A     		ldr	r2, .L237+52
 2923 0252 136C     		ldr	r3, [r2, #64]
ARM GAS  C:\Users\weiro\AppData\Local\Temp\ccK6dLS7.s 			page 70


 2924 0254 0133     		adds	r3, r3, #1
 2925 0256 1364     		str	r3, [r2, #64]
 2926              	.L194:
 973:main.c        ****                 {
 2927              		.loc 1 973 0
 2928 0258 3A4B     		ldr	r3, .L237+52
 2929 025a 1B6C     		ldr	r3, [r3, #64]
 2930 025c 022B     		cmp	r3, #2
 2931 025e E6D0     		beq	.L195
 985:main.c        ****                 }
 986:main.c        ****                 CyDelay(500);
 2932              		.loc 1 986 0
 2933 0260 4FF4FA70 		mov	r0, #500
 2934 0264 FFF7FEFF 		bl	CyDelay
 2935              	.LVL421:
 987:main.c        ****                 while (step == 3)
 2936              		.loc 1 987 0
 2937 0268 0FE0     		b	.L196
 2938              	.L197:
 2939              	.LVL422:
 988:main.c        ****                 {
 989:main.c        ****                     dist_trav = 8.5;
 990:main.c        ****                     flag_FR = 1;
 991:main.c        ****                     move_fixed_dist(dist_trav, flag_FR);
 2940              		.loc 1 991 0
 2941 026a 0121     		movs	r1, #1
 2942 026c 0820     		movs	r0, #8
 2943 026e FFF7FEFF 		bl	move_fixed_dist
 2944              	.LVL423:
 992:main.c        ****                     flag_CW = 0;
 993:main.c        ****                     CW(PT_TURN_COUNT, flag_CW); 
 2945              		.loc 1 993 0
 2946 0272 354B     		ldr	r3, .L237+56
 2947 0274 D3E90001 		ldrd	r0, [r3]
 2948 0278 FFF7FEFF 		bl	__aeabi_d2iz
 2949              	.LVL424:
 2950 027c 0021     		movs	r1, #0
 2951 027e FFF7FEFF 		bl	CW
 2952              	.LVL425:
 994:main.c        ****                     step++;
 2953              		.loc 1 994 0
 2954 0282 304A     		ldr	r2, .L237+52
 2955 0284 136C     		ldr	r3, [r2, #64]
 2956 0286 0133     		adds	r3, r3, #1
 2957 0288 1364     		str	r3, [r2, #64]
 2958              	.LVL426:
 2959              	.L196:
 987:main.c        ****                 {
 2960              		.loc 1 987 0
 2961 028a 2E4B     		ldr	r3, .L237+52
 2962 028c 1B6C     		ldr	r3, [r3, #64]
 2963 028e 032B     		cmp	r3, #3
 2964 0290 EBD0     		beq	.L197
 995:main.c        ****                 }
 996:main.c        ****                 CyDelay(500);
 2965              		.loc 1 996 0
 2966 0292 4FF4FA70 		mov	r0, #500
ARM GAS  C:\Users\weiro\AppData\Local\Temp\ccK6dLS7.s 			page 71


 2967 0296 FFF7FEFF 		bl	CyDelay
 2968              	.LVL427:
 997:main.c        ****                 // move forward until puck is detected
 998:main.c        ****                 while (step == 4)
 2969              		.loc 1 998 0
 2970 029a 05E0     		b	.L198
 2971              	.L199:
 999:main.c        ****                 {
1000:main.c        ****                     /*flag_FR = 1;
1001:main.c        ****                     dist_trav = 10;
1002:main.c        ****                     dist_count = dist_trav*CM_COUNT_CONV;
1003:main.c        ****                     F_or_R_2(dist_count, flag_FR);*/
1004:main.c        ****                     move2puck();
 2972              		.loc 1 1004 0
 2973 029c FFF7FEFF 		bl	move2puck
 2974              	.LVL428:
1005:main.c        ****                     step++;
 2975              		.loc 1 1005 0
 2976 02a0 284A     		ldr	r2, .L237+52
 2977 02a2 136C     		ldr	r3, [r2, #64]
 2978 02a4 0133     		adds	r3, r3, #1
 2979 02a6 1364     		str	r3, [r2, #64]
 2980              	.L198:
 998:main.c        ****                 {
 2981              		.loc 1 998 0
 2982 02a8 264B     		ldr	r3, .L237+52
 2983 02aa 1B6C     		ldr	r3, [r3, #64]
 2984 02ac 042B     		cmp	r3, #4
 2985 02ae F5D0     		beq	.L199
1006:main.c        ****                 }
1007:main.c        ****                 CyDelay(500);
 2986              		.loc 1 1007 0
 2987 02b0 4FF4FA70 		mov	r0, #500
 2988 02b4 FFF7FEFF 		bl	CyDelay
 2989              	.LVL429:
1008:main.c        ****                 
1009:main.c        ****                 // color sensing & light up LED
1010:main.c        ****                 while (step == 5)
 2990              		.loc 1 1010 0
 2991 02b8 21E0     		b	.L200
 2992              	.L204:
 2993              	.LVL430:
 2994              	.LBB6:
1011:main.c        ****                 {
1012:main.c        ****                     int flag_FR = 0;
1013:main.c        ****                     int dist_trav = 2;
1014:main.c        ****                     move_fixed_dist(dist_trav, flag_FR); // move backward
 2995              		.loc 1 1014 0
 2996 02ba 0021     		movs	r1, #0
 2997 02bc 0220     		movs	r0, #2
 2998 02be FFF7FEFF 		bl	move_fixed_dist
 2999              	.LVL431:
1015:main.c        ****                     CyDelay(500);
 3000              		.loc 1 1015 0
 3001 02c2 4FF4FA70 		mov	r0, #500
 3002 02c6 FFF7FEFF 		bl	CyDelay
 3003              	.LVL432:
ARM GAS  C:\Users\weiro\AppData\Local\Temp\ccK6dLS7.s 			page 72


1016:main.c        ****                     Color_Sensing_Function();
 3004              		.loc 1 1016 0
 3005 02ca FFF7FEFF 		bl	Color_Sensing_Function
 3006              	.LVL433:
1017:main.c        ****                     if (color_detected == 1) // red
 3007              		.loc 1 1017 0
 3008 02ce 184B     		ldr	r3, .L237+32
 3009 02d0 D3F88831 		ldr	r3, [r3, #392]
 3010 02d4 012B     		cmp	r3, #1
 3011 02d6 03D1     		bne	.L201
1018:main.c        ****                     {
1019:main.c        ****                         led_red_Write(1);
 3012              		.loc 1 1019 0
 3013 02d8 0120     		movs	r0, #1
 3014 02da FFF7FEFF 		bl	led_red_Write
 3015              	.LVL434:
 3016 02de 0AE0     		b	.L202
 3017              	.L201:
1020:main.c        ****                     }
1021:main.c        ****                     else if (color_detected == 2) // green
 3018              		.loc 1 1021 0
 3019 02e0 022B     		cmp	r3, #2
 3020 02e2 03D1     		bne	.L203
1022:main.c        ****                     {
1023:main.c        ****                         led_green_Write(1);
 3021              		.loc 1 1023 0
 3022 02e4 0120     		movs	r0, #1
 3023 02e6 FFF7FEFF 		bl	led_green_Write
 3024              	.LVL435:
 3025 02ea 04E0     		b	.L202
 3026              	.L203:
1024:main.c        ****                     }
1025:main.c        ****                     else if (color_detected == 3) // blue
 3027              		.loc 1 1025 0
 3028 02ec 032B     		cmp	r3, #3
 3029 02ee 02D1     		bne	.L202
1026:main.c        ****                     {
1027:main.c        ****                         led_blue_Write(1);   
 3030              		.loc 1 1027 0
 3031 02f0 0120     		movs	r0, #1
 3032 02f2 FFF7FEFF 		bl	led_blue_Write
 3033              	.LVL436:
 3034              	.L202:
1028:main.c        ****                     }
1029:main.c        ****                     step++;
 3035              		.loc 1 1029 0
 3036 02f6 134A     		ldr	r2, .L237+52
 3037 02f8 136C     		ldr	r3, [r2, #64]
 3038 02fa 0133     		adds	r3, r3, #1
 3039 02fc 1364     		str	r3, [r2, #64]
 3040              	.LVL437:
 3041              	.L200:
 3042              	.LBE6:
1010:main.c        ****                 {
 3043              		.loc 1 1010 0
 3044 02fe 114B     		ldr	r3, .L237+52
 3045 0300 1B6C     		ldr	r3, [r3, #64]
ARM GAS  C:\Users\weiro\AppData\Local\Temp\ccK6dLS7.s 			page 73


 3046 0302 052B     		cmp	r3, #5
 3047 0304 D9D0     		beq	.L204
1030:main.c        ****                 }
1031:main.c        ****                 CyDelay(500);
 3048              		.loc 1 1031 0
 3049 0306 4FF4FA70 		mov	r0, #500
 3050 030a FFF7FEFF 		bl	CyDelay
 3051              	.LVL438:
1032:main.c        ****                 
1033:main.c        ****                 // move forward & pick up puck
1034:main.c        ****                 while (step == 6)
 3052              		.loc 1 1034 0
 3053 030e 3DE0     		b	.L205
 3054              	.L238:
 3055              		.align	3
 3056              	.L237:
 3057 0310 182D4454 		.word	1413754136
 3058 0314 FB210940 		.word	1074340347
 3059 0318 0000D03F 		.word	1070596096
 3060 031c 00000000 		.word	Speed_Control
 3061 0320 00000000 		.word	Color_sensing
 3062 0324 00000000 		.word	ultrasonic_echo
 3063 0328 00000000 		.word	Bluetooth
 3064 032c 00000000 		.word	Gyroscope
 3065 0330 00000000 		.word	.LANCHOR0
 3066 0334 88000000 		.word	.LC9
 3067 0338 00000000 		.word	string_bt
 3068 033c 98000000 		.word	.LC10
 3069 0340 A4000000 		.word	.LC11
 3070 0344 00000000 		.word	.LANCHOR1
 3071 0348 A0010000 		.word	.LANCHOR0+416
 3072 034c 00000000 		.word	string_1
 3073 0350 AC000000 		.word	.LC12
 3074              	.L206:
 3075              	.LVL439:
1035:main.c        ****                 {
1036:main.c        ****                     flag_FR = 1;
1037:main.c        ****                     dist_trav = 18; // distance from color sensor to gripper center
1038:main.c        ****                     move_fixed_dist(dist_trav, flag_FR);
 3076              		.loc 1 1038 0
 3077 0354 0121     		movs	r1, #1
 3078 0356 1220     		movs	r0, #18
 3079 0358 FFF7FEFF 		bl	move_fixed_dist
 3080              	.LVL440:
1039:main.c        ****                     PWM_BigServo_WriteCompare(down_big);
 3081              		.loc 1 1039 0
 3082 035c B64C     		ldr	r4, .L239
 3083 035e B4F84400 		ldrh	r0, [r4, #68]
 3084 0362 FFF7FEFF 		bl	PWM_BigServo_WriteCompare
 3085              	.LVL441:
1040:main.c        ****                     CyDelay(500);
 3086              		.loc 1 1040 0
 3087 0366 4FF4FA70 		mov	r0, #500
 3088 036a FFF7FEFF 		bl	CyDelay
 3089              	.LVL442:
1041:main.c        ****                     PWM_SmallServo_WriteCompare(close_small);
 3090              		.loc 1 1041 0
ARM GAS  C:\Users\weiro\AppData\Local\Temp\ccK6dLS7.s 			page 74


 3091 036e B4F84800 		ldrh	r0, [r4, #72]
 3092 0372 FFF7FEFF 		bl	PWM_SmallServo_WriteCompare
 3093              	.LVL443:
1042:main.c        ****                     CyDelay(500);
 3094              		.loc 1 1042 0
 3095 0376 4FF4FA70 		mov	r0, #500
 3096 037a FFF7FEFF 		bl	CyDelay
 3097              	.LVL444:
1043:main.c        ****                     PWM_BigServo_WriteCompare(up_big);
 3098              		.loc 1 1043 0
 3099 037e B4F84C00 		ldrh	r0, [r4, #76]
 3100 0382 FFF7FEFF 		bl	PWM_BigServo_WriteCompare
 3101              	.LVL445:
1044:main.c        ****                     step++;
 3102              		.loc 1 1044 0
 3103 0386 236C     		ldr	r3, [r4, #64]
 3104 0388 0133     		adds	r3, r3, #1
 3105 038a 2364     		str	r3, [r4, #64]
 3106              	.LVL446:
 3107              	.L205:
1034:main.c        ****                 {
 3108              		.loc 1 1034 0
 3109 038c AA4B     		ldr	r3, .L239
 3110 038e 1B6C     		ldr	r3, [r3, #64]
 3111 0390 062B     		cmp	r3, #6
 3112 0392 DFD0     		beq	.L206
1045:main.c        ****                 }
1046:main.c        ****                 CyDelay(500);
 3113              		.loc 1 1046 0
 3114 0394 4FF4FA70 		mov	r0, #500
 3115 0398 FFF7FEFF 		bl	CyDelay
 3116              	.LVL447:
1047:main.c        ****                 
1048:main.c        ****                 while (step == 7)
 3117              		.loc 1 1048 0
 3118 039c 1AE0     		b	.L207
 3119              	.L209:
 3120              	.LVL448:
1049:main.c        ****                 {
1050:main.c        ****                     // reverse (out of the slit) and move to the corner of facing the initial posit
1051:main.c        ****                     flag_FR = 0;
1052:main.c        ****                     dist_trav = 50;
1053:main.c        ****                     move_fixed_dist(dist_trav, flag_FR);
 3121              		.loc 1 1053 0
 3122 039e 0021     		movs	r1, #0
 3123 03a0 3220     		movs	r0, #50
 3124 03a2 FFF7FEFF 		bl	move_fixed_dist
 3125              	.LVL449:
1054:main.c        ****                     CyDelay(500);
 3126              		.loc 1 1054 0
 3127 03a6 4FF4FA70 		mov	r0, #500
 3128 03aa FFF7FEFF 		bl	CyDelay
 3129              	.LVL450:
1055:main.c        ****                     if (initial == 0)
 3130              		.loc 1 1055 0
 3131 03ae A34B     		ldr	r3, .L239+4
 3132 03b0 D3F8A831 		ldr	r3, [r3, #424]
ARM GAS  C:\Users\weiro\AppData\Local\Temp\ccK6dLS7.s 			page 75


 3133 03b4 0BB9     		cbnz	r3, .L233
1056:main.c        ****                     {
1057:main.c        ****                         flag_CW = 0; // ccw to left wall
 3134              		.loc 1 1057 0
 3135 03b6 0024     		movs	r4, #0
 3136 03b8 00E0     		b	.L208
 3137              	.L233:
1058:main.c        ****                     }
1059:main.c        ****                     else
1060:main.c        ****                     {
1061:main.c        ****                         flag_CW = 1; // cw to right wall
 3138              		.loc 1 1061 0
 3139 03ba 0124     		movs	r4, #1
 3140              	.L208:
 3141              	.LVL451:
1062:main.c        ****                     }
1063:main.c        ****                     CW(PT_TURN_COUNT, flag_CW); // turn robot facing left or right wall
 3142              		.loc 1 1063 0
 3143 03bc A04B     		ldr	r3, .L239+8
 3144 03be D3E90001 		ldrd	r0, [r3]
 3145 03c2 FFF7FEFF 		bl	__aeabi_d2iz
 3146              	.LVL452:
 3147 03c6 2146     		mov	r1, r4
 3148 03c8 FFF7FEFF 		bl	CW
 3149              	.LVL453:
1064:main.c        ****                     step++;     
 3150              		.loc 1 1064 0
 3151 03cc 9A4A     		ldr	r2, .L239
 3152 03ce 136C     		ldr	r3, [r2, #64]
 3153 03d0 0133     		adds	r3, r3, #1
 3154 03d2 1364     		str	r3, [r2, #64]
 3155              	.LVL454:
 3156              	.L207:
1048:main.c        ****                 {
 3157              		.loc 1 1048 0
 3158 03d4 984B     		ldr	r3, .L239
 3159 03d6 1B6C     		ldr	r3, [r3, #64]
 3160 03d8 072B     		cmp	r3, #7
 3161 03da E0D0     		beq	.L209
1065:main.c        ****                 }
1066:main.c        ****                 CyDelay(500);
 3162              		.loc 1 1066 0
 3163 03dc 4FF4FA70 		mov	r0, #500
 3164 03e0 FFF7FEFF 		bl	CyDelay
 3165              	.LVL455:
1067:main.c        ****                 wall_detected_10 = 0;
 3166              		.loc 1 1067 0
 3167 03e4 0022     		movs	r2, #0
 3168 03e6 954B     		ldr	r3, .L239+4
 3169 03e8 1A64     		str	r2, [r3, #64]
1068:main.c        ****                 while (step ==8)
 3170              		.loc 1 1068 0
 3171 03ea 0DE0     		b	.L210
 3172              	.L211:
1069:main.c        ****                 {
1070:main.c        ****                     forward2wall(); // move to left wall
 3173              		.loc 1 1070 0
ARM GAS  C:\Users\weiro\AppData\Local\Temp\ccK6dLS7.s 			page 76


 3174 03ec FFF7FEFF 		bl	forward2wall
 3175              	.LVL456:
1071:main.c        ****                     flag_CW = 1;
1072:main.c        ****                     CW(PT_TURN_COUNT, flag_CW); // turn CW facing base wall
 3176              		.loc 1 1072 0
 3177 03f0 934B     		ldr	r3, .L239+8
 3178 03f2 D3E90001 		ldrd	r0, [r3]
 3179 03f6 FFF7FEFF 		bl	__aeabi_d2iz
 3180              	.LVL457:
 3181 03fa 0121     		movs	r1, #1
 3182 03fc FFF7FEFF 		bl	CW
 3183              	.LVL458:
1073:main.c        ****                     
1074:main.c        ****                     
1075:main.c        ****                    
1076:main.c        ****                     step++;
 3184              		.loc 1 1076 0
 3185 0400 8D4A     		ldr	r2, .L239
 3186 0402 136C     		ldr	r3, [r2, #64]
 3187 0404 0133     		adds	r3, r3, #1
 3188 0406 1364     		str	r3, [r2, #64]
 3189              	.LVL459:
 3190              	.L210:
1068:main.c        ****                 {
 3191              		.loc 1 1068 0
 3192 0408 8B4B     		ldr	r3, .L239
 3193 040a 1B6C     		ldr	r3, [r3, #64]
 3194 040c 082B     		cmp	r3, #8
 3195 040e EDD0     		beq	.L211
1077:main.c        ****                     
1078:main.c        ****                 }
1079:main.c        ****                 CyDelay(500);
 3196              		.loc 1 1079 0
 3197 0410 4FF4FA70 		mov	r0, #500
 3198 0414 FFF7FEFF 		bl	CyDelay
 3199              	.LVL460:
1080:main.c        ****                 
1081:main.c        ****                 wall_detected_10 = 0;
 3200              		.loc 1 1081 0
 3201 0418 0022     		movs	r2, #0
 3202 041a 884B     		ldr	r3, .L239+4
 3203 041c 1A64     		str	r2, [r3, #64]
1082:main.c        ****                 while (step ==9)
 3204              		.loc 1 1082 0
 3205 041e 0BE0     		b	.L212
 3206              	.L213:
 3207              	.LVL461:
1083:main.c        ****                 {
1084:main.c        ****                     flag_FR = 0
1085:main.c        ****                     
1086:main.c        ****                     ;
1087:main.c        ****                     dist_trav = 70;
1088:main.c        ****                     move_fixed_dist(dist_trav, flag_FR);
 3208              		.loc 1 1088 0
 3209 0420 0021     		movs	r1, #0
 3210 0422 4620     		movs	r0, #70
 3211 0424 FFF7FEFF 		bl	move_fixed_dist
ARM GAS  C:\Users\weiro\AppData\Local\Temp\ccK6dLS7.s 			page 77


 3212              	.LVL462:
1089:main.c        ****                     //move_fixed_dist(200); // move to corner
1090:main.c        ****                     CyDelay(500);
 3213              		.loc 1 1090 0
 3214 0428 4FF4FA70 		mov	r0, #500
 3215 042c FFF7FEFF 		bl	CyDelay
 3216              	.LVL463:
1091:main.c        ****                     step ++;
 3217              		.loc 1 1091 0
 3218 0430 814A     		ldr	r2, .L239
 3219 0432 136C     		ldr	r3, [r2, #64]
 3220 0434 0133     		adds	r3, r3, #1
 3221 0436 1364     		str	r3, [r2, #64]
 3222              	.LVL464:
 3223              	.L212:
1082:main.c        ****                 {
 3224              		.loc 1 1082 0
 3225 0438 7F4B     		ldr	r3, .L239
 3226 043a 1B6C     		ldr	r3, [r3, #64]
 3227 043c 092B     		cmp	r3, #9
 3228 043e EFD0     		beq	.L213
 3229 0440 02E0     		b	.L214
 3230              	.L215:
1092:main.c        ****                 }
1093:main.c        ****                 
1094:main.c        ****                 while (step == 10)
1095:main.c        ****                 {
1096:main.c        ****                      // move away from the corner
1097:main.c        ****                     /*
1098:main.c        ****                     flag_FR = 0;
1099:main.c        ****                     dist_trav = 50;
1100:main.c        ****                     move_fixed_dist(dist_trav, flag_FR);
1101:main.c        ****                     CyDelay(500);
1102:main.c        ****                     if (initial == 0)
1103:main.c        ****                     {
1104:main.c        ****                         flag_CW = 1;    // ccw
1105:main.c        ****                     }
1106:main.c        ****                     else
1107:main.c        ****                     {
1108:main.c        ****                         flag_CW = 0;    // cw
1109:main.c        ****                     }
1110:main.c        ****                     CW(PT_TURN_COUNT, flag_CW); // turn CCW or CW facing puck landing zone
1111:main.c        ****                     CyDelay(500);
1112:main.c        ****                     */
1113:main.c        ****                     step ++;
 3231              		.loc 1 1113 0
 3232 0442 0133     		adds	r3, r3, #1
 3233 0444 7C4A     		ldr	r2, .L239
 3234 0446 1364     		str	r3, [r2, #64]
 3235              	.L214:
1094:main.c        ****                 {
 3236              		.loc 1 1094 0
 3237 0448 7B4B     		ldr	r3, .L239
 3238 044a 1B6C     		ldr	r3, [r3, #64]
 3239 044c 0A2B     		cmp	r3, #10
 3240 044e F8D0     		beq	.L215
1114:main.c        ****                 }
ARM GAS  C:\Users\weiro\AppData\Local\Temp\ccK6dLS7.s 			page 78


1115:main.c        ****                 CyDelay(500);
 3241              		.loc 1 1115 0
 3242 0450 4FF4FA70 		mov	r0, #500
 3243 0454 FFF7FEFF 		bl	CyDelay
 3244              	.LVL465:
1116:main.c        ****                 
1117:main.c        ****                 while (step == 11)
 3245              		.loc 1 1117 0
 3246 0458 02E0     		b	.L216
 3247              	.L217:
1118:main.c        ****                 {
1119:main.c        ****                 
1120:main.c        ****                     // move to puck landing
1121:main.c        ****                     /*
1122:main.c        ****                     flag_FR = 0;
1123:main.c        ****                     dist_trav = 20;
1124:main.c        ****                     move_fixed_dist(dist_trav, flag_FR);
1125:main.c        ****                     CyDelay(500);
1126:main.c        ****                     if (initial == 0)
1127:main.c        ****                     {
1128:main.c        ****                         flag_CW = 1;    // cw
1129:main.c        ****                     }
1130:main.c        ****                     else
1131:main.c        ****                     {
1132:main.c        ****                         flag_CW = 0;    // ccw
1133:main.c        ****                     }
1134:main.c        ****                     CW(PT_TURN_COUNT, flag_CW); // turn CCW or CW facing puck landing zone
1135:main.c        ****                     */
1136:main.c        ****                     step++;
 3248              		.loc 1 1136 0
 3249 045a 0133     		adds	r3, r3, #1
 3250 045c 764A     		ldr	r2, .L239
 3251 045e 1364     		str	r3, [r2, #64]
 3252              	.L216:
1117:main.c        ****                 {
 3253              		.loc 1 1117 0
 3254 0460 754B     		ldr	r3, .L239
 3255 0462 1B6C     		ldr	r3, [r3, #64]
 3256 0464 0B2B     		cmp	r3, #11
 3257 0466 F8D0     		beq	.L217
1137:main.c        ****                 }
1138:main.c        ****                 CyDelay(500);
 3258              		.loc 1 1138 0
 3259 0468 4FF4FA70 		mov	r0, #500
 3260 046c FFF7FEFF 		bl	CyDelay
 3261              	.LVL466:
1139:main.c        ****                 while (step ==12)
 3262              		.loc 1 1139 0
 3263 0470 1FE0     		b	.L218
 3264              	.L219:
1140:main.c        ****                 {
1141:main.c        ****                     // put down
1142:main.c        ****                     PWM_BigServo_WriteCompare(down_big);
 3265              		.loc 1 1142 0
 3266 0472 714C     		ldr	r4, .L239
 3267 0474 B4F84400 		ldrh	r0, [r4, #68]
 3268 0478 FFF7FEFF 		bl	PWM_BigServo_WriteCompare
ARM GAS  C:\Users\weiro\AppData\Local\Temp\ccK6dLS7.s 			page 79


 3269              	.LVL467:
1143:main.c        ****                     CyDelay(1000);
 3270              		.loc 1 1143 0
 3271 047c 4FF47A70 		mov	r0, #1000
 3272 0480 FFF7FEFF 		bl	CyDelay
 3273              	.LVL468:
1144:main.c        ****                     PWM_SmallServo_WriteCompare(open_small);
 3274              		.loc 1 1144 0
 3275 0484 B4F85000 		ldrh	r0, [r4, #80]
 3276 0488 FFF7FEFF 		bl	PWM_SmallServo_WriteCompare
 3277              	.LVL469:
1145:main.c        ****                     CyDelay(500);
 3278              		.loc 1 1145 0
 3279 048c 4FF4FA70 		mov	r0, #500
 3280 0490 FFF7FEFF 		bl	CyDelay
 3281              	.LVL470:
1146:main.c        ****                     PWM_BigServo_WriteCompare(up_big);
 3282              		.loc 1 1146 0
 3283 0494 B4F84C00 		ldrh	r0, [r4, #76]
 3284 0498 FFF7FEFF 		bl	PWM_BigServo_WriteCompare
 3285              	.LVL471:
1147:main.c        ****                     CyDelay(500);
 3286              		.loc 1 1147 0
 3287 049c 4FF4FA70 		mov	r0, #500
 3288 04a0 FFF7FEFF 		bl	CyDelay
 3289              	.LVL472:
1148:main.c        ****                     PWM_SmallServo_WriteCompare(close_small);
 3290              		.loc 1 1148 0
 3291 04a4 B4F84800 		ldrh	r0, [r4, #72]
 3292 04a8 FFF7FEFF 		bl	PWM_SmallServo_WriteCompare
 3293              	.LVL473:
1149:main.c        ****                     step++;
 3294              		.loc 1 1149 0
 3295 04ac 236C     		ldr	r3, [r4, #64]
 3296 04ae 0133     		adds	r3, r3, #1
 3297 04b0 2364     		str	r3, [r4, #64]
 3298              	.L218:
1139:main.c        ****                 {
 3299              		.loc 1 1139 0
 3300 04b2 614B     		ldr	r3, .L239
 3301 04b4 1B6C     		ldr	r3, [r3, #64]
 3302 04b6 0C2B     		cmp	r3, #12
 3303 04b8 DBD0     		beq	.L219
1150:main.c        ****                 }
1151:main.c        ****                 CyDelay(500);
 3304              		.loc 1 1151 0
 3305 04ba 4FF4FA70 		mov	r0, #500
 3306 04be FFF7FEFF 		bl	CyDelay
 3307              	.LVL474:
1152:main.c        ****                 while (step == 13)
 3308              		.loc 1 1152 0
 3309 04c2 13E0     		b	.L220
 3310              	.L221:
 3311              	.LVL475:
1153:main.c        ****                 {
1154:main.c        ****                     flag_FR = 1;
1155:main.c        ****                     dist_trav = 20;
ARM GAS  C:\Users\weiro\AppData\Local\Temp\ccK6dLS7.s 			page 80


1156:main.c        ****                     move_fixed_dist(dist_trav, flag_FR);
 3312              		.loc 1 1156 0
 3313 04c4 0121     		movs	r1, #1
 3314 04c6 1420     		movs	r0, #20
 3315 04c8 FFF7FEFF 		bl	move_fixed_dist
 3316              	.LVL476:
1157:main.c        ****                     CyDelay(500);
 3317              		.loc 1 1157 0
 3318 04cc 4FF4FA70 		mov	r0, #500
 3319 04d0 FFF7FEFF 		bl	CyDelay
 3320              	.LVL477:
1158:main.c        ****                     PWM_BigServo_WriteCompare(down_big);
 3321              		.loc 1 1158 0
 3322 04d4 584C     		ldr	r4, .L239
 3323 04d6 B4F84400 		ldrh	r0, [r4, #68]
 3324 04da FFF7FEFF 		bl	PWM_BigServo_WriteCompare
 3325              	.LVL478:
1159:main.c        ****                     CyDelay(500);
 3326              		.loc 1 1159 0
 3327 04de 4FF4FA70 		mov	r0, #500
 3328 04e2 FFF7FEFF 		bl	CyDelay
 3329              	.LVL479:
1160:main.c        ****                     step++;
 3330              		.loc 1 1160 0
 3331 04e6 236C     		ldr	r3, [r4, #64]
 3332 04e8 0133     		adds	r3, r3, #1
 3333 04ea 2364     		str	r3, [r4, #64]
 3334              	.LVL480:
 3335              	.L220:
1152:main.c        ****                 {
 3336              		.loc 1 1152 0
 3337 04ec 524B     		ldr	r3, .L239
 3338 04ee 1B6C     		ldr	r3, [r3, #64]
 3339 04f0 0D2B     		cmp	r3, #13
 3340 04f2 E7D0     		beq	.L221
1161:main.c        ****                 }
1162:main.c        ****                 CyDelay(500);
 3341              		.loc 1 1162 0
 3342 04f4 4FF4FA70 		mov	r0, #500
 3343 04f8 FFF7FEFF 		bl	CyDelay
 3344              	.LVL481:
1163:main.c        ****                 while (step == 14)
 3345              		.loc 1 1163 0
 3346 04fc 13E0     		b	.L222
 3347              	.L223:
 3348              	.LVL482:
1164:main.c        ****                 {
1165:main.c        ****                     flag_FR = 0;
1166:main.c        ****                     dist_trav = 20;
1167:main.c        ****                     move_fixed_dist(dist_trav, flag_FR);
 3349              		.loc 1 1167 0
 3350 04fe 0021     		movs	r1, #0
 3351 0500 1420     		movs	r0, #20
 3352 0502 FFF7FEFF 		bl	move_fixed_dist
 3353              	.LVL483:
1168:main.c        ****                     CyDelay(500);
 3354              		.loc 1 1168 0
ARM GAS  C:\Users\weiro\AppData\Local\Temp\ccK6dLS7.s 			page 81


 3355 0506 4FF4FA70 		mov	r0, #500
 3356 050a FFF7FEFF 		bl	CyDelay
 3357              	.LVL484:
1169:main.c        ****                     PWM_BigServo_WriteCompare(up_big);
 3358              		.loc 1 1169 0
 3359 050e 4A4C     		ldr	r4, .L239
 3360 0510 B4F84C00 		ldrh	r0, [r4, #76]
 3361 0514 FFF7FEFF 		bl	PWM_BigServo_WriteCompare
 3362              	.LVL485:
1170:main.c        ****                     CyDelay(500);
 3363              		.loc 1 1170 0
 3364 0518 4FF4FA70 		mov	r0, #500
 3365 051c FFF7FEFF 		bl	CyDelay
 3366              	.LVL486:
1171:main.c        ****                     step++;
 3367              		.loc 1 1171 0
 3368 0520 236C     		ldr	r3, [r4, #64]
 3369 0522 0133     		adds	r3, r3, #1
 3370 0524 2364     		str	r3, [r4, #64]
 3371              	.LVL487:
 3372              	.L222:
1163:main.c        ****                 {
 3373              		.loc 1 1163 0
 3374 0526 444B     		ldr	r3, .L239
 3375 0528 1B6C     		ldr	r3, [r3, #64]
 3376 052a 0E2B     		cmp	r3, #14
 3377 052c E7D0     		beq	.L223
1172:main.c        ****                 }
1173:main.c        ****                 CyDelay(500);
 3378              		.loc 1 1173 0
 3379 052e 4FF4FA70 		mov	r0, #500
 3380 0532 FFF7FEFF 		bl	CyDelay
 3381              	.LVL488:
1174:main.c        ****                 while (step == 15)
 3382              		.loc 1 1174 0
 3383 0536 1EE0     		b	.L224
 3384              	.L226:
1175:main.c        ****                 {
1176:main.c        ****                     if (initial == 0)
 3385              		.loc 1 1176 0
 3386 0538 404B     		ldr	r3, .L239+4
 3387 053a D3F8A831 		ldr	r3, [r3, #424]
 3388 053e 0BB9     		cbnz	r3, .L234
1177:main.c        ****                     {
1178:main.c        ****                         flag_CW = 1;    // cw
 3389              		.loc 1 1178 0
 3390 0540 0124     		movs	r4, #1
 3391 0542 00E0     		b	.L225
 3392              	.L234:
1179:main.c        ****                     }
1180:main.c        ****                     else
1181:main.c        ****                     {
1182:main.c        ****                         flag_CW = 0;    // ccw
 3393              		.loc 1 1182 0
 3394 0544 0024     		movs	r4, #0
 3395              	.L225:
 3396              	.LVL489:
ARM GAS  C:\Users\weiro\AppData\Local\Temp\ccK6dLS7.s 			page 82


1183:main.c        ****                     }
1184:main.c        ****                     CW(PT_TURN_COUNT, flag_CW); // turn CCW or CW facing puck landing zone
 3397              		.loc 1 1184 0
 3398 0546 3E4B     		ldr	r3, .L239+8
 3399 0548 D3E90001 		ldrd	r0, [r3]
 3400 054c FFF7FEFF 		bl	__aeabi_d2iz
 3401              	.LVL490:
 3402 0550 2146     		mov	r1, r4
 3403 0552 FFF7FEFF 		bl	CW
 3404              	.LVL491:
1185:main.c        ****                     CyDelay(500);
 3405              		.loc 1 1185 0
 3406 0556 4FF4FA70 		mov	r0, #500
 3407 055a FFF7FEFF 		bl	CyDelay
 3408              	.LVL492:
1186:main.c        ****                     flag_FR = 1;
1187:main.c        ****                     dist_trav = 50;
1188:main.c        ****                     move_fixed_dist(dist_trav, flag_FR);
 3409              		.loc 1 1188 0
 3410 055e 0121     		movs	r1, #1
 3411 0560 3220     		movs	r0, #50
 3412 0562 FFF7FEFF 		bl	move_fixed_dist
 3413              	.LVL493:
1189:main.c        ****                     CyDelay(500);
 3414              		.loc 1 1189 0
 3415 0566 4FF4FA70 		mov	r0, #500
 3416 056a FFF7FEFF 		bl	CyDelay
 3417              	.LVL494:
1190:main.c        ****                     step++;
 3418              		.loc 1 1190 0
 3419 056e 324A     		ldr	r2, .L239
 3420 0570 136C     		ldr	r3, [r2, #64]
 3421 0572 0133     		adds	r3, r3, #1
 3422 0574 1364     		str	r3, [r2, #64]
 3423              	.LVL495:
 3424              	.L224:
1174:main.c        ****                 {
 3425              		.loc 1 1174 0
 3426 0576 304B     		ldr	r3, .L239
 3427 0578 1B6C     		ldr	r3, [r3, #64]
 3428 057a 0F2B     		cmp	r3, #15
 3429 057c DCD0     		beq	.L226
1191:main.c        ****                 }
1192:main.c        ****                 CyDelay(500);
 3430              		.loc 1 1192 0
 3431 057e 4FF4FA70 		mov	r0, #500
 3432 0582 FFF7FEFF 		bl	CyDelay
 3433              	.LVL496:
1193:main.c        ****                 while (step == 16)
 3434              		.loc 1 1193 0
 3435 0586 1EE0     		b	.L227
 3436              	.L229:
1194:main.c        ****                 {
1195:main.c        ****                     if (initial == 0)
 3437              		.loc 1 1195 0
 3438 0588 2C4B     		ldr	r3, .L239+4
 3439 058a D3F8A831 		ldr	r3, [r3, #424]
ARM GAS  C:\Users\weiro\AppData\Local\Temp\ccK6dLS7.s 			page 83


 3440 058e 0BB9     		cbnz	r3, .L235
1196:main.c        ****                     {
1197:main.c        ****                         flag_CW = 1;    // cw
 3441              		.loc 1 1197 0
 3442 0590 0124     		movs	r4, #1
 3443 0592 00E0     		b	.L228
 3444              	.L235:
1198:main.c        ****                     }
1199:main.c        ****                     else
1200:main.c        ****                     {
1201:main.c        ****                         flag_CW = 0;    // ccw
 3445              		.loc 1 1201 0
 3446 0594 0024     		movs	r4, #0
 3447              	.L228:
 3448              	.LVL497:
1202:main.c        ****                     }
1203:main.c        ****                     CW(PT_TURN_COUNT, flag_CW); // turn CCW or CW facing puck landing zone
 3449              		.loc 1 1203 0
 3450 0596 2A4B     		ldr	r3, .L239+8
 3451 0598 D3E90001 		ldrd	r0, [r3]
 3452 059c FFF7FEFF 		bl	__aeabi_d2iz
 3453              	.LVL498:
 3454 05a0 2146     		mov	r1, r4
 3455 05a2 FFF7FEFF 		bl	CW
 3456              	.LVL499:
1204:main.c        ****                     CyDelay(500);
 3457              		.loc 1 1204 0
 3458 05a6 4FF4FA70 		mov	r0, #500
 3459 05aa FFF7FEFF 		bl	CyDelay
 3460              	.LVL500:
1205:main.c        ****                     flag_FR = 1;
1206:main.c        ****                     dist_trav = 50;
1207:main.c        ****                     move_fixed_dist(dist_trav, flag_FR);
 3461              		.loc 1 1207 0
 3462 05ae 0121     		movs	r1, #1
 3463 05b0 3220     		movs	r0, #50
 3464 05b2 FFF7FEFF 		bl	move_fixed_dist
 3465              	.LVL501:
1208:main.c        ****                     CyDelay(500);
 3466              		.loc 1 1208 0
 3467 05b6 4FF4FA70 		mov	r0, #500
 3468 05ba FFF7FEFF 		bl	CyDelay
 3469              	.LVL502:
1209:main.c        ****                     step ++;
 3470              		.loc 1 1209 0
 3471 05be 1E4A     		ldr	r2, .L239
 3472 05c0 136C     		ldr	r3, [r2, #64]
 3473 05c2 0133     		adds	r3, r3, #1
 3474 05c4 1364     		str	r3, [r2, #64]
 3475              	.LVL503:
 3476              	.L227:
1193:main.c        ****                 {
 3477              		.loc 1 1193 0
 3478 05c6 1C4B     		ldr	r3, .L239
 3479 05c8 1B6C     		ldr	r3, [r3, #64]
 3480 05ca 102B     		cmp	r3, #16
 3481 05cc DCD0     		beq	.L229
ARM GAS  C:\Users\weiro\AppData\Local\Temp\ccK6dLS7.s 			page 84


 3482 05ce 2CE0     		b	.L188
 3483              	.L189:
1210:main.c        ****                 }
1211:main.c        ****                 
1212:main.c        ****                 // go home
1213:main.c        ****             }
1214:main.c        ****             else // task info
1215:main.c        ****             {
1216:main.c        ****                 tokenPtr = strtok(string_bt, " ");
 3484              		.loc 1 1216 0
 3485 05d0 1C49     		ldr	r1, .L239+12
 3486 05d2 1D48     		ldr	r0, .L239+16
 3487 05d4 FFF7FEFF 		bl	strtok
 3488              	.LVL504:
 3489 05d8 1C4B     		ldr	r3, .L239+20
 3490 05da 1860     		str	r0, [r3]
1217:main.c        ****                 while (tokenPtr != NULL)
 3491              		.loc 1 1217 0
 3492 05dc 12E0     		b	.L230
 3493              	.L231:
1218:main.c        ****                 {
1219:main.c        ****                     strcpy(task_info[j], tokenPtr);
 3494              		.loc 1 1219 0
 3495 05de 174D     		ldr	r5, .L239+4
 3496 05e0 D5F8AC41 		ldr	r4, [r5, #428]
 3497 05e4 04EB8402 		add	r2, r4, r4, lsl #2
 3498 05e8 9300     		lsls	r3, r2, #2
 3499 05ea 1948     		ldr	r0, .L239+24
 3500 05ec 1844     		add	r0, r0, r3
 3501 05ee FFF7FEFF 		bl	strcpy
 3502              	.LVL505:
1220:main.c        ****                     j++;
 3503              		.loc 1 1220 0
 3504 05f2 0134     		adds	r4, r4, #1
 3505 05f4 C5F8AC41 		str	r4, [r5, #428]
1221:main.c        ****                     tokenPtr = strtok(NULL, " ");
 3506              		.loc 1 1221 0
 3507 05f8 1249     		ldr	r1, .L239+12
 3508 05fa 0020     		movs	r0, #0
 3509 05fc FFF7FEFF 		bl	strtok
 3510              	.LVL506:
 3511 0600 124B     		ldr	r3, .L239+20
 3512 0602 1860     		str	r0, [r3]
 3513              	.L230:
1217:main.c        ****                 {
 3514              		.loc 1 1217 0
 3515 0604 114B     		ldr	r3, .L239+20
 3516 0606 1968     		ldr	r1, [r3]
 3517 0608 0029     		cmp	r1, #0
 3518 060a E8D1     		bne	.L231
1222:main.c        ****                 }
1223:main.c        ****                 UART_1_PutString(task_info[0]);
 3519              		.loc 1 1223 0
 3520 060c 104C     		ldr	r4, .L239+24
 3521 060e 2046     		mov	r0, r4
 3522 0610 FFF7FEFF 		bl	UART_1_PutString
 3523              	.LVL507:
ARM GAS  C:\Users\weiro\AppData\Local\Temp\ccK6dLS7.s 			page 85


1224:main.c        ****                 UART_1_PutString(task_info[1]);
 3524              		.loc 1 1224 0
 3525 0614 04F11400 		add	r0, r4, #20
 3526 0618 FFF7FEFF 		bl	UART_1_PutString
 3527              	.LVL508:
1225:main.c        ****                 UART_1_PutString(task_info[2]);
 3528              		.loc 1 1225 0
 3529 061c 04F12800 		add	r0, r4, #40
 3530 0620 FFF7FEFF 		bl	UART_1_PutString
 3531              	.LVL509:
1226:main.c        ****                 UART_1_PutString("Received  \n");
 3532              		.loc 1 1226 0
 3533 0624 0B48     		ldr	r0, .L239+28
 3534 0626 FFF7FEFF 		bl	UART_1_PutString
 3535              	.LVL510:
 3536              	.L188:
1227:main.c        ****             }
1228:main.c        ****             i = 0;
 3537              		.loc 1 1228 0
 3538 062a 044B     		ldr	r3, .L239+4
 3539 062c 0022     		movs	r2, #0
 3540 062e 9A64     		str	r2, [r3, #72]
1229:main.c        ****             j = 0;
 3541              		.loc 1 1229 0
 3542 0630 C3F8AC21 		str	r2, [r3, #428]
1230:main.c        ****             stop_bt = 0;
 3543              		.loc 1 1230 0
 3544 0634 DA64     		str	r2, [r3, #76]
 3545 0636 61E5     		b	.L186
 3546              	.L240:
 3547              		.align	2
 3548              	.L239:
 3549 0638 00000000 		.word	.LANCHOR1
 3550 063c 00000000 		.word	.LANCHOR0
 3551 0640 A0010000 		.word	.LANCHOR0+416
 3552 0644 B4000000 		.word	.LC13
 3553 0648 00000000 		.word	string_bt
 3554 064c 00000000 		.word	tokenPtr
 3555 0650 00000000 		.word	task_info
 3556 0654 B8000000 		.word	.LC14
 3557              		.cfi_endproc
 3558              	.LFE86:
 3559              		.size	main, .-main
 3560              		.global	threshold
 3561              		.global	error_gyro_avg
 3562              		.global	error_gyro
 3563              		.global	count
 3564              		.global	cal
 3565              		.global	string_gyro
 3566              		.global	cycles
 3567              		.global	heading
 3568              		.global	current_reading
 3569              		.global	previous_reading
 3570              		.global	yaw_angle
 3571              		.global	yaw_rate
 3572              		.global	temp
 3573              		.global	array_1
ARM GAS  C:\Users\weiro\AppData\Local\Temp\ccK6dLS7.s 			page 86


 3574              		.global	j
 3575              		.comm	task_info,60,4
 3576              		.comm	tokenPtr,4,4
 3577              		.global	stop_bt
 3578              		.comm	string_bt,200,4
 3579              		.global	i
 3580              		.comm	Rx,1,1
 3581              		.global	close_small
 3582              		.global	open_small
 3583              		.global	up_big
 3584              		.global	down_big
 3585              		.global	slit_detected
 3586              		.global	wall_detected_10
 3587              		.global	color_detected
 3588              		.global	compare_ready
 3589              		.global	step
 3590              		.global	direction
 3591              		.global	y_coord
 3592              		.global	x_coord
 3593              		.global	echo_select
 3594              		.global	left_measured
 3595              		.comm	right_measured,8,8
 3596              		.comm	front_measured_2,8,8
 3597              		.comm	front_measured_1,8,8
 3598              		.global	ultrasonic_measure
 3599              		.global	ultrasonic_count
 3600              		.global	is_moving
 3601              		.global	PWM_Slave_puck
 3602              		.global	PWM_Master_puck
 3603              		.global	PWM_Slave
 3604              		.global	PWM_Cal
 3605              		.global	PWM_Master
 3606              		.global	K_d
 3607              		.global	K_i
 3608              		.global	K_p
 3609              		.global	timer_period
 3610              		.global	derivative_error
 3611              		.global	last_error
 3612              		.global	accumulated_error
 3613              		.global	error
 3614              		.comm	string_3,200,4
 3615              		.comm	string_2,200,4
 3616              		.comm	string_1,200,4
 3617              		.global	Count_Slave
 3618              		.global	Count_Master
 3619              		.global	PT_TURN_COUNT
 3620              		.global	DISTANCE_PT_TURN
 3621              		.global	DISTANCE_BETW_WHEEL
 3622              		.global	CM_COUNT_CONV
 3623              		.global	COUNT_WHEEL
 3624              		.global	CS_count_Green
 3625              		.global	CS_count_Blue
 3626              		.global	CS_count_Red
 3627              		.global	WHEEL_CIRCUMFERENCE
 3628              		.global	WHEEL_DIAMETER
 3629              		.global	initial
 3630              		.data
ARM GAS  C:\Users\weiro\AppData\Local\Temp\ccK6dLS7.s 			page 87


 3631              		.align	3
 3632              		.set	.LANCHOR1,. + 0
 3633              		.type	K_p, %object
 3634              		.size	K_p, 8
 3635              	K_p:
 3636 0000 00000000 		.word	0
 3637 0004 00001440 		.word	1075052544
 3638              		.type	PWM_Master, %object
 3639              		.size	PWM_Master, 4
 3640              	PWM_Master:
 3641 0008 00409C46 		.word	1184645120
 3642              		.type	PWM_Slave, %object
 3643              		.size	PWM_Slave, 4
 3644              	PWM_Slave:
 3645 000c 00409C46 		.word	1184645120
 3646              		.type	cal, %object
 3647              		.size	cal, 4
 3648              	cal:
 3649 0010 01000000 		.word	1
 3650 0014 00000000 		.space	4
 3651              		.type	threshold, %object
 3652              		.size	threshold, 8
 3653              	threshold:
 3654 0018 9A999999 		.word	-1717986918
 3655 001c 9999B93F 		.word	1069128089
 3656              		.type	WHEEL_DIAMETER, %object
 3657              		.size	WHEEL_DIAMETER, 8
 3658              	WHEEL_DIAMETER:
 3659 0020 9A999999 		.word	-1717986918
 3660 0024 99991540 		.word	1075157401
 3661              		.type	PWM_Cal, %object
 3662              		.size	PWM_Cal, 4
 3663              	PWM_Cal:
 3664 0028 00401C46 		.word	1176256512
 3665 002c 00000000 		.space	4
 3666              		.type	DISTANCE_BETW_WHEEL, %object
 3667              		.size	DISTANCE_BETW_WHEEL, 8
 3668              	DISTANCE_BETW_WHEEL:
 3669 0030 CDCCCCCC 		.word	-858993459
 3670 0034 CC4C3640 		.word	1077300428
 3671              		.type	COUNT_WHEEL, %object
 3672              		.size	COUNT_WHEEL, 8
 3673              	COUNT_WHEEL:
 3674 0038 00000000 		.word	0
 3675 003c 00A6AC40 		.word	1085056512
 3676              		.type	step, %object
 3677              		.size	step, 4
 3678              	step:
 3679 0040 FFFFFFFF 		.word	-1
 3680              		.type	down_big, %object
 3681              		.size	down_big, 4
 3682              	down_big:
 3683 0044 67020000 		.word	615
 3684              		.type	close_small, %object
 3685              		.size	close_small, 4
 3686              	close_small:
 3687 0048 AC030000 		.word	940
ARM GAS  C:\Users\weiro\AppData\Local\Temp\ccK6dLS7.s 			page 88


 3688              		.type	up_big, %object
 3689              		.size	up_big, 4
 3690              	up_big:
 3691 004c 0D020000 		.word	525
 3692              		.type	open_small, %object
 3693              		.size	open_small, 4
 3694              	open_small:
 3695 0050 D4030000 		.word	980
 3696              		.type	PWM_Slave_puck, %object
 3697              		.size	PWM_Slave_puck, 4
 3698              	PWM_Slave_puck:
 3699 0054 00409C45 		.word	1167867904
 3700              		.type	PWM_Master_puck, %object
 3701              		.size	PWM_Master_puck, 4
 3702              	PWM_Master_puck:
 3703 0058 00409C45 		.word	1167867904
 3704 005c 00000000 		.space	4
 3705              		.type	timer_period, %object
 3706              		.size	timer_period, 8
 3707              	timer_period:
 3708 0060 00000000 		.word	0
 3709 0064 00001440 		.word	1075052544
 3710              		.section	.rodata.str1.4,"aMS",%progbits,1
 3711              		.align	2
 3712              	.LC0:
 3713 0000 46726F6E 		.ascii	"Front dist 1: %lf\012\000"
 3713      74206469 
 3713      73742031 
 3713      3A20256C 
 3713      660A00
 3714 0013 00       		.space	1
 3715              	.LC1:
 3716 0014 43616C69 		.ascii	"Calibrating\012\000"
 3716      62726174 
 3716      696E670A 
 3716      00
 3717 0021 000000   		.space	3
 3718              	.LC2:
 3719 0024 48656164 		.ascii	"Heading: %lf\012\000"
 3719      696E673A 
 3719      20256C66 
 3719      0A00
 3720 0032 0000     		.space	2
 3721              	.LC3:
 3722 0034 6D6F7669 		.ascii	"moving to slit\000"
 3722      6E672074 
 3722      6F20736C 
 3722      697400
 3723 0043 00       		.space	1
 3724              	.LC4:
 3725 0044 7265643A 		.ascii	"red: %d\012\000"
 3725      2025640A 
 3725      00
 3726 004d 000000   		.space	3
 3727              	.LC5:
 3728 0050 67726565 		.ascii	"green: %d\012\000"
 3728      6E3A2025 
ARM GAS  C:\Users\weiro\AppData\Local\Temp\ccK6dLS7.s 			page 89


 3728      640A00
 3729 005b 00       		.space	1
 3730              	.LC6:
 3731 005c 626C7565 		.ascii	"blue: %d\012\000"
 3731      3A202564 
 3731      0A00
 3732 0066 0000     		.space	2
 3733              	.LC7:
 3734 0068 766F6C74 		.ascii	"volt(V): %lf\012\000"
 3734      2856293A 
 3734      20256C66 
 3734      0A00
 3735 0076 0000     		.space	2
 3736              	.LC8:
 3737 0078 64697374 		.ascii	"dist(cm): %lf\012\000"
 3737      28636D29 
 3737      3A20256C 
 3737      660A00
 3738 0087 00       		.space	1
 3739              	.LC9:
 3740 0088 41726520 		.ascii	"Are you ready?\000"
 3740      796F7520 
 3740      72656164 
 3740      793F00
 3741 0097 00       		.space	1
 3742              	.LC10:
 3743 0098 52656164 		.ascii	"Ready  \012\000"
 3743      7920200A 
 3743      00
 3744 00a1 000000   		.space	3
 3745              	.LC11:
 3746 00a4 53746172 		.ascii	"Start\000"
 3746      7400
 3747 00aa 0000     		.space	2
 3748              	.LC12:
 3749 00ac 73746570 		.ascii	"step 2\000"
 3749      203200
 3750 00b3 00       		.space	1
 3751              	.LC13:
 3752 00b4 2000     		.ascii	" \000"
 3753 00b6 0000     		.space	2
 3754              	.LC14:
 3755 00b8 52656365 		.ascii	"Received  \012\000"
 3755      69766564 
 3755      20200A00 
 3756              		.bss
 3757              		.align	3
 3758              		.set	.LANCHOR0,. + 0
 3759              		.type	is_moving, %object
 3760              		.size	is_moving, 4
 3761              	is_moving:
 3762 0000 00000000 		.space	4
 3763              		.type	Count_Master, %object
 3764              		.size	Count_Master, 4
 3765              	Count_Master:
 3766 0004 00000000 		.space	4
 3767              		.type	Count_Slave, %object
ARM GAS  C:\Users\weiro\AppData\Local\Temp\ccK6dLS7.s 			page 90


 3768              		.size	Count_Slave, 4
 3769              	Count_Slave:
 3770 0008 00000000 		.space	4
 3771 000c 00000000 		.space	4
 3772              		.type	error, %object
 3773              		.size	error, 8
 3774              	error:
 3775 0010 00000000 		.space	8
 3775      00000000 
 3776              		.type	last_error, %object
 3777              		.size	last_error, 8
 3778              	last_error:
 3779 0018 00000000 		.space	8
 3779      00000000 
 3780              		.type	ultrasonic_count, %object
 3781              		.size	ultrasonic_count, 4
 3782              	ultrasonic_count:
 3783 0020 00000000 		.space	4
 3784 0024 00000000 		.space	4
 3785              		.type	ultrasonic_measure, %object
 3786              		.size	ultrasonic_measure, 8
 3787              	ultrasonic_measure:
 3788 0028 00000000 		.space	8
 3788      00000000 
 3789              		.type	echo_select, %object
 3790              		.size	echo_select, 4
 3791              	echo_select:
 3792 0030 00000000 		.space	4
 3793 0034 00000000 		.space	4
 3794              		.type	left_measured, %object
 3795              		.size	left_measured, 8
 3796              	left_measured:
 3797 0038 00000000 		.space	8
 3797      00000000 
 3798              		.type	wall_detected_10, %object
 3799              		.size	wall_detected_10, 4
 3800              	wall_detected_10:
 3801 0040 00000000 		.space	4
 3802              		.type	compare_ready, %object
 3803              		.size	compare_ready, 4
 3804              	compare_ready:
 3805 0044 00000000 		.space	4
 3806              		.type	i, %object
 3807              		.size	i, 4
 3808              	i:
 3809 0048 00000000 		.space	4
 3810              		.type	stop_bt, %object
 3811              		.size	stop_bt, 4
 3812              	stop_bt:
 3813 004c 00000000 		.space	4
 3814              		.type	array_1, %object
 3815              		.size	array_1, 6
 3816              	array_1:
 3817 0050 00000000 		.space	6
 3817      0000
 3818              		.type	temp, %object
 3819              		.size	temp, 2
ARM GAS  C:\Users\weiro\AppData\Local\Temp\ccK6dLS7.s 			page 91


 3820              	temp:
 3821 0056 0000     		.space	2
 3822              		.type	count, %object
 3823              		.size	count, 4
 3824              	count:
 3825 0058 00000000 		.space	4
 3826              		.type	error_gyro, %object
 3827              		.size	error_gyro, 2
 3828              	error_gyro:
 3829 005c 0000     		.space	2
 3830              		.type	error_gyro_avg, %object
 3831              		.size	error_gyro_avg, 2
 3832              	error_gyro_avg:
 3833 005e 0000     		.space	2
 3834              		.type	yaw_rate, %object
 3835              		.size	yaw_rate, 8
 3836              	yaw_rate:
 3837 0060 00000000 		.space	8
 3837      00000000 
 3838              		.type	current_reading, %object
 3839              		.size	current_reading, 8
 3840              	current_reading:
 3841 0068 00000000 		.space	8
 3841      00000000 
 3842              		.type	previous_reading, %object
 3843              		.size	previous_reading, 8
 3844              	previous_reading:
 3845 0070 00000000 		.space	8
 3845      00000000 
 3846              		.type	yaw_angle, %object
 3847              		.size	yaw_angle, 8
 3848              	yaw_angle:
 3849 0078 00000000 		.space	8
 3849      00000000 
 3850              		.type	cycles, %object
 3851              		.size	cycles, 4
 3852              	cycles:
 3853 0080 00000000 		.space	4
 3854 0084 00000000 		.space	4
 3855              		.type	heading, %object
 3856              		.size	heading, 8
 3857              	heading:
 3858 0088 00000000 		.space	8
 3858      00000000 
 3859              		.type	string_gyro, %object
 3860              		.size	string_gyro, 200
 3861              	string_gyro:
 3862 0090 00000000 		.space	200
 3862      00000000 
 3862      00000000 
 3862      00000000 
 3862      00000000 
 3863              		.type	CM_COUNT_CONV, %object
 3864              		.size	CM_COUNT_CONV, 8
 3865              	CM_COUNT_CONV:
 3866 0158 00000000 		.space	8
 3866      00000000 
ARM GAS  C:\Users\weiro\AppData\Local\Temp\ccK6dLS7.s 			page 92


 3867              		.type	direction, %object
 3868              		.size	direction, 4
 3869              	direction:
 3870 0160 00000000 		.space	4
 3871 0164 00000000 		.space	4
 3872              		.type	y_coord, %object
 3873              		.size	y_coord, 8
 3874              	y_coord:
 3875 0168 00000000 		.space	8
 3875      00000000 
 3876              		.type	x_coord, %object
 3877              		.size	x_coord, 8
 3878              	x_coord:
 3879 0170 00000000 		.space	8
 3879      00000000 
 3880              		.type	slit_detected, %object
 3881              		.size	slit_detected, 4
 3882              	slit_detected:
 3883 0178 00000000 		.space	4
 3884              		.type	CS_count_Red, %object
 3885              		.size	CS_count_Red, 4
 3886              	CS_count_Red:
 3887 017c 00000000 		.space	4
 3888              		.type	CS_count_Green, %object
 3889              		.size	CS_count_Green, 4
 3890              	CS_count_Green:
 3891 0180 00000000 		.space	4
 3892              		.type	CS_count_Blue, %object
 3893              		.size	CS_count_Blue, 4
 3894              	CS_count_Blue:
 3895 0184 00000000 		.space	4
 3896              		.type	color_detected, %object
 3897              		.size	color_detected, 4
 3898              	color_detected:
 3899 0188 00000000 		.space	4
 3900 018c 00000000 		.space	4
 3901              		.type	WHEEL_CIRCUMFERENCE, %object
 3902              		.size	WHEEL_CIRCUMFERENCE, 8
 3903              	WHEEL_CIRCUMFERENCE:
 3904 0190 00000000 		.space	8
 3904      00000000 
 3905              		.type	DISTANCE_PT_TURN, %object
 3906              		.size	DISTANCE_PT_TURN, 8
 3907              	DISTANCE_PT_TURN:
 3908 0198 00000000 		.space	8
 3908      00000000 
 3909              		.type	PT_TURN_COUNT, %object
 3910              		.size	PT_TURN_COUNT, 8
 3911              	PT_TURN_COUNT:
 3912 01a0 00000000 		.space	8
 3912      00000000 
 3913              		.type	initial, %object
 3914              		.size	initial, 4
 3915              	initial:
 3916 01a8 00000000 		.space	4
 3917              		.type	j, %object
 3918              		.size	j, 4
ARM GAS  C:\Users\weiro\AppData\Local\Temp\ccK6dLS7.s 			page 93


 3919              	j:
 3920 01ac 00000000 		.space	4
 3921              		.type	K_d, %object
 3922              		.size	K_d, 8
 3923              	K_d:
 3924 01b0 00000000 		.space	8
 3924      00000000 
 3925              		.type	K_i, %object
 3926              		.size	K_i, 8
 3927              	K_i:
 3928 01b8 00000000 		.space	8
 3928      00000000 
 3929              		.type	derivative_error, %object
 3930              		.size	derivative_error, 8
 3931              	derivative_error:
 3932 01c0 00000000 		.space	8
 3932      00000000 
 3933              		.type	accumulated_error, %object
 3934              		.size	accumulated_error, 8
 3935              	accumulated_error:
 3936 01c8 00000000 		.space	8
 3936      00000000 
 3937              		.text
 3938              	.Letext0:
 3939              		.file 2 "c:\\program files (x86)\\cypress\\psoc creator\\4.4\\psoc creator\\import\\gnu\\arm\\5.4.
 3940              		.file 3 "c:\\program files (x86)\\cypress\\psoc creator\\4.4\\psoc creator\\import\\gnu\\arm\\5.4.
 3941              		.file 4 "Generated_Source\\PSoC5/cytypes.h"
 3942              		.file 5 "Generated_Source\\PSoC5/core_cm3.h"
 3943              		.file 6 "Generated_Source\\PSoC5/PWM_Wheels.h"
 3944              		.file 7 "Generated_Source\\PSoC5/Timer_3.h"
 3945              		.file 8 "c:\\program files (x86)\\cypress\\psoc creator\\4.4\\psoc creator\\import\\gnu\\arm\\5.4.
 3946              		.file 9 "Generated_Source\\PSoC5/PWM_ColorSensor.h"
 3947              		.file 10 "Generated_Source\\PSoC5/UART_1.h"
 3948              		.file 11 "Generated_Source\\PSoC5/Timer_2.h"
 3949              		.file 12 "Generated_Source\\PSoC5/I2C_1.h"
 3950              		.file 13 "Generated_Source\\PSoC5/CyLib.h"
 3951              		.file 14 "Generated_Source\\PSoC5/Motor_1_IN_1.h"
 3952              		.file 15 "Generated_Source\\PSoC5/Motor_1_IN_2.h"
 3953              		.file 16 "Generated_Source\\PSoC5/Motor_2_IN_3.h"
 3954              		.file 17 "Generated_Source\\PSoC5/Motor_2_IN_4.h"
 3955              		.file 18 "Generated_Source\\PSoC5/QuadDec_1.h"
 3956              		.file 19 "Generated_Source\\PSoC5/QuadDec_2.h"
 3957              		.file 20 "Generated_Source\\PSoC5/Control_Reg_2.h"
 3958              		.file 21 "Generated_Source\\PSoC5/Trigger.h"
 3959              		.file 22 "Generated_Source\\PSoC5/Front_Echo_1.h"
 3960              		.file 23 "Generated_Source\\PSoC5/Left_Echo.h"
 3961              		.file 24 "Generated_Source\\PSoC5/IR_input.h"
 3962              		.file 25 "Generated_Source\\PSoC5/S0.h"
 3963              		.file 26 "Generated_Source\\PSoC5/S1.h"
 3964              		.file 27 "Generated_Source\\PSoC5/CS_LED.h"
 3965              		.file 28 "Generated_Source\\PSoC5/Counter_ColorSensor.h"
 3966              		.file 29 "Generated_Source\\PSoC5/S2.h"
 3967              		.file 30 "Generated_Source\\PSoC5/S3.h"
 3968              		.file 31 "Generated_Source\\PSoC5/Control_Reg_1.h"
 3969              		.file 32 "Generated_Source\\PSoC5/led_red.h"
 3970              		.file 33 "Generated_Source\\PSoC5/led_green.h"
 3971              		.file 34 "Generated_Source\\PSoC5/led_blue.h"
ARM GAS  C:\Users\weiro\AppData\Local\Temp\ccK6dLS7.s 			page 94


 3972              		.file 35 "Generated_Source\\PSoC5/Flicker.h"
 3973              		.file 36 "Generated_Source\\PSoC5/ADC_SAR_1.h"
 3974              		.file 37 "Generated_Source\\PSoC5/isr_1.h"
 3975              		.file 38 "Generated_Source\\PSoC5/isr_6.h"
 3976              		.file 39 "Generated_Source\\PSoC5/Timer_1.h"
 3977              		.file 40 "Generated_Source\\PSoC5/isr_3.h"
 3978              		.file 41 "Generated_Source\\PSoC5/isr_7.h"
 3979              		.file 42 "Generated_Source\\PSoC5/PWM_SmallServo.h"
 3980              		.file 43 "Generated_Source\\PSoC5/PWM_BigServo.h"
 3981              		.file 44 "Generated_Source\\PSoC5/isr_2.h"
 3982              		.file 45 "c:\\program files (x86)\\cypress\\psoc creator\\4.4\\psoc creator\\import\\gnu\\arm\\5.4
 3983              		.file 46 "c:\\program files (x86)\\cypress\\psoc creator\\4.4\\psoc creator\\import\\gnu\\arm\\5.4