ARM GAS  C:\Users\weiro\AppData\Local\Temp\ccK6dLS7.s 			page 1


   1              		.syntax unified
   2              		.cpu cortex-m3
   3              		.fpu softvfp
   4              		.eabi_attribute 20, 1
   5              		.eabi_attribute 21, 1
   6              		.eabi_attribute 23, 3
   7              		.eabi_attribute 24, 1
   8              		.eabi_attribute 25, 1
   9              		.eabi_attribute 26, 1
  10              		.eabi_attribute 30, 1
  11              		.eabi_attribute 34, 1
  12              		.eabi_attribute 18, 4
  13              		.thumb
  14              		.syntax unified
  15              		.file	"main.c"
  16              		.text
  17              	.Ltext0:
  18              		.cfi_sections	.debug_frame
  19              		.global	__aeabi_i2d
  20              		.global	__aeabi_dmul
  21              		.global	__aeabi_f2d
  22              		.global	__aeabi_dadd
  23              		.global	__aeabi_d2f
  24              		.global	__aeabi_f2uiz
  25              		.section	.text.Speed_Control,"ax",%progbits
  26              		.align	2
  27              		.global	Speed_Control
  28              		.thumb
  29              		.thumb_func
  30              		.type	Speed_Control, %function
  31              	Speed_Control:
  32              	.LFB64:
  33              		.file 1 "main.c"
   1:main.c        **** /* ========================================
   2:main.c        ****  *
   3:main.c        ****  * Copyright YOUR COMPANY, THE YEAR
   4:main.c        ****  * All Rights Reserved
   5:main.c        ****  * UNPUBLISHED, LICENSED SOFTWARE.
   6:main.c        ****  *
   7:main.c        ****  * CONFIDENTIAL AND PROPRIETARY INFORMATION
   8:main.c        ****  * WHICH IS THE PROPERTY OF your company.
   9:main.c        ****  *
  10:main.c        ****  * ========================================
  11:main.c        **** */
  12:main.c        **** // ECE4191 Group 3
  13:main.c        **** 
  14:main.c        **** #include "project.h"
  15:main.c        **** #include <stdio.h>
  16:main.c        **** #include <stdlib.h>
  17:main.c        **** #include <math.h> 
  18:main.c        **** #include <string.h>
  19:main.c        **** #define MPU6050 0x68
  20:main.c        **** 
  21:main.c        **** int initial = 0; /// 0 --> initial position at left side, 1 --> inital position at right side
  22:main.c        **** double WHEEL_DIAMETER = 5.4; //cm
  23:main.c        **** double WHEEL_CIRCUMFERENCE = 0;
  24:main.c        **** int CS_count_Red = 0;
ARM GAS  C:\Users\weiro\AppData\Local\Temp\ccK6dLS7.s 			page 2


  25:main.c        **** int CS_count_Blue = 0;
  26:main.c        **** int CS_count_Green = 0;
  27:main.c        **** double COUNT_WHEEL = 3667; // Count per rotation
  28:main.c        **** double CM_COUNT_CONV = 0;
  29:main.c        **** double DISTANCE_BETW_WHEEL = 22.30;
  30:main.c        **** double DISTANCE_PT_TURN = 0;
  31:main.c        **** double PT_TURN_COUNT = 0;
  32:main.c        **** int Count_Master = 0;
  33:main.c        **** int Count_Slave = 0;
  34:main.c        **** char string_1[200];
  35:main.c        **** char string_2[200];
  36:main.c        **** char string_3[200];
  37:main.c        **** double error = 0;
  38:main.c        **** double accumulated_error = 0;
  39:main.c        **** double last_error = 0;
  40:main.c        **** double derivative_error = 0;
  41:main.c        **** double timer_period = 5;
  42:main.c        **** double K_p = 5;
  43:main.c        **** double K_i = 0;
  44:main.c        **** double K_d = 0;
  45:main.c        **** float PWM_Master = 20000;
  46:main.c        **** float PWM_Cal = 10000;
  47:main.c        **** 
  48:main.c        **** float PWM_Slave = 20000;
  49:main.c        **** float PWM_Master_puck = 5000;
  50:main.c        **** float PWM_Slave_puck = 5000;
  51:main.c        **** int is_moving = 0;
  52:main.c        **** int ultrasonic_count = 0;
  53:main.c        **** double ultrasonic_measure = 0;
  54:main.c        **** double front_measured_1, front_measured_2, right_measured, left_measured = 0;
  55:main.c        **** int echo_select = 0;
  56:main.c        **** double x_coord = 0;
  57:main.c        **** double y_coord = 0;
  58:main.c        **** int direction = 0; // 0(front[0]), 1(right[90]),  2(back[180]),  3(left[270])
  59:main.c        **** int step = -1;
  60:main.c        **** int compare_ready = 0;
  61:main.c        **** int color_detected = 0; // 1-red, 2-green, 3-blue
  62:main.c        **** int wall_detected_10 = 0;
  63:main.c        **** int slit_detected = 0;
  64:main.c        **** int down_big = 615;
  65:main.c        **** int up_big = 525;
  66:main.c        **** int open_small = 980;
  67:main.c        **** int close_small  = 940;
  68:main.c        **** // bluetooth
  69:main.c        **** char Rx;
  70:main.c        **** int i = 0;
  71:main.c        **** char string_bt[200];
  72:main.c        **** int stop_bt = 0;
  73:main.c        **** char* tokenPtr;
  74:main.c        **** char task_info[3][20];
  75:main.c        **** int j = 0;
  76:main.c        **** // gyroscope
  77:main.c        **** uint8 array_1[6] = {0};
  78:main.c        **** int16 temp = 0;
  79:main.c        **** double yaw_rate = 0;
  80:main.c        **** double yaw_angle = 0;
  81:main.c        **** double previous_reading = 0;
ARM GAS  C:\Users\weiro\AppData\Local\Temp\ccK6dLS7.s 			page 3


  82:main.c        **** double current_reading = 0;
  83:main.c        **** double heading = 0;
  84:main.c        **** int cycles = 0;
  85:main.c        **** char string_gyro[200] = "\0";
  86:main.c        **** int cal = 1;
  87:main.c        **** int count = 0;
  88:main.c        **** int16 error_gyro = 0; //to find the error in gyroscope readings when stationary
  89:main.c        **** int16 error_gyro_avg = 0; //average error in gyroscope readings when stationary
  90:main.c        **** double threshold = 0.1; //to prevent accumulation of error due to integration
  91:main.c        **** 
  92:main.c        **** CY_ISR (Speed_Control)
  93:main.c        **** {
  34              		.loc 1 93 0
  35              		.cfi_startproc
  36              		@ args = 0, pretend = 0, frame = 0
  37              		@ frame_needed = 0, uses_anonymous_args = 0
  38 0000 F8B5     		push	{r3, r4, r5, r6, r7, lr}
  39              		.cfi_def_cfa_offset 24
  40              		.cfi_offset 3, -24
  41              		.cfi_offset 4, -20
  42              		.cfi_offset 5, -16
  43              		.cfi_offset 6, -12
  44              		.cfi_offset 7, -8
  45              		.cfi_offset 14, -4
  94:main.c        ****     if(is_moving == 1)
  46              		.loc 1 94 0
  47 0002 1B4B     		ldr	r3, .L4+8
  48 0004 1B68     		ldr	r3, [r3]
  49 0006 012B     		cmp	r3, #1
  50 0008 2CD1     		bne	.L1
  95:main.c        ****     {
  96:main.c        ****         error = abs(Count_Master) - abs(Count_Slave);
  51              		.loc 1 96 0
  52 000a 194C     		ldr	r4, .L4+8
  53 000c 6068     		ldr	r0, [r4, #4]
  54 000e 0028     		cmp	r0, #0
  55 0010 B8BF     		it	lt
  56 0012 4042     		rsblt	r0, r0, #0
  57 0014 A368     		ldr	r3, [r4, #8]
  58 0016 002B     		cmp	r3, #0
  59 0018 B8BF     		it	lt
  60 001a 5B42     		rsblt	r3, r3, #0
  61 001c C01A     		subs	r0, r0, r3
  62 001e FFF7FEFF 		bl	__aeabi_i2d
  63              	.LVL0:
  64 0022 C4E90401 		strd	r0, [r4, #16]
  97:main.c        ****     	//accumulated_error = accumulated_error + (error*timer_period);
  98:main.c        ****         //derivative_error = (error - last_error)/timer_period;
  99:main.c        ****         //K_i = 1.2 * K_p / timer_period;
 100:main.c        ****         //K_d = 0.075 * K_p * timer_period;
 101:main.c        ****         //PWM_Slave = 25000 - (K_p*error + K_i*accumulated_error + K_d*derivative_error);
 102:main.c        ****         PWM_Slave = 0.65*(PWM_Master + K_p*error);
  65              		.loc 1 102 0
  66 0026 134D     		ldr	r5, .L4+12
  67 0028 D5E90023 		ldrd	r2, [r5]
  68 002c FFF7FEFF 		bl	__aeabi_dmul
  69              	.LVL1:
ARM GAS  C:\Users\weiro\AppData\Local\Temp\ccK6dLS7.s 			page 4


  70 0030 0646     		mov	r6, r0
  71 0032 0F46     		mov	r7, r1
  72 0034 A868     		ldr	r0, [r5, #8]	@ float
  73 0036 FFF7FEFF 		bl	__aeabi_f2d
  74              	.LVL2:
  75 003a 3246     		mov	r2, r6
  76 003c 3B46     		mov	r3, r7
  77 003e FFF7FEFF 		bl	__aeabi_dadd
  78              	.LVL3:
  79 0042 09A3     		adr	r3, .L4
  80 0044 D3E90023 		ldrd	r2, [r3]
  81 0048 FFF7FEFF 		bl	__aeabi_dmul
  82              	.LVL4:
  83 004c FFF7FEFF 		bl	__aeabi_d2f
  84              	.LVL5:
  85 0050 E860     		str	r0, [r5, #12]	@ float
 103:main.c        ****         //if (PWM_Slave>25000)
 104:main.c        ****         //{
 105:main.c        ****         //    PWM_Slave = 23000;
 106:main.c        ****         //}
 107:main.c        ****     
 108:main.c        ****         PWM_Wheels_WriteCompare2(PWM_Slave);
  86              		.loc 1 108 0
  87 0052 FFF7FEFF 		bl	__aeabi_f2uiz
  88              	.LVL6:
  89 0056 80B2     		uxth	r0, r0
  90 0058 FFF7FEFF 		bl	PWM_Wheels_WriteCompare2
  91              	.LVL7:
 109:main.c        ****         last_error = error;
  92              		.loc 1 109 0
  93 005c D4E90423 		ldrd	r2, [r4, #16]
  94 0060 C4E90623 		strd	r2, [r4, #24]
  95              	.L1:
  96 0064 F8BD     		pop	{r3, r4, r5, r6, r7, pc}
  97              	.L5:
  98 0066 00BF     		.align	3
  99              	.L4:
 100 0068 CDCCCCCC 		.word	-858993459
 101 006c CCCCE43F 		.word	1071959244
 102 0070 00000000 		.word	.LANCHOR0
 103 0074 00000000 		.word	.LANCHOR1
 104              		.cfi_endproc
 105              	.LFE64:
 106              		.size	Speed_Control, .-Speed_Control
 107              		.global	__aeabi_dcmple
 108              		.section	.text.ultrasonic_echo,"ax",%progbits
 109              		.align	2
 110              		.global	ultrasonic_echo
 111              		.thumb
 112              		.thumb_func
 113              		.type	ultrasonic_echo, %function
 114              	ultrasonic_echo:
 115              	.LFB65:
 110:main.c        ****     }
 111:main.c        **** 
 112:main.c        ****     //sprintf(string_3, "PWM_Slave: %f\n", PWM_Slave);
 113:main.c        ****     //UART_1_PutString(string_3);
ARM GAS  C:\Users\weiro\AppData\Local\Temp\ccK6dLS7.s 			page 5


 114:main.c        **** }
 115:main.c        **** 
 116:main.c        **** CY_ISR(ultrasonic_echo)
 117:main.c        **** {
 116              		.loc 1 117 0
 117              		.cfi_startproc
 118              		@ args = 0, pretend = 0, frame = 0
 119              		@ frame_needed = 0, uses_anonymous_args = 0
 120 0000 10B5     		push	{r4, lr}
 121              		.cfi_def_cfa_offset 8
 122              		.cfi_offset 4, -8
 123              		.cfi_offset 14, -4
 118:main.c        ****     Timer_3_ReadStatusRegister();
 124              		.loc 1 118 0
 125 0002 FFF7FEFF 		bl	Timer_3_ReadStatusRegister
 126              	.LVL8:
 119:main.c        ****     ultrasonic_count = Timer_3_ReadCounter();
 127              		.loc 1 119 0
 128 0006 FFF7FEFF 		bl	Timer_3_ReadCounter
 129              	.LVL9:
 130 000a 234C     		ldr	r4, .L17
 131 000c 2062     		str	r0, [r4, #32]
 120:main.c        ****     ultrasonic_measure = (65535-ultrasonic_count)/58;
 132              		.loc 1 120 0
 133 000e C0F57F43 		rsb	r3, r0, #65280
 134 0012 FF33     		adds	r3, r3, #255
 135 0014 2148     		ldr	r0, .L17+4
 136 0016 80FB0320 		smull	r2, r0, r0, r3
 137 001a 1844     		add	r0, r0, r3
 138 001c DB17     		asrs	r3, r3, #31
 139 001e C3EB6010 		rsb	r0, r3, r0, asr #5
 140 0022 FFF7FEFF 		bl	__aeabi_i2d
 141              	.LVL10:
 142 0026 0246     		mov	r2, r0
 143 0028 0B46     		mov	r3, r1
 144 002a C4E90A23 		strd	r2, [r4, #40]
 121:main.c        ****     sprintf(string_1, "Front dist 1: %lf\n", ultrasonic_measure);
 145              		.loc 1 121 0
 146 002e 1C49     		ldr	r1, .L17+8
 147 0030 1C48     		ldr	r0, .L17+12
 148 0032 FFF7FEFF 		bl	sprintf
 149              	.LVL11:
 122:main.c        ****     
 123:main.c        ****     if (echo_select == 0)
 150              		.loc 1 123 0
 151 0036 236B     		ldr	r3, [r4, #48]
 152 0038 2BB9     		cbnz	r3, .L7
 124:main.c        ****     {
 125:main.c        ****         // front 1
 126:main.c        ****         front_measured_1 = ultrasonic_measure;
 153              		.loc 1 126 0
 154 003a D4E90A01 		ldrd	r0, [r4, #40]
 155 003e 1A4B     		ldr	r3, .L17+16
 156 0040 C3E90001 		strd	r0, [r3]
 157 0044 18E0     		b	.L8
 158              	.L7:
 127:main.c        ****     }
ARM GAS  C:\Users\weiro\AppData\Local\Temp\ccK6dLS7.s 			page 6


 128:main.c        ****     else if (echo_select == 1)
 159              		.loc 1 128 0
 160 0046 012B     		cmp	r3, #1
 161 0048 06D1     		bne	.L9
 129:main.c        ****     {
 130:main.c        ****         // front 2
 131:main.c        ****         front_measured_2 = ultrasonic_measure;
 162              		.loc 1 131 0
 163 004a 134B     		ldr	r3, .L17
 164 004c D3E90A01 		ldrd	r0, [r3, #40]
 165 0050 164B     		ldr	r3, .L17+20
 166 0052 C3E90001 		strd	r0, [r3]
 167 0056 0FE0     		b	.L8
 168              	.L9:
 132:main.c        ****     }
 133:main.c        ****     else if (echo_select == 2)
 169              		.loc 1 133 0
 170 0058 022B     		cmp	r3, #2
 171 005a 05D1     		bne	.L10
 134:main.c        ****     {
 135:main.c        ****         // left
 136:main.c        ****         left_measured = ultrasonic_measure;
 172              		.loc 1 136 0
 173 005c 0E4B     		ldr	r3, .L17
 174 005e D3E90A01 		ldrd	r0, [r3, #40]
 175 0062 C3E90E01 		strd	r0, [r3, #56]
 176 0066 07E0     		b	.L8
 177              	.L10:
 137:main.c        ****     }
 138:main.c        ****     else if (echo_select == 3)
 178              		.loc 1 138 0
 179 0068 032B     		cmp	r3, #3
 180 006a 05D1     		bne	.L8
 139:main.c        ****     {
 140:main.c        ****         // right
 141:main.c        ****         right_measured = ultrasonic_measure;
 181              		.loc 1 141 0
 182 006c 0A4B     		ldr	r3, .L17
 183 006e D3E90A01 		ldrd	r0, [r3, #40]
 184 0072 0F4B     		ldr	r3, .L17+24
 185 0074 C3E90001 		strd	r0, [r3]
 186              	.L8:
 142:main.c        ****     }
 143:main.c        ****     
 144:main.c        ****     if(front_measured_1 <= 15)
 187              		.loc 1 144 0
 188 0078 0022     		movs	r2, #0
 189 007a 0E4B     		ldr	r3, .L17+28
 190 007c 0A49     		ldr	r1, .L17+16
 191 007e D1E90001 		ldrd	r0, [r1]
 192 0082 FFF7FEFF 		bl	__aeabi_dcmple
 193              	.LVL12:
 194 0086 18B1     		cbz	r0, .L15
 145:main.c        ****     {
 146:main.c        ****         wall_detected_10 = 1;
 195              		.loc 1 146 0
 196 0088 0122     		movs	r2, #1
ARM GAS  C:\Users\weiro\AppData\Local\Temp\ccK6dLS7.s 			page 7


 197 008a 034B     		ldr	r3, .L17
 198 008c 1A64     		str	r2, [r3, #64]
 199 008e 10BD     		pop	{r4, pc}
 200              	.L15:
 147:main.c        ****     }
 148:main.c        ****     else
 149:main.c        ****     {
 150:main.c        ****         wall_detected_10 = 0;
 201              		.loc 1 150 0
 202 0090 0022     		movs	r2, #0
 203 0092 014B     		ldr	r3, .L17
 204 0094 1A64     		str	r2, [r3, #64]
 205 0096 10BD     		pop	{r4, pc}
 206              	.L18:
 207              		.align	2
 208              	.L17:
 209 0098 00000000 		.word	.LANCHOR0
 210 009c 09CB3D8D 		.word	-1925330167
 211 00a0 00000000 		.word	.LC0
 212 00a4 00000000 		.word	string_1
 213 00a8 00000000 		.word	front_measured_1
 214 00ac 00000000 		.word	front_measured_2
 215 00b0 00000000 		.word	right_measured
 216 00b4 00002E40 		.word	1076756480
 217              		.cfi_endproc
 218              	.LFE65:
 219              		.size	ultrasonic_echo, .-ultrasonic_echo
 220              		.section	.text.Color_sensing,"ax",%progbits
 221              		.align	2
 222              		.global	Color_sensing
 223              		.thumb
 224              		.thumb_func
 225              		.type	Color_sensing, %function
 226              	Color_sensing:
 227              	.LFB66:
 151:main.c        ****     }
 152:main.c        **** }
 153:main.c        **** 
 154:main.c        **** CY_ISR(Color_sensing)
 155:main.c        **** {
 228              		.loc 1 155 0
 229              		.cfi_startproc
 230              		@ args = 0, pretend = 0, frame = 0
 231              		@ frame_needed = 0, uses_anonymous_args = 0
 232 0000 08B5     		push	{r3, lr}
 233              		.cfi_def_cfa_offset 8
 234              		.cfi_offset 3, -8
 235              		.cfi_offset 14, -4
 156:main.c        ****     // Ready to do the capture --> to count the pulse
 157:main.c        ****     PWM_ColorSensor_ReadStatusRegister();
 236              		.loc 1 157 0
 237 0002 FFF7FEFF 		bl	PWM_ColorSensor_ReadStatusRegister
 238              	.LVL13:
 158:main.c        ****     compare_ready = 1;
 239              		.loc 1 158 0
 240 0006 0122     		movs	r2, #1
 241 0008 014B     		ldr	r3, .L21
ARM GAS  C:\Users\weiro\AppData\Local\Temp\ccK6dLS7.s 			page 8


 242 000a 5A64     		str	r2, [r3, #68]
 243 000c 08BD     		pop	{r3, pc}
 244              	.L22:
 245 000e 00BF     		.align	2
 246              	.L21:
 247 0010 00000000 		.word	.LANCHOR0
 248              		.cfi_endproc
 249              	.LFE66:
 250              		.size	Color_sensing, .-Color_sensing
 251              		.section	.text.Bluetooth,"ax",%progbits
 252              		.align	2
 253              		.global	Bluetooth
 254              		.thumb
 255              		.thumb_func
 256              		.type	Bluetooth, %function
 257              	Bluetooth:
 258              	.LFB67:
 159:main.c        **** }
 160:main.c        **** 
 161:main.c        **** CY_ISR(Bluetooth)
 162:main.c        **** {
 259              		.loc 1 162 0
 260              		.cfi_startproc
 261              		@ args = 0, pretend = 0, frame = 0
 262              		@ frame_needed = 0, uses_anonymous_args = 0
 263 0000 08B5     		push	{r3, lr}
 264              		.cfi_def_cfa_offset 8
 265              		.cfi_offset 3, -8
 266              		.cfi_offset 14, -4
 163:main.c        ****     Rx = UART_1_GetChar();
 267              		.loc 1 163 0
 268 0002 FFF7FEFF 		bl	UART_1_GetChar
 269              	.LVL14:
 270 0006 094B     		ldr	r3, .L27
 271 0008 1870     		strb	r0, [r3]
 164:main.c        ****     if (Rx != '!')
 272              		.loc 1 164 0
 273 000a 2128     		cmp	r0, #33
 274 000c 06D0     		beq	.L24
 165:main.c        ****     {
 166:main.c        ****         string_bt[i] = Rx;
 275              		.loc 1 166 0
 276 000e 084A     		ldr	r2, .L27+4
 277 0010 936C     		ldr	r3, [r2, #72]
 278 0012 0849     		ldr	r1, .L27+8
 279 0014 C854     		strb	r0, [r1, r3]
 167:main.c        ****         i++;
 280              		.loc 1 167 0
 281 0016 0133     		adds	r3, r3, #1
 282 0018 9364     		str	r3, [r2, #72]
 283 001a 08BD     		pop	{r3, pc}
 284              	.L24:
 168:main.c        ****     }
 169:main.c        ****     else
 170:main.c        ****     {
 171:main.c        ****         string_bt[i] = '\0'; // terminate
 285              		.loc 1 171 0
ARM GAS  C:\Users\weiro\AppData\Local\Temp\ccK6dLS7.s 			page 9


 286 001c 044B     		ldr	r3, .L27+4
 287 001e 9A6C     		ldr	r2, [r3, #72]
 288 0020 0020     		movs	r0, #0
 289 0022 0449     		ldr	r1, .L27+8
 290 0024 8854     		strb	r0, [r1, r2]
 172:main.c        ****         stop_bt = 1;
 291              		.loc 1 172 0
 292 0026 0122     		movs	r2, #1
 293 0028 DA64     		str	r2, [r3, #76]
 294 002a 08BD     		pop	{r3, pc}
 295              	.L28:
 296              		.align	2
 297              	.L27:
 298 002c 00000000 		.word	Rx
 299 0030 00000000 		.word	.LANCHOR0
 300 0034 00000000 		.word	string_bt
 301              		.cfi_endproc
 302              	.LFE67:
 303              		.size	Bluetooth, .-Bluetooth
 304              		.global	__aeabi_ddiv
 305              		.global	__aeabi_dsub
 306              		.global	__aeabi_dcmpgt
 307              		.global	__aeabi_d2iz
 308              		.global	__aeabi_dcmplt
 309              		.section	.text.Gyroscope,"ax",%progbits
 310              		.align	2
 311              		.global	Gyroscope
 312              		.thumb
 313              		.thumb_func
 314              		.type	Gyroscope, %function
 315              	Gyroscope:
 316              	.LFB68:
 173:main.c        ****     }
 174:main.c        **** }
 175:main.c        **** 
 176:main.c        **** CY_ISR(Gyroscope)
 177:main.c        **** {
 317              		.loc 1 177 0
 318              		.cfi_startproc
 319              		@ args = 0, pretend = 0, frame = 0
 320              		@ frame_needed = 0, uses_anonymous_args = 0
 321 0000 2DE9F041 		push	{r4, r5, r6, r7, r8, lr}
 322              		.cfi_def_cfa_offset 24
 323              		.cfi_offset 4, -24
 324              		.cfi_offset 5, -20
 325              		.cfi_offset 6, -16
 326              		.cfi_offset 7, -12
 327              		.cfi_offset 8, -8
 328              		.cfi_offset 14, -4
 178:main.c        ****     Timer_2_ReadStatusRegister();
 329              		.loc 1 178 0
 330 0004 FFF7FEFF 		bl	Timer_2_ReadStatusRegister
 331              	.LVL15:
 179:main.c        ****     //Timer_2_ReadStatusRegister();
 180:main.c        ****     
 181:main.c        ****     //Writing the register number from where the read operation starts
 182:main.c        ****     I2C_1_MasterSendStart(MPU6050,0); //Steps 1-2
ARM GAS  C:\Users\weiro\AppData\Local\Temp\ccK6dLS7.s 			page 10


 332              		.loc 1 182 0
 333 0008 0021     		movs	r1, #0
 334 000a 6820     		movs	r0, #104
 335 000c FFF7FEFF 		bl	I2C_1_MasterSendStart
 336              	.LVL16:
 183:main.c        ****     I2C_1_MasterWriteByte(0x43); //Step 3
 337              		.loc 1 183 0
 338 0010 4320     		movs	r0, #67
 339 0012 FFF7FEFF 		bl	I2C_1_MasterWriteByte
 340              	.LVL17:
 184:main.c        ****     I2C_1_MasterSendStop(); //Step 4
 341              		.loc 1 184 0
 342 0016 FFF7FEFF 		bl	I2C_1_MasterSendStop
 343              	.LVL18:
 185:main.c        ****     CyDelay(1);
 344              		.loc 1 185 0
 345 001a 0120     		movs	r0, #1
 346 001c FFF7FEFF 		bl	CyDelay
 347              	.LVL19:
 186:main.c        ****     
 187:main.c        ****     //Read data starting from register 0x43
 188:main.c        ****     I2C_1_MasterSendStart(MPU6050,1); //Steps 5-6
 348              		.loc 1 188 0
 349 0020 0121     		movs	r1, #1
 350 0022 6820     		movs	r0, #104
 351 0024 FFF7FEFF 		bl	I2C_1_MasterSendStart
 352              	.LVL20:
 189:main.c        ****     
 190:main.c        ****     //Step 7
 191:main.c        ****     array_1[0] = I2C_1_MasterReadByte(I2C_1_ACK_DATA); //GYRO_XOUT_H
 353              		.loc 1 191 0
 354 0028 0120     		movs	r0, #1
 355 002a FFF7FEFF 		bl	I2C_1_MasterReadByte
 356              	.LVL21:
 357 002e 844C     		ldr	r4, .L47+16
 358 0030 84F85000 		strb	r0, [r4, #80]
 192:main.c        ****     array_1[1] = I2C_1_MasterReadByte(I2C_1_ACK_DATA); //GYRO_XOUT_L
 359              		.loc 1 192 0
 360 0034 0120     		movs	r0, #1
 361 0036 FFF7FEFF 		bl	I2C_1_MasterReadByte
 362              	.LVL22:
 363 003a 84F85100 		strb	r0, [r4, #81]
 193:main.c        ****     array_1[2] = I2C_1_MasterReadByte(I2C_1_ACK_DATA); //GYRO_YOUT_H
 364              		.loc 1 193 0
 365 003e 0120     		movs	r0, #1
 366 0040 FFF7FEFF 		bl	I2C_1_MasterReadByte
 367              	.LVL23:
 368 0044 84F85200 		strb	r0, [r4, #82]
 194:main.c        ****     array_1[3] = I2C_1_MasterReadByte(I2C_1_ACK_DATA); //GYRO_YOUT_L
 369              		.loc 1 194 0
 370 0048 0120     		movs	r0, #1
 371 004a FFF7FEFF 		bl	I2C_1_MasterReadByte
 372              	.LVL24:
 373 004e 84F85300 		strb	r0, [r4, #83]
 195:main.c        ****     array_1[4] = I2C_1_MasterReadByte(I2C_1_ACK_DATA); //GYRO_ZOUT_H
 374              		.loc 1 195 0
 375 0052 0120     		movs	r0, #1
ARM GAS  C:\Users\weiro\AppData\Local\Temp\ccK6dLS7.s 			page 11


 376 0054 FFF7FEFF 		bl	I2C_1_MasterReadByte
 377              	.LVL25:
 378 0058 84F85400 		strb	r0, [r4, #84]
 196:main.c        ****     array_1[5] = I2C_1_MasterReadByte(I2C_1_NAK_DATA); //GYRO_ZOUT_L
 379              		.loc 1 196 0
 380 005c 0020     		movs	r0, #0
 381 005e FFF7FEFF 		bl	I2C_1_MasterReadByte
 382              	.LVL26:
 383 0062 84F85500 		strb	r0, [r4, #85]
 197:main.c        ****     
 198:main.c        ****     I2C_1_MasterSendStop(); //Step 8
 384              		.loc 1 198 0
 385 0066 FFF7FEFF 		bl	I2C_1_MasterSendStop
 386              	.LVL27:
 199:main.c        ****     CyDelay(1);
 387              		.loc 1 199 0
 388 006a 0120     		movs	r0, #1
 389 006c FFF7FEFF 		bl	CyDelay
 390              	.LVL28:
 200:main.c        ****     
 201:main.c        ****     temp = array_1[4] << 8 | array_1[5];
 391              		.loc 1 201 0
 392 0070 94F85400 		ldrb	r0, [r4, #84]	@ zero_extendqisi2
 393 0074 94F85530 		ldrb	r3, [r4, #85]	@ zero_extendqisi2
 394 0078 43EA0023 		orr	r3, r3, r0, lsl #8
 395 007c 1BB2     		sxth	r3, r3
 396 007e A4F85630 		strh	r3, [r4, #86]	@ movhi
 202:main.c        ****         
 203:main.c        ****     if (cal == 1 && count < 20) //while calibrating
 397              		.loc 1 203 0
 398 0082 704A     		ldr	r2, .L47+20
 399 0084 1269     		ldr	r2, [r2, #16]
 400 0086 012A     		cmp	r2, #1
 401 0088 11D1     		bne	.L30
 402              		.loc 1 203 0 is_stmt 0 discriminator 1
 403 008a A16D     		ldr	r1, [r4, #88]
 404 008c 1329     		cmp	r1, #19
 405 008e 0EDC     		bgt	.L30
 204:main.c        ****     {
 205:main.c        ****         UART_1_PutString("Calibrating\n");
 406              		.loc 1 205 0 is_stmt 1
 407 0090 6D48     		ldr	r0, .L47+24
 408 0092 FFF7FEFF 		bl	UART_1_PutString
 409              	.LVL29:
 206:main.c        ****         error_gyro += temp;
 410              		.loc 1 206 0
 411 0096 B4F85C10 		ldrh	r1, [r4, #92]
 412 009a B4F85620 		ldrh	r2, [r4, #86]
 413 009e 0A44     		add	r2, r2, r1
 414 00a0 A4F85C20 		strh	r2, [r4, #92]	@ movhi
 207:main.c        ****         count++;
 415              		.loc 1 207 0
 416 00a4 A26D     		ldr	r2, [r4, #88]
 417 00a6 0132     		adds	r2, r2, #1
 418 00a8 A265     		str	r2, [r4, #88]
 419 00aa BDE8F081 		pop	{r4, r5, r6, r7, r8, pc}
 420              	.L30:
ARM GAS  C:\Users\weiro\AppData\Local\Temp\ccK6dLS7.s 			page 12


 208:main.c        ****     }
 209:main.c        ****     else if (cal == 1 && count == 20) //end of calibration and computation of average error
 421              		.loc 1 209 0
 422 00ae 012A     		cmp	r2, #1
 423 00b0 13D1     		bne	.L32
 424              		.loc 1 209 0 is_stmt 0 discriminator 1
 425 00b2 634A     		ldr	r2, .L47+16
 426 00b4 926D     		ldr	r2, [r2, #88]
 427 00b6 142A     		cmp	r2, #20
 428 00b8 0FD1     		bne	.L32
 210:main.c        ****     {
 211:main.c        ****         error_gyro_avg = error_gyro/20;
 429              		.loc 1 211 0 is_stmt 1
 430 00ba 6149     		ldr	r1, .L47+16
 431 00bc B1F95C30 		ldrsh	r3, [r1, #92]
 432 00c0 624A     		ldr	r2, .L47+28
 433 00c2 82FB0302 		smull	r0, r2, r2, r3
 434 00c6 DB17     		asrs	r3, r3, #31
 435 00c8 C3EBE203 		rsb	r3, r3, r2, asr #3
 436 00cc A1F85E30 		strh	r3, [r1, #94]	@ movhi
 212:main.c        ****         cal = 0;
 437              		.loc 1 212 0
 438 00d0 0022     		movs	r2, #0
 439 00d2 5C4B     		ldr	r3, .L47+20
 440 00d4 1A61     		str	r2, [r3, #16]
 441 00d6 BDE8F081 		pop	{r4, r5, r6, r7, r8, pc}
 442              	.L32:
 213:main.c        ****     }
 214:main.c        ****     else //after calibration and with average error computed
 215:main.c        ****     {
 216:main.c        ****         temp = temp - error_gyro_avg;
 443              		.loc 1 216 0
 444 00da 594C     		ldr	r4, .L47+16
 445 00dc B4F85E00 		ldrh	r0, [r4, #94]
 446 00e0 181A     		subs	r0, r3, r0
 447 00e2 00B2     		sxth	r0, r0
 448 00e4 A4F85600 		strh	r0, [r4, #86]	@ movhi
 217:main.c        ****         yaw_rate = temp/65.535;
 449              		.loc 1 217 0
 450 00e8 FFF7FEFF 		bl	__aeabi_i2d
 451              	.LVL30:
 452 00ec 50A3     		adr	r3, .L47
 453 00ee D3E90023 		ldrd	r2, [r3]
 454 00f2 FFF7FEFF 		bl	__aeabi_ddiv
 455              	.LVL31:
 456 00f6 0646     		mov	r6, r0
 457 00f8 0F46     		mov	r7, r1
 458 00fa C4E91867 		strd	r6, [r4, #96]
 218:main.c        **** 
 219:main.c        ****         current_reading = yaw_rate;   
 459              		.loc 1 219 0
 460 00fe C4E91A67 		strd	r6, [r4, #104]
 220:main.c        ****        
 221:main.c        ****         if (fabs(current_reading - previous_reading) > threshold)
 461              		.loc 1 221 0
 462 0102 04F17005 		add	r5, r4, #112
 463 0106 D5E90045 		ldrd	r4, [r5]
ARM GAS  C:\Users\weiro\AppData\Local\Temp\ccK6dLS7.s 			page 13


 464 010a 2246     		mov	r2, r4
 465 010c 2B46     		mov	r3, r5
 466 010e FFF7FEFF 		bl	__aeabi_dsub
 467              	.LVL32:
 468 0112 8446     		mov	ip, r0
 469 0114 8E46     		mov	lr, r1
 470 0116 4B4B     		ldr	r3, .L47+20
 471 0118 D3E90623 		ldrd	r2, [r3, #24]
 472 011c 6046     		mov	r0, ip
 473 011e 2EF00041 		bic	r1, lr, #-2147483648
 474 0122 FFF7FEFF 		bl	__aeabi_dcmpgt
 475              	.LVL33:
 476 0126 0028     		cmp	r0, #0
 477 0128 70D0     		beq	.L44
 222:main.c        ****         {
 223:main.c        ****             //integration of yaw_rate
 224:main.c        ****             yaw_angle = yaw_angle + 0.5*0.1*(previous_reading + current_reading);
 478              		.loc 1 224 0
 479 012a 2246     		mov	r2, r4
 480 012c 2B46     		mov	r3, r5
 481 012e 3046     		mov	r0, r6
 482 0130 3946     		mov	r1, r7
 483 0132 FFF7FEFF 		bl	__aeabi_dadd
 484              	.LVL34:
 485 0136 40A3     		adr	r3, .L47+8
 486 0138 D3E90023 		ldrd	r2, [r3]
 487 013c FFF7FEFF 		bl	__aeabi_dmul
 488              	.LVL35:
 489 0140 DFF8FC80 		ldr	r8, .L47+16
 490 0144 D8E91E23 		ldrd	r2, [r8, #120]
 491 0148 FFF7FEFF 		bl	__aeabi_dadd
 492              	.LVL36:
 493 014c 0546     		mov	r5, r0
 494 014e 0C46     		mov	r4, r1
 495 0150 0246     		mov	r2, r0
 496 0152 0B46     		mov	r3, r1
 497 0154 C8E91E23 		strd	r2, [r8, #120]
 225:main.c        ****             previous_reading = current_reading;
 498              		.loc 1 225 0
 499 0158 C8E91C67 		strd	r6, [r8, #112]
 226:main.c        ****             
 227:main.c        ****             //counting cycles beyond +360 or -360
 228:main.c        ****             cycles = fabs(yaw_angle)/360;
 500              		.loc 1 228 0
 501 015c 0022     		movs	r2, #0
 502 015e 3C4B     		ldr	r3, .L47+32
 503 0160 2846     		mov	r0, r5
 504 0162 24F00041 		bic	r1, r4, #-2147483648
 505 0166 FFF7FEFF 		bl	__aeabi_ddiv
 506              	.LVL37:
 507 016a FFF7FEFF 		bl	__aeabi_d2iz
 508              	.LVL38:
 509 016e 0646     		mov	r6, r0
 510 0170 C8F88000 		str	r0, [r8, #128]
 229:main.c        ****             
 230:main.c        ****             if (cycles > 0)
 511              		.loc 1 230 0
ARM GAS  C:\Users\weiro\AppData\Local\Temp\ccK6dLS7.s 			page 14


 512 0174 0028     		cmp	r0, #0
 513 0176 23DD     		ble	.L35
 231:main.c        ****             {
 232:main.c        ****                 if (yaw_angle < 0)
 514              		.loc 1 232 0
 515 0178 0022     		movs	r2, #0
 516 017a 0023     		movs	r3, #0
 517 017c 2846     		mov	r0, r5
 518 017e 2146     		mov	r1, r4
 519 0180 FFF7FEFF 		bl	__aeabi_dcmplt
 520              	.LVL39:
 521 0184 60B1     		cbz	r0, .L45
 233:main.c        ****                 {
 234:main.c        ****                     heading = yaw_angle + cycles*360;
 522              		.loc 1 234 0
 523 0186 4FF4B470 		mov	r0, #360
 524 018a 00FB06F0 		mul	r0, r0, r6
 525 018e FFF7FEFF 		bl	__aeabi_i2d
 526              	.LVL40:
 527 0192 2A46     		mov	r2, r5
 528 0194 2346     		mov	r3, r4
 529 0196 FFF7FEFF 		bl	__aeabi_dadd
 530              	.LVL41:
 531 019a C8E92201 		strd	r0, [r8, #136]
 532 019e 14E0     		b	.L38
 533              	.L45:
 235:main.c        ****                 }
 236:main.c        ****                 else
 237:main.c        ****                 {
 238:main.c        ****                     heading = yaw_angle - cycles*360;
 534              		.loc 1 238 0
 535 01a0 4FF4B470 		mov	r0, #360
 536 01a4 00FB06F0 		mul	r0, r0, r6
 537 01a8 FFF7FEFF 		bl	__aeabi_i2d
 538              	.LVL42:
 539 01ac 0246     		mov	r2, r0
 540 01ae 0B46     		mov	r3, r1
 541 01b0 2846     		mov	r0, r5
 542 01b2 2146     		mov	r1, r4
 543 01b4 FFF7FEFF 		bl	__aeabi_dsub
 544              	.LVL43:
 545 01b8 214B     		ldr	r3, .L47+16
 546 01ba C3E92201 		strd	r0, [r3, #136]
 547 01be 04E0     		b	.L38
 548              	.L35:
 239:main.c        ****                 }
 240:main.c        ****             }
 241:main.c        ****             else
 242:main.c        ****             {
 243:main.c        ****                 heading = yaw_angle;
 549              		.loc 1 243 0
 550 01c0 2A46     		mov	r2, r5
 551 01c2 2346     		mov	r3, r4
 552 01c4 1E49     		ldr	r1, .L47+16
 553 01c6 C1E92223 		strd	r2, [r1, #136]
 554              	.L38:
 244:main.c        ****             }
ARM GAS  C:\Users\weiro\AppData\Local\Temp\ccK6dLS7.s 			page 15


 245:main.c        ****             
 246:main.c        ****             //wrapping the heading within 0 - 360 degrees
 247:main.c        ****             if (heading < 0)
 555              		.loc 1 247 0
 556 01ca 1D4B     		ldr	r3, .L47+16
 557 01cc D3E92245 		ldrd	r4, [r3, #136]
 558 01d0 0022     		movs	r2, #0
 559 01d2 0023     		movs	r3, #0
 560 01d4 2046     		mov	r0, r4
 561 01d6 2946     		mov	r1, r5
 562 01d8 FFF7FEFF 		bl	__aeabi_dcmplt
 563              	.LVL44:
 564 01dc 40B1     		cbz	r0, .L39
 248:main.c        ****             {
 249:main.c        ****                 heading = heading + 360;
 565              		.loc 1 249 0
 566 01de 0022     		movs	r2, #0
 567 01e0 1B4B     		ldr	r3, .L47+32
 568 01e2 2046     		mov	r0, r4
 569 01e4 2946     		mov	r1, r5
 570 01e6 FFF7FEFF 		bl	__aeabi_dadd
 571              	.LVL45:
 572 01ea 154B     		ldr	r3, .L47+16
 573 01ec C3E92201 		strd	r0, [r3, #136]
 574              	.L39:
 250:main.c        ****             }
 251:main.c        ****             
 252:main.c        ****             sprintf(string_gyro,"Heading: %lf\n",heading);
 575              		.loc 1 252 0
 576 01f0 134B     		ldr	r3, .L47+16
 577 01f2 03F19004 		add	r4, r3, #144
 578 01f6 D3E92223 		ldrd	r2, [r3, #136]
 579 01fa 1649     		ldr	r1, .L47+36
 580 01fc 2046     		mov	r0, r4
 581 01fe FFF7FEFF 		bl	sprintf
 582              	.LVL46:
 253:main.c        ****             UART_1_PutString(string_gyro);
 583              		.loc 1 253 0
 584 0202 2046     		mov	r0, r4
 585 0204 FFF7FEFF 		bl	UART_1_PutString
 586              	.LVL47:
 587 0208 BDE8F081 		pop	{r4, r5, r6, r7, r8, pc}
 588              	.L44:
 254:main.c        ****         }
 255:main.c        ****         else
 256:main.c        ****         {
 257:main.c        ****             previous_reading = current_reading;
 589              		.loc 1 257 0
 590 020c 0C4B     		ldr	r3, .L47+16
 591 020e C3E91C67 		strd	r6, [r3, #112]
 258:main.c        ****             sprintf(string_gyro,"Heading: %lf\n",heading);
 592              		.loc 1 258 0
 593 0212 03F19004 		add	r4, r3, #144
 594 0216 D3E92223 		ldrd	r2, [r3, #136]
 595 021a 0E49     		ldr	r1, .L47+36
 596 021c 2046     		mov	r0, r4
 597 021e FFF7FEFF 		bl	sprintf
ARM GAS  C:\Users\weiro\AppData\Local\Temp\ccK6dLS7.s 			page 16


 598              	.LVL48:
 259:main.c        ****             UART_1_PutString(string_gyro);
 599              		.loc 1 259 0
 600 0222 2046     		mov	r0, r4
 601 0224 FFF7FEFF 		bl	UART_1_PutString
 602              	.LVL49:
 603 0228 BDE8F081 		pop	{r4, r5, r6, r7, r8, pc}
 604              	.L48:
 605 022c AFF30080 		.align	3
 606              	.L47:
 607 0230 0AD7A370 		.word	1889785610
 608 0234 3D625040 		.word	1079009853
 609 0238 9A999999 		.word	-1717986918
 610 023c 9999A93F 		.word	1068079513
 611 0240 00000000 		.word	.LANCHOR0
 612 0244 00000000 		.word	.LANCHOR1
 613 0248 14000000 		.word	.LC1
 614 024c 67666666 		.word	1717986919
 615 0250 00807640 		.word	1081507840
 616 0254 24000000 		.word	.LC2
 617              		.cfi_endproc
 618              	.LFE68:
 619              		.size	Gyroscope, .-Gyroscope
 620              		.section	.text.stop,"ax",%progbits
 621              		.align	2
 622              		.global	stop
 623              		.thumb
 624              		.thumb_func
 625              		.type	stop, %function
 626              	stop:
 627              	.LFB69:
 260:main.c        ****         }
 261:main.c        ****             
 262:main.c        ****     }
 263:main.c        **** }
 264:main.c        **** 
 265:main.c        **** void stop()
 266:main.c        **** {
 628              		.loc 1 266 0
 629              		.cfi_startproc
 630              		@ args = 0, pretend = 0, frame = 0
 631              		@ frame_needed = 0, uses_anonymous_args = 0
 632 0000 10B5     		push	{r4, lr}
 633              		.cfi_def_cfa_offset 8
 634              		.cfi_offset 4, -8
 635              		.cfi_offset 14, -4
 267:main.c        ****     is_moving = 0;
 636              		.loc 1 267 0
 637 0002 0024     		movs	r4, #0
 638 0004 074B     		ldr	r3, .L51
 639 0006 1C60     		str	r4, [r3]
 268:main.c        ****     Motor_1_IN_1_Write(0);
 640              		.loc 1 268 0
 641 0008 2046     		mov	r0, r4
 642 000a FFF7FEFF 		bl	Motor_1_IN_1_Write
 643              	.LVL50:
 269:main.c        ****     Motor_1_IN_2_Write(0);
ARM GAS  C:\Users\weiro\AppData\Local\Temp\ccK6dLS7.s 			page 17


 644              		.loc 1 269 0
 645 000e 2046     		mov	r0, r4
 646 0010 FFF7FEFF 		bl	Motor_1_IN_2_Write
 647              	.LVL51:
 270:main.c        ****     Motor_2_IN_3_Write(0);
 648              		.loc 1 270 0
 649 0014 2046     		mov	r0, r4
 650 0016 FFF7FEFF 		bl	Motor_2_IN_3_Write
 651              	.LVL52:
 271:main.c        ****     Motor_2_IN_4_Write(0);
 652              		.loc 1 271 0
 653 001a 2046     		mov	r0, r4
 654 001c FFF7FEFF 		bl	Motor_2_IN_4_Write
 655              	.LVL53:
 656 0020 10BD     		pop	{r4, pc}
 657              	.L52:
 658 0022 00BF     		.align	2
 659              	.L51:
 660 0024 00000000 		.word	.LANCHOR0
 661              		.cfi_endproc
 662              	.LFE69:
 663              		.size	stop, .-stop
 664              		.section	.text.forward,"ax",%progbits
 665              		.align	2
 666              		.global	forward
 667              		.thumb
 668              		.thumb_func
 669              		.type	forward, %function
 670              	forward:
 671              	.LFB70:
 272:main.c        **** }
 273:main.c        **** 
 274:main.c        **** void forward()
 275:main.c        **** {
 672              		.loc 1 275 0
 673              		.cfi_startproc
 674              		@ args = 0, pretend = 0, frame = 0
 675              		@ frame_needed = 0, uses_anonymous_args = 0
 676 0000 10B5     		push	{r4, lr}
 677              		.cfi_def_cfa_offset 8
 678              		.cfi_offset 4, -8
 679              		.cfi_offset 14, -4
 276:main.c        ****     is_moving = 1;
 680              		.loc 1 276 0
 681 0002 0124     		movs	r4, #1
 682 0004 074B     		ldr	r3, .L55
 683 0006 1C60     		str	r4, [r3]
 277:main.c        ****     Motor_1_IN_1_Write(0);
 684              		.loc 1 277 0
 685 0008 0020     		movs	r0, #0
 686 000a FFF7FEFF 		bl	Motor_1_IN_1_Write
 687              	.LVL54:
 278:main.c        ****     Motor_1_IN_2_Write(1);
 688              		.loc 1 278 0
 689 000e 2046     		mov	r0, r4
 690 0010 FFF7FEFF 		bl	Motor_1_IN_2_Write
 691              	.LVL55:
ARM GAS  C:\Users\weiro\AppData\Local\Temp\ccK6dLS7.s 			page 18


 279:main.c        ****     Motor_2_IN_3_Write(0);
 692              		.loc 1 279 0
 693 0014 0020     		movs	r0, #0
 694 0016 FFF7FEFF 		bl	Motor_2_IN_3_Write
 695              	.LVL56:
 280:main.c        ****     Motor_2_IN_4_Write(1);
 696              		.loc 1 280 0
 697 001a 2046     		mov	r0, r4
 698 001c FFF7FEFF 		bl	Motor_2_IN_4_Write
 699              	.LVL57:
 700 0020 10BD     		pop	{r4, pc}
 701              	.L56:
 702 0022 00BF     		.align	2
 703              	.L55:
 704 0024 00000000 		.word	.LANCHOR0
 705              		.cfi_endproc
 706              	.LFE70:
 707              		.size	forward, .-forward
 708              		.section	.text.reverse,"ax",%progbits
 709              		.align	2
 710              		.global	reverse
 711              		.thumb
 712              		.thumb_func
 713              		.type	reverse, %function
 714              	reverse:
 715              	.LFB71:
 281:main.c        **** }
 282:main.c        **** 
 283:main.c        **** void reverse()
 284:main.c        **** {
 716              		.loc 1 284 0
 717              		.cfi_startproc
 718              		@ args = 0, pretend = 0, frame = 0
 719              		@ frame_needed = 0, uses_anonymous_args = 0
 720 0000 10B5     		push	{r4, lr}
 721              		.cfi_def_cfa_offset 8
 722              		.cfi_offset 4, -8
 723              		.cfi_offset 14, -4
 285:main.c        ****     is_moving = 1;
 724              		.loc 1 285 0
 725 0002 0124     		movs	r4, #1
 726 0004 074B     		ldr	r3, .L59
 727 0006 1C60     		str	r4, [r3]
 286:main.c        ****     Motor_1_IN_1_Write(1);
 728              		.loc 1 286 0
 729 0008 2046     		mov	r0, r4
 730 000a FFF7FEFF 		bl	Motor_1_IN_1_Write
 731              	.LVL58:
 287:main.c        ****     Motor_1_IN_2_Write(0);
 732              		.loc 1 287 0
 733 000e 0020     		movs	r0, #0
 734 0010 FFF7FEFF 		bl	Motor_1_IN_2_Write
 735              	.LVL59:
 288:main.c        ****     Motor_2_IN_3_Write(1);
 736              		.loc 1 288 0
 737 0014 2046     		mov	r0, r4
 738 0016 FFF7FEFF 		bl	Motor_2_IN_3_Write
ARM GAS  C:\Users\weiro\AppData\Local\Temp\ccK6dLS7.s 			page 19


 739              	.LVL60:
 289:main.c        ****     Motor_2_IN_4_Write(0);
 740              		.loc 1 289 0
 741 001a 0020     		movs	r0, #0
 742 001c FFF7FEFF 		bl	Motor_2_IN_4_Write
 743              	.LVL61:
 744 0020 10BD     		pop	{r4, pc}
 745              	.L60:
 746 0022 00BF     		.align	2
 747              	.L59:
 748 0024 00000000 		.word	.LANCHOR0
 749              		.cfi_endproc
 750              	.LFE71:
 751              		.size	reverse, .-reverse
 752              		.section	.text.turn_anticlockwise,"ax",%progbits
 753              		.align	2
 754              		.global	turn_anticlockwise
 755              		.thumb
 756              		.thumb_func
 757              		.type	turn_anticlockwise, %function
 758              	turn_anticlockwise:
 759              	.LFB72:
 290:main.c        **** }
 291:main.c        **** 
 292:main.c        **** void turn_anticlockwise()
 293:main.c        **** {
 760              		.loc 1 293 0
 761              		.cfi_startproc
 762              		@ args = 0, pretend = 0, frame = 0
 763              		@ frame_needed = 0, uses_anonymous_args = 0
 764 0000 10B5     		push	{r4, lr}
 765              		.cfi_def_cfa_offset 8
 766              		.cfi_offset 4, -8
 767              		.cfi_offset 14, -4
 294:main.c        ****     is_moving = 1;
 768              		.loc 1 294 0
 769 0002 0124     		movs	r4, #1
 770 0004 074B     		ldr	r3, .L63
 771 0006 1C60     		str	r4, [r3]
 295:main.c        ****     Motor_1_IN_1_Write(0);
 772              		.loc 1 295 0
 773 0008 0020     		movs	r0, #0
 774 000a FFF7FEFF 		bl	Motor_1_IN_1_Write
 775              	.LVL62:
 296:main.c        ****     Motor_1_IN_2_Write(1);
 776              		.loc 1 296 0
 777 000e 2046     		mov	r0, r4
 778 0010 FFF7FEFF 		bl	Motor_1_IN_2_Write
 779              	.LVL63:
 297:main.c        ****     Motor_2_IN_3_Write(1);
 780              		.loc 1 297 0
 781 0014 2046     		mov	r0, r4
 782 0016 FFF7FEFF 		bl	Motor_2_IN_3_Write
 783              	.LVL64:
 298:main.c        ****     Motor_2_IN_4_Write(0);
 784              		.loc 1 298 0
 785 001a 0020     		movs	r0, #0
ARM GAS  C:\Users\weiro\AppData\Local\Temp\ccK6dLS7.s 			page 20


 786 001c FFF7FEFF 		bl	Motor_2_IN_4_Write
 787              	.LVL65:
 788 0020 10BD     		pop	{r4, pc}
 789              	.L64:
 790 0022 00BF     		.align	2
 791              	.L63:
 792 0024 00000000 		.word	.LANCHOR0
 793              		.cfi_endproc
 794              	.LFE72:
 795              		.size	turn_anticlockwise, .-turn_anticlockwise
 796              		.section	.text.turn_clockwise,"ax",%progbits
 797              		.align	2
 798              		.global	turn_clockwise
 799              		.thumb
 800              		.thumb_func
 801              		.type	turn_clockwise, %function
 802              	turn_clockwise:
 803              	.LFB73:
 299:main.c        **** }
 300:main.c        **** 
 301:main.c        **** void turn_clockwise()
 302:main.c        **** {
 804              		.loc 1 302 0
 805              		.cfi_startproc
 806              		@ args = 0, pretend = 0, frame = 0
 807              		@ frame_needed = 0, uses_anonymous_args = 0
 808 0000 10B5     		push	{r4, lr}
 809              		.cfi_def_cfa_offset 8
 810              		.cfi_offset 4, -8
 811              		.cfi_offset 14, -4
 303:main.c        ****     is_moving = 1;
 812              		.loc 1 303 0
 813 0002 0124     		movs	r4, #1
 814 0004 074B     		ldr	r3, .L67
 815 0006 1C60     		str	r4, [r3]
 304:main.c        ****     Motor_1_IN_1_Write(1);
 816              		.loc 1 304 0
 817 0008 2046     		mov	r0, r4
 818 000a FFF7FEFF 		bl	Motor_1_IN_1_Write
 819              	.LVL66:
 305:main.c        ****     Motor_1_IN_2_Write(0);
 820              		.loc 1 305 0
 821 000e 0020     		movs	r0, #0
 822 0010 FFF7FEFF 		bl	Motor_1_IN_2_Write
 823              	.LVL67:
 306:main.c        ****     Motor_2_IN_3_Write(0);
 824              		.loc 1 306 0
 825 0014 0020     		movs	r0, #0
 826 0016 FFF7FEFF 		bl	Motor_2_IN_3_Write
 827              	.LVL68:
 307:main.c        ****     Motor_2_IN_4_Write(1);
 828              		.loc 1 307 0
 829 001a 2046     		mov	r0, r4
 830 001c FFF7FEFF 		bl	Motor_2_IN_4_Write
 831              	.LVL69:
 832 0020 10BD     		pop	{r4, pc}
 833              	.L68:
ARM GAS  C:\Users\weiro\AppData\Local\Temp\ccK6dLS7.s 			page 21


 834 0022 00BF     		.align	2
 835              	.L67:
 836 0024 00000000 		.word	.LANCHOR0
 837              		.cfi_endproc
 838              	.LFE73:
 839              		.size	turn_clockwise, .-turn_clockwise
 840              		.section	.text.reset_count,"ax",%progbits
 841              		.align	2
 842              		.global	reset_count
 843              		.thumb
 844              		.thumb_func
 845              		.type	reset_count, %function
 846              	reset_count:
 847              	.LFB74:
 308:main.c        **** }
 309:main.c        **** /*
 310:main.c        **** void F_or_R(int dist_count, int flag_FR, int direction, int min_distance, int max_distance)
 311:main.c        **** {
 312:main.c        ****     double avg_count, avg_dist;
 313:main.c        ****     int flag_stop = 0;
 314:main.c        ****     //while(abs(Count_Master) <= dist_count && abs(Count_Slave) <= dist_count && front_measured>10)
 315:main.c        ****     if direction == 1
 316:main.c        ****     {
 317:main.c        ****         US_measured = front_measured;
 318:main.c        ****     }
 319:main.c        ****     else if direction == 2
 320:main.c        ****     {
 321:main.c        ****         US_measured = left
 322:main.c        ****     
 323:main.c        ****     while(abs(Count_Master) <= dist_count && abs(Count_Slave) <= dist_count && US_measured > min_di
 324:main.c        ****     {
 325:main.c        ****         // Place your application code here. 
 326:main.c        ****         Count_Master = QuadDec_1_GetCounter();
 327:main.c        ****         Count_Slave = QuadDec_2_GetCounter();
 328:main.c        ****         
 329:main.c        ****         sprintf(string_1, "Right (Master): %d\n", Count_Master);
 330:main.c        ****         UART_1_PutString(string_1);
 331:main.c        ****         sprintf(string_2, "Left (Slave): %d\n", Count_Slave);
 332:main.c        ****         UART_1_PutString(string_2);
 333:main.c        ****         sprintf(string_3, "PWM_Slave: %f\n", PWM_Slave);
 334:main.c        ****         UART_1_PutString(string_3);
 335:main.c        **** 
 336:main.c        ****         CyDelay(100);
 337:main.c        ****         
 338:main.c        ****         if (flag_FR==1)
 339:main.c        ****         {
 340:main.c        ****             forward();
 341:main.c        ****         }
 342:main.c        ****         else
 343:main.c        ****         {
 344:main.c        ****             reverse();
 345:main.c        ****         }
 346:main.c        ****         CyDelay(50);
 347:main.c        ****         while(Front_Echo_Read()==0)
 348:main.c        ****         {
 349:main.c        ****             Front_Trigger_Write(1);
 350:main.c        ****             CyDelayUs(10);
ARM GAS  C:\Users\weiro\AppData\Local\Temp\ccK6dLS7.s 			page 22


 351:main.c        ****             Front_Trigger_Write(0);
 352:main.c        ****         }
 353:main.c        ****     }
 354:main.c        ****     stop();
 355:main.c        ****     avg_count = (QuadDec_1_GetCounter()+QuadDec_2_GetCounter())/2;
 356:main.c        ****     avg_dist = avg_count*(M_PI*WHEEL_DIAMETER/3667);
 357:main.c        ****     if (direction ==0)
 358:main.c        ****     {
 359:main.c        ****         y_coord = y_coord + avg_dist;
 360:main.c        ****     }
 361:main.c        ****     else if (direction ==1)
 362:main.c        ****     {
 363:main.c        ****         
 364:main.c        ****         x_coord = x_coord + avg_dist;
 365:main.c        ****     }
 366:main.c        ****     else if (direction ==2)
 367:main.c        ****     {
 368:main.c        ****         
 369:main.c        ****         y_coord = y_coord - avg_dist;
 370:main.c        ****     }
 371:main.c        ****     else if (direction ==3)
 372:main.c        ****     {
 373:main.c        ****         
 374:main.c        ****         x_coord = x_coord - avg_dist;
 375:main.c        ****     }
 376:main.c        ****     step = step +1;
 377:main.c        ****     //
 378:main.c        ****     //QuadDec_2_SetCounter(0);
 379:main.c        **** }
 380:main.c        **** */
 381:main.c        **** 
 382:main.c        **** void reset_count()
 383:main.c        **** {
 848              		.loc 1 383 0
 849              		.cfi_startproc
 850              		@ args = 0, pretend = 0, frame = 0
 851              		@ frame_needed = 0, uses_anonymous_args = 0
 852 0000 08B5     		push	{r3, lr}
 853              		.cfi_def_cfa_offset 8
 854              		.cfi_offset 3, -8
 855              		.cfi_offset 14, -4
 384:main.c        ****     QuadDec_1_SetCounter(0);
 856              		.loc 1 384 0
 857 0002 0020     		movs	r0, #0
 858 0004 FFF7FEFF 		bl	QuadDec_1_SetCounter
 859              	.LVL70:
 385:main.c        ****     QuadDec_2_SetCounter(0);
 860              		.loc 1 385 0
 861 0008 0020     		movs	r0, #0
 862 000a FFF7FEFF 		bl	QuadDec_2_SetCounter
 863              	.LVL71:
 386:main.c        ****     Count_Master = 0;
 864              		.loc 1 386 0
 865 000e 024B     		ldr	r3, .L71
 866 0010 0022     		movs	r2, #0
 867 0012 5A60     		str	r2, [r3, #4]
 387:main.c        ****     Count_Slave = 0;
ARM GAS  C:\Users\weiro\AppData\Local\Temp\ccK6dLS7.s 			page 23


 868              		.loc 1 387 0
 869 0014 9A60     		str	r2, [r3, #8]
 870 0016 08BD     		pop	{r3, pc}
 871              	.L72:
 872              		.align	2
 873              	.L71:
 874 0018 00000000 		.word	.LANCHOR0
 875              		.cfi_endproc
 876              	.LFE74:
 877              		.size	reset_count, .-reset_count
 878              		.section	.text.move_fixed_dist,"ax",%progbits
 879              		.align	2
 880              		.global	move_fixed_dist
 881              		.thumb
 882              		.thumb_func
 883              		.type	move_fixed_dist, %function
 884              	move_fixed_dist:
 885              	.LFB75:
 388:main.c        **** }
 389:main.c        **** 
 390:main.c        **** void move_fixed_dist(int dist, int flag_FR)
 391:main.c        **** {
 886              		.loc 1 391 0
 887              		.cfi_startproc
 888              		@ args = 0, pretend = 0, frame = 0
 889              		@ frame_needed = 0, uses_anonymous_args = 0
 890              	.LVL72:
 891 0000 70B5     		push	{r4, r5, r6, lr}
 892              		.cfi_def_cfa_offset 16
 893              		.cfi_offset 4, -16
 894              		.cfi_offset 5, -12
 895              		.cfi_offset 6, -8
 896              		.cfi_offset 14, -4
 897 0002 0E46     		mov	r6, r1
 392:main.c        ****     double avg_count, avg_dist;
 393:main.c        ****     int dist_count = dist * CM_COUNT_CONV; // convert dist to count
 898              		.loc 1 393 0
 899 0004 FFF7FEFF 		bl	__aeabi_i2d
 900              	.LVL73:
 901 0008 3F4B     		ldr	r3, .L84+16
 902 000a D3E90023 		ldrd	r2, [r3]
 903 000e FFF7FEFF 		bl	__aeabi_dmul
 904              	.LVL74:
 905 0012 FFF7FEFF 		bl	__aeabi_d2iz
 906              	.LVL75:
 907 0016 0546     		mov	r5, r0
 908              	.LVL76:
 394:main.c        ****     while(abs(Count_Master) <= dist_count && abs(Count_Slave) <= dist_count)
 909              		.loc 1 394 0
 910 0018 0DE0     		b	.L74
 911              	.LVL77:
 912              	.L78:
 395:main.c        ****     {
 396:main.c        ****         Count_Master = QuadDec_1_GetCounter();
 913              		.loc 1 396 0
 914 001a FFF7FEFF 		bl	QuadDec_1_GetCounter
 915              	.LVL78:
ARM GAS  C:\Users\weiro\AppData\Local\Temp\ccK6dLS7.s 			page 24


 916 001e 3B4C     		ldr	r4, .L84+20
 917 0020 6060     		str	r0, [r4, #4]
 397:main.c        ****         Count_Slave = QuadDec_2_GetCounter();
 918              		.loc 1 397 0
 919 0022 FFF7FEFF 		bl	QuadDec_2_GetCounter
 920              	.LVL79:
 921 0026 A060     		str	r0, [r4, #8]
 398:main.c        ****         if (flag_FR==1)
 922              		.loc 1 398 0
 923 0028 012E     		cmp	r6, #1
 924 002a 02D1     		bne	.L75
 399:main.c        ****         {
 400:main.c        ****             forward();
 925              		.loc 1 400 0
 926 002c FFF7FEFF 		bl	forward
 927              	.LVL80:
 928 0030 01E0     		b	.L74
 929              	.L75:
 401:main.c        ****         }
 402:main.c        ****         else
 403:main.c        ****         {
 404:main.c        ****             reverse();
 930              		.loc 1 404 0
 931 0032 FFF7FEFF 		bl	reverse
 932              	.LVL81:
 933              	.L74:
 394:main.c        ****     {
 934              		.loc 1 394 0
 935 0036 354B     		ldr	r3, .L84+20
 936 0038 5B68     		ldr	r3, [r3, #4]
 937 003a 002B     		cmp	r3, #0
 938 003c B8BF     		it	lt
 939 003e 5B42     		rsblt	r3, r3, #0
 940 0040 9D42     		cmp	r5, r3
 941 0042 06DB     		blt	.L77
 394:main.c        ****     {
 942              		.loc 1 394 0 is_stmt 0 discriminator 1
 943 0044 314B     		ldr	r3, .L84+20
 944 0046 9B68     		ldr	r3, [r3, #8]
 945 0048 002B     		cmp	r3, #0
 946 004a B8BF     		it	lt
 947 004c 5B42     		rsblt	r3, r3, #0
 948 004e 9D42     		cmp	r5, r3
 949 0050 E3DA     		bge	.L78
 950              	.L77:
 405:main.c        ****         }
 406:main.c        ****     }
 407:main.c        ****     stop();
 951              		.loc 1 407 0 is_stmt 1
 952 0052 FFF7FEFF 		bl	stop
 953              	.LVL82:
 408:main.c        ****     avg_count = (QuadDec_1_GetCounter()+QuadDec_2_GetCounter())/2;
 954              		.loc 1 408 0
 955 0056 FFF7FEFF 		bl	QuadDec_1_GetCounter
 956              	.LVL83:
 957 005a 0446     		mov	r4, r0
 958 005c FFF7FEFF 		bl	QuadDec_2_GetCounter
ARM GAS  C:\Users\weiro\AppData\Local\Temp\ccK6dLS7.s 			page 25


 959              	.LVL84:
 960 0060 2044     		add	r0, r0, r4
 961 0062 00EBD070 		add	r0, r0, r0, lsr #31
 962 0066 4010     		asrs	r0, r0, #1
 963 0068 FFF7FEFF 		bl	__aeabi_i2d
 964              	.LVL85:
 965 006c 0446     		mov	r4, r0
 966 006e 0D46     		mov	r5, r1
 967              	.LVL86:
 409:main.c        ****     avg_dist = avg_count*(M_PI*WHEEL_DIAMETER/3667);
 968              		.loc 1 409 0
 969 0070 21A3     		adr	r3, .L84
 970 0072 D3E90023 		ldrd	r2, [r3]
 971 0076 2649     		ldr	r1, .L84+24
 972 0078 D1E90801 		ldrd	r0, [r1, #32]
 973 007c FFF7FEFF 		bl	__aeabi_dmul
 974              	.LVL87:
 975 0080 1FA3     		adr	r3, .L84+8
 976 0082 D3E90023 		ldrd	r2, [r3]
 977 0086 FFF7FEFF 		bl	__aeabi_ddiv
 978              	.LVL88:
 979 008a 0246     		mov	r2, r0
 980 008c 0B46     		mov	r3, r1
 981 008e 2046     		mov	r0, r4
 982 0090 2946     		mov	r1, r5
 983 0092 FFF7FEFF 		bl	__aeabi_dmul
 984              	.LVL89:
 410:main.c        ****     if (direction ==0)
 985              		.loc 1 410 0
 986 0096 1D4B     		ldr	r3, .L84+20
 987 0098 D3F86031 		ldr	r3, [r3, #352]
 988 009c 3BB9     		cbnz	r3, .L79
 411:main.c        ****     {
 412:main.c        ****         y_coord = y_coord + avg_dist;
 989              		.loc 1 412 0
 990 009e 1B4C     		ldr	r4, .L84+20
 991              	.LVL90:
 992 00a0 F4E95A23 		ldrd	r2, [r4, #360]!
 993 00a4 FFF7FEFF 		bl	__aeabi_dadd
 994              	.LVL91:
 995 00a8 C4E90001 		strd	r0, [r4]
 996 00ac 20E0     		b	.L80
 997              	.LVL92:
 998              	.L79:
 413:main.c        ****     }
 414:main.c        ****     else if (direction ==1)
 999              		.loc 1 414 0
 1000 00ae 012B     		cmp	r3, #1
 1001 00b0 07D1     		bne	.L81
 415:main.c        ****     {
 416:main.c        ****         
 417:main.c        ****         x_coord = x_coord + avg_dist;
 1002              		.loc 1 417 0
 1003 00b2 164C     		ldr	r4, .L84+20
 1004              	.LVL93:
 1005 00b4 F4E95C23 		ldrd	r2, [r4, #368]!
 1006 00b8 FFF7FEFF 		bl	__aeabi_dadd
ARM GAS  C:\Users\weiro\AppData\Local\Temp\ccK6dLS7.s 			page 26


 1007              	.LVL94:
 1008 00bc C4E90001 		strd	r0, [r4]
 1009 00c0 16E0     		b	.L80
 1010              	.LVL95:
 1011              	.L81:
 418:main.c        ****     }
 419:main.c        ****     else if (direction ==2)
 1012              		.loc 1 419 0
 1013 00c2 022B     		cmp	r3, #2
 1014 00c4 09D1     		bne	.L82
 420:main.c        ****     {
 421:main.c        ****         
 422:main.c        ****         y_coord = y_coord - avg_dist;
 1015              		.loc 1 422 0
 1016 00c6 114C     		ldr	r4, .L84+20
 1017              	.LVL96:
 1018 00c8 0246     		mov	r2, r0
 1019 00ca 0B46     		mov	r3, r1
 1020 00cc F4E95A01 		ldrd	r0, [r4, #360]!
 1021              	.LVL97:
 1022 00d0 FFF7FEFF 		bl	__aeabi_dsub
 1023              	.LVL98:
 1024 00d4 C4E90001 		strd	r0, [r4]
 1025 00d8 0AE0     		b	.L80
 1026              	.LVL99:
 1027              	.L82:
 423:main.c        ****     }
 424:main.c        ****     else if (direction ==3)
 1028              		.loc 1 424 0
 1029 00da 032B     		cmp	r3, #3
 1030 00dc 08D1     		bne	.L80
 425:main.c        ****     {
 426:main.c        ****         
 427:main.c        ****         x_coord = x_coord - avg_dist;
 1031              		.loc 1 427 0
 1032 00de 0B4C     		ldr	r4, .L84+20
 1033              	.LVL100:
 1034 00e0 0246     		mov	r2, r0
 1035 00e2 0B46     		mov	r3, r1
 1036 00e4 F4E95C01 		ldrd	r0, [r4, #368]!
 1037              	.LVL101:
 1038 00e8 FFF7FEFF 		bl	__aeabi_dsub
 1039              	.LVL102:
 1040 00ec C4E90001 		strd	r0, [r4]
 1041              	.L80:
 428:main.c        ****     }
 429:main.c        ****     reset_count();
 1042              		.loc 1 429 0
 1043 00f0 FFF7FEFF 		bl	reset_count
 1044              	.LVL103:
 1045 00f4 70BD     		pop	{r4, r5, r6, pc}
 1046              	.LVL104:
 1047              	.L85:
 1048 00f6 00BF     		.align	3
 1049              	.L84:
 1050 00f8 182D4454 		.word	1413754136
 1051 00fc FB210940 		.word	1074340347
ARM GAS  C:\Users\weiro\AppData\Local\Temp\ccK6dLS7.s 			page 27


 1052 0100 00000000 		.word	0
 1053 0104 00A6AC40 		.word	1085056512
 1054 0108 58010000 		.word	.LANCHOR0+344
 1055 010c 00000000 		.word	.LANCHOR0
 1056 0110 00000000 		.word	.LANCHOR1
 1057              		.cfi_endproc
 1058              	.LFE75:
 1059              		.size	move_fixed_dist, .-move_fixed_dist
 1060              		.section	.text.forward2wall,"ax",%progbits
 1061              		.align	2
 1062              		.global	forward2wall
 1063              		.thumb
 1064              		.thumb_func
 1065              		.type	forward2wall, %function
 1066              	forward2wall:
 1067              	.LFB76:
 430:main.c        **** }
 431:main.c        **** 
 432:main.c        **** void forward2wall()
 433:main.c        **** {
 1068              		.loc 1 433 0
 1069              		.cfi_startproc
 1070              		@ args = 0, pretend = 0, frame = 0
 1071              		@ frame_needed = 0, uses_anonymous_args = 0
 1072 0000 38B5     		push	{r3, r4, r5, lr}
 1073              		.cfi_def_cfa_offset 16
 1074              		.cfi_offset 3, -16
 1075              		.cfi_offset 4, -12
 1076              		.cfi_offset 5, -8
 1077              		.cfi_offset 14, -4
 434:main.c        ****     double avg_count, avg_dist;
 435:main.c        ****     while (wall_detected_10 == 0)
 1078              		.loc 1 435 0
 1079 0002 1BE0     		b	.L87
 1080              	.L90:
 436:main.c        ****     {
 437:main.c        ****         forward();
 1081              		.loc 1 437 0
 1082 0004 FFF7FEFF 		bl	forward
 1083              	.LVL105:
 438:main.c        ****         CyDelay(50);
 1084              		.loc 1 438 0
 1085 0008 3220     		movs	r0, #50
 1086 000a FFF7FEFF 		bl	CyDelay
 1087              	.LVL106:
 439:main.c        ****         while(Front_Echo_1_Read()==0)
 1088              		.loc 1 439 0
 1089 000e 11E0     		b	.L88
 1090              	.L89:
 440:main.c        ****         {
 441:main.c        ****             echo_select = 0;
 1091              		.loc 1 441 0
 1092 0010 0024     		movs	r4, #0
 1093 0012 394B     		ldr	r3, .L96+16
 1094 0014 1C63     		str	r4, [r3, #48]
 442:main.c        ****             Control_Reg_2_Write(echo_select);
 1095              		.loc 1 442 0
ARM GAS  C:\Users\weiro\AppData\Local\Temp\ccK6dLS7.s 			page 28


 1096 0016 2046     		mov	r0, r4
 1097 0018 FFF7FEFF 		bl	Control_Reg_2_Write
 1098              	.LVL107:
 443:main.c        ****             CyDelay(50);
 1099              		.loc 1 443 0
 1100 001c 3220     		movs	r0, #50
 1101 001e FFF7FEFF 		bl	CyDelay
 1102              	.LVL108:
 444:main.c        ****             Trigger_Write(1);
 1103              		.loc 1 444 0
 1104 0022 0120     		movs	r0, #1
 1105 0024 FFF7FEFF 		bl	Trigger_Write
 1106              	.LVL109:
 445:main.c        ****             CyDelayUs(10);
 1107              		.loc 1 445 0
 1108 0028 0A20     		movs	r0, #10
 1109 002a FFF7FEFF 		bl	CyDelayUs
 1110              	.LVL110:
 446:main.c        ****             Trigger_Write(0);
 1111              		.loc 1 446 0
 1112 002e 2046     		mov	r0, r4
 1113 0030 FFF7FEFF 		bl	Trigger_Write
 1114              	.LVL111:
 1115              	.L88:
 439:main.c        ****         {
 1116              		.loc 1 439 0
 1117 0034 FFF7FEFF 		bl	Front_Echo_1_Read
 1118              	.LVL112:
 1119 0038 0028     		cmp	r0, #0
 1120 003a E9D0     		beq	.L89
 1121              	.L87:
 435:main.c        ****     {
 1122              		.loc 1 435 0
 1123 003c 2E4B     		ldr	r3, .L96+16
 1124 003e 1B6C     		ldr	r3, [r3, #64]
 1125 0040 002B     		cmp	r3, #0
 1126 0042 DFD0     		beq	.L90
 447:main.c        ****         }
 448:main.c        ****     }
 449:main.c        ****     stop();
 1127              		.loc 1 449 0
 1128 0044 FFF7FEFF 		bl	stop
 1129              	.LVL113:
 450:main.c        ****     avg_count = (QuadDec_1_GetCounter()+QuadDec_2_GetCounter())/2;
 1130              		.loc 1 450 0
 1131 0048 FFF7FEFF 		bl	QuadDec_1_GetCounter
 1132              	.LVL114:
 1133 004c 0446     		mov	r4, r0
 1134 004e FFF7FEFF 		bl	QuadDec_2_GetCounter
 1135              	.LVL115:
 1136 0052 2044     		add	r0, r0, r4
 1137 0054 00EBD070 		add	r0, r0, r0, lsr #31
 1138 0058 4010     		asrs	r0, r0, #1
 1139 005a FFF7FEFF 		bl	__aeabi_i2d
 1140              	.LVL116:
 1141 005e 0446     		mov	r4, r0
 1142 0060 0D46     		mov	r5, r1
ARM GAS  C:\Users\weiro\AppData\Local\Temp\ccK6dLS7.s 			page 29


 1143              	.LVL117:
 451:main.c        ****     avg_dist = avg_count*(M_PI*WHEEL_DIAMETER/3667);
 1144              		.loc 1 451 0
 1145 0062 21A3     		adr	r3, .L96
 1146 0064 D3E90023 		ldrd	r2, [r3]
 1147 0068 2449     		ldr	r1, .L96+20
 1148 006a D1E90801 		ldrd	r0, [r1, #32]
 1149 006e FFF7FEFF 		bl	__aeabi_dmul
 1150              	.LVL118:
 1151 0072 1FA3     		adr	r3, .L96+8
 1152 0074 D3E90023 		ldrd	r2, [r3]
 1153 0078 FFF7FEFF 		bl	__aeabi_ddiv
 1154              	.LVL119:
 1155 007c 0246     		mov	r2, r0
 1156 007e 0B46     		mov	r3, r1
 1157 0080 2046     		mov	r0, r4
 1158 0082 2946     		mov	r1, r5
 1159 0084 FFF7FEFF 		bl	__aeabi_dmul
 1160              	.LVL120:
 452:main.c        ****     if (direction ==0)
 1161              		.loc 1 452 0
 1162 0088 1B4B     		ldr	r3, .L96+16
 1163 008a D3F86031 		ldr	r3, [r3, #352]
 1164 008e 3BB9     		cbnz	r3, .L91
 453:main.c        ****     {
 454:main.c        ****         y_coord = y_coord + avg_dist;
 1165              		.loc 1 454 0
 1166 0090 194C     		ldr	r4, .L96+16
 1167              	.LVL121:
 1168 0092 F4E95A23 		ldrd	r2, [r4, #360]!
 1169 0096 FFF7FEFF 		bl	__aeabi_dadd
 1170              	.LVL122:
 1171 009a C4E90001 		strd	r0, [r4]
 1172 009e 20E0     		b	.L92
 1173              	.LVL123:
 1174              	.L91:
 455:main.c        ****     }
 456:main.c        ****     else if (direction ==1)
 1175              		.loc 1 456 0
 1176 00a0 012B     		cmp	r3, #1
 1177 00a2 07D1     		bne	.L93
 457:main.c        ****     {
 458:main.c        ****         
 459:main.c        ****         x_coord = x_coord + avg_dist;
 1178              		.loc 1 459 0
 1179 00a4 144C     		ldr	r4, .L96+16
 1180              	.LVL124:
 1181 00a6 F4E95C23 		ldrd	r2, [r4, #368]!
 1182 00aa FFF7FEFF 		bl	__aeabi_dadd
 1183              	.LVL125:
 1184 00ae C4E90001 		strd	r0, [r4]
 1185 00b2 16E0     		b	.L92
 1186              	.LVL126:
 1187              	.L93:
 460:main.c        ****     }
 461:main.c        ****     else if (direction ==2)
 1188              		.loc 1 461 0
ARM GAS  C:\Users\weiro\AppData\Local\Temp\ccK6dLS7.s 			page 30


 1189 00b4 022B     		cmp	r3, #2
 1190 00b6 09D1     		bne	.L94
 462:main.c        ****     {
 463:main.c        ****         
 464:main.c        ****         y_coord = y_coord - avg_dist;
 1191              		.loc 1 464 0
 1192 00b8 0F4C     		ldr	r4, .L96+16
 1193              	.LVL127:
 1194 00ba 0246     		mov	r2, r0
 1195 00bc 0B46     		mov	r3, r1
 1196 00be F4E95A01 		ldrd	r0, [r4, #360]!
 1197              	.LVL128:
 1198 00c2 FFF7FEFF 		bl	__aeabi_dsub
 1199              	.LVL129:
 1200 00c6 C4E90001 		strd	r0, [r4]
 1201 00ca 0AE0     		b	.L92
 1202              	.LVL130:
 1203              	.L94:
 465:main.c        ****     }
 466:main.c        ****     else if (direction ==3)
 1204              		.loc 1 466 0
 1205 00cc 032B     		cmp	r3, #3
 1206 00ce 08D1     		bne	.L92
 467:main.c        ****     {
 468:main.c        ****         
 469:main.c        ****         x_coord = x_coord - avg_dist;
 1207              		.loc 1 469 0
 1208 00d0 094C     		ldr	r4, .L96+16
 1209              	.LVL131:
 1210 00d2 0246     		mov	r2, r0
 1211 00d4 0B46     		mov	r3, r1
 1212 00d6 F4E95C01 		ldrd	r0, [r4, #368]!
 1213              	.LVL132:
 1214 00da FFF7FEFF 		bl	__aeabi_dsub
 1215              	.LVL133:
 1216 00de C4E90001 		strd	r0, [r4]
 1217              	.L92:
 470:main.c        ****     }
 471:main.c        ****     reset_count();
 1218              		.loc 1 471 0
 1219 00e2 FFF7FEFF 		bl	reset_count
 1220              	.LVL134:
 1221 00e6 38BD     		pop	{r3, r4, r5, pc}
 1222              	.L97:
 1223              		.align	3
 1224              	.L96:
 1225 00e8 182D4454 		.word	1413754136
 1226 00ec FB210940 		.word	1074340347
 1227 00f0 00000000 		.word	0
 1228 00f4 00A6AC40 		.word	1085056512
 1229 00f8 00000000 		.word	.LANCHOR0
 1230 00fc 00000000 		.word	.LANCHOR1
 1231              		.cfi_endproc
 1232              	.LFE76:
 1233              		.size	forward2wall, .-forward2wall
 1234              		.section	.text.move2slit,"ax",%progbits
 1235              		.align	2
ARM GAS  C:\Users\weiro\AppData\Local\Temp\ccK6dLS7.s 			page 31


 1236              		.global	move2slit
 1237              		.thumb
 1238              		.thumb_func
 1239              		.type	move2slit, %function
 1240              	move2slit:
 1241              	.LFB77:
 472:main.c        **** }
 473:main.c        **** 
 474:main.c        **** void move2slit()
 475:main.c        **** {
 1242              		.loc 1 475 0
 1243              		.cfi_startproc
 1244              		@ args = 0, pretend = 0, frame = 0
 1245              		@ frame_needed = 0, uses_anonymous_args = 0
 1246 0000 38B5     		push	{r3, r4, r5, lr}
 1247              		.cfi_def_cfa_offset 16
 1248              		.cfi_offset 3, -16
 1249              		.cfi_offset 4, -12
 1250              		.cfi_offset 5, -8
 1251              		.cfi_offset 14, -4
 476:main.c        ****     double avg_count, avg_dist;
 477:main.c        ****     CyDelay(500);
 1252              		.loc 1 477 0
 1253 0002 4FF4FA70 		mov	r0, #500
 1254 0006 FFF7FEFF 		bl	CyDelay
 1255              	.LVL135:
 478:main.c        ****     while (slit_detected == 0)
 1256              		.loc 1 478 0
 1257 000a 27E0     		b	.L99
 1258              	.L102:
 479:main.c        ****     {
 480:main.c        ****         forward();
 1259              		.loc 1 480 0
 1260 000c FFF7FEFF 		bl	forward
 1261              	.LVL136:
 481:main.c        ****         sprintf(string_1, "moving to slit");
 1262              		.loc 1 481 0
 1263 0010 434C     		ldr	r4, .L108+16
 1264 0012 444B     		ldr	r3, .L108+20
 1265 0014 07CB     		ldmia	r3!, {r0, r1, r2}
 1266 0016 2060     		str	r0, [r4]	@ unaligned
 1267 0018 6160     		str	r1, [r4, #4]	@ unaligned
 1268 001a A260     		str	r2, [r4, #8]	@ unaligned
 1269 001c 1A88     		ldrh	r2, [r3]	@ unaligned
 1270 001e 9B78     		ldrb	r3, [r3, #2]	@ zero_extendqisi2
 1271 0020 A281     		strh	r2, [r4, #12]	@ unaligned
 1272 0022 A373     		strb	r3, [r4, #14]
 482:main.c        ****         UART_1_PutString(string_1);
 1273              		.loc 1 482 0
 1274 0024 2046     		mov	r0, r4
 1275 0026 FFF7FEFF 		bl	UART_1_PutString
 1276              	.LVL137:
 483:main.c        ****         CyDelay(100);
 1277              		.loc 1 483 0
 1278 002a 6420     		movs	r0, #100
 1279 002c FFF7FEFF 		bl	CyDelay
 1280              	.LVL138:
ARM GAS  C:\Users\weiro\AppData\Local\Temp\ccK6dLS7.s 			page 32


 484:main.c        ****         while(Left_Echo_Read()==0)
 1281              		.loc 1 484 0
 1282 0030 10E0     		b	.L100
 1283              	.L101:
 485:main.c        ****         {
 486:main.c        ****             echo_select = 2;
 1284              		.loc 1 486 0
 1285 0032 0220     		movs	r0, #2
 1286 0034 3C4B     		ldr	r3, .L108+24
 1287 0036 1863     		str	r0, [r3, #48]
 487:main.c        ****             Control_Reg_2_Write(echo_select);
 1288              		.loc 1 487 0
 1289 0038 FFF7FEFF 		bl	Control_Reg_2_Write
 1290              	.LVL139:
 488:main.c        ****             CyDelay(50);
 1291              		.loc 1 488 0
 1292 003c 3220     		movs	r0, #50
 1293 003e FFF7FEFF 		bl	CyDelay
 1294              	.LVL140:
 489:main.c        ****             Trigger_Write(1);
 1295              		.loc 1 489 0
 1296 0042 0120     		movs	r0, #1
 1297 0044 FFF7FEFF 		bl	Trigger_Write
 1298              	.LVL141:
 490:main.c        ****             CyDelayUs(10);
 1299              		.loc 1 490 0
 1300 0048 0A20     		movs	r0, #10
 1301 004a FFF7FEFF 		bl	CyDelayUs
 1302              	.LVL142:
 491:main.c        ****             Trigger_Write(0);
 1303              		.loc 1 491 0
 1304 004e 0020     		movs	r0, #0
 1305 0050 FFF7FEFF 		bl	Trigger_Write
 1306              	.LVL143:
 1307              	.L100:
 484:main.c        ****         {
 1308              		.loc 1 484 0
 1309 0054 FFF7FEFF 		bl	Left_Echo_Read
 1310              	.LVL144:
 1311 0058 0028     		cmp	r0, #0
 1312 005a EAD0     		beq	.L101
 1313              	.L99:
 478:main.c        ****     {
 1314              		.loc 1 478 0
 1315 005c 324B     		ldr	r3, .L108+24
 1316 005e D3F87831 		ldr	r3, [r3, #376]
 1317 0062 002B     		cmp	r3, #0
 1318 0064 D2D0     		beq	.L102
 492:main.c        ****         }
 493:main.c        ****     }
 494:main.c        ****     stop();
 1319              		.loc 1 494 0
 1320 0066 FFF7FEFF 		bl	stop
 1321              	.LVL145:
 495:main.c        ****     avg_count = (QuadDec_1_GetCounter()+QuadDec_2_GetCounter())/2;
 1322              		.loc 1 495 0
 1323 006a FFF7FEFF 		bl	QuadDec_1_GetCounter
ARM GAS  C:\Users\weiro\AppData\Local\Temp\ccK6dLS7.s 			page 33


 1324              	.LVL146:
 1325 006e 0446     		mov	r4, r0
 1326 0070 FFF7FEFF 		bl	QuadDec_2_GetCounter
 1327              	.LVL147:
 1328 0074 2044     		add	r0, r0, r4
 1329 0076 00EBD070 		add	r0, r0, r0, lsr #31
 1330 007a 4010     		asrs	r0, r0, #1
 1331 007c FFF7FEFF 		bl	__aeabi_i2d
 1332              	.LVL148:
 1333 0080 0446     		mov	r4, r0
 1334 0082 0D46     		mov	r5, r1
 1335              	.LVL149:
 496:main.c        ****     avg_dist = avg_count*(M_PI*WHEEL_DIAMETER/3667);
 1336              		.loc 1 496 0
 1337 0084 22A3     		adr	r3, .L108
 1338 0086 D3E90023 		ldrd	r2, [r3]
 1339 008a 2849     		ldr	r1, .L108+28
 1340 008c D1E90801 		ldrd	r0, [r1, #32]
 1341 0090 FFF7FEFF 		bl	__aeabi_dmul
 1342              	.LVL150:
 1343 0094 20A3     		adr	r3, .L108+8
 1344 0096 D3E90023 		ldrd	r2, [r3]
 1345 009a FFF7FEFF 		bl	__aeabi_ddiv
 1346              	.LVL151:
 1347 009e 0246     		mov	r2, r0
 1348 00a0 0B46     		mov	r3, r1
 1349 00a2 2046     		mov	r0, r4
 1350 00a4 2946     		mov	r1, r5
 1351 00a6 FFF7FEFF 		bl	__aeabi_dmul
 1352              	.LVL152:
 497:main.c        ****     if (direction ==0)
 1353              		.loc 1 497 0
 1354 00aa 1F4B     		ldr	r3, .L108+24
 1355 00ac D3F86031 		ldr	r3, [r3, #352]
 1356 00b0 3BB9     		cbnz	r3, .L103
 498:main.c        ****     {
 499:main.c        ****         y_coord = y_coord + avg_dist;
 1357              		.loc 1 499 0
 1358 00b2 1D4C     		ldr	r4, .L108+24
 1359              	.LVL153:
 1360 00b4 F4E95A23 		ldrd	r2, [r4, #360]!
 1361 00b8 FFF7FEFF 		bl	__aeabi_dadd
 1362              	.LVL154:
 1363 00bc C4E90001 		strd	r0, [r4]
 1364 00c0 20E0     		b	.L104
 1365              	.LVL155:
 1366              	.L103:
 500:main.c        ****     }
 501:main.c        ****     else if (direction ==1)
 1367              		.loc 1 501 0
 1368 00c2 012B     		cmp	r3, #1
 1369 00c4 07D1     		bne	.L105
 502:main.c        ****     {
 503:main.c        ****         
 504:main.c        ****         x_coord = x_coord + avg_dist;
 1370              		.loc 1 504 0
 1371 00c6 184C     		ldr	r4, .L108+24
ARM GAS  C:\Users\weiro\AppData\Local\Temp\ccK6dLS7.s 			page 34


 1372              	.LVL156:
 1373 00c8 F4E95C23 		ldrd	r2, [r4, #368]!
 1374 00cc FFF7FEFF 		bl	__aeabi_dadd
 1375              	.LVL157:
 1376 00d0 C4E90001 		strd	r0, [r4]
 1377 00d4 16E0     		b	.L104
 1378              	.LVL158:
 1379              	.L105:
 505:main.c        ****     }
 506:main.c        ****     else if (direction ==2)
 1380              		.loc 1 506 0
 1381 00d6 022B     		cmp	r3, #2
 1382 00d8 09D1     		bne	.L106
 507:main.c        ****     {
 508:main.c        ****         
 509:main.c        ****         y_coord = y_coord - avg_dist;
 1383              		.loc 1 509 0
 1384 00da 134C     		ldr	r4, .L108+24
 1385              	.LVL159:
 1386 00dc 0246     		mov	r2, r0
 1387 00de 0B46     		mov	r3, r1
 1388 00e0 F4E95A01 		ldrd	r0, [r4, #360]!
 1389              	.LVL160:
 1390 00e4 FFF7FEFF 		bl	__aeabi_dsub
 1391              	.LVL161:
 1392 00e8 C4E90001 		strd	r0, [r4]
 1393 00ec 0AE0     		b	.L104
 1394              	.LVL162:
 1395              	.L106:
 510:main.c        ****     }
 511:main.c        ****     else if (direction ==3)
 1396              		.loc 1 511 0
 1397 00ee 032B     		cmp	r3, #3
 1398 00f0 08D1     		bne	.L104
 512:main.c        ****     {
 513:main.c        ****         
 514:main.c        ****         x_coord = x_coord - avg_dist;
 1399              		.loc 1 514 0
 1400 00f2 0D4C     		ldr	r4, .L108+24
 1401              	.LVL163:
 1402 00f4 0246     		mov	r2, r0
 1403 00f6 0B46     		mov	r3, r1
 1404 00f8 F4E95C01 		ldrd	r0, [r4, #368]!
 1405              	.LVL164:
 1406 00fc FFF7FEFF 		bl	__aeabi_dsub
 1407              	.LVL165:
 1408 0100 C4E90001 		strd	r0, [r4]
 1409              	.L104:
 515:main.c        ****     }
 516:main.c        ****     reset_count();
 1410              		.loc 1 516 0
 1411 0104 FFF7FEFF 		bl	reset_count
 1412              	.LVL166:
 1413 0108 38BD     		pop	{r3, r4, r5, pc}
 1414              	.L109:
 1415 010a 00BFAFF3 		.align	3
 1415      0080
ARM GAS  C:\Users\weiro\AppData\Local\Temp\ccK6dLS7.s 			page 35


 1416              	.L108:
 1417 0110 182D4454 		.word	1413754136
 1418 0114 FB210940 		.word	1074340347
 1419 0118 00000000 		.word	0
 1420 011c 00A6AC40 		.word	1085056512
 1421 0120 00000000 		.word	string_1
 1422 0124 34000000 		.word	.LC3
 1423 0128 00000000 		.word	.LANCHOR0
 1424 012c 00000000 		.word	.LANCHOR1
 1425              		.cfi_endproc
 1426              	.LFE77:
 1427              		.size	move2slit, .-move2slit
 1428              		.section	.text.move2puck,"ax",%progbits
 1429              		.align	2
 1430              		.global	move2puck
 1431              		.thumb
 1432              		.thumb_func
 1433              		.type	move2puck, %function
 1434              	move2puck:
 1435              	.LFB78:
 517:main.c        **** }
 518:main.c        **** 
 519:main.c        **** void move2puck()
 520:main.c        **** {
 1436              		.loc 1 520 0
 1437              		.cfi_startproc
 1438              		@ args = 0, pretend = 0, frame = 0
 1439              		@ frame_needed = 0, uses_anonymous_args = 0
 1440 0000 38B5     		push	{r3, r4, r5, lr}
 1441              		.cfi_def_cfa_offset 16
 1442              		.cfi_offset 3, -16
 1443              		.cfi_offset 4, -12
 1444              		.cfi_offset 5, -8
 1445              		.cfi_offset 14, -4
 521:main.c        ****     double avg_count, avg_dist;
 522:main.c        ****     while (IR_input_Read() == 1)
 1446              		.loc 1 522 0
 1447 0002 01E0     		b	.L111
 1448              	.L112:
 523:main.c        ****     {
 524:main.c        ****         forward();
 1449              		.loc 1 524 0
 1450 0004 FFF7FEFF 		bl	forward
 1451              	.LVL167:
 1452              	.L111:
 522:main.c        ****     {
 1453              		.loc 1 522 0
 1454 0008 FFF7FEFF 		bl	IR_input_Read
 1455              	.LVL168:
 1456 000c 0128     		cmp	r0, #1
 1457 000e F9D0     		beq	.L112
 525:main.c        ****     }
 526:main.c        ****     stop();
 1458              		.loc 1 526 0
 1459 0010 FFF7FEFF 		bl	stop
 1460              	.LVL169:
 527:main.c        ****     CyDelay(500);
ARM GAS  C:\Users\weiro\AppData\Local\Temp\ccK6dLS7.s 			page 36


 1461              		.loc 1 527 0
 1462 0014 4FF4FA70 		mov	r0, #500
 1463 0018 FFF7FEFF 		bl	CyDelay
 1464              	.LVL170:
 528:main.c        ****     
 529:main.c        ****     avg_count = (QuadDec_1_GetCounter()+QuadDec_2_GetCounter())/2;
 1465              		.loc 1 529 0
 1466 001c FFF7FEFF 		bl	QuadDec_1_GetCounter
 1467              	.LVL171:
 1468 0020 0446     		mov	r4, r0
 1469 0022 FFF7FEFF 		bl	QuadDec_2_GetCounter
 1470              	.LVL172:
 1471 0026 2044     		add	r0, r0, r4
 1472 0028 00EBD070 		add	r0, r0, r0, lsr #31
 1473 002c 4010     		asrs	r0, r0, #1
 1474 002e FFF7FEFF 		bl	__aeabi_i2d
 1475              	.LVL173:
 1476 0032 0446     		mov	r4, r0
 1477 0034 0D46     		mov	r5, r1
 1478              	.LVL174:
 530:main.c        ****     avg_dist = avg_count*(M_PI*WHEEL_DIAMETER/3667);
 1479              		.loc 1 530 0
 1480 0036 22A3     		adr	r3, .L118
 1481 0038 D3E90023 		ldrd	r2, [r3]
 1482 003c 2449     		ldr	r1, .L118+16
 1483 003e D1E90801 		ldrd	r0, [r1, #32]
 1484 0042 FFF7FEFF 		bl	__aeabi_dmul
 1485              	.LVL175:
 1486 0046 20A3     		adr	r3, .L118+8
 1487 0048 D3E90023 		ldrd	r2, [r3]
 1488 004c FFF7FEFF 		bl	__aeabi_ddiv
 1489              	.LVL176:
 1490 0050 0246     		mov	r2, r0
 1491 0052 0B46     		mov	r3, r1
 1492 0054 2046     		mov	r0, r4
 1493 0056 2946     		mov	r1, r5
 1494 0058 FFF7FEFF 		bl	__aeabi_dmul
 1495              	.LVL177:
 531:main.c        ****     if (direction ==0)
 1496              		.loc 1 531 0
 1497 005c 1D4B     		ldr	r3, .L118+20
 1498 005e D3F86031 		ldr	r3, [r3, #352]
 1499 0062 3BB9     		cbnz	r3, .L113
 532:main.c        ****     {
 533:main.c        ****         y_coord = y_coord + avg_dist;
 1500              		.loc 1 533 0
 1501 0064 1B4C     		ldr	r4, .L118+20
 1502              	.LVL178:
 1503 0066 F4E95A23 		ldrd	r2, [r4, #360]!
 1504 006a FFF7FEFF 		bl	__aeabi_dadd
 1505              	.LVL179:
 1506 006e C4E90001 		strd	r0, [r4]
 1507 0072 20E0     		b	.L114
 1508              	.LVL180:
 1509              	.L113:
 534:main.c        ****     }
 535:main.c        ****     else if (direction ==1)
ARM GAS  C:\Users\weiro\AppData\Local\Temp\ccK6dLS7.s 			page 37


 1510              		.loc 1 535 0
 1511 0074 012B     		cmp	r3, #1
 1512 0076 07D1     		bne	.L115
 536:main.c        ****     {
 537:main.c        ****         
 538:main.c        ****         x_coord = x_coord + avg_dist;
 1513              		.loc 1 538 0
 1514 0078 164C     		ldr	r4, .L118+20
 1515              	.LVL181:
 1516 007a F4E95C23 		ldrd	r2, [r4, #368]!
 1517 007e FFF7FEFF 		bl	__aeabi_dadd
 1518              	.LVL182:
 1519 0082 C4E90001 		strd	r0, [r4]
 1520 0086 16E0     		b	.L114
 1521              	.LVL183:
 1522              	.L115:
 539:main.c        ****     }
 540:main.c        ****     else if (direction ==2)
 1523              		.loc 1 540 0
 1524 0088 022B     		cmp	r3, #2
 1525 008a 09D1     		bne	.L116
 541:main.c        ****     {
 542:main.c        ****         
 543:main.c        ****         y_coord = y_coord - avg_dist;
 1526              		.loc 1 543 0
 1527 008c 114C     		ldr	r4, .L118+20
 1528              	.LVL184:
 1529 008e 0246     		mov	r2, r0
 1530 0090 0B46     		mov	r3, r1
 1531 0092 F4E95A01 		ldrd	r0, [r4, #360]!
 1532              	.LVL185:
 1533 0096 FFF7FEFF 		bl	__aeabi_dsub
 1534              	.LVL186:
 1535 009a C4E90001 		strd	r0, [r4]
 1536 009e 0AE0     		b	.L114
 1537              	.LVL187:
 1538              	.L116:
 544:main.c        ****     }
 545:main.c        ****     else if (direction ==3)
 1539              		.loc 1 545 0
 1540 00a0 032B     		cmp	r3, #3
 1541 00a2 08D1     		bne	.L114
 546:main.c        ****     {
 547:main.c        ****         
 548:main.c        ****         x_coord = x_coord - avg_dist;
 1542              		.loc 1 548 0
 1543 00a4 0B4C     		ldr	r4, .L118+20
 1544              	.LVL188:
 1545 00a6 0246     		mov	r2, r0
 1546 00a8 0B46     		mov	r3, r1
 1547 00aa F4E95C01 		ldrd	r0, [r4, #368]!
 1548              	.LVL189:
 1549 00ae FFF7FEFF 		bl	__aeabi_dsub
 1550              	.LVL190:
 1551 00b2 C4E90001 		strd	r0, [r4]
 1552              	.L114:
 549:main.c        ****     }
ARM GAS  C:\Users\weiro\AppData\Local\Temp\ccK6dLS7.s 			page 38


 550:main.c        ****     reset_count();
 1553              		.loc 1 550 0
 1554 00b6 FFF7FEFF 		bl	reset_count
 1555              	.LVL191:
 1556 00ba 38BD     		pop	{r3, r4, r5, pc}
 1557              	.L119:
 1558 00bc AFF30080 		.align	3
 1559              	.L118:
 1560 00c0 182D4454 		.word	1413754136
 1561 00c4 FB210940 		.word	1074340347
 1562 00c8 00000000 		.word	0
 1563 00cc 00A6AC40 		.word	1085056512
 1564 00d0 00000000 		.word	.LANCHOR1
 1565 00d4 00000000 		.word	.LANCHOR0
 1566              		.cfi_endproc
 1567              	.LFE78:
 1568              		.size	move2puck, .-move2puck
 1569              		.section	.text.gyro_cal_1,"ax",%progbits
 1570              		.align	2
 1571              		.global	gyro_cal_1
 1572              		.thumb
 1573              		.thumb_func
 1574              		.type	gyro_cal_1, %function
 1575              	gyro_cal_1:
 1576              	.LFB79:
 551:main.c        **** }
 552:main.c        **** 
 553:main.c        **** void gyro_cal_1()
 554:main.c        **** {
 1577              		.loc 1 554 0
 1578              		.cfi_startproc
 1579              		@ args = 0, pretend = 0, frame = 0
 1580              		@ frame_needed = 0, uses_anonymous_args = 0
 1581 0000 10B5     		push	{r4, lr}
 1582              		.cfi_def_cfa_offset 8
 1583              		.cfi_offset 4, -8
 1584              		.cfi_offset 14, -4
 1585              	.LVL192:
 555:main.c        ****     // Determine the target angle based on the 'direction' variable
 556:main.c        ****     int ANGLE_TOLERANCE = 5;
 557:main.c        ****     int targetAngle = 0;
 558:main.c        ****     PWM_Wheels_WriteCompare1(PWM_Cal);
 1586              		.loc 1 558 0
 1587 0002 274C     		ldr	r4, .L133
 1588 0004 A06A     		ldr	r0, [r4, #40]	@ float
 1589 0006 FFF7FEFF 		bl	__aeabi_f2uiz
 1590              	.LVL193:
 1591 000a 80B2     		uxth	r0, r0
 1592 000c FFF7FEFF 		bl	PWM_Wheels_WriteCompare1
 1593              	.LVL194:
 559:main.c        ****     PWM_Wheels_WriteCompare2(PWM_Cal);
 1594              		.loc 1 559 0
 1595 0010 A06A     		ldr	r0, [r4, #40]	@ float
 1596 0012 FFF7FEFF 		bl	__aeabi_f2uiz
 1597              	.LVL195:
 1598 0016 80B2     		uxth	r0, r0
 1599 0018 FFF7FEFF 		bl	PWM_Wheels_WriteCompare2
ARM GAS  C:\Users\weiro\AppData\Local\Temp\ccK6dLS7.s 			page 39


 1600              	.LVL196:
 560:main.c        ****     switch (direction) {
 1601              		.loc 1 560 0
 1602 001c 214B     		ldr	r3, .L133+4
 1603 001e D3F86031 		ldr	r3, [r3, #352]
 1604 0022 032B     		cmp	r3, #3
 1605 0024 3AD8     		bhi	.L120
 1606 0026 DFE803F0 		tbb	[pc, r3]
 1607              	.L123:
 1608 002a 02       		.byte	(.L122-.L123)/2
 1609 002b 09       		.byte	(.L131-.L123)/2
 1610 002c 04       		.byte	(.L125-.L123)/2
 1611 002d 06       		.byte	(.L126-.L123)/2
 1612              		.p2align 1
 1613              	.L122:
 561:main.c        ****         case 0:
 562:main.c        ****             targetAngle = 0;
 1614              		.loc 1 562 0
 1615 002e 0024     		movs	r4, #0
 1616 0030 05E0     		b	.L130
 1617              	.L125:
 1618              	.LVL197:
 563:main.c        ****             break;
 564:main.c        ****         case 1:
 565:main.c        ****             targetAngle = 90;
 566:main.c        ****             break;
 567:main.c        ****         case 2:
 568:main.c        ****             targetAngle = 180;
 1619              		.loc 1 568 0
 1620 0032 B424     		movs	r4, #180
 569:main.c        ****             break;
 1621              		.loc 1 569 0
 1622 0034 03E0     		b	.L130
 1623              	.LVL198:
 1624              	.L126:
 570:main.c        ****         case 3:
 571:main.c        ****             targetAngle = 270;
 1625              		.loc 1 571 0
 1626 0036 4FF48774 		mov	r4, #270
 572:main.c        ****             break;
 1627              		.loc 1 572 0
 1628 003a 00E0     		b	.L130
 1629              	.LVL199:
 1630              	.L131:
 565:main.c        ****             break;
 1631              		.loc 1 565 0
 1632 003c 5A24     		movs	r4, #90
 1633              	.LVL200:
 1634              	.L130:
 1635              	.LBB2:
 573:main.c        ****         default:
 574:main.c        ****             // Handle invalid direction
 575:main.c        ****             return;
 576:main.c        ****     }
 577:main.c        **** 
 578:main.c        ****     // Perform calibration by continuously checking heading
 579:main.c        ****     while (1) {
ARM GAS  C:\Users\weiro\AppData\Local\Temp\ccK6dLS7.s 			page 40


 580:main.c        ****         // Calculate the difference between the current heading and the target angle
 581:main.c        ****         int angleDifference = heading - targetAngle;
 1636              		.loc 1 581 0
 1637 003e 2046     		mov	r0, r4
 1638 0040 FFF7FEFF 		bl	__aeabi_i2d
 1639              	.LVL201:
 1640 0044 0246     		mov	r2, r0
 1641 0046 0B46     		mov	r3, r1
 1642 0048 1649     		ldr	r1, .L133+4
 1643 004a D1E92201 		ldrd	r0, [r1, #136]
 1644 004e FFF7FEFF 		bl	__aeabi_dsub
 1645              	.LVL202:
 1646 0052 FFF7FEFF 		bl	__aeabi_d2iz
 1647              	.LVL203:
 582:main.c        **** 
 583:main.c        ****         // Check if we are within the tolerance range
 584:main.c        ****         if (angleDifference >= -ANGLE_TOLERANCE && angleDifference <= ANGLE_TOLERANCE) {
 1648              		.loc 1 584 0
 1649 0056 10F1050F 		cmn	r0, #5
 1650 005a 14DB     		blt	.L127
 1651              		.loc 1 584 0 is_stmt 0 discriminator 1
 1652 005c 0528     		cmp	r0, #5
 1653 005e 12DC     		bgt	.L127
 585:main.c        ****             // Calibration complete, within tolerance
 586:main.c        ****             stop();
 1654              		.loc 1 586 0 is_stmt 1
 1655 0060 FFF7FEFF 		bl	stop
 1656              	.LVL204:
 1657              	.LBE2:
 587:main.c        ****             break;
 588:main.c        ****             CyDelay(500);
 589:main.c        ****         } else if (angleDifference > 0) {
 590:main.c        ****             // Turn counterclockwise
 591:main.c        ****             turn_anticlockwise();
 592:main.c        ****         } else {
 593:main.c        ****             // Turn clockwise
 594:main.c        ****             turn_clockwise();
 595:main.c        ****         }
 596:main.c        ****         
 597:main.c        ****         CyDelay(50);
 598:main.c        ****     }
 599:main.c        ****     CyDelay(200);
 1658              		.loc 1 599 0
 1659 0064 C820     		movs	r0, #200
 1660 0066 FFF7FEFF 		bl	CyDelay
 1661              	.LVL205:
 600:main.c        ****     PWM_Wheels_WriteCompare1(PWM_Master);
 1662              		.loc 1 600 0
 1663 006a 0D4C     		ldr	r4, .L133
 1664              	.LVL206:
 1665 006c A068     		ldr	r0, [r4, #8]	@ float
 1666 006e FFF7FEFF 		bl	__aeabi_f2uiz
 1667              	.LVL207:
 1668 0072 80B2     		uxth	r0, r0
 1669 0074 FFF7FEFF 		bl	PWM_Wheels_WriteCompare1
 1670              	.LVL208:
 601:main.c        ****     PWM_Wheels_WriteCompare2(PWM_Master);
ARM GAS  C:\Users\weiro\AppData\Local\Temp\ccK6dLS7.s 			page 41


 1671              		.loc 1 601 0
 1672 0078 A068     		ldr	r0, [r4, #8]	@ float
 1673 007a FFF7FEFF 		bl	__aeabi_f2uiz
 1674              	.LVL209:
 1675 007e 80B2     		uxth	r0, r0
 1676 0080 FFF7FEFF 		bl	PWM_Wheels_WriteCompare2
 1677              	.LVL210:
 1678 0084 10BD     		pop	{r4, pc}
 1679              	.LVL211:
 1680              	.L127:
 1681              	.LBB3:
 589:main.c        ****             // Turn counterclockwise
 1682              		.loc 1 589 0
 1683 0086 0028     		cmp	r0, #0
 1684 0088 02DD     		ble	.L128
 591:main.c        ****         } else {
 1685              		.loc 1 591 0
 1686 008a FFF7FEFF 		bl	turn_anticlockwise
 1687              	.LVL212:
 1688 008e 01E0     		b	.L129
 1689              	.LVL213:
 1690              	.L128:
 594:main.c        ****         }
 1691              		.loc 1 594 0
 1692 0090 FFF7FEFF 		bl	turn_clockwise
 1693              	.LVL214:
 1694              	.L129:
 597:main.c        ****     }
 1695              		.loc 1 597 0
 1696 0094 3220     		movs	r0, #50
 1697 0096 FFF7FEFF 		bl	CyDelay
 1698              	.LVL215:
 1699              	.LBE3:
 598:main.c        ****     CyDelay(200);
 1700              		.loc 1 598 0
 1701 009a D0E7     		b	.L130
 1702              	.LVL216:
 1703              	.L120:
 1704 009c 10BD     		pop	{r4, pc}
 1705              	.L134:
 1706 009e 00BF     		.align	2
 1707              	.L133:
 1708 00a0 00000000 		.word	.LANCHOR1
 1709 00a4 00000000 		.word	.LANCHOR0
 1710              		.cfi_endproc
 1711              	.LFE79:
 1712              		.size	gyro_cal_1, .-gyro_cal_1
 1713              		.section	.text.gyro_cal_2,"ax",%progbits
 1714              		.align	2
 1715              		.global	gyro_cal_2
 1716              		.thumb
 1717              		.thumb_func
 1718              		.type	gyro_cal_2, %function
 1719              	gyro_cal_2:
 1720              	.LFB80:
 602:main.c        **** }
 603:main.c        **** void gyro_cal_2()
ARM GAS  C:\Users\weiro\AppData\Local\Temp\ccK6dLS7.s 			page 42


 604:main.c        **** {
 1721              		.loc 1 604 0
 1722              		.cfi_startproc
 1723              		@ args = 0, pretend = 0, frame = 0
 1724              		@ frame_needed = 0, uses_anonymous_args = 0
 1725 0000 10B5     		push	{r4, lr}
 1726              		.cfi_def_cfa_offset 8
 1727              		.cfi_offset 4, -8
 1728              		.cfi_offset 14, -4
 1729              	.LVL217:
 605:main.c        ****     // Determine the target angle based on the 'direction' variable
 606:main.c        ****     int ANGLE_TOLERANCE = 1;
 607:main.c        ****     int targetAngle = 0;
 608:main.c        ****     PWM_Wheels_WriteCompare1(PWM_Cal);
 1730              		.loc 1 608 0
 1731 0002 274C     		ldr	r4, .L148
 1732 0004 A06A     		ldr	r0, [r4, #40]	@ float
 1733 0006 FFF7FEFF 		bl	__aeabi_f2uiz
 1734              	.LVL218:
 1735 000a 80B2     		uxth	r0, r0
 1736 000c FFF7FEFF 		bl	PWM_Wheels_WriteCompare1
 1737              	.LVL219:
 609:main.c        ****     PWM_Wheels_WriteCompare2(PWM_Cal);
 1738              		.loc 1 609 0
 1739 0010 A06A     		ldr	r0, [r4, #40]	@ float
 1740 0012 FFF7FEFF 		bl	__aeabi_f2uiz
 1741              	.LVL220:
 1742 0016 80B2     		uxth	r0, r0
 1743 0018 FFF7FEFF 		bl	PWM_Wheels_WriteCompare2
 1744              	.LVL221:
 610:main.c        ****     switch (direction) {
 1745              		.loc 1 610 0
 1746 001c 214B     		ldr	r3, .L148+4
 1747 001e D3F86031 		ldr	r3, [r3, #352]
 1748 0022 032B     		cmp	r3, #3
 1749 0024 3AD8     		bhi	.L135
 1750 0026 DFE803F0 		tbb	[pc, r3]
 1751              	.L138:
 1752 002a 02       		.byte	(.L137-.L138)/2
 1753 002b 09       		.byte	(.L146-.L138)/2
 1754 002c 04       		.byte	(.L140-.L138)/2
 1755 002d 06       		.byte	(.L141-.L138)/2
 1756              		.p2align 1
 1757              	.L137:
 611:main.c        ****         case 0:
 612:main.c        ****             targetAngle = 0;
 1758              		.loc 1 612 0
 1759 002e 0024     		movs	r4, #0
 1760 0030 05E0     		b	.L145
 1761              	.L140:
 1762              	.LVL222:
 613:main.c        ****             break;
 614:main.c        ****         case 1:
 615:main.c        ****             targetAngle = 90;
 616:main.c        ****             break;
 617:main.c        ****         case 2:
 618:main.c        ****             targetAngle = 180;
ARM GAS  C:\Users\weiro\AppData\Local\Temp\ccK6dLS7.s 			page 43


 1763              		.loc 1 618 0
 1764 0032 B424     		movs	r4, #180
 619:main.c        ****             break;
 1765              		.loc 1 619 0
 1766 0034 03E0     		b	.L145
 1767              	.LVL223:
 1768              	.L141:
 620:main.c        ****         case 3:
 621:main.c        ****             targetAngle = 270;
 1769              		.loc 1 621 0
 1770 0036 4FF48774 		mov	r4, #270
 622:main.c        ****             break;
 1771              		.loc 1 622 0
 1772 003a 00E0     		b	.L145
 1773              	.LVL224:
 1774              	.L146:
 615:main.c        ****             break;
 1775              		.loc 1 615 0
 1776 003c 5A24     		movs	r4, #90
 1777              	.LVL225:
 1778              	.L145:
 1779              	.LBB4:
 623:main.c        ****         default:
 624:main.c        ****             // Handle invalid direction
 625:main.c        ****             return;
 626:main.c        ****     }
 627:main.c        **** 
 628:main.c        ****     // Perform calibration by continuously checking heading
 629:main.c        ****     while (1) {
 630:main.c        ****         // Calculate the difference between the current heading and the target angle
 631:main.c        ****         int angleDifference = heading - targetAngle;
 1780              		.loc 1 631 0
 1781 003e 2046     		mov	r0, r4
 1782 0040 FFF7FEFF 		bl	__aeabi_i2d
 1783              	.LVL226:
 1784 0044 0246     		mov	r2, r0
 1785 0046 0B46     		mov	r3, r1
 1786 0048 1649     		ldr	r1, .L148+4
 1787 004a D1E92201 		ldrd	r0, [r1, #136]
 1788 004e FFF7FEFF 		bl	__aeabi_dsub
 1789              	.LVL227:
 1790 0052 FFF7FEFF 		bl	__aeabi_d2iz
 1791              	.LVL228:
 632:main.c        **** 
 633:main.c        ****         // Check if we are within the tolerance range
 634:main.c        ****         if (angleDifference >= -ANGLE_TOLERANCE && angleDifference <= ANGLE_TOLERANCE) {
 1792              		.loc 1 634 0
 1793 0056 B0F1FF3F 		cmp	r0, #-1
 1794 005a 14DB     		blt	.L142
 1795              		.loc 1 634 0 is_stmt 0 discriminator 1
 1796 005c 0128     		cmp	r0, #1
 1797 005e 12DC     		bgt	.L142
 635:main.c        ****             // Calibration complete, within tolerance
 636:main.c        ****             stop();
 1798              		.loc 1 636 0 is_stmt 1
 1799 0060 FFF7FEFF 		bl	stop
 1800              	.LVL229:
ARM GAS  C:\Users\weiro\AppData\Local\Temp\ccK6dLS7.s 			page 44


 1801              	.LBE4:
 637:main.c        ****             break;
 638:main.c        ****             CyDelay(500);
 639:main.c        ****         } else if (angleDifference > 0) {
 640:main.c        ****             // Turn counterclockwise
 641:main.c        ****             turn_anticlockwise();
 642:main.c        ****         } else {
 643:main.c        ****             // Turn clockwise
 644:main.c        ****             turn_clockwise();
 645:main.c        ****         }
 646:main.c        ****         
 647:main.c        ****         CyDelay(50);
 648:main.c        ****     }
 649:main.c        ****     CyDelay(200);
 1802              		.loc 1 649 0
 1803 0064 C820     		movs	r0, #200
 1804 0066 FFF7FEFF 		bl	CyDelay
 1805              	.LVL230:
 650:main.c        ****     PWM_Wheels_WriteCompare1(PWM_Master);
 1806              		.loc 1 650 0
 1807 006a 0D4C     		ldr	r4, .L148
 1808              	.LVL231:
 1809 006c A068     		ldr	r0, [r4, #8]	@ float
 1810 006e FFF7FEFF 		bl	__aeabi_f2uiz
 1811              	.LVL232:
 1812 0072 80B2     		uxth	r0, r0
 1813 0074 FFF7FEFF 		bl	PWM_Wheels_WriteCompare1
 1814              	.LVL233:
 651:main.c        ****     PWM_Wheels_WriteCompare2(PWM_Master);
 1815              		.loc 1 651 0
 1816 0078 A068     		ldr	r0, [r4, #8]	@ float
 1817 007a FFF7FEFF 		bl	__aeabi_f2uiz
 1818              	.LVL234:
 1819 007e 80B2     		uxth	r0, r0
 1820 0080 FFF7FEFF 		bl	PWM_Wheels_WriteCompare2
 1821              	.LVL235:
 1822 0084 10BD     		pop	{r4, pc}
 1823              	.LVL236:
 1824              	.L142:
 1825              	.LBB5:
 639:main.c        ****             // Turn counterclockwise
 1826              		.loc 1 639 0
 1827 0086 0028     		cmp	r0, #0
 1828 0088 02DD     		ble	.L143
 641:main.c        ****         } else {
 1829              		.loc 1 641 0
 1830 008a FFF7FEFF 		bl	turn_anticlockwise
 1831              	.LVL237:
 1832 008e 01E0     		b	.L144
 1833              	.LVL238:
 1834              	.L143:
 644:main.c        ****         }
 1835              		.loc 1 644 0
 1836 0090 FFF7FEFF 		bl	turn_clockwise
 1837              	.LVL239:
 1838              	.L144:
 647:main.c        ****     }
ARM GAS  C:\Users\weiro\AppData\Local\Temp\ccK6dLS7.s 			page 45


 1839              		.loc 1 647 0
 1840 0094 3220     		movs	r0, #50
 1841 0096 FFF7FEFF 		bl	CyDelay
 1842              	.LVL240:
 1843              	.LBE5:
 648:main.c        ****     CyDelay(200);
 1844              		.loc 1 648 0
 1845 009a D0E7     		b	.L145
 1846              	.LVL241:
 1847              	.L135:
 1848 009c 10BD     		pop	{r4, pc}
 1849              	.L149:
 1850 009e 00BF     		.align	2
 1851              	.L148:
 1852 00a0 00000000 		.word	.LANCHOR1
 1853 00a4 00000000 		.word	.LANCHOR0
 1854              		.cfi_endproc
 1855              	.LFE80:
 1856              		.size	gyro_cal_2, .-gyro_cal_2
 1857              		.section	.text.CW,"ax",%progbits
 1858              		.align	2
 1859              		.global	CW
 1860              		.thumb
 1861              		.thumb_func
 1862              		.type	CW, %function
 1863              	CW:
 1864              	.LFB81:
 652:main.c        **** }
 653:main.c        **** void CW(int PT_TURN_COUNT, int flag_CW)
 654:main.c        **** {
 1865              		.loc 1 654 0
 1866              		.cfi_startproc
 1867              		@ args = 0, pretend = 0, frame = 0
 1868              		@ frame_needed = 0, uses_anonymous_args = 0
 1869              	.LVL242:
 1870 0000 70B5     		push	{r4, r5, r6, lr}
 1871              		.cfi_def_cfa_offset 16
 1872              		.cfi_offset 4, -16
 1873              		.cfi_offset 5, -12
 1874              		.cfi_offset 6, -8
 1875              		.cfi_offset 14, -4
 1876 0002 0546     		mov	r5, r0
 1877 0004 0E46     		mov	r6, r1
 655:main.c        ****     while(abs(Count_Master) <= PT_TURN_COUNT && abs(Count_Slave) <= PT_TURN_COUNT)
 1878              		.loc 1 655 0
 1879 0006 0DE0     		b	.L151
 1880              	.LVL243:
 1881              	.L155:
 656:main.c        ****     {
 657:main.c        ****         Count_Master = QuadDec_1_GetCounter();
 1882              		.loc 1 657 0
 1883 0008 FFF7FEFF 		bl	QuadDec_1_GetCounter
 1884              	.LVL244:
 1885 000c 234C     		ldr	r4, .L161
 1886 000e 6060     		str	r0, [r4, #4]
 658:main.c        ****         Count_Slave = QuadDec_2_GetCounter();
 1887              		.loc 1 658 0
ARM GAS  C:\Users\weiro\AppData\Local\Temp\ccK6dLS7.s 			page 46


 1888 0010 FFF7FEFF 		bl	QuadDec_2_GetCounter
 1889              	.LVL245:
 1890 0014 A060     		str	r0, [r4, #8]
 659:main.c        ****         if (flag_CW == 1)
 1891              		.loc 1 659 0
 1892 0016 012E     		cmp	r6, #1
 1893 0018 02D1     		bne	.L152
 660:main.c        ****         {
 661:main.c        ****             turn_clockwise();
 1894              		.loc 1 661 0
 1895 001a FFF7FEFF 		bl	turn_clockwise
 1896              	.LVL246:
 1897 001e 01E0     		b	.L151
 1898              	.L152:
 662:main.c        ****         }
 663:main.c        ****         else 
 664:main.c        ****         {
 665:main.c        ****             turn_anticlockwise();
 1899              		.loc 1 665 0
 1900 0020 FFF7FEFF 		bl	turn_anticlockwise
 1901              	.LVL247:
 1902              	.L151:
 655:main.c        ****     {
 1903              		.loc 1 655 0
 1904 0024 1D4B     		ldr	r3, .L161
 1905 0026 5B68     		ldr	r3, [r3, #4]
 1906 0028 002B     		cmp	r3, #0
 1907 002a B8BF     		it	lt
 1908 002c 5B42     		rsblt	r3, r3, #0
 1909 002e AB42     		cmp	r3, r5
 1910 0030 06DC     		bgt	.L154
 655:main.c        ****     {
 1911              		.loc 1 655 0 is_stmt 0 discriminator 1
 1912 0032 1A4B     		ldr	r3, .L161
 1913 0034 9B68     		ldr	r3, [r3, #8]
 1914 0036 002B     		cmp	r3, #0
 1915 0038 B8BF     		it	lt
 1916 003a 5B42     		rsblt	r3, r3, #0
 1917 003c 9D42     		cmp	r5, r3
 1918 003e E3DA     		bge	.L155
 1919              	.L154:
 666:main.c        ****         }
 667:main.c        ****     }
 668:main.c        ****     stop();    
 1920              		.loc 1 668 0 is_stmt 1
 1921 0040 FFF7FEFF 		bl	stop
 1922              	.LVL248:
 669:main.c        ****     if (flag_CW == 1)
 1923              		.loc 1 669 0
 1924 0044 012E     		cmp	r6, #1
 1925 0046 0ED1     		bne	.L156
 670:main.c        ****     {
 671:main.c        ****         if (direction == 3)
 1926              		.loc 1 671 0
 1927 0048 144B     		ldr	r3, .L161
 1928 004a D3F86031 		ldr	r3, [r3, #352]
 1929 004e 032B     		cmp	r3, #3
ARM GAS  C:\Users\weiro\AppData\Local\Temp\ccK6dLS7.s 			page 47


 1930 0050 04D1     		bne	.L157
 672:main.c        ****         {
 673:main.c        ****             direction = 0;
 1931              		.loc 1 673 0
 1932 0052 0022     		movs	r2, #0
 1933 0054 114B     		ldr	r3, .L161
 1934 0056 C3F86021 		str	r2, [r3, #352]
 1935 005a 11E0     		b	.L158
 1936              	.L157:
 674:main.c        ****         }
 675:main.c        ****         else
 676:main.c        ****         {
 677:main.c        ****             direction = direction +1;
 1937              		.loc 1 677 0
 1938 005c 0133     		adds	r3, r3, #1
 1939 005e 0F4A     		ldr	r2, .L161
 1940 0060 C2F86031 		str	r3, [r2, #352]
 1941 0064 0CE0     		b	.L158
 1942              	.L156:
 678:main.c        ****         }
 679:main.c        ****     }
 680:main.c        ****     else
 681:main.c        ****     {
 682:main.c        ****         if (direction ==0)
 1943              		.loc 1 682 0
 1944 0066 0D4B     		ldr	r3, .L161
 1945 0068 D3F86031 		ldr	r3, [r3, #352]
 1946 006c 23B9     		cbnz	r3, .L159
 683:main.c        ****         {
 684:main.c        ****             direction = 3;
 1947              		.loc 1 684 0
 1948 006e 0322     		movs	r2, #3
 1949 0070 0A4B     		ldr	r3, .L161
 1950 0072 C3F86021 		str	r2, [r3, #352]
 1951 0076 03E0     		b	.L158
 1952              	.L159:
 685:main.c        ****         }
 686:main.c        ****         else
 687:main.c        ****         {
 688:main.c        ****             direction = direction -1;
 1953              		.loc 1 688 0
 1954 0078 013B     		subs	r3, r3, #1
 1955 007a 084A     		ldr	r2, .L161
 1956 007c C2F86031 		str	r3, [r2, #352]
 1957              	.L158:
 689:main.c        ****         }
 690:main.c        ****     }
 691:main.c        ****     CyDelay(50);
 1958              		.loc 1 691 0
 1959 0080 3220     		movs	r0, #50
 1960 0082 FFF7FEFF 		bl	CyDelay
 1961              	.LVL249:
 692:main.c        ****     gyro_cal_1();
 1962              		.loc 1 692 0
 1963 0086 FFF7FEFF 		bl	gyro_cal_1
 1964              	.LVL250:
 693:main.c        ****     CyDelay(500);
ARM GAS  C:\Users\weiro\AppData\Local\Temp\ccK6dLS7.s 			page 48


 1965              		.loc 1 693 0
 1966 008a 4FF4FA70 		mov	r0, #500
 1967 008e FFF7FEFF 		bl	CyDelay
 1968              	.LVL251:
 694:main.c        ****     gyro_cal_2();
 1969              		.loc 1 694 0
 1970 0092 FFF7FEFF 		bl	gyro_cal_2
 1971              	.LVL252:
 695:main.c        ****     reset_count();
 1972              		.loc 1 695 0
 1973 0096 FFF7FEFF 		bl	reset_count
 1974              	.LVL253:
 1975 009a 70BD     		pop	{r4, r5, r6, pc}
 1976              	.LVL254:
 1977              	.L162:
 1978              		.align	2
 1979              	.L161:
 1980 009c 00000000 		.word	.LANCHOR0
 1981              		.cfi_endproc
 1982              	.LFE81:
 1983              		.size	CW, .-CW
 1984              		.section	.text.Color_Sensing_Function,"ax",%progbits
 1985              		.align	2
 1986              		.global	Color_Sensing_Function
 1987              		.thumb
 1988              		.thumb_func
 1989              		.type	Color_Sensing_Function, %function
 1990              	Color_Sensing_Function:
 1991              	.LFB82:
 696:main.c        **** }
 697:main.c        **** 
 698:main.c        **** void Color_Sensing_Function()
 699:main.c        **** {
 1992              		.loc 1 699 0
 1993              		.cfi_startproc
 1994              		@ args = 0, pretend = 0, frame = 0
 1995              		@ frame_needed = 0, uses_anonymous_args = 0
 1996 0000 38B5     		push	{r3, r4, r5, lr}
 1997              		.cfi_def_cfa_offset 16
 1998              		.cfi_offset 3, -16
 1999              		.cfi_offset 4, -12
 2000              		.cfi_offset 5, -8
 2001              		.cfi_offset 14, -4
 2002              	.LVL255:
 700:main.c        ****     int mode = 1;
 701:main.c        **** 
 702:main.c        ****     //int count = 0;
 703:main.c        ****     
 704:main.c        ****     S0_Write(1);
 2003              		.loc 1 704 0
 2004 0002 0120     		movs	r0, #1
 2005 0004 FFF7FEFF 		bl	S0_Write
 2006              	.LVL256:
 705:main.c        ****     S1_Write(1);
 2007              		.loc 1 705 0
 2008 0008 0120     		movs	r0, #1
 2009 000a FFF7FEFF 		bl	S1_Write
ARM GAS  C:\Users\weiro\AppData\Local\Temp\ccK6dLS7.s 			page 49


 2010              	.LVL257:
 706:main.c        ****     CS_LED_Write(1);
 2011              		.loc 1 706 0
 2012 000e 0120     		movs	r0, #1
 2013 0010 FFF7FEFF 		bl	CS_LED_Write
 2014              	.LVL258:
 707:main.c        ****     CyDelay(10);
 2015              		.loc 1 707 0
 2016 0014 0A20     		movs	r0, #10
 2017 0016 FFF7FEFF 		bl	CyDelay
 2018              	.LVL259:
 708:main.c        ****     Counter_ColorSensor_Start();
 2019              		.loc 1 708 0
 2020 001a FFF7FEFF 		bl	Counter_ColorSensor_Start
 2021              	.LVL260:
 709:main.c        ****     
 710:main.c        ****     if (mode == 1) // red mode --> red filter
 711:main.c        ****     {
 712:main.c        ****         compare_ready = 0;
 2022              		.loc 1 712 0
 2023 001e 0024     		movs	r4, #0
 2024 0020 664B     		ldr	r3, .L171
 2025 0022 5C64     		str	r4, [r3, #68]
 713:main.c        ****         S2_Write(0);
 2026              		.loc 1 713 0
 2027 0024 2046     		mov	r0, r4
 2028 0026 FFF7FEFF 		bl	S2_Write
 2029              	.LVL261:
 714:main.c        ****         S3_Write(0);
 2030              		.loc 1 714 0
 2031 002a 2046     		mov	r0, r4
 2032 002c FFF7FEFF 		bl	S3_Write
 2033              	.LVL262:
 715:main.c        ****         CyDelay(20);
 2034              		.loc 1 715 0
 2035 0030 1420     		movs	r0, #20
 2036 0032 FFF7FEFF 		bl	CyDelay
 2037              	.LVL263:
 716:main.c        ****         Control_Reg_1_Write(1);
 2038              		.loc 1 716 0
 2039 0036 0120     		movs	r0, #1
 2040 0038 FFF7FEFF 		bl	Control_Reg_1_Write
 2041              	.LVL264:
 717:main.c        ****         CyDelay(1);
 2042              		.loc 1 717 0
 2043 003c 0120     		movs	r0, #1
 2044 003e FFF7FEFF 		bl	CyDelay
 2045              	.LVL265:
 718:main.c        ****         Control_Reg_1_Write(0);
 2046              		.loc 1 718 0
 2047 0042 2046     		mov	r0, r4
 2048 0044 FFF7FEFF 		bl	Control_Reg_1_Write
 2049              	.LVL266:
 2050              	.L164:
 719:main.c        ****         while(compare_ready==0)
 2051              		.loc 1 719 0 discriminator 1
 2052 0048 5C4B     		ldr	r3, .L171
ARM GAS  C:\Users\weiro\AppData\Local\Temp\ccK6dLS7.s 			page 50


 2053 004a 5B6C     		ldr	r3, [r3, #68]
 2054 004c 002B     		cmp	r3, #0
 2055 004e FBD0     		beq	.L164
 720:main.c        ****         {
 721:main.c        ****             // waiting period (until compare ready = 1
 722:main.c        ****             //sprintf(string_1,"waiting\n");
 723:main.c        ****             //UART_1_PutString(string_1);
 724:main.c        ****         }
 725:main.c        ****         CS_count_Red = Counter_ColorSensor_ReadCapture();
 2056              		.loc 1 725 0
 2057 0050 FFF7FEFF 		bl	Counter_ColorSensor_ReadCapture
 2058              	.LVL267:
 2059 0054 0246     		mov	r2, r0
 2060 0056 594D     		ldr	r5, .L171
 2061 0058 C5F87C01 		str	r0, [r5, #380]
 726:main.c        ****         sprintf(string_1,"red: %d\n", CS_count_Red);
 2062              		.loc 1 726 0
 2063 005c 584C     		ldr	r4, .L171+4
 2064 005e 5949     		ldr	r1, .L171+8
 2065 0060 2046     		mov	r0, r4
 2066 0062 FFF7FEFF 		bl	sprintf
 2067              	.LVL268:
 727:main.c        ****         UART_1_PutString(string_1);
 2068              		.loc 1 727 0
 2069 0066 2046     		mov	r0, r4
 2070 0068 FFF7FEFF 		bl	UART_1_PutString
 2071              	.LVL269:
 728:main.c        ****         mode = 2;
 729:main.c        ****     }
 730:main.c        ****     Counter_ColorSensor_Stop();
 2072              		.loc 1 730 0
 2073 006c FFF7FEFF 		bl	Counter_ColorSensor_Stop
 2074              	.LVL270:
 731:main.c        ****     CyDelay(100);
 2075              		.loc 1 731 0
 2076 0070 6420     		movs	r0, #100
 2077 0072 FFF7FEFF 		bl	CyDelay
 2078              	.LVL271:
 732:main.c        ****     Counter_ColorSensor_Start();
 2079              		.loc 1 732 0
 2080 0076 FFF7FEFF 		bl	Counter_ColorSensor_Start
 2081              	.LVL272:
 733:main.c        ****     if (mode == 2) // green mode --> green filter
 734:main.c        ****     {
 735:main.c        ****         compare_ready = 0;
 2082              		.loc 1 735 0
 2083 007a 0024     		movs	r4, #0
 2084 007c 6C64     		str	r4, [r5, #68]
 736:main.c        ****         S2_Write(1);
 2085              		.loc 1 736 0
 2086 007e 0120     		movs	r0, #1
 2087 0080 FFF7FEFF 		bl	S2_Write
 2088              	.LVL273:
 737:main.c        ****         S3_Write(1);
 2089              		.loc 1 737 0
 2090 0084 0120     		movs	r0, #1
 2091 0086 FFF7FEFF 		bl	S3_Write
ARM GAS  C:\Users\weiro\AppData\Local\Temp\ccK6dLS7.s 			page 51


 2092              	.LVL274:
 738:main.c        ****         CyDelay(20);
 2093              		.loc 1 738 0
 2094 008a 1420     		movs	r0, #20
 2095 008c FFF7FEFF 		bl	CyDelay
 2096              	.LVL275:
 739:main.c        ****         Control_Reg_1_Write(1);
 2097              		.loc 1 739 0
 2098 0090 0120     		movs	r0, #1
 2099 0092 FFF7FEFF 		bl	Control_Reg_1_Write
 2100              	.LVL276:
 740:main.c        ****         CyDelay(1);
 2101              		.loc 1 740 0
 2102 0096 0120     		movs	r0, #1
 2103 0098 FFF7FEFF 		bl	CyDelay
 2104              	.LVL277:
 741:main.c        ****         Control_Reg_1_Write(0);
 2105              		.loc 1 741 0
 2106 009c 2046     		mov	r0, r4
 2107 009e FFF7FEFF 		bl	Control_Reg_1_Write
 2108              	.LVL278:
 2109              	.L165:
 742:main.c        ****         while(compare_ready==0)
 2110              		.loc 1 742 0 discriminator 1
 2111 00a2 464B     		ldr	r3, .L171
 2112 00a4 5B6C     		ldr	r3, [r3, #68]
 2113 00a6 002B     		cmp	r3, #0
 2114 00a8 FBD0     		beq	.L165
 743:main.c        ****         {
 744:main.c        ****             // waiting period (until compare ready = 1
 745:main.c        ****         }
 746:main.c        ****         CS_count_Green = Counter_ColorSensor_ReadCapture();
 2115              		.loc 1 746 0
 2116 00aa FFF7FEFF 		bl	Counter_ColorSensor_ReadCapture
 2117              	.LVL279:
 2118 00ae 0246     		mov	r2, r0
 2119 00b0 424D     		ldr	r5, .L171
 2120 00b2 C5F88001 		str	r0, [r5, #384]
 747:main.c        ****         sprintf(string_1,"green: %d\n", CS_count_Green);
 2121              		.loc 1 747 0
 2122 00b6 424C     		ldr	r4, .L171+4
 2123 00b8 4349     		ldr	r1, .L171+12
 2124 00ba 2046     		mov	r0, r4
 2125 00bc FFF7FEFF 		bl	sprintf
 2126              	.LVL280:
 748:main.c        ****         UART_1_PutString(string_1);
 2127              		.loc 1 748 0
 2128 00c0 2046     		mov	r0, r4
 2129 00c2 FFF7FEFF 		bl	UART_1_PutString
 2130              	.LVL281:
 749:main.c        ****         mode = 3;
 750:main.c        ****     }
 751:main.c        ****     Counter_ColorSensor_Stop();
 2131              		.loc 1 751 0
 2132 00c6 FFF7FEFF 		bl	Counter_ColorSensor_Stop
 2133              	.LVL282:
 752:main.c        ****     CyDelay(100);
ARM GAS  C:\Users\weiro\AppData\Local\Temp\ccK6dLS7.s 			page 52


 2134              		.loc 1 752 0
 2135 00ca 6420     		movs	r0, #100
 2136 00cc FFF7FEFF 		bl	CyDelay
 2137              	.LVL283:
 753:main.c        ****     Counter_ColorSensor_Start();
 2138              		.loc 1 753 0
 2139 00d0 FFF7FEFF 		bl	Counter_ColorSensor_Start
 2140              	.LVL284:
 754:main.c        ****     if (mode == 3) // blue mode --> blue filter
 755:main.c        ****     {
 756:main.c        ****         compare_ready = 0;
 2141              		.loc 1 756 0
 2142 00d4 0024     		movs	r4, #0
 2143 00d6 6C64     		str	r4, [r5, #68]
 757:main.c        ****         S2_Write(0);
 2144              		.loc 1 757 0
 2145 00d8 2046     		mov	r0, r4
 2146 00da FFF7FEFF 		bl	S2_Write
 2147              	.LVL285:
 758:main.c        ****         S3_Write(1);
 2148              		.loc 1 758 0
 2149 00de 0120     		movs	r0, #1
 2150 00e0 FFF7FEFF 		bl	S3_Write
 2151              	.LVL286:
 759:main.c        ****         CyDelay(20);
 2152              		.loc 1 759 0
 2153 00e4 1420     		movs	r0, #20
 2154 00e6 FFF7FEFF 		bl	CyDelay
 2155              	.LVL287:
 760:main.c        ****         Control_Reg_1_Write(1);
 2156              		.loc 1 760 0
 2157 00ea 0120     		movs	r0, #1
 2158 00ec FFF7FEFF 		bl	Control_Reg_1_Write
 2159              	.LVL288:
 761:main.c        ****         CyDelay(1);
 2160              		.loc 1 761 0
 2161 00f0 0120     		movs	r0, #1
 2162 00f2 FFF7FEFF 		bl	CyDelay
 2163              	.LVL289:
 762:main.c        ****         Control_Reg_1_Write(0);
 2164              		.loc 1 762 0
 2165 00f6 2046     		mov	r0, r4
 2166 00f8 FFF7FEFF 		bl	Control_Reg_1_Write
 2167              	.LVL290:
 2168              	.L166:
 763:main.c        ****         while(compare_ready==0)
 2169              		.loc 1 763 0 discriminator 1
 2170 00fc 2F4B     		ldr	r3, .L171
 2171 00fe 5B6C     		ldr	r3, [r3, #68]
 2172 0100 002B     		cmp	r3, #0
 2173 0102 FBD0     		beq	.L166
 764:main.c        ****         {
 765:main.c        ****             // waiting period (until compare ready = 1
 766:main.c        ****         }
 767:main.c        ****         CS_count_Blue = Counter_ColorSensor_ReadCapture();
 2174              		.loc 1 767 0
 2175 0104 FFF7FEFF 		bl	Counter_ColorSensor_ReadCapture
ARM GAS  C:\Users\weiro\AppData\Local\Temp\ccK6dLS7.s 			page 53


 2176              	.LVL291:
 2177 0108 0246     		mov	r2, r0
 2178 010a 2C4C     		ldr	r4, .L171
 2179 010c C4F88401 		str	r0, [r4, #388]
 768:main.c        ****         sprintf(string_1,"blue: %d\n", CS_count_Blue);
 2180              		.loc 1 768 0
 2181 0110 2B4D     		ldr	r5, .L171+4
 2182 0112 2E49     		ldr	r1, .L171+16
 2183 0114 2846     		mov	r0, r5
 2184 0116 FFF7FEFF 		bl	sprintf
 2185              	.LVL292:
 769:main.c        ****         UART_1_PutString(string_1);
 2186              		.loc 1 769 0
 2187 011a 2846     		mov	r0, r5
 2188 011c FFF7FEFF 		bl	UART_1_PutString
 2189              	.LVL293:
 770:main.c        ****         mode = 0;
 771:main.c        ****     }
 772:main.c        ****     Counter_ColorSensor_Stop();
 2190              		.loc 1 772 0
 2191 0120 FFF7FEFF 		bl	Counter_ColorSensor_Stop
 2192              	.LVL294:
 773:main.c        ****     if (CS_count_Red > CS_count_Green && CS_count_Red > CS_count_Blue)
 2193              		.loc 1 773 0
 2194 0124 D4F87C31 		ldr	r3, [r4, #380]
 2195 0128 D4F88021 		ldr	r2, [r4, #384]
 2196 012c 9342     		cmp	r3, r2
 2197 012e 0FDD     		ble	.L167
 2198              		.loc 1 773 0 is_stmt 0 discriminator 1
 2199 0130 D4F88421 		ldr	r2, [r4, #388]
 2200 0134 9342     		cmp	r3, r2
 2201 0136 0BDD     		ble	.L167
 774:main.c        ****     {
 775:main.c        ****         color_detected = 1; //red
 2202              		.loc 1 775 0 is_stmt 1
 2203 0138 0120     		movs	r0, #1
 2204 013a C4F88801 		str	r0, [r4, #392]
 776:main.c        ****         led_red_Write(1);
 2205              		.loc 1 776 0
 2206 013e FFF7FEFF 		bl	led_red_Write
 2207              	.LVL295:
 777:main.c        ****         CyDelay(1000);
 2208              		.loc 1 777 0
 2209 0142 4FF47A70 		mov	r0, #1000
 2210 0146 FFF7FEFF 		bl	CyDelay
 2211              	.LVL296:
 778:main.c        ****         led_red_Write(0);
 2212              		.loc 1 778 0
 2213 014a 0020     		movs	r0, #0
 2214 014c FFF7FEFF 		bl	led_red_Write
 2215              	.LVL297:
 2216              	.L167:
 779:main.c        ****     }
 780:main.c        ****     if (CS_count_Green > CS_count_Red && CS_count_Green > CS_count_Blue)
 2217              		.loc 1 780 0
 2218 0150 1A4B     		ldr	r3, .L171
 2219 0152 D3F88021 		ldr	r2, [r3, #384]
ARM GAS  C:\Users\weiro\AppData\Local\Temp\ccK6dLS7.s 			page 54


 2220 0156 D3F87C31 		ldr	r3, [r3, #380]
 2221 015a 9A42     		cmp	r2, r3
 2222 015c 12DD     		ble	.L168
 2223              		.loc 1 780 0 is_stmt 0 discriminator 1
 2224 015e 174B     		ldr	r3, .L171
 2225 0160 D3F88431 		ldr	r3, [r3, #388]
 2226 0164 9A42     		cmp	r2, r3
 2227 0166 0DDD     		ble	.L168
 781:main.c        ****     {
 782:main.c        ****         color_detected = 2; //green
 2228              		.loc 1 782 0 is_stmt 1
 2229 0168 0222     		movs	r2, #2
 2230 016a 144B     		ldr	r3, .L171
 2231 016c C3F88821 		str	r2, [r3, #392]
 783:main.c        ****         led_green_Write(1);
 2232              		.loc 1 783 0
 2233 0170 0120     		movs	r0, #1
 2234 0172 FFF7FEFF 		bl	led_green_Write
 2235              	.LVL298:
 784:main.c        ****         CyDelay(1000);
 2236              		.loc 1 784 0
 2237 0176 4FF47A70 		mov	r0, #1000
 2238 017a FFF7FEFF 		bl	CyDelay
 2239              	.LVL299:
 785:main.c        ****         led_green_Write(0);
 2240              		.loc 1 785 0
 2241 017e 0020     		movs	r0, #0
 2242 0180 FFF7FEFF 		bl	led_green_Write
 2243              	.LVL300:
 2244              	.L168:
 786:main.c        ****     }
 787:main.c        ****     if (CS_count_Blue > CS_count_Red && CS_count_Blue > CS_count_Green)
 2245              		.loc 1 787 0
 2246 0184 0D4B     		ldr	r3, .L171
 2247 0186 D3F88421 		ldr	r2, [r3, #388]
 2248 018a D3F87C31 		ldr	r3, [r3, #380]
 2249 018e 9A42     		cmp	r2, r3
 2250 0190 12DD     		ble	.L163
 2251              		.loc 1 787 0 is_stmt 0 discriminator 1
 2252 0192 0A4B     		ldr	r3, .L171
 2253 0194 D3F88031 		ldr	r3, [r3, #384]
 2254 0198 9A42     		cmp	r2, r3
 2255 019a 0DDD     		ble	.L163
 788:main.c        ****     {
 789:main.c        ****         color_detected = 3; //blue
 2256              		.loc 1 789 0 is_stmt 1
 2257 019c 0322     		movs	r2, #3
 2258 019e 074B     		ldr	r3, .L171
 2259 01a0 C3F88821 		str	r2, [r3, #392]
 790:main.c        ****         led_blue_Write(1);
 2260              		.loc 1 790 0
 2261 01a4 0120     		movs	r0, #1
 2262 01a6 FFF7FEFF 		bl	led_blue_Write
 2263              	.LVL301:
 791:main.c        ****         CyDelay(1000);
 2264              		.loc 1 791 0
 2265 01aa 4FF47A70 		mov	r0, #1000
ARM GAS  C:\Users\weiro\AppData\Local\Temp\ccK6dLS7.s 			page 55


 2266 01ae FFF7FEFF 		bl	CyDelay
 2267              	.LVL302:
 792:main.c        ****         led_blue_Write(0);
 2268              		.loc 1 792 0
 2269 01b2 0020     		movs	r0, #0
 2270 01b4 FFF7FEFF 		bl	led_blue_Write
 2271              	.LVL303:
 2272              	.L163:
 2273 01b8 38BD     		pop	{r3, r4, r5, pc}
 2274              	.L172:
 2275 01ba 00BF     		.align	2
 2276              	.L171:
 2277 01bc 00000000 		.word	.LANCHOR0
 2278 01c0 00000000 		.word	string_1
 2279 01c4 44000000 		.word	.LC4
 2280 01c8 50000000 		.word	.LC5
 2281 01cc 5C000000 		.word	.LC6
 2282              		.cfi_endproc
 2283              	.LFE82:
 2284              		.size	Color_Sensing_Function, .-Color_Sensing_Function
 2285              		.section	.text.Gyroscope_Function,"ax",%progbits
 2286              		.align	2
 2287              		.global	Gyroscope_Function
 2288              		.thumb
 2289              		.thumb_func
 2290              		.type	Gyroscope_Function, %function
 2291              	Gyroscope_Function:
 2292              	.LFB83:
 793:main.c        ****     }
 794:main.c        ****     
 795:main.c        ****     //step = step +1;
 796:main.c        **** }
 797:main.c        **** 
 798:main.c        **** void Gyroscope_Function()
 799:main.c        **** {
 2293              		.loc 1 799 0
 2294              		.cfi_startproc
 2295              		@ args = 0, pretend = 0, frame = 0
 2296              		@ frame_needed = 0, uses_anonymous_args = 0
 2297 0000 08B5     		push	{r3, lr}
 2298              		.cfi_def_cfa_offset 8
 2299              		.cfi_offset 3, -8
 2300              		.cfi_offset 14, -4
 800:main.c        ****     //Bring the sensor out of sleep mode
 801:main.c        ****     I2C_1_MasterSendStart(MPU6050,0); //Steps 1-2
 2301              		.loc 1 801 0
 2302 0002 0021     		movs	r1, #0
 2303 0004 6820     		movs	r0, #104
 2304 0006 FFF7FEFF 		bl	I2C_1_MasterSendStart
 2305              	.LVL304:
 802:main.c        ****     I2C_1_MasterWriteByte(0x6B); //Step 3
 2306              		.loc 1 802 0
 2307 000a 6B20     		movs	r0, #107
 2308 000c FFF7FEFF 		bl	I2C_1_MasterWriteByte
 2309              	.LVL305:
 803:main.c        ****     I2C_1_MasterWriteByte(0x00); //Step 4
 2310              		.loc 1 803 0
ARM GAS  C:\Users\weiro\AppData\Local\Temp\ccK6dLS7.s 			page 56


 2311 0010 0020     		movs	r0, #0
 2312 0012 FFF7FEFF 		bl	I2C_1_MasterWriteByte
 2313              	.LVL306:
 804:main.c        ****     I2C_1_MasterSendStop(); //Step 5
 2314              		.loc 1 804 0
 2315 0016 FFF7FEFF 		bl	I2C_1_MasterSendStop
 2316              	.LVL307:
 805:main.c        ****     CyDelay(1);
 2317              		.loc 1 805 0
 2318 001a 0120     		movs	r0, #1
 2319 001c FFF7FEFF 		bl	CyDelay
 2320              	.LVL308:
 806:main.c        ****     
 807:main.c        ****     
 808:main.c        ****     //Set the scaling factor of the sensor
 809:main.c        ****     I2C_1_MasterSendStart(MPU6050,0); //Steps 1-2
 2321              		.loc 1 809 0
 2322 0020 0021     		movs	r1, #0
 2323 0022 6820     		movs	r0, #104
 2324 0024 FFF7FEFF 		bl	I2C_1_MasterSendStart
 2325              	.LVL309:
 810:main.c        ****     I2C_1_MasterWriteByte(0x1B); //Step 3
 2326              		.loc 1 810 0
 2327 0028 1B20     		movs	r0, #27
 2328 002a FFF7FEFF 		bl	I2C_1_MasterWriteByte
 2329              	.LVL310:
 811:main.c        ****     I2C_1_MasterWriteByte(0x08); //Step 4
 2330              		.loc 1 811 0
 2331 002e 0820     		movs	r0, #8
 2332 0030 FFF7FEFF 		bl	I2C_1_MasterWriteByte
 2333              	.LVL311:
 812:main.c        ****     I2C_1_MasterSendStop(); //Step 5
 2334              		.loc 1 812 0
 2335 0034 FFF7FEFF 		bl	I2C_1_MasterSendStop
 2336              	.LVL312:
 813:main.c        ****     CyDelay(1);
 2337              		.loc 1 813 0
 2338 0038 0120     		movs	r0, #1
 2339 003a FFF7FEFF 		bl	CyDelay
 2340              	.LVL313:
 814:main.c        ****     
 815:main.c        ****     
 816:main.c        ****     //Activating the low-pass filter
 817:main.c        ****     I2C_1_MasterSendStart(MPU6050,0); //Steps 1-2
 2341              		.loc 1 817 0
 2342 003e 0021     		movs	r1, #0
 2343 0040 6820     		movs	r0, #104
 2344 0042 FFF7FEFF 		bl	I2C_1_MasterSendStart
 2345              	.LVL314:
 818:main.c        ****     I2C_1_MasterWriteByte(0x1A); //Step 3
 2346              		.loc 1 818 0
 2347 0046 1A20     		movs	r0, #26
 2348 0048 FFF7FEFF 		bl	I2C_1_MasterWriteByte
 2349              	.LVL315:
 819:main.c        ****     I2C_1_MasterWriteByte(0x05); //Step 4
 2350              		.loc 1 819 0
 2351 004c 0520     		movs	r0, #5
ARM GAS  C:\Users\weiro\AppData\Local\Temp\ccK6dLS7.s 			page 57


 2352 004e FFF7FEFF 		bl	I2C_1_MasterWriteByte
 2353              	.LVL316:
 820:main.c        ****     I2C_1_MasterSendStop(); //Step 5    
 2354              		.loc 1 820 0
 2355 0052 FFF7FEFF 		bl	I2C_1_MasterSendStop
 2356              	.LVL317:
 821:main.c        ****     CyDelay(1);
 2357              		.loc 1 821 0
 2358 0056 0120     		movs	r0, #1
 2359 0058 FFF7FEFF 		bl	CyDelay
 2360              	.LVL318:
 2361 005c 08BD     		pop	{r3, pc}
 2362              		.cfi_endproc
 2363              	.LFE83:
 2364              		.size	Gyroscope_Function, .-Gyroscope_Function
 2365 005e 00BF     		.section	.text.Flicker_Function,"ax",%progbits
 2366              		.align	2
 2367              		.global	Flicker_Function
 2368              		.thumb
 2369              		.thumb_func
 2370              		.type	Flicker_Function, %function
 2371              	Flicker_Function:
 2372              	.LFB84:
 822:main.c        **** }
 823:main.c        **** 
 824:main.c        **** void Flicker_Function()
 825:main.c        **** {
 2373              		.loc 1 825 0
 2374              		.cfi_startproc
 2375              		@ args = 0, pretend = 0, frame = 0
 2376              		@ frame_needed = 0, uses_anonymous_args = 0
 2377 0000 08B5     		push	{r3, lr}
 2378              		.cfi_def_cfa_offset 8
 2379              		.cfi_offset 3, -8
 2380              		.cfi_offset 14, -4
 2381              	.LVL319:
 826:main.c        ****     int flag_FR = 0;
 827:main.c        ****     double dist_trav = 5;
 828:main.c        ****     Flicker_Write(1);
 2382              		.loc 1 828 0
 2383 0002 0120     		movs	r0, #1
 2384 0004 FFF7FEFF 		bl	Flicker_Write
 2385              	.LVL320:
 829:main.c        ****     CyDelay(1000);
 2386              		.loc 1 829 0
 2387 0008 4FF47A70 		mov	r0, #1000
 2388 000c FFF7FEFF 		bl	CyDelay
 2389              	.LVL321:
 830:main.c        ****     move_fixed_dist(dist_trav, flag_FR); // move forward
 2390              		.loc 1 830 0
 2391 0010 0021     		movs	r1, #0
 2392 0012 0520     		movs	r0, #5
 2393 0014 FFF7FEFF 		bl	move_fixed_dist
 2394              	.LVL322:
 831:main.c        ****     CyDelay(500);
 2395              		.loc 1 831 0
 2396 0018 4FF4FA70 		mov	r0, #500
ARM GAS  C:\Users\weiro\AppData\Local\Temp\ccK6dLS7.s 			page 58


 2397 001c FFF7FEFF 		bl	CyDelay
 2398              	.LVL323:
 832:main.c        ****     Flicker_Write(0);
 2399              		.loc 1 832 0
 2400 0020 0020     		movs	r0, #0
 2401 0022 FFF7FEFF 		bl	Flicker_Write
 2402              	.LVL324:
 2403 0026 08BD     		pop	{r3, pc}
 2404              		.cfi_endproc
 2405              	.LFE84:
 2406              		.size	Flicker_Function, .-Flicker_Function
 2407              		.global	__aeabi_i2f
 2408              		.global	__aeabi_fadd
 2409              		.global	__aeabi_fdiv
 2410              		.section	.text.Sharp_IR,"ax",%progbits
 2411              		.align	2
 2412              		.global	Sharp_IR
 2413              		.thumb
 2414              		.thumb_func
 2415              		.type	Sharp_IR, %function
 2416              	Sharp_IR:
 2417              	.LFB85:
 833:main.c        ****     
 834:main.c        **** }
 835:main.c        **** 
 836:main.c        **** float Sharp_IR()
 837:main.c        **** {
 2418              		.loc 1 837 0
 2419              		.cfi_startproc
 2420              		@ args = 0, pretend = 0, frame = 0
 2421              		@ frame_needed = 0, uses_anonymous_args = 0
 2422 0000 F8B5     		push	{r3, r4, r5, r6, r7, lr}
 2423              		.cfi_def_cfa_offset 24
 2424              		.cfi_offset 3, -24
 2425              		.cfi_offset 4, -20
 2426              		.cfi_offset 5, -16
 2427              		.cfi_offset 6, -12
 2428              		.cfi_offset 7, -8
 2429              		.cfi_offset 14, -4
 2430              	.LVL325:
 838:main.c        ****     int Sharp_IR_analogue = 0;
 839:main.c        ****     float Sharp_IR_avg_a = 0;
 840:main.c        ****     float Sharp_IR_sum_a = 0;
 841:main.c        ****     int Sharp_IR_iter = 0;
 2431              		.loc 1 841 0
 2432 0002 0024     		movs	r4, #0
 840:main.c        ****     int Sharp_IR_iter = 0;
 2433              		.loc 1 840 0
 2434 0004 0025     		movs	r5, #0
 842:main.c        ****     float Sharp_IR_volt = 0;
 843:main.c        ****     float Sharp_IR_dist = 0;
 844:main.c        ****     while (Sharp_IR_iter < 21)
 2435              		.loc 1 844 0
 2436 0006 15E0     		b	.L178
 2437              	.LVL326:
 2438              	.L181:
 845:main.c        ****     {
ARM GAS  C:\Users\weiro\AppData\Local\Temp\ccK6dLS7.s 			page 59


 846:main.c        ****         ADC_SAR_1_StartConvert();
 2439              		.loc 1 846 0
 2440 0008 FFF7FEFF 		bl	ADC_SAR_1_StartConvert
 2441              	.LVL327:
 2442              	.L179:
 847:main.c        ****         do
 848:main.c        ****         {
 849:main.c        ****             Sharp_IR_analogue = ADC_SAR_1_IsEndConversion(ADC_SAR_1_RETURN_STATUS);
 2443              		.loc 1 849 0 discriminator 1
 2444 000c 0120     		movs	r0, #1
 2445 000e FFF7FEFF 		bl	ADC_SAR_1_IsEndConversion
 2446              	.LVL328:
 850:main.c        ****         }
 851:main.c        ****         while(Sharp_IR_analogue==0);
 2447              		.loc 1 851 0 discriminator 1
 2448 0012 0028     		cmp	r0, #0
 2449 0014 FAD0     		beq	.L179
 852:main.c        ****         Sharp_IR_analogue = ADC_SAR_1_GetResult8();
 2450              		.loc 1 852 0
 2451 0016 FFF7FEFF 		bl	ADC_SAR_1_GetResult8
 2452              	.LVL329:
 853:main.c        ****         if (Sharp_IR_analogue > 0)
 2453              		.loc 1 853 0
 2454 001a 0028     		cmp	r0, #0
 2455 001c 07DD     		ble	.L180
 854:main.c        ****         {
 855:main.c        ****             Sharp_IR_sum_a = Sharp_IR_sum_a + Sharp_IR_analogue;
 2456              		.loc 1 855 0
 2457 001e FFF7FEFF 		bl	__aeabi_i2f
 2458              	.LVL330:
 2459 0022 0146     		mov	r1, r0
 2460 0024 2846     		mov	r0, r5
 2461 0026 FFF7FEFF 		bl	__aeabi_fadd
 2462              	.LVL331:
 2463 002a 0546     		mov	r5, r0
 2464              	.LVL332:
 856:main.c        ****             Sharp_IR_iter++;
 2465              		.loc 1 856 0
 2466 002c 0134     		adds	r4, r4, #1
 2467              	.LVL333:
 2468              	.L180:
 857:main.c        ****         }
 858:main.c        ****         CyDelay(20);
 2469              		.loc 1 858 0
 2470 002e 1420     		movs	r0, #20
 2471 0030 FFF7FEFF 		bl	CyDelay
 2472              	.LVL334:
 2473              	.L178:
 844:main.c        ****     {
 2474              		.loc 1 844 0
 2475 0034 142C     		cmp	r4, #20
 2476 0036 E7DD     		ble	.L181
 859:main.c        ****     }
 860:main.c        ****     Sharp_IR_avg_a = Sharp_IR_sum_a/20;
 2477              		.loc 1 860 0
 2478 0038 2149     		ldr	r1, .L183+24
 2479 003a 2846     		mov	r0, r5
ARM GAS  C:\Users\weiro\AppData\Local\Temp\ccK6dLS7.s 			page 60


 2480 003c FFF7FEFF 		bl	__aeabi_fdiv
 2481              	.LVL335:
 861:main.c        ****     Sharp_IR_volt = Sharp_IR_avg_a/51;
 2482              		.loc 1 861 0
 2483 0040 2049     		ldr	r1, .L183+28
 2484 0042 FFF7FEFF 		bl	__aeabi_fdiv
 2485              	.LVL336:
 862:main.c        ****     Sharp_IR_dist = pow((Sharp_IR_volt-0.2)/(27.728*1.3),-1/1.205);
 2486              		.loc 1 862 0
 2487 0046 FFF7FEFF 		bl	__aeabi_f2d
 2488              	.LVL337:
 2489 004a 0646     		mov	r6, r0
 2490 004c 0F46     		mov	r7, r1
 2491 004e 16A3     		adr	r3, .L183
 2492 0050 D3E90023 		ldrd	r2, [r3]
 2493 0054 FFF7FEFF 		bl	__aeabi_dsub
 2494              	.LVL338:
 2495 0058 15A3     		adr	r3, .L183+8
 2496 005a D3E90023 		ldrd	r2, [r3]
 2497 005e FFF7FEFF 		bl	__aeabi_ddiv
 2498              	.LVL339:
 2499 0062 15A3     		adr	r3, .L183+16
 2500 0064 D3E90023 		ldrd	r2, [r3]
 2501 0068 FFF7FEFF 		bl	pow
 2502              	.LVL340:
 2503 006c FFF7FEFF 		bl	__aeabi_d2f
 2504              	.LVL341:
 2505 0070 0546     		mov	r5, r0
 2506              	.LVL342:
 863:main.c        ****     CyDelay(200);
 2507              		.loc 1 863 0
 2508 0072 C820     		movs	r0, #200
 2509              	.LVL343:
 2510 0074 FFF7FEFF 		bl	CyDelay
 2511              	.LVL344:
 864:main.c        ****     sprintf(string_1,"volt(V): %lf\n",Sharp_IR_volt);
 2512              		.loc 1 864 0
 2513 0078 134C     		ldr	r4, .L183+32
 2514              	.LVL345:
 2515 007a 3246     		mov	r2, r6
 2516 007c 3B46     		mov	r3, r7
 2517 007e 1349     		ldr	r1, .L183+36
 2518 0080 2046     		mov	r0, r4
 2519 0082 FFF7FEFF 		bl	sprintf
 2520              	.LVL346:
 865:main.c        ****     UART_1_PutString(string_1);
 2521              		.loc 1 865 0
 2522 0086 2046     		mov	r0, r4
 2523 0088 FFF7FEFF 		bl	UART_1_PutString
 2524              	.LVL347:
 866:main.c        ****     sprintf(string_1,"dist(cm): %lf\n",Sharp_IR_dist);
 2525              		.loc 1 866 0
 2526 008c 2846     		mov	r0, r5
 2527 008e FFF7FEFF 		bl	__aeabi_f2d
 2528              	.LVL348:
 2529 0092 0246     		mov	r2, r0
 2530 0094 0B46     		mov	r3, r1
ARM GAS  C:\Users\weiro\AppData\Local\Temp\ccK6dLS7.s 			page 61


 2531 0096 0E49     		ldr	r1, .L183+40
 2532 0098 2046     		mov	r0, r4
 2533 009a FFF7FEFF 		bl	sprintf
 2534              	.LVL349:
 867:main.c        ****     UART_1_PutString(string_1);
 2535              		.loc 1 867 0
 2536 009e 2046     		mov	r0, r4
 2537 00a0 FFF7FEFF 		bl	UART_1_PutString
 2538              	.LVL350:
 868:main.c        ****     return Sharp_IR_dist;
 869:main.c        **** }
 2539              		.loc 1 869 0
 2540 00a4 2846     		mov	r0, r5
 2541 00a6 F8BD     		pop	{r3, r4, r5, r6, r7, pc}
 2542              	.LVL351:
 2543              	.L184:
 2544              		.align	3
 2545              	.L183:
 2546 00a8 9A999999 		.word	-1717986918
 2547 00ac 9999C93F 		.word	1070176665
 2548 00b0 6844696F 		.word	1869169768
 2549 00b4 F0054240 		.word	1078068720
 2550 00b8 1A578E1A 		.word	445536026
 2551 00bc 578EEABF 		.word	-1075147177
 2552 00c0 0000A041 		.word	1101004800
 2553 00c4 00004C42 		.word	1112276992
 2554 00c8 00000000 		.word	string_1
 2555 00cc 68000000 		.word	.LC7
 2556 00d0 78000000 		.word	.LC8
 2557              		.cfi_endproc
 2558              	.LFE85:
 2559              		.size	Sharp_IR, .-Sharp_IR
 2560              		.section	.text.main,"ax",%progbits
 2561              		.align	2
 2562              		.global	main
 2563              		.thumb
 2564              		.thumb_func
 2565              		.type	main, %function
 2566              	main:
 2567              	.LFB86:
 870:main.c        ****             
 871:main.c        **** int main(void)
 872:main.c        **** {
 2568              		.loc 1 872 0
 2569              		.cfi_startproc
 2570              		@ args = 0, pretend = 0, frame = 0
 2571              		@ frame_needed = 0, uses_anonymous_args = 0
 2572 0000 2DE9F84F 		push	{r3, r4, r5, r6, r7, r8, r9, r10, fp, lr}
 2573              		.cfi_def_cfa_offset 40
 2574              		.cfi_offset 3, -40
 2575              		.cfi_offset 4, -36
 2576              		.cfi_offset 5, -32
 2577              		.cfi_offset 6, -28
 2578              		.cfi_offset 7, -24
 2579              		.cfi_offset 8, -20
 2580              		.cfi_offset 9, -16
 2581              		.cfi_offset 10, -12
ARM GAS  C:\Users\weiro\AppData\Local\Temp\ccK6dLS7.s 			page 62


 2582              		.cfi_offset 11, -8
 2583              		.cfi_offset 14, -4
 873:main.c        ****     CyGlobalIntEnable; /* Enable global interrupts. */
 2584              		.loc 1 873 0
 2585              		.syntax unified
 2586              	@ 873 "main.c" 1
 2587 0004 62B6     		CPSIE   i
 2588              	@ 0 "" 2
 874:main.c        **** 
 875:main.c        ****     WHEEL_CIRCUMFERENCE = M_PI*WHEEL_DIAMETER;
 2589              		.loc 1 875 0
 2590              		.thumb
 2591              		.syntax unified
 2592 0006 DFF83CB3 		ldr	fp, .L237+52
 2593 000a C1A3     		adr	r3, .L237
 2594 000c D3E90023 		ldrd	r2, [r3]
 2595 0010 DBE90801 		ldrd	r0, [fp, #32]
 2596 0014 FFF7FEFF 		bl	__aeabi_dmul
 2597              	.LVL352:
 2598 0018 0446     		mov	r4, r0
 2599 001a 0D46     		mov	r5, r1
 2600 001c DFF810A3 		ldr	r10, .L237+32
 2601 0020 0AF5C873 		add	r3, r10, #400
 2602 0024 C3E90045 		strd	r4, [r3]
 876:main.c        ****     DISTANCE_PT_TURN = M_PI*DISTANCE_BETW_WHEEL/4;
 2603              		.loc 1 876 0
 2604 0028 B9A3     		adr	r3, .L237
 2605 002a D3E90023 		ldrd	r2, [r3]
 2606 002e DBE90C01 		ldrd	r0, [fp, #48]
 2607 0032 FFF7FEFF 		bl	__aeabi_dmul
 2608              	.LVL353:
 2609 0036 0022     		movs	r2, #0
 2610 0038 B74B     		ldr	r3, .L237+8
 2611 003a FFF7FEFF 		bl	__aeabi_dmul
 2612              	.LVL354:
 2613 003e 0646     		mov	r6, r0
 2614 0040 0F46     		mov	r7, r1
 2615 0042 0AF5CC73 		add	r3, r10, #408
 2616 0046 C3E90067 		strd	r6, [r3]
 877:main.c        ****     CM_COUNT_CONV = COUNT_WHEEL/WHEEL_CIRCUMFERENCE;
 2617              		.loc 1 877 0
 2618 004a DBE90E89 		ldrd	r8, [fp, #56]
 2619 004e 2246     		mov	r2, r4
 2620 0050 2B46     		mov	r3, r5
 2621 0052 4046     		mov	r0, r8
 2622 0054 4946     		mov	r1, r9
 2623 0056 FFF7FEFF 		bl	__aeabi_ddiv
 2624              	.LVL355:
 2625 005a 0AF5AC73 		add	r3, r10, #344
 2626 005e C3E90001 		strd	r0, [r3]
 878:main.c        ****     PT_TURN_COUNT = COUNT_WHEEL * DISTANCE_PT_TURN/(M_PI*WHEEL_DIAMETER);
 2627              		.loc 1 878 0
 2628 0062 4246     		mov	r2, r8
 2629 0064 4B46     		mov	r3, r9
 2630 0066 3046     		mov	r0, r6
 2631 0068 3946     		mov	r1, r7
 2632 006a FFF7FEFF 		bl	__aeabi_dmul
ARM GAS  C:\Users\weiro\AppData\Local\Temp\ccK6dLS7.s 			page 63


 2633              	.LVL356:
 2634 006e 2246     		mov	r2, r4
 2635 0070 2B46     		mov	r3, r5
 2636 0072 FFF7FEFF 		bl	__aeabi_ddiv
 2637              	.LVL357:
 2638 0076 0AF5D07A 		add	r10, r10, #416
 2639 007a CAE90001 		strd	r0, [r10]
 879:main.c        ****     isr_1_StartEx(Speed_Control);
 2640              		.loc 1 879 0
 2641 007e A748     		ldr	r0, .L237+12
 2642 0080 FFF7FEFF 		bl	isr_1_StartEx
 2643              	.LVL358:
 880:main.c        ****     isr_6_StartEx(Color_sensing);
 2644              		.loc 1 880 0
 2645 0084 A648     		ldr	r0, .L237+16
 2646 0086 FFF7FEFF 		bl	isr_6_StartEx
 2647              	.LVL359:
 881:main.c        ****     Timer_1_Start();
 2648              		.loc 1 881 0
 2649 008a FFF7FEFF 		bl	Timer_1_Start
 2650              	.LVL360:
 882:main.c        ****     isr_3_StartEx(ultrasonic_echo);
 2651              		.loc 1 882 0
 2652 008e A548     		ldr	r0, .L237+20
 2653 0090 FFF7FEFF 		bl	isr_3_StartEx
 2654              	.LVL361:
 883:main.c        ****     PWM_ColorSensor_Start();
 2655              		.loc 1 883 0
 2656 0094 FFF7FEFF 		bl	PWM_ColorSensor_Start
 2657              	.LVL362:
 884:main.c        ****     isr_7_StartEx(Bluetooth);
 2658              		.loc 1 884 0
 2659 0098 A348     		ldr	r0, .L237+24
 2660 009a FFF7FEFF 		bl	isr_7_StartEx
 2661              	.LVL363:
 885:main.c        ****     Flicker_Write(0);
 2662              		.loc 1 885 0
 2663 009e 0020     		movs	r0, #0
 2664 00a0 FFF7FEFF 		bl	Flicker_Write
 2665              	.LVL364:
 886:main.c        ****     PWM_Wheels_Start();
 2666              		.loc 1 886 0
 2667 00a4 FFF7FEFF 		bl	PWM_Wheels_Start
 2668              	.LVL365:
 887:main.c        ****     PWM_SmallServo_Start();
 2669              		.loc 1 887 0
 2670 00a8 FFF7FEFF 		bl	PWM_SmallServo_Start
 2671              	.LVL366:
 888:main.c        ****     PWM_BigServo_Start();
 2672              		.loc 1 888 0
 2673 00ac FFF7FEFF 		bl	PWM_BigServo_Start
 2674              	.LVL367:
 889:main.c        ****     QuadDec_1_Start();
 2675              		.loc 1 889 0
 2676 00b0 FFF7FEFF 		bl	QuadDec_1_Start
 2677              	.LVL368:
 890:main.c        ****     QuadDec_1_SetCounter(0);
ARM GAS  C:\Users\weiro\AppData\Local\Temp\ccK6dLS7.s 			page 64


 2678              		.loc 1 890 0
 2679 00b4 0020     		movs	r0, #0
 2680 00b6 FFF7FEFF 		bl	QuadDec_1_SetCounter
 2681              	.LVL369:
 891:main.c        ****     QuadDec_2_Start();
 2682              		.loc 1 891 0
 2683 00ba FFF7FEFF 		bl	QuadDec_2_Start
 2684              	.LVL370:
 892:main.c        ****     QuadDec_2_SetCounter(0);
 2685              		.loc 1 892 0
 2686 00be 0020     		movs	r0, #0
 2687 00c0 FFF7FEFF 		bl	QuadDec_2_SetCounter
 2688              	.LVL371:
 893:main.c        ****     UART_1_Start();
 2689              		.loc 1 893 0
 2690 00c4 FFF7FEFF 		bl	UART_1_Start
 2691              	.LVL372:
 894:main.c        ****     CS_LED_Write(0);
 2692              		.loc 1 894 0
 2693 00c8 0020     		movs	r0, #0
 2694 00ca FFF7FEFF 		bl	CS_LED_Write
 2695              	.LVL373:
 895:main.c        ****     //ADC_SAR_1_Start();
 896:main.c        ****     I2C_1_Start();
 2696              		.loc 1 896 0
 2697 00ce FFF7FEFF 		bl	I2C_1_Start
 2698              	.LVL374:
 897:main.c        ****     Timer_2_Start();
 2699              		.loc 1 897 0
 2700 00d2 FFF7FEFF 		bl	Timer_2_Start
 2701              	.LVL375:
 898:main.c        ****     isr_2_StartEx(Gyroscope);
 2702              		.loc 1 898 0
 2703 00d6 9548     		ldr	r0, .L237+28
 2704 00d8 FFF7FEFF 		bl	isr_2_StartEx
 2705              	.LVL376:
 899:main.c        ****     Gyroscope_Function();
 2706              		.loc 1 899 0
 2707 00dc FFF7FEFF 		bl	Gyroscope_Function
 2708              	.LVL377:
 900:main.c        **** 
 901:main.c        ****     int flag_FR = 1;
 902:main.c        ****     int flag_CW = 1;
 903:main.c        ****     PWM_Wheels_WriteCompare1(PWM_Master);
 2709              		.loc 1 903 0
 2710 00e0 DBF80800 		ldr	r0, [fp, #8]	@ float
 2711 00e4 FFF7FEFF 		bl	__aeabi_f2uiz
 2712              	.LVL378:
 2713 00e8 80B2     		uxth	r0, r0
 2714 00ea FFF7FEFF 		bl	PWM_Wheels_WriteCompare1
 2715              	.LVL379:
 904:main.c        ****     PWM_Wheels_WriteCompare2(PWM_Master);
 2716              		.loc 1 904 0
 2717 00ee DBF80800 		ldr	r0, [fp, #8]	@ float
 2718 00f2 FFF7FEFF 		bl	__aeabi_f2uiz
 2719              	.LVL380:
 2720 00f6 80B2     		uxth	r0, r0
ARM GAS  C:\Users\weiro\AppData\Local\Temp\ccK6dLS7.s 			page 65


 2721 00f8 FFF7FEFF 		bl	PWM_Wheels_WriteCompare2
 2722              	.LVL381:
 2723              	.L186:
 905:main.c        ****     double dist_trav = 0;
 906:main.c        ****     //double dist_count = dist_trav*CM_COUNT_CONV;
 907:main.c        ****     
 908:main.c        ****     //Flicker_Write(1);
 909:main.c        ****     //CyDelay(5000);
 910:main.c        ****     //Flicker_Write(0);
 911:main.c        ****     
 912:main.c        ****     for(;;)
 913:main.c        ****     {   
 914:main.c        ****         /* Place your application code here. */
 915:main.c        ****         if (stop_bt == 1)
 2724              		.loc 1 915 0
 2725 00fc 8C4B     		ldr	r3, .L237+32
 2726 00fe DB6C     		ldr	r3, [r3, #76]
 2727 0100 012B     		cmp	r3, #1
 2728 0102 FBD1     		bne	.L186
 916:main.c        ****         {
 917:main.c        ****             if (strcmp(string_bt, "Are you ready?") == 0)
 2729              		.loc 1 917 0
 2730 0104 8B49     		ldr	r1, .L237+36
 2731 0106 8C48     		ldr	r0, .L237+40
 2732 0108 FFF7FEFF 		bl	strcmp
 2733              	.LVL382:
 2734 010c 18B9     		cbnz	r0, .L187
 918:main.c        ****             {
 919:main.c        ****                 UART_1_PutString("Ready  \n"); // insert 2 white spaces to terminate
 2735              		.loc 1 919 0
 2736 010e 8B48     		ldr	r0, .L237+44
 2737 0110 FFF7FEFF 		bl	UART_1_PutString
 2738              	.LVL383:
 2739 0114 89E2     		b	.L188
 2740              	.L187:
 920:main.c        ****             }
 921:main.c        ****             else if (strcmp(string_bt, "Start") == 0)
 2741              		.loc 1 921 0
 2742 0116 8A49     		ldr	r1, .L237+48
 2743 0118 8748     		ldr	r0, .L237+40
 2744 011a FFF7FEFF 		bl	strcmp
 2745              	.LVL384:
 2746 011e 0028     		cmp	r0, #0
 2747 0120 40F05682 		bne	.L189
 922:main.c        ****             {
 923:main.c        ****                 // start main program
 924:main.c        ****                 // move to hug left wall
 925:main.c        ****                 CyDelay(1000);
 2748              		.loc 1 925 0
 2749 0124 4FF47A70 		mov	r0, #1000
 2750 0128 FFF7FEFF 		bl	CyDelay
 2751              	.LVL385:
 926:main.c        ****                 move_fixed_dist(15, 1);
 2752              		.loc 1 926 0
 2753 012c 0121     		movs	r1, #1
 2754 012e 0F20     		movs	r0, #15
 2755 0130 FFF7FEFF 		bl	move_fixed_dist
ARM GAS  C:\Users\weiro\AppData\Local\Temp\ccK6dLS7.s 			page 66


 2756              	.LVL386:
 927:main.c        ****                 CyDelay(500);
 2757              		.loc 1 927 0
 2758 0134 4FF4FA70 		mov	r0, #500
 2759 0138 FFF7FEFF 		bl	CyDelay
 2760              	.LVL387:
 928:main.c        ****                 CW(PT_TURN_COUNT, 0);
 2761              		.loc 1 928 0
 2762 013c 7C4C     		ldr	r4, .L237+32
 2763 013e F4E96801 		ldrd	r0, [r4, #416]!
 2764 0142 FFF7FEFF 		bl	__aeabi_d2iz
 2765              	.LVL388:
 2766 0146 0021     		movs	r1, #0
 2767 0148 FFF7FEFF 		bl	CW
 2768              	.LVL389:
 929:main.c        ****                 CyDelay(500);
 2769              		.loc 1 929 0
 2770 014c 4FF4FA70 		mov	r0, #500
 2771 0150 FFF7FEFF 		bl	CyDelay
 2772              	.LVL390:
 930:main.c        ****                 CW(PT_TURN_COUNT, 0);
 2773              		.loc 1 930 0
 2774 0154 D4E90001 		ldrd	r0, [r4]
 2775 0158 FFF7FEFF 		bl	__aeabi_d2iz
 2776              	.LVL391:
 2777 015c 0021     		movs	r1, #0
 2778 015e FFF7FEFF 		bl	CW
 2779              	.LVL392:
 931:main.c        ****                 CyDelay(500);
 2780              		.loc 1 931 0
 2781 0162 4FF4FA70 		mov	r0, #500
 2782 0166 FFF7FEFF 		bl	CyDelay
 2783              	.LVL393:
 932:main.c        ****                 CW(PT_TURN_COUNT, 0);
 2784              		.loc 1 932 0
 2785 016a D4E90001 		ldrd	r0, [r4]
 2786 016e FFF7FEFF 		bl	__aeabi_d2iz
 2787              	.LVL394:
 2788 0172 0021     		movs	r1, #0
 2789 0174 FFF7FEFF 		bl	CW
 2790              	.LVL395:
 933:main.c        ****                 CyDelay(500);
 2791              		.loc 1 933 0
 2792 0178 4FF4FA70 		mov	r0, #500
 2793 017c FFF7FEFF 		bl	CyDelay
 2794              	.LVL396:
 934:main.c        ****                 CW(PT_TURN_COUNT, 0);
 2795              		.loc 1 934 0
 2796 0180 D4E90001 		ldrd	r0, [r4]
 2797 0184 FFF7FEFF 		bl	__aeabi_d2iz
 2798              	.LVL397:
 2799 0188 0021     		movs	r1, #0
 2800 018a FFF7FEFF 		bl	CW
 2801              	.LVL398:
 935:main.c        ****                 CyDelay(500);
 2802              		.loc 1 935 0
 2803 018e 4FF4FA70 		mov	r0, #500
ARM GAS  C:\Users\weiro\AppData\Local\Temp\ccK6dLS7.s 			page 67


 2804 0192 FFF7FEFF 		bl	CyDelay
 2805              	.LVL399:
 936:main.c        ****                 CW(PT_TURN_COUNT, 1);
 2806              		.loc 1 936 0
 2807 0196 D4E90001 		ldrd	r0, [r4]
 2808 019a FFF7FEFF 		bl	__aeabi_d2iz
 2809              	.LVL400:
 2810 019e 0121     		movs	r1, #1
 2811 01a0 FFF7FEFF 		bl	CW
 2812              	.LVL401:
 937:main.c        ****                 CyDelay(500);
 2813              		.loc 1 937 0
 2814 01a4 4FF4FA70 		mov	r0, #500
 2815 01a8 FFF7FEFF 		bl	CyDelay
 2816              	.LVL402:
 938:main.c        ****                 //CW(PT_TURN_COUNT, 0);
 939:main.c        ****                 while (step == 0)
 2817              		.loc 1 939 0
 2818 01ac 18E0     		b	.L190
 2819              	.L191:
 2820              	.LVL403:
 940:main.c        ****                 {
 941:main.c        ****                     flag_FR = 1;
 942:main.c        ****                     dist_trav = 50;
 943:main.c        ****                     move_fixed_dist(dist_trav, flag_FR); // move forward
 2821              		.loc 1 943 0
 2822 01ae 0121     		movs	r1, #1
 2823 01b0 3220     		movs	r0, #50
 2824 01b2 FFF7FEFF 		bl	move_fixed_dist
 2825              	.LVL404:
 944:main.c        ****                     
 945:main.c        ****                     flag_CW = 0;
 946:main.c        ****                     CW(PT_TURN_COUNT, flag_CW); // turn CCW facing left wall
 2826              		.loc 1 946 0
 2827 01b6 5E4C     		ldr	r4, .L237+32
 2828 01b8 F4E96801 		ldrd	r0, [r4, #416]!
 2829 01bc FFF7FEFF 		bl	__aeabi_d2iz
 2830              	.LVL405:
 2831 01c0 0021     		movs	r1, #0
 2832 01c2 FFF7FEFF 		bl	CW
 2833              	.LVL406:
 947:main.c        ****                     
 948:main.c        ****                     forward2wall(); // move to left wall
 2834              		.loc 1 948 0
 2835 01c6 FFF7FEFF 		bl	forward2wall
 2836              	.LVL407:
 949:main.c        ****                     flag_CW = 1;
 950:main.c        ****                     CW(PT_TURN_COUNT, flag_CW); // turn CW facing front wall
 2837              		.loc 1 950 0
 2838 01ca D4E90001 		ldrd	r0, [r4]
 2839 01ce FFF7FEFF 		bl	__aeabi_d2iz
 2840              	.LVL408:
 2841 01d2 0121     		movs	r1, #1
 2842 01d4 FFF7FEFF 		bl	CW
 2843              	.LVL409:
 951:main.c        ****                     
 952:main.c        ****                     step++; 
ARM GAS  C:\Users\weiro\AppData\Local\Temp\ccK6dLS7.s 			page 68


 2844              		.loc 1 952 0
 2845 01d8 5A4A     		ldr	r2, .L237+52
 2846 01da 136C     		ldr	r3, [r2, #64]
 2847 01dc 0133     		adds	r3, r3, #1
 2848 01de 1364     		str	r3, [r2, #64]
 2849              	.LVL410:
 2850              	.L190:
 939:main.c        ****                 {
 2851              		.loc 1 939 0
 2852 01e0 584B     		ldr	r3, .L237+52
 2853 01e2 1B6C     		ldr	r3, [r3, #64]
 2854 01e4 002B     		cmp	r3, #0
 2855 01e6 E2D0     		beq	.L191
 953:main.c        ****                 }
 954:main.c        ****                 wall_detected_10 = 0;
 2856              		.loc 1 954 0
 2857 01e8 0022     		movs	r2, #0
 2858 01ea 514B     		ldr	r3, .L237+32
 2859 01ec 1A64     		str	r2, [r3, #64]
 955:main.c        ****                 CyDelay(500);
 2860              		.loc 1 955 0
 2861 01ee 4FF4FA70 		mov	r0, #500
 2862 01f2 FFF7FEFF 		bl	CyDelay
 2863              	.LVL411:
 956:main.c        ****                 
 957:main.c        ****                 // move forward to front wall & turn 90 deg CW facing right wall
 958:main.c        ****                 while (step == 1)
 2864              		.loc 1 958 0
 2865 01f6 11E0     		b	.L192
 2866              	.L193:
 959:main.c        ****                 {
 960:main.c        ****                     /*flag_FR = 1;
 961:main.c        ****                     dist_trav = 150;
 962:main.c        ****                     dist_count = dist_trav*CM_COUNT_CONV;
 963:main.c        ****                     F_or_R_1(dist_count, flag_FR);*/
 964:main.c        ****                     forward2wall(); // move to front wall
 2867              		.loc 1 964 0
 2868 01f8 FFF7FEFF 		bl	forward2wall
 2869              	.LVL412:
 965:main.c        ****                     CyDelay(500);
 2870              		.loc 1 965 0
 2871 01fc 4FF4FA70 		mov	r0, #500
 2872 0200 FFF7FEFF 		bl	CyDelay
 2873              	.LVL413:
 966:main.c        ****                     flag_CW = 1;
 967:main.c        ****                     CW(PT_TURN_COUNT, flag_CW); // turn CW facing right wall --> problem: Step 2 wi
 2874              		.loc 1 967 0
 2875 0204 504B     		ldr	r3, .L237+56
 2876 0206 D3E90001 		ldrd	r0, [r3]
 2877 020a FFF7FEFF 		bl	__aeabi_d2iz
 2878              	.LVL414:
 2879 020e 0121     		movs	r1, #1
 2880 0210 FFF7FEFF 		bl	CW
 2881              	.LVL415:
 968:main.c        ****                     step++;
 2882              		.loc 1 968 0
 2883 0214 4B4A     		ldr	r2, .L237+52
ARM GAS  C:\Users\weiro\AppData\Local\Temp\ccK6dLS7.s 			page 69


 2884 0216 136C     		ldr	r3, [r2, #64]
 2885 0218 0133     		adds	r3, r3, #1
 2886 021a 1364     		str	r3, [r2, #64]
 2887              	.LVL416:
 2888              	.L192:
 958:main.c        ****                 {
 2889              		.loc 1 958 0
 2890 021c 494B     		ldr	r3, .L237+52
 2891 021e 1B6C     		ldr	r3, [r3, #64]
 2892 0220 012B     		cmp	r3, #1
 2893 0222 E9D0     		beq	.L193
 969:main.c        ****                 }
 970:main.c        ****                 CyDelay(1000);
 2894              		.loc 1 970 0
 2895 0224 4FF47A70 		mov	r0, #1000
 2896 0228 FFF7FEFF 		bl	CyDelay
 2897              	.LVL417:
 971:main.c        ****                 
 972:main.c        ****                 // look for slit & adjust so that robot can fit through slit
 973:main.c        ****                 while (step == 2)
 2898              		.loc 1 973 0
 2899 022c 14E0     		b	.L194
 2900              	.L195:
 974:main.c        ****                 {
 975:main.c        ****                     /*flag_FR = 1;
 976:main.c        ****                     dist_trav = 200;
 977:main.c        ****                     dist_count = dist_trav*CM_COUNT_CONV;
 978:main.c        ****                     F_or_R_2(dist_count, flag_FR);*/
 979:main.c        ****                     move2slit();
 2901              		.loc 1 979 0
 2902 022e FFF7FEFF 		bl	move2slit
 2903              	.LVL418:
 980:main.c        ****                     sprintf(string_1, "step 2");
 2904              		.loc 1 980 0
 2905 0232 464B     		ldr	r3, .L237+60
 2906 0234 464A     		ldr	r2, .L237+64
 2907 0236 1068     		ldr	r0, [r2]	@ unaligned
 2908 0238 1860     		str	r0, [r3]	@ unaligned
 2909 023a 9188     		ldrh	r1, [r2, #4]	@ unaligned
 2910 023c 9279     		ldrb	r2, [r2, #6]	@ zero_extendqisi2
 2911 023e 9980     		strh	r1, [r3, #4]	@ unaligned
 2912 0240 9A71     		strb	r2, [r3, #6]
 981:main.c        ****                     UART_1_PutString(string_1);
 2913              		.loc 1 981 0
 2914 0242 1846     		mov	r0, r3
 2915 0244 FFF7FEFF 		bl	UART_1_PutString
 2916              	.LVL419:
 982:main.c        ****                     CyDelay(500);
 2917              		.loc 1 982 0
 2918 0248 4FF4FA70 		mov	r0, #500
 2919 024c FFF7FEFF 		bl	CyDelay
 2920              	.LVL420:
 983:main.c        ****                     
 984:main.c        ****                     step++;
 2921              		.loc 1 984 0
 2922 0250 3C4A     		ldr	r2, .L237+52
 2923 0252 136C     		ldr	r3, [r2, #64]
ARM GAS  C:\Users\weiro\AppData\Local\Temp\ccK6dLS7.s 			page 70


 2924 0254 0133     		adds	r3, r3, #1
 2925 0256 1364     		str	r3, [r2, #64]
 2926              	.L194:
 973:main.c        ****                 {
 2927              		.loc 1 973 0
 2928 0258 3A4B     		ldr	r3, .L237+52
 2929 025a 1B6C     		ldr	r3, [r3, #64]
 2930 025c 022B     		cmp	r3, #2
 2931 025e E6D0     		beq	.L195
 985:main.c        ****                 }
 986:main.c        ****                 CyDelay(500);
 2932              		.loc 1 986 0
 2933 0260 4FF4FA70 		mov	r0, #500
 2934 0264 FFF7FEFF 		bl	CyDelay
 2935              	.LVL421:
 987:main.c        ****                 while (step == 3)
 2936              		.loc 1 987 0
 2937 0268 0FE0     		b	.L196
 2938              	.L197:
 2939              	.LVL422:
 988:main.c        ****                 {
 989:main.c        ****                     dist_trav = 8.5;
 990:main.c        ****                     flag_FR = 1;
 991:main.c        ****                     move_fixed_dist(dist_trav, flag_FR);
 2940              		.loc 1 991 0
 2941 026a 0121     		movs	r1, #1
 2942 026c 0820     		movs	r0, #8
 2943 026e FFF7FEFF 		bl	move_fixed_dist
 2944              	.LVL423:
 992:main.c        ****                     flag_CW = 0;
 993:main.c        ****                     CW(PT_TURN_COUNT, flag_CW); 
 2945              		.loc 1 993 0
 2946 0272 354B     		ldr	r3, .L237+56
 2947 0274 D3E90001 		ldrd	r0, [r3]
 2948 0278 FFF7FEFF 		bl	__aeabi_d2iz
 2949              	.LVL424:
 2950 027c 0021     		movs	r1, #0
 2951 027e FFF7FEFF 		bl	CW
 2952              	.LVL425:
 994:main.c        ****                     step++;
 2953              		.loc 1 994 0
 2954 0282 304A     		ldr	r2, .L237+52
 2955 0284 136C     		ldr	r3, [r2, #64]
 2956 0286 0133     		adds	r3, r3, #1
 2957 0288 1364     		str	r3, [r2, #64]
 2958              	.LVL426:
 2959              	.L196:
 987:main.c        ****                 {
 2960              		.loc 1 987 0
 2961 028a 2E4B     		ldr	r3, .L237+52
 2962 028c 1B6C     		ldr	r3, [r3, #64]
 2963 028e 032B     		cmp	r3, #3
 2964 0290 EBD0     		beq	.L197
 995:main.c        ****                 }
 996:main.c        ****                 CyDelay(500);
 2965              		.loc 1 996 0
 2966 0292 4FF4FA70 		mov	r0, #500
ARM GAS  C:\Users\weiro\AppData\Local\Temp\ccK6dLS7.s 			page 71


 2967 0296 FFF7FEFF 		bl	CyDelay
 2968              	.LVL427:
 997:main.c        ****                 // move forward until puck is detected
 998:main.c        ****                 while (step == 4)
 2969              		.loc 1 998 0
 2970 029a 05E0     		b	.L198
 2971              	.L199:
 999:main.c        ****                 {
1000:main.c        ****                     /*flag_FR = 1;
1001:main.c        ****                     dist_trav = 10;
1002:main.c        ****                     dist_count = dist_trav*CM_COUNT_CONV;
1003:main.c        ****                     F_or_R_2(dist_count, flag_FR);*/
1004:main.c        ****                     move2puck();
 2972              		.loc 1 1004 0
 2973 029c FFF7FEFF 		bl	move2puck
 2974              	.LVL428:
1005:main.c        ****                     step++;
 2975              		.loc 1 1005 0
 2976 02a0 284A     		ldr	r2, .L237+52
 2977 02a2 136C     		ldr	r3, [r2, #64]
 2978 02a4 0133     		adds	r3, r3, #1
 2979 02a6 1364     		str	r3, [r2, #64]
 2980              	.L198:
 998:main.c        ****                 {
 2981              		.loc 1 998 0
 2982 02a8 264B     		ldr	r3, .L237+52
 2983 02aa 1B6C     		ldr	r3, [r3, #64]
 2984 02ac 042B     		cmp	r3, #4
 2985 02ae F5D0     		beq	.L199
1006:main.c        ****                 }
1007:main.c        ****                 CyDelay(500);
 2986              		.loc 1 1007 0
 2987 02b0 4FF4FA70 		mov	r0, #500
 2988 02b4 FFF7FEFF 		bl	CyDelay
 2989              	.LVL429:
1008:main.c        ****                 
1009:main.c        ****                 // color sensing & light up LED
1010:main.c        ****                 while (step == 5)
 2990              		.loc 1 1010 0
 2991 02b8 21E0     		b	.L200
 2992              	.L204:
 2993              	.LVL430:
 2994              	.LBB6:
1011:main.c        ****                 {
1012:main.c        ****                     int flag_FR = 0;
1013:main.c        ****                     int dist_trav = 2;
1014:main.c        ****                     move_fixed_dist(dist_trav, flag_FR); // move backward
 2995              		.loc 1 1014 0
 2996 02ba 0021     		movs	r1, #0
 2997 02bc 0220     		movs	r0, #2
 2998 02be FFF7FEFF 		bl	move_fixed_dist
 2999              	.LVL431:
1015:main.c        ****                     CyDelay(500);
 3000              		.loc 1 1015 0
 3001 02c2 4FF4FA70 		mov	r0, #500
 3002 02c6 FFF7FEFF 		bl	CyDelay
 3003              	.LVL432:
ARM GAS  C:\Users\weiro\AppData\Local\Temp\ccK6dLS7.s 			page 72


1016:main.c        ****                     Color_Sensing_Function();
 3004              		.loc 1 1016 0
 3005 02ca FFF7FEFF 		bl	Color_Sensing_Function
 3006              	.LVL433:
1017:main.c        ****                     if (color_detected == 1) // red
 3007              		.loc 1 1017 0
 3008 02ce 184B     		ldr	r3, .L237+32
 3009 02d0 D3F88831 		ldr	r3, [r3, #392]
 3010 02d4 012B     		cmp	r3, #1
 3011 02d6 03D1     		bne	.L201
1018:main.c        ****                     {
1019:main.c        ****                         led_red_Write(1);
 3012              		.loc 1 1019 0
 3013 02d8 0120     		movs	r0, #1
 3014 02da FFF7FEFF 		bl	led_red_Write
 3015              	.LVL434:
 3016 02de 0AE0     		b	.L202
 3017              	.L201:
1020:main.c        ****                     }
1021:main.c        ****                     else if (color_detected == 2) // green
 3018              		.loc 1 1021 0
 3019 02e0 022B     		cmp	r3, #2
 3020 02e2 03D1     		bne	.L203
1022:main.c        ****                     {
1023:main.c        ****                         led_green_Write(1);
 3021              		.loc 1 1023 0
 3022 02e4 0120     		movs	r0, #1
 3023 02e6 FFF7FEFF 		bl	led_green_Write
 3024              	.LVL435:
 3025 02ea 04E0     		b	.L202
 3026              	.L203:
1024:main.c        ****                     }
1025:main.c        ****                     else if (color_detected == 3) // blue
 3027              		.loc 1 1025 0
 3028 02ec 032B     		cmp	r3, #3
 3029 02ee 02D1     		bne	.L202
1026:main.c        ****                     {
1027:main.c        ****                         led_blue_Write(1);   
 3030              		.loc 1 1027 0
 3031 02f0 0120     		movs	r0, #1
 3032 02f2 FFF7FEFF 		bl	led_blue_Write
 3033              	.LVL436:
 3034              	.L202:
1028:main.c        ****                     }
1029:main.c        ****                     step++;
 3035              		.loc 1 1029 0
 3036 02f6 134A     		ldr	r2, .L237+52
 3037 02f8 136C     		ldr	r3, [r2, #64]
 3038 02fa 0133     		adds	r3, r3, #1
 3039 02fc 1364     		str	r3, [r2, #64]
 3040              	.LVL437:
 3041              	.L200:
 3042              	.LBE6:
1010:main.c        ****                 {
 3043              		.loc 1 1010 0
 3044 02fe 114B     		ldr	r3, .L237+52
 3045 0300 1B6C     		ldr	r3, [r3, #64]
ARM GAS  C:\Users\weiro\AppData\Local\Temp\ccK6dLS7.s 			page 73


 3046 0302 052B     		cmp	r3, #5
 3047 0304 D9D0     		beq	.L204
1030:main.c        ****                 }
1031:main.c        ****                 CyDelay(500);
 3048              		.loc 1 1031 0
 3049 0306 4FF4FA70 		mov	r0, #500
 3050 030a FFF7FEFF 		bl	CyDelay
 3051              	.LVL438:
1032:main.c        ****                 
1033:main.c        ****                 // move forward & pick up puck
1034:main.c        ****                 while (step == 6)
 3052              		.loc 1 1034 0
 3053 030e 3DE0     		b	.L205
 3054              	.L238:
 3055              		.align	3
 3056              	.L237:
 3057 0310 182D4454 		.word	1413754136
 3058 0314 FB210940 		.word	1074340347
 3059 0318 0000D03F 		.word	1070596096
 3060 031c 00000000 		.word	Speed_Control
 3061 0320 00000000 		.word	Color_sensing
 3062 0324 00000000 		.word	ultrasonic_echo
 3063 0328 00000000 		.word	Bluetooth
 3064 032c 00000000 		.word	Gyroscope
 3065 0330 00000000 		.word	.LANCHOR0
 3066 0334 88000000 		.word	.LC9
 3067 0338 00000000 		.word	string_bt
 3068 033c 98000000 		.word	.LC10
 3069 0340 A4000000 		.word	.LC11
 3070 0344 00000000 		.word	.LANCHOR1
 3071 0348 A0010000 		.word	.LANCHOR0+416
 3072 034c 00000000 		.word	string_1
 3073 0350 AC000000 		.word	.LC12
 3074              	.L206:
 3075              	.LVL439:
1035:main.c        ****                 {
1036:main.c        ****                     flag_FR = 1;
1037:main.c        ****                     dist_trav = 18; // distance from color sensor to gripper center
1038:main.c        ****                     move_fixed_dist(dist_trav, flag_FR);
 3076              		.loc 1 1038 0
 3077 0354 0121     		movs	r1, #1
 3078 0356 1220     		movs	r0, #18
 3079 0358 FFF7FEFF 		bl	move_fixed_dist
 3080              	.LVL440:
1039:main.c        ****                     PWM_BigServo_WriteCompare(down_big);
 3081              		.loc 1 1039 0
 3082 035c B64C     		ldr	r4, .L239
 3083 035e B4F84400 		ldrh	r0, [r4, #68]
 3084 0362 FFF7FEFF 		bl	PWM_BigServo_WriteCompare
 3085              	.LVL441:
1040:main.c        ****                     CyDelay(500);
 3086              		.loc 1 1040 0
 3087 0366 4FF4FA70 		mov	r0, #500
 3088 036a FFF7FEFF 		bl	CyDelay
 3089              	.LVL442:
1041:main.c        ****                     PWM_SmallServo_WriteCompare(close_small);
 3090              		.loc 1 1041 0
ARM GAS  C:\Users\weiro\AppData\Local\Temp\ccK6dLS7.s 			page 74


 3091 036e B4F84800 		ldrh	r0, [r4, #72]
 3092 0372 FFF7FEFF 		bl	PWM_SmallServo_WriteCompare
 3093              	.LVL443:
1042:main.c        ****                     CyDelay(500);
 3094              		.loc 1 1042 0
 3095 0376 4FF4FA70 		mov	r0, #500
 3096 037a FFF7FEFF 		bl	CyDelay
 3097              	.LVL444:
1043:main.c        ****                     PWM_BigServo_WriteCompare(up_big);
 3098              		.loc 1 1043 0
 3099 037e B4F84C00 		ldrh	r0, [r4, #76]
 3100 0382 FFF7FEFF 		bl	PWM_BigServo_WriteCompare
 3101              	.LVL445:
1044:main.c        ****                     step++;
 3102              		.loc 1 1044 0
 3103 0386 236C     		ldr	r3, [r4, #64]
 3104 0388 0133     		adds	r3, r3, #1
 3105 038a 2364     		str	r3, [r4, #64]
 3106              	.LVL446:
 3107              	.L205:
1034:main.c        ****                 {
 3108              		.loc 1 1034 0
 3109 038c AA4B     		ldr	r3, .L239
 3110 038e 1B6C     		ldr	r3, [r3, #64]
 3111 0390 062B     		cmp	r3, #6
 3112 0392 DFD0     		beq	.L206
1045:main.c        ****                 }
1046:main.c        ****                 CyDelay(500);
 3113              		.loc 1 1046 0
 3114 0394 4FF4FA70 		mov	r0, #500
 3115 0398 FFF7FEFF 		bl	CyDelay
 3116              	.LVL447:
1047:main.c        ****                 
1048:main.c        ****                 while (step == 7)
 3117              		.loc 1 1048 0
 3118 039c 1AE0     		b	.L207
 3119              	.L209:
 3120              	.LVL448:
1049:main.c        ****                 {
1050:main.c        ****                     // reverse (out of the slit) and move to the corner of facing the initial posit
1051:main.c        ****                     flag_FR = 0;
1052:main.c        ****                     dist_trav = 50;
1053:main.c        ****                     move_fixed_dist(dist_trav, flag_FR);
 3121              		.loc 1 1053 0
 3122 039e 0021     		movs	r1, #0
 3123 03a0 3220     		movs	r0, #50
 3124 03a2 FFF7FEFF 		bl	move_fixed_dist
 3125              	.LVL449:
1054:main.c        ****                     CyDelay(500);
 3126              		.loc 1 1054 0
 3127 03a6 4FF4FA70 		mov	r0, #500
 3128 03aa FFF7FEFF 		bl	CyDelay
 3129              	.LVL450:
1055:main.c        ****                     if (initial == 0)
 3130              		.loc 1 1055 0
 3131 03ae A34B     		ldr	r3, .L239+4
 3132 03b0 D3F8A831 		ldr	r3, [r3, #424]
ARM GAS  C:\Users\weiro\AppData\Local\Temp\ccK6dLS7.s 			page 75


 3133 03b4 0BB9     		cbnz	r3, .L233
1056:main.c        ****                     {
1057:main.c        ****                         flag_CW = 0; // ccw to left wall
 3134              		.loc 1 1057 0
 3135 03b6 0024     		movs	r4, #0
 3136 03b8 00E0     		b	.L208
 3137              	.L233:
1058:main.c        ****                     }
1059:main.c        ****                     else
1060:main.c        ****                     {
1061:main.c        ****                         flag_CW = 1; // cw to right wall
 3138              		.loc 1 1061 0
 3139 03ba 0124     		movs	r4, #1
 3140              	.L208:
 3141              	.LVL451:
1062:main.c        ****                     }
1063:main.c        ****                     CW(PT_TURN_COUNT, flag_CW); // turn robot facing left or right wall
 3142              		.loc 1 1063 0
 3143 03bc A04B     		ldr	r3, .L239+8
 3144 03be D3E90001 		ldrd	r0, [r3]
 3145 03c2 FFF7FEFF 		bl	__aeabi_d2iz
 3146              	.LVL452:
 3147 03c6 2146     		mov	r1, r4
 3148 03c8 FFF7FEFF 		bl	CW
 3149              	.LVL453:
1064:main.c        ****                     step++;     
 3150              		.loc 1 1064 0
 3151 03cc 9A4A     		ldr	r2, .L239
 3152 03ce 136C     		ldr	r3, [r2, #64]
 3153 03d0 0133     		adds	r3, r3, #1
 3154 03d2 1364     		str	r3, [r2, #64]
 3155              	.LVL454:
 3156              	.L207:
1048:main.c        ****                 {
 3157              		.loc 1 1048 0
 3158 03d4 984B     		ldr	r3, .L239
 3159 03d6 1B6C     		ldr	r3, [r3, #64]
 3160 03d8 072B     		cmp	r3, #7
 3161 03da E0D0     		beq	.L209
1065:main.c        ****                 }
1066:main.c        ****                 CyDelay(500);
 3162              		.loc 1 1066 0
 3163 03dc 4FF4FA70 		mov	r0, #500
 3164 03e0 FFF7FEFF 		bl	CyDelay
 3165              	.LVL455:
1067:main.c        ****                 wall_detected_10 = 0;
 3166              		.loc 1 1067 0
 3167 03e4 0022     		movs	r2, #0
 3168 03e6 954B     		ldr	r3, .L239+4
 3169 03e8 1A64     		str	r2, [r3, #64]
1068:main.c        ****                 while (step ==8)
 3170              		.loc 1 1068 0
 3171 03ea 0DE0     		b	.L210
 3172              	.L211:
1069:main.c        ****                 {
1070:main.c        ****                     forward2wall(); // move to left wall
 3173              		.loc 1 1070 0
ARM GAS  C:\Users\weiro\AppData\Local\Temp\ccK6dLS7.s 			page 76


 3174 03ec FFF7FEFF 		bl	forward2wall
 3175              	.LVL456:
1071:main.c        ****                     flag_CW = 1;
1072:main.c        ****                     CW(PT_TURN_COUNT, flag_CW); // turn CW facing base wall
 3176              		.loc 1 1072 0
 3177 03f0 934B     		ldr	r3, .L239+8
 3178 03f2 D3E90001 		ldrd	r0, [r3]
 3179 03f6 FFF7FEFF 		bl	__aeabi_d2iz
 3180              	.LVL457:
 3181 03fa 0121     		movs	r1, #1
 3182 03fc FFF7FEFF 		bl	CW
 3183              	.LVL458:
1073:main.c        ****                     
1074:main.c        ****                     
1075:main.c        ****                    
1076:main.c        ****                     step++;
 3184              		.loc 1 1076 0
 3185 0400 8D4A     		ldr	r2, .L239
 3186 0402 136C     		ldr	r3, [r2, #64]
 3187 0404 0133     		adds	r3, r3, #1
 3188 0406 1364     		str	r3, [r2, #64]
 3189              	.LVL459:
 3190              	.L210:
1068:main.c        ****                 {
 3191              		.loc 1 1068 0
 3192 0408 8B4B     		ldr	r3, .L239
 3193 040a 1B6C     		ldr	r3, [r3, #64]
 3194 040c 082B     		cmp	r3, #8
 3195 040e EDD0     		beq	.L211
1077:main.c        ****                     
1078:main.c        ****                 }
1079:main.c        ****                 CyDelay(500);
 3196              		.loc 1 1079 0
 3197 0410 4FF4FA70 		mov	r0, #500
 3198 0414 FFF7FEFF 		bl	CyDelay
 3199              	.LVL460:
1080:main.c        ****                 
1081:main.c        ****                 wall_detected_10 = 0;
 3200              		.loc 1 1081 0
 3201 0418 0022     		movs	r2, #0
 3202 041a 884B     		ldr	r3, .L239+4
 3203 041c 1A64     		str	r2, [r3, #64]
1082:main.c        ****                 while (step ==9)
 3204              		.loc 1 1082 0
 3205 041e 0BE0     		b	.L212
 3206              	.L213:
 3207              	.LVL461:
1083:main.c        ****                 {
1084:main.c        ****                     flag_FR = 0
1085:main.c        ****                     
1086:main.c        ****                     ;
1087:main.c        ****                     dist_trav = 70;
1088:main.c        ****                     move_fixed_dist(dist_trav, flag_FR);
 3208              		.loc 1 1088 0
 3209 0420 0021     		movs	r1, #0
 3210 0422 4620     		movs	r0, #70
 3211 0424 FFF7FEFF 		bl	move_fixed_dist
ARM GAS  C:\Users\weiro\AppData\Local\Temp\ccK6dLS7.s 			page 77


 3212              	.LVL462:
1089:main.c        ****                     //move_fixed_dist(200); // move to corner
1090:main.c        ****                     CyDelay(500);
 3213              		.loc 1 1090 0
 3214 0428 4FF4FA70 		mov	r0, #500
 3215 042c FFF7FEFF 		bl	CyDelay
 3216              	.LVL463:
1091:main.c        ****                     step ++;
 3217              		.loc 1 1091 0
 3218 0430 814A     		ldr	r2, .L239
 3219 0432 136C     		ldr	r3, [r2, #64]
 3220 0434 0133     		adds	r3, r3, #1
 3221 0436 1364     		str	r3, [r2, #64]
 3222              	.LVL464:
 3223              	.L212:
1082:main.c        ****                 {
 3224              		.loc 1 1082 0
 3225 0438 7F4B     		ldr	r3, .L239
 3226 043a 1B6C     		ldr	r3, [r3, #64]
 3227 043c 092B     		cmp	r3, #9
 3228 043e EFD0     		beq	.L213
 3229 0440 02E0     		b	.L214
 3230              	.L215:
1092:main.c        ****                 }
1093:main.c        ****                 
1094:main.c        ****                 while (step == 10)
1095:main.c        ****                 {
1096:main.c        ****                      // move away from the corner
1097:main.c        ****                     /*
1098:main.c        ****                     flag_FR = 0;
1099:main.c        ****                     dist_trav = 50;
1100:main.c        ****                     move_fixed_dist(dist_trav, flag_FR);
1101:main.c        ****                     CyDelay(500);
1102:main.c        ****                     if (initial == 0)
1103:main.c        ****                     {
1104:main.c        ****                         flag_CW = 1;    // ccw
1105:main.c        ****                     }
1106:main.c        ****                     else
1107:main.c        ****                     {
1108:main.c        ****                         flag_CW = 0;    // cw
1109:main.c        ****                     }
1110:main.c        ****                     CW(PT_TURN_COUNT, flag_CW); // turn CCW or CW facing puck landing zone
1111:main.c        ****                     CyDelay(500);
1112:main.c        ****                     */
1113:main.c        ****                     step ++;
 3231              		.loc 1 1113 0
 3232 0442 0133     		adds	r3, r3, #1
 3233 0444 7C4A     		ldr	r2, .L239
 3234 0446 1364     		str	r3, [r2, #64]
 3235              	.L214:
1094:main.c        ****                 {
 3236              		.loc 1 1094 0
 3237 0448 7B4B     		ldr	r3, .L239
 3238 044a 1B6C     		ldr	r3, [r3, #64]
 3239 044c 0A2B     		cmp	r3, #10
 3240 044e F8D0     		beq	.L215
1114:main.c        ****                 }
ARM GAS  C:\Users\weiro\AppData\Local\Temp\ccK6dLS7.s 			page 78


1115:main.c        ****                 CyDelay(500);
 3241              		.loc 1 1115 0
 3242 0450 4FF4FA70 		mov	r0, #500
 3243 0454 FFF7FEFF 		bl	CyDelay
 3244              	.LVL465:
1116:main.c        ****                 
1117:main.c        ****                 while (step == 11)
 3245              		.loc 1 1117 0
 3246 0458 02E0     		b	.L216
 3247              	.L217:
1118:main.c        ****                 {
1119:main.c        ****                 
1120:main.c        ****                     // move to puck landing
1121:main.c        ****                     /*
1122:main.c        ****                     flag_FR = 0;
1123:main.c        ****                     dist_trav = 20;
1124:main.c        ****                     move_fixed_dist(dist_trav, flag_FR);
1125:main.c        ****                     CyDelay(500);
1126:main.c        ****                     if (initial == 0)
1127:main.c        ****                     {
1128:main.c        ****                         flag_CW = 1;    // cw
1129:main.c        ****                     }
1130:main.c        ****                     else
1131:main.c        ****                     {
1132:main.c        ****                         flag_CW = 0;    // ccw
1133:main.c        ****                     }
1134:main.c        ****                     CW(PT_TURN_COUNT, flag_CW); // turn CCW or CW facing puck landing zone
1135:main.c        ****                     */
1136:main.c        ****                     step++;
 3248              		.loc 1 1136 0
 3249 045a 0133     		adds	r3, r3, #1
 3250 045c 764A     		ldr	r2, .L239
 3251 045e 1364     		str	r3, [r2, #64]
 3252              	.L216:
1117:main.c        ****                 {
 3253              		.loc 1 1117 0
 3254 0460 754B     		ldr	r3, .L239
 3255 0462 1B6C     		ldr	r3, [r3, #64]
 3256 0464 0B2B     		cmp	r3, #11
 3257 0466 F8D0     		beq	.L217
1137:main.c        ****                 }
1138:main.c        ****                 CyDelay(500);
 3258              		.loc 1 1138 0
 3259 0468 4FF4FA70 		mov	r0, #500
 3260 046c FFF7FEFF 		bl	CyDelay
 3261              	.LVL466:
1139:main.c        ****                 while (step ==12)
 3262              		.loc 1 1139 0
 3263 0470 1FE0     		b	.L218
 3264              	.L219:
1140:main.c        ****                 {
1141:main.c        ****                     // put down
1142:main.c        ****                     PWM_BigServo_WriteCompare(down_big);
 3265              		.loc 1 1142 0
 3266 0472 714C     		ldr	r4, .L239
 3267 0474 B4F84400 		ldrh	r0, [r4, #68]
 3268 0478 FFF7FEFF 		bl	PWM_BigServo_WriteCompare
ARM GAS  C:\Users\weiro\AppData\Local\Temp\ccK6dLS7.s 			page 79


 3269              	.LVL467:
1143:main.c        ****                     CyDelay(1000);
 3270              		.loc 1 1143 0
 3271 047c 4FF47A70 		mov	r0, #1000
 3272 0480 FFF7FEFF 		bl	CyDelay
 3273              	.LVL468:
1144:main.c        ****                     PWM_SmallServo_WriteCompare(open_small);
 3274              		.loc 1 1144 0
 3275 0484 B4F85000 		ldrh	r0, [r4, #80]
 3276 0488 FFF7FEFF 		bl	PWM_SmallServo_WriteCompare
 3277              	.LVL469:
1145:main.c        ****                     CyDelay(500);
 3278              		.loc 1 1145 0
 3279 048c 4FF4FA70 		mov	r0, #500
 3280 0490 FFF7FEFF 		bl	CyDelay
 3281              	.LVL470:
1146:main.c        ****                     PWM_BigServo_WriteCompare(up_big);
 3282              		.loc 1 1146 0
 3283 0494 B4F84C00 		ldrh	r0, [r4, #76]
 3284 0498 FFF7FEFF 		bl	PWM_BigServo_WriteCompare
 3285              	.LVL471:
1147:main.c        ****                     CyDelay(500);
 3286              		.loc 1 1147 0
 3287 049c 4FF4FA70 		mov	r0, #500
 3288 04a0 FFF7FEFF 		bl	CyDelay
 3289              	.LVL472:
1148:main.c        ****                     PWM_SmallServo_WriteCompare(close_small);
 3290              		.loc 1 1148 0
 3291 04a4 B4F84800 		ldrh	r0, [r4, #72]
 3292 04a8 FFF7FEFF 		bl	PWM_SmallServo_WriteCompare
 3293              	.LVL473:
1149:main.c        ****                     step++;
 3294              		.loc 1 1149 0
 3295 04ac 236C     		ldr	r3, [r4, #64]
 3296 04ae 0133     		adds	r3, r3, #1
 3297 04b0 2364     		str	r3, [r4, #64]
 3298              	.L218:
1139:main.c        ****                 {
 3299              		.loc 1 1139 0
 3300 04b2 614B     		ldr	r3, .L239
 3301 04b4 1B6C     		ldr	r3, [r3, #64]
 3302 04b6 0C2B     		cmp	r3, #12
 3303 04b8 DBD0     		beq	.L219
1150:main.c        ****                 }
1151:main.c        ****                 CyDelay(500);
 3304              		.loc 1 1151 0
 3305 04ba 4FF4FA70 		mov	r0, #500
 3306 04be FFF7FEFF 		bl	CyDelay
 3307              	.LVL474:
1152:main.c        ****                 while (step == 13)
 3308              		.loc 1 1152 0
 3309 04c2 13E0     		b	.L220
 3310              	.L221:
 3311              	.LVL475:
1153:main.c        ****                 {
1154:main.c        ****                     flag_FR = 1;
1155:main.c        ****                     dist_trav = 20;
ARM GAS  C:\Users\weiro\AppData\Local\Temp\ccK6dLS7.s 			page 80


1156:main.c        ****                     move_fixed_dist(dist_trav, flag_FR);
 3312              		.loc 1 1156 0
 3313 04c4 0121     		movs	r1, #1
 3314 04c6 1420     		movs	r0, #20
 3315 04c8 FFF7FEFF 		bl	move_fixed_dist
 3316              	.LVL476:
1157:main.c        ****                     CyDelay(500);
 3317              		.loc 1 1157 0
 3318 04cc 4FF4FA70 		mov	r0, #500
 3319 04d0 FFF7FEFF 		bl	CyDelay
 3320              	.LVL477:
1158:main.c        ****                     PWM_BigServo_WriteCompare(down_big);
 3321              		.loc 1 1158 0
 3322 04d4 584C     		ldr	r4, .L239
 3323 04d6 B4F84400 		ldrh	r0, [r4, #68]
 3324 04da FFF7FEFF 		bl	PWM_BigServo_WriteCompare
 3325              	.LVL478:
1159:main.c        ****                     CyDelay(500);
 3326              		.loc 1 1159 0
 3327 04de 4FF4FA70 		mov	r0, #500
 3328 04e2 FFF7FEFF 		bl	CyDelay
 3329              	.LVL479:
1160:main.c        ****                     step++;
 3330              		.loc 1 1160 0
 3331 04e6 236C     		ldr	r3, [r4, #64]
 3332 04e8 0133     		adds	r3, r3, #1
 3333 04ea 2364     		str	r3, [r4, #64]
 3334              	.LVL480:
 3335              	.L220:
1152:main.c        ****                 {
 3336              		.loc 1 1152 0
 3337 04ec 524B     		ldr	r3, .L239
 3338 04ee 1B6C     		ldr	r3, [r3, #64]
 3339 04f0 0D2B     		cmp	r3, #13
 3340 04f2 E7D0     		beq	.L221
1161:main.c        ****                 }
1162:main.c        ****                 CyDelay(500);
 3341              		.loc 1 1162 0
 3342 04f4 4FF4FA70 		mov	r0, #500
 3343 04f8 FFF7FEFF 		bl	CyDelay
 3344              	.LVL481:
1163:main.c        ****                 while (step == 14)
 3345              		.loc 1 1163 0
 3346 04fc 13E0     		b	.L222
 3347              	.L223:
 3348              	.LVL482:
1164:main.c        ****                 {
1165:main.c        ****                     flag_FR = 0;
1166:main.c        ****                     dist_trav = 20;
1167:main.c        ****                     move_fixed_dist(dist_trav, flag_FR);
 3349              		.loc 1 1167 0
 3350 04fe 0021     		movs	r1, #0
 3351 0500 1420     		movs	r0, #20
 3352 0502 FFF7FEFF 		bl	move_fixed_dist
 3353              	.LVL483:
1168:main.c        ****                     CyDelay(500);
 3354              		.loc 1 1168 0
ARM GAS  C:\Users\weiro\AppData\Local\Temp\ccK6dLS7.s 			page 81


 3355 0506 4FF4FA70 		mov	r0, #500
 3356 050a FFF7FEFF 		bl	CyDelay
 3357              	.LVL484:
1169:main.c        ****                     PWM_BigServo_WriteCompare(up_big);
 3358              		.loc 1 1169 0
 3359 050e 4A4C     		ldr	r4, .L239
 3360 0510 B4F84C00 		ldrh	r0, [r4, #76]
 3361 0514 FFF7FEFF 		bl	PWM_BigServo_WriteCompare
 3362              	.LVL485:
1170:main.c        ****                     CyDelay(500);
 3363              		.loc 1 1170 0
 3364 0518 4FF4FA70 		mov	r0, #500
 3365 051c FFF7FEFF 		bl	CyDelay
 3366              	.LVL486:
1171:main.c        ****                     step++;
 3367              		.loc 1 1171 0
 3368 0520 236C     		ldr	r3, [r4, #64]
 3369 0522 0133     		adds	r3, r3, #1
 3370 0524 2364     		str	r3, [r4, #64]
 3371              	.LVL487:
 3372              	.L222:
1163:main.c        ****                 {
 3373              		.loc 1 1163 0
 3374 0526 444B     		ldr	r3, .L239
 3375 0528 1B6C     		ldr	r3, [r3, #64]
 3376 052a 0E2B     		cmp	r3, #14
 3377 052c E7D0     		beq	.L223
1172:main.c        ****                 }
1173:main.c        ****                 CyDelay(500);
 3378              		.loc 1 1173 0
 3379 052e 4FF4FA70 		mov	r0, #500
 3380 0532 FFF7FEFF 		bl	CyDelay
 3381              	.LVL488:
1174:main.c        ****                 while (step == 15)
 3382              		.loc 1 1174 0
 3383 0536 1EE0     		b	.L224
 3384              	.L226:
1175:main.c        ****                 {
1176:main.c        ****                     if (initial == 0)
 3385              		.loc 1 1176 0
 3386 0538 404B     		ldr	r3, .L239+4
 3387 053a D3F8A831 		ldr	r3, [r3, #424]
 3388 053e 0BB9     		cbnz	r3, .L234
1177:main.c        ****                     {
1178:main.c        ****                         flag_CW = 1;    // cw
 3389              		.loc 1 1178 0
 3390 0540 0124     		movs	r4, #1
 3391 0542 00E0     		b	.L225
 3392              	.L234:
1179:main.c        ****                     }
1180:main.c        ****                     else
1181:main.c        ****                     {
1182:main.c        ****                         flag_CW = 0;    // ccw
 3393              		.loc 1 1182 0
 3394 0544 0024     		movs	r4, #0
 3395              	.L225:
 3396              	.LVL489:
ARM GAS  C:\Users\weiro\AppData\Local\Temp\ccK6dLS7.s 			page 82


1183:main.c        ****                     }
1184:main.c        ****                     CW(PT_TURN_COUNT, flag_CW); // turn CCW or CW facing puck landing zone
 3397              		.loc 1 1184 0
 3398 0546 3E4B     		ldr	r3, .L239+8
 3399 0548 D3E90001 		ldrd	r0, [r3]
 3400 054c FFF7FEFF 		bl	__aeabi_d2iz
 3401              	.LVL490:
 3402 0550 2146     		mov	r1, r4
 3403 0552 FFF7FEFF 		bl	CW
 3404              	.LVL491:
1185:main.c        ****                     CyDelay(500);
 3405              		.loc 1 1185 0
 3406 0556 4FF4FA70 		mov	r0, #500
 3407 055a FFF7FEFF 		bl	CyDelay
 3408              	.LVL492:
1186:main.c        ****                     flag_FR = 1;
1187:main.c        ****                     dist_trav = 50;
1188:main.c        ****                     move_fixed_dist(dist_trav, flag_FR);
 3409              		.loc 1 1188 0
 3410 055e 0121     		movs	r1, #1
 3411 0560 3220     		movs	r0, #50
 3412 0562 FFF7FEFF 		bl	move_fixed_dist
 3413              	.LVL493:
1189:main.c        ****                     CyDelay(500);
 3414              		.loc 1 1189 0
 3415 0566 4FF4FA70 		mov	r0, #500
 3416 056a FFF7FEFF 		bl	CyDelay
 3417              	.LVL494:
1190:main.c        ****                     step++;
 3418              		.loc 1 1190 0
 3419 056e 324A     		ldr	r2, .L239
 3420 0570 136C     		ldr	r3, [r2, #64]
 3421 0572 0133     		adds	r3, r3, #1
 3422 0574 1364     		str	r3, [r2, #64]
 3423              	.LVL495:
 3424              	.L224:
1174:main.c        ****                 {
 3425              		.loc 1 1174 0
 3426 0576 304B     		ldr	r3, .L239
 3427 0578 1B6C     		ldr	r3, [r3, #64]
 3428 057a 0F2B     		cmp	r3, #15
 3429 057c DCD0     		beq	.L226
1191:main.c        ****                 }
1192:main.c        ****                 CyDelay(500);
 3430              		.loc 1 1192 0
 3431 057e 4FF4FA70 		mov	r0, #500
 3432 0582 FFF7FEFF 		bl	CyDelay
 3433              	.LVL496:
1193:main.c        ****                 while (step == 16)
 3434              		.loc 1 1193 0
 3435 0586 1EE0     		b	.L227
 3436              	.L229:
1194:main.c        ****                 {
1195:main.c        ****                     if (initial == 0)
 3437              		.loc 1 1195 0
 3438 0588 2C4B     		ldr	r3, .L239+4
 3439 058a D3F8A831 		ldr	r3, [r3, #424]
ARM GAS  C:\Users\weiro\AppData\Local\Temp\ccK6dLS7.s 			page 83


 3440 058e 0BB9     		cbnz	r3, .L235
1196:main.c        ****                     {
1197:main.c        ****                         flag_CW = 1;    // cw
 3441              		.loc 1 1197 0
 3442 0590 0124     		movs	r4, #1
 3443 0592 00E0     		b	.L228
 3444              	.L235:
1198:main.c        ****                     }
1199:main.c        ****                     else
1200:main.c        ****                     {
1201:main.c        ****                         flag_CW = 0;    // ccw
 3445              		.loc 1 1201 0
 3446 0594 0024     		movs	r4, #0
 3447              	.L228:
 3448              	.LVL497:
1202:main.c        ****                     }
1203:main.c        ****                     CW(PT_TURN_COUNT, flag_CW); // turn CCW or CW facing puck landing zone
 3449              		.loc 1 1203 0
 3450 0596 2A4B     		ldr	r3, .L239+8
 3451 0598 D3E90001 		ldrd	r0, [r3]
 3452 059c FFF7FEFF 		bl	__aeabi_d2iz
 3453              	.LVL498:
 3454 05a0 2146     		mov	r1, r4
 3455 05a2 FFF7FEFF 		bl	CW
 3456              	.LVL499:
1204:main.c        ****                     CyDelay(500);
 3457              		.loc 1 1204 0
 3458 05a6 4FF4FA70 		mov	r0, #500
 3459 05aa FFF7FEFF 		bl	CyDelay
 3460              	.LVL500:
1205:main.c        ****                     flag_FR = 1;
1206:main.c        ****                     dist_trav = 50;
1207:main.c        ****                     move_fixed_dist(dist_trav, flag_FR);
 3461              		.loc 1 1207 0
 3462 05ae 0121     		movs	r1, #1
 3463 05b0 3220     		movs	r0, #50
 3464 05b2 FFF7FEFF 		bl	move_fixed_dist
 3465              	.LVL501:
1208:main.c        ****                     CyDelay(500);
 3466              		.loc 1 1208 0
 3467 05b6 4FF4FA70 		mov	r0, #500
 3468 05ba FFF7FEFF 		bl	CyDelay
 3469              	.LVL502:
1209:main.c        ****                     step ++;
 3470              		.loc 1 1209 0
 3471 05be 1E4A     		ldr	r2, .L239
 3472 05c0 136C     		ldr	r3, [r2, #64]
 3473 05c2 0133     		adds	r3, r3, #1
 3474 05c4 1364     		str	r3, [r2, #64]
 3475              	.LVL503:
 3476              	.L227:
1193:main.c        ****                 {
 3477              		.loc 1 1193 0
 3478 05c6 1C4B     		ldr	r3, .L239
 3479 05c8 1B6C     		ldr	r3, [r3, #64]
 3480 05ca 102B     		cmp	r3, #16
 3481 05cc DCD0     		beq	.L229
ARM GAS  C:\Users\weiro\AppData\Local\Temp\ccK6dLS7.s 			page 84


 3482 05ce 2CE0     		b	.L188
 3483              	.L189:
1210:main.c        ****                 }
1211:main.c        ****                 
1212:main.c        ****                 // go home
1213:main.c        ****             }
1214:main.c        ****             else // task info
1215:main.c        ****             {
1216:main.c        ****                 tokenPtr = strtok(string_bt, " ");
 3484              		.loc 1 1216 0
 3485 05d0 1C49     		ldr	r1, .L239+12
 3486 05d2 1D48     		ldr	r0, .L239+16
 3487 05d4 FFF7FEFF 		bl	strtok
 3488              	.LVL504:
 3489 05d8 1C4B     		ldr	r3, .L239+20
 3490 05da 1860     		str	r0, [r3]
1217:main.c        ****                 while (tokenPtr != NULL)
 3491              		.loc 1 1217 0
 3492 05dc 12E0     		b	.L230
 3493              	.L231:
1218:main.c        ****                 {
1219:main.c        ****                     strcpy(task_info[j], tokenPtr);
 3494              		.loc 1 1219 0
 3495 05de 174D     		ldr	r5, .L239+4
 3496 05e0 D5F8AC41 		ldr	r4, [r5, #428]
 3497 05e4 04EB8402 		add	r2, r4, r4, lsl #2
 3498 05e8 9300     		lsls	r3, r2, #2
 3499 05ea 1948     		ldr	r0, .L239+24
 3500 05ec 1844     		add	r0, r0, r3
 3501 05ee FFF7FEFF 		bl	strcpy
 3502              	.LVL505:
1220:main.c        ****                     j++;
 3503              		.loc 1 1220 0
 3504 05f2 0134     		adds	r4, r4, #1
 3505 05f4 C5F8AC41 		str	r4, [r5, #428]
1221:main.c        ****                     tokenPtr = strtok(NULL, " ");
 3506              		.loc 1 1221 0
 3507 05f8 1249     		ldr	r1, .L239+12
 3508 05fa 0020     		movs	r0, #0
 3509 05fc FFF7FEFF 		bl	strtok
 3510              	.LVL506:
 3511 0600 124B     		ldr	r3, .L239+20
 3512 0602 1860     		str	r0, [r3]
 3513              	.L230:
1217:main.c        ****                 {
 3514              		.loc 1 1217 0
 3515 0604 114B     		ldr	r3, .L239+20
 3516 0606 1968     		ldr	r1, [r3]
 3517 0608 0029     		cmp	r1, #0
 3518 060a E8D1     		bne	.L231
1222:main.c        ****                 }
1223:main.c        ****                 UART_1_PutString(task_info[0]);
 3519              		.loc 1 1223 0
 3520 060c 104C     		ldr	r4, .L239+24
 3521 060e 2046     		mov	r0, r4
 3522 0610 FFF7FEFF 		bl	UART_1_PutString
 3523              	.LVL507:
ARM GAS  C:\Users\weiro\AppData\Local\Temp\ccK6dLS7.s 			page 85


1224:main.c        ****                 UART_1_PutString(task_info[1]);
 3524              		.loc 1 1224 0
 3525 0614 04F11400 		add	r0, r4, #20
 3526 0618 FFF7FEFF 		bl	UART_1_PutString
 3527              	.LVL508:
1225:main.c        ****                 UART_1_PutString(task_info[2]);
 3528              		.loc 1 1225 0
 3529 061c 04F12800 		add	r0, r4, #40
 3530 0620 FFF7FEFF 		bl	UART_1_PutString
 3531              	.LVL509:
1226:main.c        ****                 UART_1_PutString("Received  \n");
 3532              		.loc 1 1226 0
 3533 0624 0B48     		ldr	r0, .L239+28
 3534 0626 FFF7FEFF 		bl	UART_1_PutString
 3535              	.LVL510:
 3536              	.L188:
1227:main.c        ****             }
1228:main.c        ****             i = 0;
 3537              		.loc 1 1228 0
 3538 062a 044B     		ldr	r3, .L239+4
 3539 062c 0022     		movs	r2, #0
 3540 062e 9A64     		str	r2, [r3, #72]
1229:main.c        ****             j = 0;
 3541              		.loc 1 1229 0
 3542 0630 C3F8AC21 		str	r2, [r3, #428]
1230:main.c        ****             stop_bt = 0;
 3543              		.loc 1 1230 0
 3544 0634 DA64     		str	r2, [r3, #76]
 3545 0636 61E5     		b	.L186
 3546              	.L240:
 3547              		.align	2
 3548              	.L239:
 3549 0638 00000000 		.word	.LANCHOR1
 3550 063c 00000000 		.word	.LANCHOR0
 3551 0640 A0010000 		.word	.LANCHOR0+416
 3552 0644 B4000000 		.word	.LC13
 3553 0648 00000000 		.word	string_bt
 3554 064c 00000000 		.word	tokenPtr
 3555 0650 00000000 		.word	task_info
 3556 0654 B8000000 		.word	.LC14
 3557              		.cfi_endproc
 3558              	.LFE86:
 3559              		.size	main, .-main
 3560              		.global	threshold
 3561              		.global	error_gyro_avg
 3562              		.global	error_gyro
 3563              		.global	count
 3564              		.global	cal
 3565              		.global	string_gyro
 3566              		.global	cycles
 3567              		.global	heading
 3568              		.global	current_reading
 3569              		.global	previous_reading
 3570              		.global	yaw_angle
 3571              		.global	yaw_rate
 3572              		.global	temp
 3573              		.global	array_1
ARM GAS  C:\Users\weiro\AppData\Local\Temp\ccK6dLS7.s 			page 86


 3574              		.global	j
 3575              		.comm	task_info,60,4
 3576              		.comm	tokenPtr,4,4
 3577              		.global	stop_bt
 3578              		.comm	string_bt,200,4
 3579              		.global	i
 3580              		.comm	Rx,1,1
 3581              		.global	close_small
 3582              		.global	open_small
 3583              		.global	up_big
 3584              		.global	down_big
 3585              		.global	slit_detected
 3586              		.global	wall_detected_10
 3587              		.global	color_detected
 3588              		.global	compare_ready
 3589              		.global	step
 3590              		.global	direction
 3591              		.global	y_coord
 3592              		.global	x_coord
 3593              		.global	echo_select
 3594              		.global	left_measured
 3595              		.comm	right_measured,8,8
 3596              		.comm	front_measured_2,8,8
 3597              		.comm	front_measured_1,8,8
 3598              		.global	ultrasonic_measure
 3599              		.global	ultrasonic_count
 3600              		.global	is_moving
 3601              		.global	PWM_Slave_puck
 3602              		.global	PWM_Master_puck
 3603              		.global	PWM_Slave
 3604              		.global	PWM_Cal
 3605              		.global	PWM_Master
 3606              		.global	K_d
 3607              		.global	K_i
 3608              		.global	K_p
 3609              		.global	timer_period
 3610              		.global	derivative_error
 3611              		.global	last_error
 3612              		.global	accumulated_error
 3613              		.global	error
 3614              		.comm	string_3,200,4
 3615              		.comm	string_2,200,4
 3616              		.comm	string_1,200,4
 3617              		.global	Count_Slave
 3618              		.global	Count_Master
 3619              		.global	PT_TURN_COUNT
 3620              		.global	DISTANCE_PT_TURN
 3621              		.global	DISTANCE_BETW_WHEEL
 3622              		.global	CM_COUNT_CONV
 3623              		.global	COUNT_WHEEL
 3624              		.global	CS_count_Green
 3625              		.global	CS_count_Blue
 3626              		.global	CS_count_Red
 3627              		.global	WHEEL_CIRCUMFERENCE
 3628              		.global	WHEEL_DIAMETER
 3629              		.global	initial
 3630              		.data
ARM GAS  C:\Users\weiro\AppData\Local\Temp\ccK6dLS7.s 			page 87


 3631              		.align	3
 3632              		.set	.LANCHOR1,. + 0
 3633              		.type	K_p, %object
 3634              		.size	K_p, 8
 3635              	K_p:
 3636 0000 00000000 		.word	0
 3637 0004 00001440 		.word	1075052544
 3638              		.type	PWM_Master, %object
 3639              		.size	PWM_Master, 4
 3640              	PWM_Master:
 3641 0008 00409C46 		.word	1184645120
 3642              		.type	PWM_Slave, %object
 3643              		.size	PWM_Slave, 4
 3644              	PWM_Slave:
 3645 000c 00409C46 		.word	1184645120
 3646              		.type	cal, %object
 3647              		.size	cal, 4
 3648              	cal:
 3649 0010 01000000 		.word	1
 3650 0014 00000000 		.space	4
 3651              		.type	threshold, %object
 3652              		.size	threshold, 8
 3653              	threshold:
 3654 0018 9A999999 		.word	-1717986918
 3655 001c 9999B93F 		.word	1069128089
 3656              		.type	WHEEL_DIAMETER, %object
 3657              		.size	WHEEL_DIAMETER, 8
 3658              	WHEEL_DIAMETER:
 3659 0020 9A999999 		.word	-1717986918
 3660 0024 99991540 		.word	1075157401
 3661              		.type	PWM_Cal, %object
 3662              		.size	PWM_Cal, 4
 3663              	PWM_Cal:
 3664 0028 00401C46 		.word	1176256512
 3665 002c 00000000 		.space	4
 3666              		.type	DISTANCE_BETW_WHEEL, %object
 3667              		.size	DISTANCE_BETW_WHEEL, 8
 3668              	DISTANCE_BETW_WHEEL:
 3669 0030 CDCCCCCC 		.word	-858993459
 3670 0034 CC4C3640 		.word	1077300428
 3671              		.type	COUNT_WHEEL, %object
 3672              		.size	COUNT_WHEEL, 8
 3673              	COUNT_WHEEL:
 3674 0038 00000000 		.word	0
 3675 003c 00A6AC40 		.word	1085056512
 3676              		.type	step, %object
 3677              		.size	step, 4
 3678              	step:
 3679 0040 FFFFFFFF 		.word	-1
 3680              		.type	down_big, %object
 3681              		.size	down_big, 4
 3682              	down_big:
 3683 0044 67020000 		.word	615
 3684              		.type	close_small, %object
 3685              		.size	close_small, 4
 3686              	close_small:
 3687 0048 AC030000 		.word	940
ARM GAS  C:\Users\weiro\AppData\Local\Temp\ccK6dLS7.s 			page 88


 3688              		.type	up_big, %object
 3689              		.size	up_big, 4
 3690              	up_big:
 3691 004c 0D020000 		.word	525
 3692              		.type	open_small, %object
 3693              		.size	open_small, 4
 3694              	open_small:
 3695 0050 D4030000 		.word	980
 3696              		.type	PWM_Slave_puck, %object
 3697              		.size	PWM_Slave_puck, 4
 3698              	PWM_Slave_puck:
 3699 0054 00409C45 		.word	1167867904
 3700              		.type	PWM_Master_puck, %object
 3701              		.size	PWM_Master_puck, 4
 3702              	PWM_Master_puck:
 3703 0058 00409C45 		.word	1167867904
 3704 005c 00000000 		.space	4
 3705              		.type	timer_period, %object
 3706              		.size	timer_period, 8
 3707              	timer_period:
 3708 0060 00000000 		.word	0
 3709 0064 00001440 		.word	1075052544
 3710              		.section	.rodata.str1.4,"aMS",%progbits,1
 3711              		.align	2
 3712              	.LC0:
 3713 0000 46726F6E 		.ascii	"Front dist 1: %lf\012\000"
 3713      74206469 
 3713      73742031 
 3713      3A20256C 
 3713      660A00
 3714 0013 00       		.space	1
 3715              	.LC1:
 3716 0014 43616C69 		.ascii	"Calibrating\012\000"
 3716      62726174 
 3716      696E670A 
 3716      00
 3717 0021 000000   		.space	3
 3718              	.LC2:
 3719 0024 48656164 		.ascii	"Heading: %lf\012\000"
 3719      696E673A 
 3719      20256C66 
 3719      0A00
 3720 0032 0000     		.space	2
 3721              	.LC3:
 3722 0034 6D6F7669 		.ascii	"moving to slit\000"
 3722      6E672074 
 3722      6F20736C 
 3722      697400
 3723 0043 00       		.space	1
 3724              	.LC4:
 3725 0044 7265643A 		.ascii	"red: %d\012\000"
 3725      2025640A 
 3725      00
 3726 004d 000000   		.space	3
 3727              	.LC5:
 3728 0050 67726565 		.ascii	"green: %d\012\000"
 3728      6E3A2025 
ARM GAS  C:\Users\weiro\AppData\Local\Temp\ccK6dLS7.s 			page 89


 3728      640A00
 3729 005b 00       		.space	1
 3730              	.LC6:
 3731 005c 626C7565 		.ascii	"blue: %d\012\000"
 3731      3A202564 
 3731      0A00
 3732 0066 0000     		.space	2
 3733              	.LC7:
 3734 0068 766F6C74 		.ascii	"volt(V): %lf\012\000"
 3734      2856293A 
 3734      20256C66 
 3734      0A00
 3735 0076 0000     		.space	2
 3736              	.LC8:
 3737 0078 64697374 		.ascii	"dist(cm): %lf\012\000"
 3737      28636D29 
 3737      3A20256C 
 3737      660A00
 3738 0087 00       		.space	1
 3739              	.LC9:
 3740 0088 41726520 		.ascii	"Are you ready?\000"
 3740      796F7520 
 3740      72656164 
 3740      793F00
 3741 0097 00       		.space	1
 3742              	.LC10:
 3743 0098 52656164 		.ascii	"Ready  \012\000"
 3743      7920200A 
 3743      00
 3744 00a1 000000   		.space	3
 3745              	.LC11:
 3746 00a4 53746172 		.ascii	"Start\000"
 3746      7400
 3747 00aa 0000     		.space	2
 3748              	.LC12:
 3749 00ac 73746570 		.ascii	"step 2\000"
 3749      203200
 3750 00b3 00       		.space	1
 3751              	.LC13:
 3752 00b4 2000     		.ascii	" \000"
 3753 00b6 0000     		.space	2
 3754              	.LC14:
 3755 00b8 52656365 		.ascii	"Received  \012\000"
 3755      69766564 
 3755      20200A00 
 3756              		.bss
 3757              		.align	3
 3758              		.set	.LANCHOR0,. + 0
 3759              		.type	is_moving, %object
 3760              		.size	is_moving, 4
 3761              	is_moving:
 3762 0000 00000000 		.space	4
 3763              		.type	Count_Master, %object
 3764              		.size	Count_Master, 4
 3765              	Count_Master:
 3766 0004 00000000 		.space	4
 3767              		.type	Count_Slave, %object
ARM GAS  C:\Users\weiro\AppData\Local\Temp\ccK6dLS7.s 			page 90


 3768              		.size	Count_Slave, 4
 3769              	Count_Slave:
 3770 0008 00000000 		.space	4
 3771 000c 00000000 		.space	4
 3772              		.type	error, %object
 3773              		.size	error, 8
 3774              	error:
 3775 0010 00000000 		.space	8
 3775      00000000 
 3776              		.type	last_error, %object
 3777              		.size	last_error, 8
 3778              	last_error:
 3779 0018 00000000 		.space	8
 3779      00000000 
 3780              		.type	ultrasonic_count, %object
 3781              		.size	ultrasonic_count, 4
 3782              	ultrasonic_count:
 3783 0020 00000000 		.space	4
 3784 0024 00000000 		.space	4
 3785              		.type	ultrasonic_measure, %object
 3786              		.size	ultrasonic_measure, 8
 3787              	ultrasonic_measure:
 3788 0028 00000000 		.space	8
 3788      00000000 
 3789              		.type	echo_select, %object
 3790              		.size	echo_select, 4
 3791              	echo_select:
 3792 0030 00000000 		.space	4
 3793 0034 00000000 		.space	4
 3794              		.type	left_measured, %object
 3795              		.size	left_measured, 8
 3796              	left_measured:
 3797 0038 00000000 		.space	8
 3797      00000000 
 3798              		.type	wall_detected_10, %object
 3799              		.size	wall_detected_10, 4
 3800              	wall_detected_10:
 3801 0040 00000000 		.space	4
 3802              		.type	compare_ready, %object
 3803              		.size	compare_ready, 4
 3804              	compare_ready:
 3805 0044 00000000 		.space	4
 3806              		.type	i, %object
 3807              		.size	i, 4
 3808              	i:
 3809 0048 00000000 		.space	4
 3810              		.type	stop_bt, %object
 3811              		.size	stop_bt, 4
 3812              	stop_bt:
 3813 004c 00000000 		.space	4
 3814              		.type	array_1, %object
 3815              		.size	array_1, 6
 3816              	array_1:
 3817 0050 00000000 		.space	6
 3817      0000
 3818              		.type	temp, %object
 3819              		.size	temp, 2
ARM GAS  C:\Users\weiro\AppData\Local\Temp\ccK6dLS7.s 			page 91


 3820              	temp:
 3821 0056 0000     		.space	2
 3822              		.type	count, %object
 3823              		.size	count, 4
 3824              	count:
 3825 0058 00000000 		.space	4
 3826              		.type	error_gyro, %object
 3827              		.size	error_gyro, 2
 3828              	error_gyro:
 3829 005c 0000     		.space	2
 3830              		.type	error_gyro_avg, %object
 3831              		.size	error_gyro_avg, 2
 3832              	error_gyro_avg:
 3833 005e 0000     		.space	2
 3834              		.type	yaw_rate, %object
 3835              		.size	yaw_rate, 8
 3836              	yaw_rate:
 3837 0060 00000000 		.space	8
 3837      00000000 
 3838              		.type	current_reading, %object
 3839              		.size	current_reading, 8
 3840              	current_reading:
 3841 0068 00000000 		.space	8
 3841      00000000 
 3842              		.type	previous_reading, %object
 3843              		.size	previous_reading, 8
 3844              	previous_reading:
 3845 0070 00000000 		.space	8
 3845      00000000 
 3846              		.type	yaw_angle, %object
 3847              		.size	yaw_angle, 8
 3848              	yaw_angle:
 3849 0078 00000000 		.space	8
 3849      00000000 
 3850              		.type	cycles, %object
 3851              		.size	cycles, 4
 3852              	cycles:
 3853 0080 00000000 		.space	4
 3854 0084 00000000 		.space	4
 3855              		.type	heading, %object
 3856              		.size	heading, 8
 3857              	heading:
 3858 0088 00000000 		.space	8
 3858      00000000 
 3859              		.type	string_gyro, %object
 3860              		.size	string_gyro, 200
 3861              	string_gyro:
 3862 0090 00000000 		.space	200
 3862      00000000 
 3862      00000000 
 3862      00000000 
 3862      00000000 
 3863              		.type	CM_COUNT_CONV, %object
 3864              		.size	CM_COUNT_CONV, 8
 3865              	CM_COUNT_CONV:
 3866 0158 00000000 		.space	8
 3866      00000000 
ARM GAS  C:\Users\weiro\AppData\Local\Temp\ccK6dLS7.s 			page 92


 3867              		.type	direction, %object
 3868              		.size	direction, 4
 3869              	direction:
 3870 0160 00000000 		.space	4
 3871 0164 00000000 		.space	4
 3872              		.type	y_coord, %object
 3873              		.size	y_coord, 8
 3874              	y_coord:
 3875 0168 00000000 		.space	8
 3875      00000000 
 3876              		.type	x_coord, %object
 3877              		.size	x_coord, 8
 3878              	x_coord:
 3879 0170 00000000 		.space	8
 3879      00000000 
 3880              		.type	slit_detected, %object
 3881              		.size	slit_detected, 4
 3882              	slit_detected:
 3883 0178 00000000 		.space	4
 3884              		.type	CS_count_Red, %object
 3885              		.size	CS_count_Red, 4
 3886              	CS_count_Red:
 3887 017c 00000000 		.space	4
 3888              		.type	CS_count_Green, %object
 3889              		.size	CS_count_Green, 4
 3890              	CS_count_Green:
 3891 0180 00000000 		.space	4
 3892              		.type	CS_count_Blue, %object
 3893              		.size	CS_count_Blue, 4
 3894              	CS_count_Blue:
 3895 0184 00000000 		.space	4
 3896              		.type	color_detected, %object
 3897              		.size	color_detected, 4
 3898              	color_detected:
 3899 0188 00000000 		.space	4
 3900 018c 00000000 		.space	4
 3901              		.type	WHEEL_CIRCUMFERENCE, %object
 3902              		.size	WHEEL_CIRCUMFERENCE, 8
 3903              	WHEEL_CIRCUMFERENCE:
 3904 0190 00000000 		.space	8
 3904      00000000 
 3905              		.type	DISTANCE_PT_TURN, %object
 3906              		.size	DISTANCE_PT_TURN, 8
 3907              	DISTANCE_PT_TURN:
 3908 0198 00000000 		.space	8
 3908      00000000 
 3909              		.type	PT_TURN_COUNT, %object
 3910              		.size	PT_TURN_COUNT, 8
 3911              	PT_TURN_COUNT:
 3912 01a0 00000000 		.space	8
 3912      00000000 
 3913              		.type	initial, %object
 3914              		.size	initial, 4
 3915              	initial:
 3916 01a8 00000000 		.space	4
 3917              		.type	j, %object
 3918              		.size	j, 4
ARM GAS  C:\Users\weiro\AppData\Local\Temp\ccK6dLS7.s 			page 93


 3919              	j:
 3920 01ac 00000000 		.space	4
 3921              		.type	K_d, %object
 3922              		.size	K_d, 8
 3923              	K_d:
 3924 01b0 00000000 		.space	8
 3924      00000000 
 3925              		.type	K_i, %object
 3926              		.size	K_i, 8
 3927              	K_i:
 3928 01b8 00000000 		.space	8
 3928      00000000 
 3929              		.type	derivative_error, %object
 3930              		.size	derivative_error, 8
 3931              	derivative_error:
 3932 01c0 00000000 		.space	8
 3932      00000000 
 3933              		.type	accumulated_error, %object
 3934              		.size	accumulated_error, 8
 3935              	accumulated_error:
 3936 01c8 00000000 		.space	8
 3936      00000000 
 3937              		.text
 3938              	.Letext0:
 3939              		.file 2 "c:\\program files (x86)\\cypress\\psoc creator\\4.4\\psoc creator\\import\\gnu\\arm\\5.4.
 3940              		.file 3 "c:\\program files (x86)\\cypress\\psoc creator\\4.4\\psoc creator\\import\\gnu\\arm\\5.4.
 3941              		.file 4 "Generated_Source\\PSoC5/cytypes.h"
 3942              		.file 5 "Generated_Source\\PSoC5/core_cm3.h"
 3943              		.file 6 "Generated_Source\\PSoC5/PWM_Wheels.h"
 3944              		.file 7 "Generated_Source\\PSoC5/Timer_3.h"
 3945              		.file 8 "c:\\program files (x86)\\cypress\\psoc creator\\4.4\\psoc creator\\import\\gnu\\arm\\5.4.
 3946              		.file 9 "Generated_Source\\PSoC5/PWM_ColorSensor.h"
 3947              		.file 10 "Generated_Source\\PSoC5/UART_1.h"
 3948              		.file 11 "Generated_Source\\PSoC5/Timer_2.h"
 3949              		.file 12 "Generated_Source\\PSoC5/I2C_1.h"
 3950              		.file 13 "Generated_Source\\PSoC5/CyLib.h"
 3951              		.file 14 "Generated_Source\\PSoC5/Motor_1_IN_1.h"
 3952              		.file 15 "Generated_Source\\PSoC5/Motor_1_IN_2.h"
 3953              		.file 16 "Generated_Source\\PSoC5/Motor_2_IN_3.h"
 3954              		.file 17 "Generated_Source\\PSoC5/Motor_2_IN_4.h"
 3955              		.file 18 "Generated_Source\\PSoC5/QuadDec_1.h"
 3956              		.file 19 "Generated_Source\\PSoC5/QuadDec_2.h"
 3957              		.file 20 "Generated_Source\\PSoC5/Control_Reg_2.h"
 3958              		.file 21 "Generated_Source\\PSoC5/Trigger.h"
 3959              		.file 22 "Generated_Source\\PSoC5/Front_Echo_1.h"
 3960              		.file 23 "Generated_Source\\PSoC5/Left_Echo.h"
 3961              		.file 24 "Generated_Source\\PSoC5/IR_input.h"
 3962              		.file 25 "Generated_Source\\PSoC5/S0.h"
 3963              		.file 26 "Generated_Source\\PSoC5/S1.h"
 3964              		.file 27 "Generated_Source\\PSoC5/CS_LED.h"
 3965              		.file 28 "Generated_Source\\PSoC5/Counter_ColorSensor.h"
 3966              		.file 29 "Generated_Source\\PSoC5/S2.h"
 3967              		.file 30 "Generated_Source\\PSoC5/S3.h"
 3968              		.file 31 "Generated_Source\\PSoC5/Control_Reg_1.h"
 3969              		.file 32 "Generated_Source\\PSoC5/led_red.h"
 3970              		.file 33 "Generated_Source\\PSoC5/led_green.h"
 3971              		.file 34 "Generated_Source\\PSoC5/led_blue.h"
ARM GAS  C:\Users\weiro\AppData\Local\Temp\ccK6dLS7.s 			page 94


 3972              		.file 35 "Generated_Source\\PSoC5/Flicker.h"
 3973              		.file 36 "Generated_Source\\PSoC5/ADC_SAR_1.h"
 3974              		.file 37 "Generated_Source\\PSoC5/isr_1.h"
 3975              		.file 38 "Generated_Source\\PSoC5/isr_6.h"
 3976              		.file 39 "Generated_Source\\PSoC5/Timer_1.h"
 3977              		.file 40 "Generated_Source\\PSoC5/isr_3.h"
 3978              		.file 41 "Generated_Source\\PSoC5/isr_7.h"
 3979              		.file 42 "Generated_Source\\PSoC5/PWM_SmallServo.h"
 3980              		.file 43 "Generated_Source\\PSoC5/PWM_BigServo.h"
 3981              		.file 44 "Generated_Source\\PSoC5/isr_2.h"
 3982              		.file 45 "c:\\program files (x86)\\cypress\\psoc creator\\4.4\\psoc creator\\import\\gnu\\arm\\5.4
 3983              		.file 46 "c:\\program files (x86)\\cypress\\psoc creator\\4.4\\psoc creator\\import\\gnu\\arm\\5.4
 3984              		.section	.debug_info,"",%progbits
 3985              	.Ldebug_info0:
 3986 0000 41210000 		.4byte	0x2141
 3987 0004 0400     		.2byte	0x4
 3988 0006 00000000 		.4byte	.Ldebug_abbrev0
 3989 000a 04       		.byte	0x4
 3990 000b 01       		.uleb128 0x1
 3991 000c 33030000 		.4byte	.LASF184
 3992 0010 0C       		.byte	0xc
 3993 0011 4F000000 		.4byte	.LASF185
 3994 0015 E8090000 		.4byte	.LASF186
 3995 0019 30000000 		.4byte	.Ldebug_ranges0+0x30
 3996 001d 00000000 		.4byte	0
 3997 0021 00000000 		.4byte	.Ldebug_line0
 3998 0025 02       		.uleb128 0x2
 3999 0026 08       		.byte	0x8
 4000 0027 04       		.byte	0x4
 4001 0028 B10A0000 		.4byte	.LASF0
 4002 002c 02       		.uleb128 0x2
 4003 002d 01       		.byte	0x1
 4004 002e 06       		.byte	0x6
 4005 002f 430A0000 		.4byte	.LASF1
 4006 0033 02       		.uleb128 0x2
 4007 0034 01       		.byte	0x1
 4008 0035 08       		.byte	0x8
 4009 0036 2D090000 		.4byte	.LASF2
 4010 003a 02       		.uleb128 0x2
 4011 003b 02       		.byte	0x2
 4012 003c 05       		.byte	0x5
 4013 003d 03070000 		.4byte	.LASF3
 4014 0041 02       		.uleb128 0x2
 4015 0042 02       		.byte	0x2
 4016 0043 07       		.byte	0x7
 4017 0044 4F0A0000 		.4byte	.LASF4
 4018 0048 03       		.uleb128 0x3
 4019 0049 0E010000 		.4byte	.LASF10
 4020 004d 02       		.byte	0x2
 4021 004e 3F       		.byte	0x3f
 4022 004f 53000000 		.4byte	0x53
 4023 0053 02       		.uleb128 0x2
 4024 0054 04       		.byte	0x4
 4025 0055 05       		.byte	0x5
 4026 0056 23070000 		.4byte	.LASF5
 4027 005a 02       		.uleb128 0x2
 4028 005b 04       		.byte	0x4
ARM GAS  C:\Users\weiro\AppData\Local\Temp\ccK6dLS7.s 			page 95


 4029 005c 07       		.byte	0x7
 4030 005d A9080000 		.4byte	.LASF6
 4031 0061 02       		.uleb128 0x2
 4032 0062 08       		.byte	0x8
 4033 0063 05       		.byte	0x5
 4034 0064 6D050000 		.4byte	.LASF7
 4035 0068 02       		.uleb128 0x2
 4036 0069 08       		.byte	0x8
 4037 006a 07       		.byte	0x7
 4038 006b AE020000 		.4byte	.LASF8
 4039 006f 04       		.uleb128 0x4
 4040 0070 04       		.byte	0x4
 4041 0071 05       		.byte	0x5
 4042 0072 696E7400 		.ascii	"int\000"
 4043 0076 02       		.uleb128 0x2
 4044 0077 04       		.byte	0x4
 4045 0078 07       		.byte	0x7
 4046 0079 E8000000 		.4byte	.LASF9
 4047 007d 03       		.uleb128 0x3
 4048 007e F6080000 		.4byte	.LASF11
 4049 0082 03       		.byte	0x3
 4050 0083 2C       		.byte	0x2c
 4051 0084 48000000 		.4byte	0x48
 4052 0088 05       		.uleb128 0x5
 4053 0089 AB0A0000 		.4byte	.LASF12
 4054 008d 04       		.byte	0x4
 4055 008e E801     		.2byte	0x1e8
 4056 0090 33000000 		.4byte	0x33
 4057 0094 05       		.uleb128 0x5
 4058 0095 18010000 		.4byte	.LASF13
 4059 0099 04       		.byte	0x4
 4060 009a EC01     		.2byte	0x1ec
 4061 009c 3A000000 		.4byte	0x3a
 4062 00a0 02       		.uleb128 0x2
 4063 00a1 04       		.byte	0x4
 4064 00a2 04       		.byte	0x4
 4065 00a3 4C020000 		.4byte	.LASF14
 4066 00a7 02       		.uleb128 0x2
 4067 00a8 01       		.byte	0x1
 4068 00a9 08       		.byte	0x8
 4069 00aa EF040000 		.4byte	.LASF15
 4070 00ae 02       		.uleb128 0x2
 4071 00af 08       		.byte	0x8
 4072 00b0 04       		.byte	0x4
 4073 00b1 6F060000 		.4byte	.LASF16
 4074 00b5 02       		.uleb128 0x2
 4075 00b6 04       		.byte	0x4
 4076 00b7 07       		.byte	0x7
 4077 00b8 92080000 		.4byte	.LASF17
 4078 00bc 06       		.uleb128 0x6
 4079 00bd 04       		.byte	0x4
 4080 00be A7000000 		.4byte	0xa7
 4081 00c2 07       		.uleb128 0x7
 4082 00c3 F5000000 		.4byte	.LASF18
 4083 00c7 01       		.byte	0x1
 4084 00c8 5C       		.byte	0x5c
 4085 00c9 00000000 		.4byte	.LFB64
ARM GAS  C:\Users\weiro\AppData\Local\Temp\ccK6dLS7.s 			page 96


 4086 00cd 78000000 		.4byte	.LFE64-.LFB64
 4087 00d1 01       		.uleb128 0x1
 4088 00d2 9C       		.byte	0x9c
 4089 00d3 E1000000 		.4byte	0xe1
 4090 00d7 08       		.uleb128 0x8
 4091 00d8 5C000000 		.4byte	.LVL7
 4092 00dc 791E0000 		.4byte	0x1e79
 4093 00e0 00       		.byte	0
 4094 00e1 07       		.uleb128 0x7
 4095 00e2 06060000 		.4byte	.LASF19
 4096 00e6 01       		.byte	0x1
 4097 00e7 74       		.byte	0x74
 4098 00e8 00000000 		.4byte	.LFB65
 4099 00ec B8000000 		.4byte	.LFE65-.LFB65
 4100 00f0 01       		.uleb128 0x1
 4101 00f1 9C       		.byte	0x9c
 4102 00f2 25010000 		.4byte	0x125
 4103 00f6 08       		.uleb128 0x8
 4104 00f7 06000000 		.4byte	.LVL8
 4105 00fb 841E0000 		.4byte	0x1e84
 4106 00ff 08       		.uleb128 0x8
 4107 0100 0A000000 		.4byte	.LVL9
 4108 0104 8F1E0000 		.4byte	0x1e8f
 4109 0108 09       		.uleb128 0x9
 4110 0109 36000000 		.4byte	.LVL11
 4111 010d 9A1E0000 		.4byte	0x1e9a
 4112 0111 0A       		.uleb128 0xa
 4113 0112 01       		.uleb128 0x1
 4114 0113 50       		.byte	0x50
 4115 0114 05       		.uleb128 0x5
 4116 0115 03       		.byte	0x3
 4117 0116 00000000 		.4byte	string_1
 4118 011a 0A       		.uleb128 0xa
 4119 011b 01       		.uleb128 0x1
 4120 011c 51       		.byte	0x51
 4121 011d 05       		.uleb128 0x5
 4122 011e 03       		.byte	0x3
 4123 011f 00000000 		.4byte	.LC0
 4124 0123 00       		.byte	0
 4125 0124 00       		.byte	0
 4126 0125 0B       		.uleb128 0xb
 4127 0126 25060000 		.4byte	.LASF20
 4128 012a 01       		.byte	0x1
 4129 012b 9A       		.byte	0x9a
 4130 012c 00000000 		.4byte	.LFB66
 4131 0130 14000000 		.4byte	.LFE66-.LFB66
 4132 0134 01       		.uleb128 0x1
 4133 0135 9C       		.byte	0x9c
 4134 0136 44010000 		.4byte	0x144
 4135 013a 08       		.uleb128 0x8
 4136 013b 06000000 		.4byte	.LVL13
 4137 013f A51E0000 		.4byte	0x1ea5
 4138 0143 00       		.byte	0
 4139 0144 0B       		.uleb128 0xb
 4140 0145 C70A0000 		.4byte	.LASF21
 4141 0149 01       		.byte	0x1
 4142 014a A1       		.byte	0xa1
ARM GAS  C:\Users\weiro\AppData\Local\Temp\ccK6dLS7.s 			page 97


 4143 014b 00000000 		.4byte	.LFB67
 4144 014f 38000000 		.4byte	.LFE67-.LFB67
 4145 0153 01       		.uleb128 0x1
 4146 0154 9C       		.byte	0x9c
 4147 0155 63010000 		.4byte	0x163
 4148 0159 08       		.uleb128 0x8
 4149 015a 06000000 		.4byte	.LVL14
 4150 015e B01E0000 		.4byte	0x1eb0
 4151 0162 00       		.byte	0
 4152 0163 07       		.uleb128 0x7
 4153 0164 49060000 		.4byte	.LASF22
 4154 0168 01       		.byte	0x1
 4155 0169 B0       		.byte	0xb0
 4156 016a 00000000 		.4byte	.LFB68
 4157 016e 58020000 		.4byte	.LFE68-.LFB68
 4158 0172 01       		.uleb128 0x1
 4159 0173 9C       		.byte	0x9c
 4160 0174 E7020000 		.4byte	0x2e7
 4161 0178 08       		.uleb128 0x8
 4162 0179 08000000 		.4byte	.LVL15
 4163 017d BB1E0000 		.4byte	0x1ebb
 4164 0181 0C       		.uleb128 0xc
 4165 0182 10000000 		.4byte	.LVL16
 4166 0186 C61E0000 		.4byte	0x1ec6
 4167 018a 9A010000 		.4byte	0x19a
 4168 018e 0A       		.uleb128 0xa
 4169 018f 01       		.uleb128 0x1
 4170 0190 50       		.byte	0x50
 4171 0191 02       		.uleb128 0x2
 4172 0192 08       		.byte	0x8
 4173 0193 68       		.byte	0x68
 4174 0194 0A       		.uleb128 0xa
 4175 0195 01       		.uleb128 0x1
 4176 0196 51       		.byte	0x51
 4177 0197 01       		.uleb128 0x1
 4178 0198 30       		.byte	0x30
 4179 0199 00       		.byte	0
 4180 019a 0C       		.uleb128 0xc
 4181 019b 16000000 		.4byte	.LVL17
 4182 019f D11E0000 		.4byte	0x1ed1
 4183 01a3 AE010000 		.4byte	0x1ae
 4184 01a7 0A       		.uleb128 0xa
 4185 01a8 01       		.uleb128 0x1
 4186 01a9 50       		.byte	0x50
 4187 01aa 02       		.uleb128 0x2
 4188 01ab 08       		.byte	0x8
 4189 01ac 43       		.byte	0x43
 4190 01ad 00       		.byte	0
 4191 01ae 08       		.uleb128 0x8
 4192 01af 1A000000 		.4byte	.LVL18
 4193 01b3 DC1E0000 		.4byte	0x1edc
 4194 01b7 0C       		.uleb128 0xc
 4195 01b8 20000000 		.4byte	.LVL19
 4196 01bc E71E0000 		.4byte	0x1ee7
 4197 01c0 CA010000 		.4byte	0x1ca
 4198 01c4 0A       		.uleb128 0xa
 4199 01c5 01       		.uleb128 0x1
ARM GAS  C:\Users\weiro\AppData\Local\Temp\ccK6dLS7.s 			page 98


 4200 01c6 50       		.byte	0x50
 4201 01c7 01       		.uleb128 0x1
 4202 01c8 31       		.byte	0x31
 4203 01c9 00       		.byte	0
 4204 01ca 0C       		.uleb128 0xc
 4205 01cb 28000000 		.4byte	.LVL20
 4206 01cf C61E0000 		.4byte	0x1ec6
 4207 01d3 E3010000 		.4byte	0x1e3
 4208 01d7 0A       		.uleb128 0xa
 4209 01d8 01       		.uleb128 0x1
 4210 01d9 50       		.byte	0x50
 4211 01da 02       		.uleb128 0x2
 4212 01db 08       		.byte	0x8
 4213 01dc 68       		.byte	0x68
 4214 01dd 0A       		.uleb128 0xa
 4215 01de 01       		.uleb128 0x1
 4216 01df 51       		.byte	0x51
 4217 01e0 01       		.uleb128 0x1
 4218 01e1 31       		.byte	0x31
 4219 01e2 00       		.byte	0
 4220 01e3 0C       		.uleb128 0xc
 4221 01e4 2E000000 		.4byte	.LVL21
 4222 01e8 F21E0000 		.4byte	0x1ef2
 4223 01ec F6010000 		.4byte	0x1f6
 4224 01f0 0A       		.uleb128 0xa
 4225 01f1 01       		.uleb128 0x1
 4226 01f2 50       		.byte	0x50
 4227 01f3 01       		.uleb128 0x1
 4228 01f4 31       		.byte	0x31
 4229 01f5 00       		.byte	0
 4230 01f6 0C       		.uleb128 0xc
 4231 01f7 3A000000 		.4byte	.LVL22
 4232 01fb F21E0000 		.4byte	0x1ef2
 4233 01ff 09020000 		.4byte	0x209
 4234 0203 0A       		.uleb128 0xa
 4235 0204 01       		.uleb128 0x1
 4236 0205 50       		.byte	0x50
 4237 0206 01       		.uleb128 0x1
 4238 0207 31       		.byte	0x31
 4239 0208 00       		.byte	0
 4240 0209 0C       		.uleb128 0xc
 4241 020a 44000000 		.4byte	.LVL23
 4242 020e F21E0000 		.4byte	0x1ef2
 4243 0212 1C020000 		.4byte	0x21c
 4244 0216 0A       		.uleb128 0xa
 4245 0217 01       		.uleb128 0x1
 4246 0218 50       		.byte	0x50
 4247 0219 01       		.uleb128 0x1
 4248 021a 31       		.byte	0x31
 4249 021b 00       		.byte	0
 4250 021c 0C       		.uleb128 0xc
 4251 021d 4E000000 		.4byte	.LVL24
 4252 0221 F21E0000 		.4byte	0x1ef2
 4253 0225 2F020000 		.4byte	0x22f
 4254 0229 0A       		.uleb128 0xa
 4255 022a 01       		.uleb128 0x1
 4256 022b 50       		.byte	0x50
ARM GAS  C:\Users\weiro\AppData\Local\Temp\ccK6dLS7.s 			page 99


 4257 022c 01       		.uleb128 0x1
 4258 022d 31       		.byte	0x31
 4259 022e 00       		.byte	0
 4260 022f 0C       		.uleb128 0xc
 4261 0230 58000000 		.4byte	.LVL25
 4262 0234 F21E0000 		.4byte	0x1ef2
 4263 0238 42020000 		.4byte	0x242
 4264 023c 0A       		.uleb128 0xa
 4265 023d 01       		.uleb128 0x1
 4266 023e 50       		.byte	0x50
 4267 023f 01       		.uleb128 0x1
 4268 0240 31       		.byte	0x31
 4269 0241 00       		.byte	0
 4270 0242 0C       		.uleb128 0xc
 4271 0243 62000000 		.4byte	.LVL26
 4272 0247 F21E0000 		.4byte	0x1ef2
 4273 024b 55020000 		.4byte	0x255
 4274 024f 0A       		.uleb128 0xa
 4275 0250 01       		.uleb128 0x1
 4276 0251 50       		.byte	0x50
 4277 0252 01       		.uleb128 0x1
 4278 0253 30       		.byte	0x30
 4279 0254 00       		.byte	0
 4280 0255 08       		.uleb128 0x8
 4281 0256 6A000000 		.4byte	.LVL27
 4282 025a DC1E0000 		.4byte	0x1edc
 4283 025e 0C       		.uleb128 0xc
 4284 025f 70000000 		.4byte	.LVL28
 4285 0263 E71E0000 		.4byte	0x1ee7
 4286 0267 71020000 		.4byte	0x271
 4287 026b 0A       		.uleb128 0xa
 4288 026c 01       		.uleb128 0x1
 4289 026d 50       		.byte	0x50
 4290 026e 01       		.uleb128 0x1
 4291 026f 31       		.byte	0x31
 4292 0270 00       		.byte	0
 4293 0271 0C       		.uleb128 0xc
 4294 0272 96000000 		.4byte	.LVL29
 4295 0276 FD1E0000 		.4byte	0x1efd
 4296 027a 88020000 		.4byte	0x288
 4297 027e 0A       		.uleb128 0xa
 4298 027f 01       		.uleb128 0x1
 4299 0280 50       		.byte	0x50
 4300 0281 05       		.uleb128 0x5
 4301 0282 03       		.byte	0x3
 4302 0283 14000000 		.4byte	.LC1
 4303 0287 00       		.byte	0
 4304 0288 0C       		.uleb128 0xc
 4305 0289 02020000 		.4byte	.LVL46
 4306 028d 9A1E0000 		.4byte	0x1e9a
 4307 0291 A5020000 		.4byte	0x2a5
 4308 0295 0A       		.uleb128 0xa
 4309 0296 01       		.uleb128 0x1
 4310 0297 50       		.byte	0x50
 4311 0298 02       		.uleb128 0x2
 4312 0299 74       		.byte	0x74
 4313 029a 00       		.sleb128 0
ARM GAS  C:\Users\weiro\AppData\Local\Temp\ccK6dLS7.s 			page 100


 4314 029b 0A       		.uleb128 0xa
 4315 029c 01       		.uleb128 0x1
 4316 029d 51       		.byte	0x51
 4317 029e 05       		.uleb128 0x5
 4318 029f 03       		.byte	0x3
 4319 02a0 24000000 		.4byte	.LC2
 4320 02a4 00       		.byte	0
 4321 02a5 0C       		.uleb128 0xc
 4322 02a6 08020000 		.4byte	.LVL47
 4323 02aa FD1E0000 		.4byte	0x1efd
 4324 02ae B9020000 		.4byte	0x2b9
 4325 02b2 0A       		.uleb128 0xa
 4326 02b3 01       		.uleb128 0x1
 4327 02b4 50       		.byte	0x50
 4328 02b5 02       		.uleb128 0x2
 4329 02b6 74       		.byte	0x74
 4330 02b7 00       		.sleb128 0
 4331 02b8 00       		.byte	0
 4332 02b9 0C       		.uleb128 0xc
 4333 02ba 22020000 		.4byte	.LVL48
 4334 02be 9A1E0000 		.4byte	0x1e9a
 4335 02c2 D6020000 		.4byte	0x2d6
 4336 02c6 0A       		.uleb128 0xa
 4337 02c7 01       		.uleb128 0x1
 4338 02c8 50       		.byte	0x50
 4339 02c9 02       		.uleb128 0x2
 4340 02ca 74       		.byte	0x74
 4341 02cb 00       		.sleb128 0
 4342 02cc 0A       		.uleb128 0xa
 4343 02cd 01       		.uleb128 0x1
 4344 02ce 51       		.byte	0x51
 4345 02cf 05       		.uleb128 0x5
 4346 02d0 03       		.byte	0x3
 4347 02d1 24000000 		.4byte	.LC2
 4348 02d5 00       		.byte	0
 4349 02d6 09       		.uleb128 0x9
 4350 02d7 28020000 		.4byte	.LVL49
 4351 02db FD1E0000 		.4byte	0x1efd
 4352 02df 0A       		.uleb128 0xa
 4353 02e0 01       		.uleb128 0x1
 4354 02e1 50       		.byte	0x50
 4355 02e2 02       		.uleb128 0x2
 4356 02e3 74       		.byte	0x74
 4357 02e4 00       		.sleb128 0
 4358 02e5 00       		.byte	0
 4359 02e6 00       		.byte	0
 4360 02e7 0D       		.uleb128 0xd
 4361 02e8 36020000 		.4byte	.LASF23
 4362 02ec 01       		.byte	0x1
 4363 02ed 0901     		.2byte	0x109
 4364 02ef 00000000 		.4byte	.LFB69
 4365 02f3 28000000 		.4byte	.LFE69-.LFB69
 4366 02f7 01       		.uleb128 0x1
 4367 02f8 9C       		.byte	0x9c
 4368 02f9 4A030000 		.4byte	0x34a
 4369 02fd 0C       		.uleb128 0xc
 4370 02fe 0E000000 		.4byte	.LVL50
ARM GAS  C:\Users\weiro\AppData\Local\Temp\ccK6dLS7.s 			page 101


 4371 0302 081F0000 		.4byte	0x1f08
 4372 0306 11030000 		.4byte	0x311
 4373 030a 0A       		.uleb128 0xa
 4374 030b 01       		.uleb128 0x1
 4375 030c 50       		.byte	0x50
 4376 030d 02       		.uleb128 0x2
 4377 030e 74       		.byte	0x74
 4378 030f 00       		.sleb128 0
 4379 0310 00       		.byte	0
 4380 0311 0C       		.uleb128 0xc
 4381 0312 14000000 		.4byte	.LVL51
 4382 0316 131F0000 		.4byte	0x1f13
 4383 031a 25030000 		.4byte	0x325
 4384 031e 0A       		.uleb128 0xa
 4385 031f 01       		.uleb128 0x1
 4386 0320 50       		.byte	0x50
 4387 0321 02       		.uleb128 0x2
 4388 0322 74       		.byte	0x74
 4389 0323 00       		.sleb128 0
 4390 0324 00       		.byte	0
 4391 0325 0C       		.uleb128 0xc
 4392 0326 1A000000 		.4byte	.LVL52
 4393 032a 1E1F0000 		.4byte	0x1f1e
 4394 032e 39030000 		.4byte	0x339
 4395 0332 0A       		.uleb128 0xa
 4396 0333 01       		.uleb128 0x1
 4397 0334 50       		.byte	0x50
 4398 0335 02       		.uleb128 0x2
 4399 0336 74       		.byte	0x74
 4400 0337 00       		.sleb128 0
 4401 0338 00       		.byte	0
 4402 0339 09       		.uleb128 0x9
 4403 033a 20000000 		.4byte	.LVL53
 4404 033e 291F0000 		.4byte	0x1f29
 4405 0342 0A       		.uleb128 0xa
 4406 0343 01       		.uleb128 0x1
 4407 0344 50       		.byte	0x50
 4408 0345 02       		.uleb128 0x2
 4409 0346 74       		.byte	0x74
 4410 0347 00       		.sleb128 0
 4411 0348 00       		.byte	0
 4412 0349 00       		.byte	0
 4413 034a 0D       		.uleb128 0xd
 4414 034b F9050000 		.4byte	.LASF24
 4415 034f 01       		.byte	0x1
 4416 0350 1201     		.2byte	0x112
 4417 0352 00000000 		.4byte	.LFB70
 4418 0356 28000000 		.4byte	.LFE70-.LFB70
 4419 035a 01       		.uleb128 0x1
 4420 035b 9C       		.byte	0x9c
 4421 035c AB030000 		.4byte	0x3ab
 4422 0360 0C       		.uleb128 0xc
 4423 0361 0E000000 		.4byte	.LVL54
 4424 0365 081F0000 		.4byte	0x1f08
 4425 0369 73030000 		.4byte	0x373
 4426 036d 0A       		.uleb128 0xa
 4427 036e 01       		.uleb128 0x1
ARM GAS  C:\Users\weiro\AppData\Local\Temp\ccK6dLS7.s 			page 102


 4428 036f 50       		.byte	0x50
 4429 0370 01       		.uleb128 0x1
 4430 0371 30       		.byte	0x30
 4431 0372 00       		.byte	0
 4432 0373 0C       		.uleb128 0xc
 4433 0374 14000000 		.4byte	.LVL55
 4434 0378 131F0000 		.4byte	0x1f13
 4435 037c 87030000 		.4byte	0x387
 4436 0380 0A       		.uleb128 0xa
 4437 0381 01       		.uleb128 0x1
 4438 0382 50       		.byte	0x50
 4439 0383 02       		.uleb128 0x2
 4440 0384 74       		.byte	0x74
 4441 0385 00       		.sleb128 0
 4442 0386 00       		.byte	0
 4443 0387 0C       		.uleb128 0xc
 4444 0388 1A000000 		.4byte	.LVL56
 4445 038c 1E1F0000 		.4byte	0x1f1e
 4446 0390 9A030000 		.4byte	0x39a
 4447 0394 0A       		.uleb128 0xa
 4448 0395 01       		.uleb128 0x1
 4449 0396 50       		.byte	0x50
 4450 0397 01       		.uleb128 0x1
 4451 0398 30       		.byte	0x30
 4452 0399 00       		.byte	0
 4453 039a 09       		.uleb128 0x9
 4454 039b 20000000 		.4byte	.LVL57
 4455 039f 291F0000 		.4byte	0x1f29
 4456 03a3 0A       		.uleb128 0xa
 4457 03a4 01       		.uleb128 0x1
 4458 03a5 50       		.byte	0x50
 4459 03a6 02       		.uleb128 0x2
 4460 03a7 74       		.byte	0x74
 4461 03a8 00       		.sleb128 0
 4462 03a9 00       		.byte	0
 4463 03aa 00       		.byte	0
 4464 03ab 0D       		.uleb128 0xd
 4465 03ac E1010000 		.4byte	.LASF25
 4466 03b0 01       		.byte	0x1
 4467 03b1 1B01     		.2byte	0x11b
 4468 03b3 00000000 		.4byte	.LFB71
 4469 03b7 28000000 		.4byte	.LFE71-.LFB71
 4470 03bb 01       		.uleb128 0x1
 4471 03bc 9C       		.byte	0x9c
 4472 03bd 0C040000 		.4byte	0x40c
 4473 03c1 0C       		.uleb128 0xc
 4474 03c2 0E000000 		.4byte	.LVL58
 4475 03c6 081F0000 		.4byte	0x1f08
 4476 03ca D5030000 		.4byte	0x3d5
 4477 03ce 0A       		.uleb128 0xa
 4478 03cf 01       		.uleb128 0x1
 4479 03d0 50       		.byte	0x50
 4480 03d1 02       		.uleb128 0x2
 4481 03d2 74       		.byte	0x74
 4482 03d3 00       		.sleb128 0
 4483 03d4 00       		.byte	0
 4484 03d5 0C       		.uleb128 0xc
ARM GAS  C:\Users\weiro\AppData\Local\Temp\ccK6dLS7.s 			page 103


 4485 03d6 14000000 		.4byte	.LVL59
 4486 03da 131F0000 		.4byte	0x1f13
 4487 03de E8030000 		.4byte	0x3e8
 4488 03e2 0A       		.uleb128 0xa
 4489 03e3 01       		.uleb128 0x1
 4490 03e4 50       		.byte	0x50
 4491 03e5 01       		.uleb128 0x1
 4492 03e6 30       		.byte	0x30
 4493 03e7 00       		.byte	0
 4494 03e8 0C       		.uleb128 0xc
 4495 03e9 1A000000 		.4byte	.LVL60
 4496 03ed 1E1F0000 		.4byte	0x1f1e
 4497 03f1 FC030000 		.4byte	0x3fc
 4498 03f5 0A       		.uleb128 0xa
 4499 03f6 01       		.uleb128 0x1
 4500 03f7 50       		.byte	0x50
 4501 03f8 02       		.uleb128 0x2
 4502 03f9 74       		.byte	0x74
 4503 03fa 00       		.sleb128 0
 4504 03fb 00       		.byte	0
 4505 03fc 09       		.uleb128 0x9
 4506 03fd 20000000 		.4byte	.LVL61
 4507 0401 291F0000 		.4byte	0x1f29
 4508 0405 0A       		.uleb128 0xa
 4509 0406 01       		.uleb128 0x1
 4510 0407 50       		.byte	0x50
 4511 0408 01       		.uleb128 0x1
 4512 0409 30       		.byte	0x30
 4513 040a 00       		.byte	0
 4514 040b 00       		.byte	0
 4515 040c 0D       		.uleb128 0xd
 4516 040d C1090000 		.4byte	.LASF26
 4517 0411 01       		.byte	0x1
 4518 0412 2401     		.2byte	0x124
 4519 0414 00000000 		.4byte	.LFB72
 4520 0418 28000000 		.4byte	.LFE72-.LFB72
 4521 041c 01       		.uleb128 0x1
 4522 041d 9C       		.byte	0x9c
 4523 041e 6D040000 		.4byte	0x46d
 4524 0422 0C       		.uleb128 0xc
 4525 0423 0E000000 		.4byte	.LVL62
 4526 0427 081F0000 		.4byte	0x1f08
 4527 042b 35040000 		.4byte	0x435
 4528 042f 0A       		.uleb128 0xa
 4529 0430 01       		.uleb128 0x1
 4530 0431 50       		.byte	0x50
 4531 0432 01       		.uleb128 0x1
 4532 0433 30       		.byte	0x30
 4533 0434 00       		.byte	0
 4534 0435 0C       		.uleb128 0xc
 4535 0436 14000000 		.4byte	.LVL63
 4536 043a 131F0000 		.4byte	0x1f13
 4537 043e 49040000 		.4byte	0x449
 4538 0442 0A       		.uleb128 0xa
 4539 0443 01       		.uleb128 0x1
 4540 0444 50       		.byte	0x50
 4541 0445 02       		.uleb128 0x2
ARM GAS  C:\Users\weiro\AppData\Local\Temp\ccK6dLS7.s 			page 104


 4542 0446 74       		.byte	0x74
 4543 0447 00       		.sleb128 0
 4544 0448 00       		.byte	0
 4545 0449 0C       		.uleb128 0xc
 4546 044a 1A000000 		.4byte	.LVL64
 4547 044e 1E1F0000 		.4byte	0x1f1e
 4548 0452 5D040000 		.4byte	0x45d
 4549 0456 0A       		.uleb128 0xa
 4550 0457 01       		.uleb128 0x1
 4551 0458 50       		.byte	0x50
 4552 0459 02       		.uleb128 0x2
 4553 045a 74       		.byte	0x74
 4554 045b 00       		.sleb128 0
 4555 045c 00       		.byte	0
 4556 045d 09       		.uleb128 0x9
 4557 045e 20000000 		.4byte	.LVL65
 4558 0462 291F0000 		.4byte	0x1f29
 4559 0466 0A       		.uleb128 0xa
 4560 0467 01       		.uleb128 0x1
 4561 0468 50       		.byte	0x50
 4562 0469 01       		.uleb128 0x1
 4563 046a 30       		.byte	0x30
 4564 046b 00       		.byte	0
 4565 046c 00       		.byte	0
 4566 046d 0D       		.uleb128 0xd
 4567 046e 93060000 		.4byte	.LASF27
 4568 0472 01       		.byte	0x1
 4569 0473 2D01     		.2byte	0x12d
 4570 0475 00000000 		.4byte	.LFB73
 4571 0479 28000000 		.4byte	.LFE73-.LFB73
 4572 047d 01       		.uleb128 0x1
 4573 047e 9C       		.byte	0x9c
 4574 047f CE040000 		.4byte	0x4ce
 4575 0483 0C       		.uleb128 0xc
 4576 0484 0E000000 		.4byte	.LVL66
 4577 0488 081F0000 		.4byte	0x1f08
 4578 048c 97040000 		.4byte	0x497
 4579 0490 0A       		.uleb128 0xa
 4580 0491 01       		.uleb128 0x1
 4581 0492 50       		.byte	0x50
 4582 0493 02       		.uleb128 0x2
 4583 0494 74       		.byte	0x74
 4584 0495 00       		.sleb128 0
 4585 0496 00       		.byte	0
 4586 0497 0C       		.uleb128 0xc
 4587 0498 14000000 		.4byte	.LVL67
 4588 049c 131F0000 		.4byte	0x1f13
 4589 04a0 AA040000 		.4byte	0x4aa
 4590 04a4 0A       		.uleb128 0xa
 4591 04a5 01       		.uleb128 0x1
 4592 04a6 50       		.byte	0x50
 4593 04a7 01       		.uleb128 0x1
 4594 04a8 30       		.byte	0x30
 4595 04a9 00       		.byte	0
 4596 04aa 0C       		.uleb128 0xc
 4597 04ab 1A000000 		.4byte	.LVL68
 4598 04af 1E1F0000 		.4byte	0x1f1e
ARM GAS  C:\Users\weiro\AppData\Local\Temp\ccK6dLS7.s 			page 105


 4599 04b3 BD040000 		.4byte	0x4bd
 4600 04b7 0A       		.uleb128 0xa
 4601 04b8 01       		.uleb128 0x1
 4602 04b9 50       		.byte	0x50
 4603 04ba 01       		.uleb128 0x1
 4604 04bb 30       		.byte	0x30
 4605 04bc 00       		.byte	0
 4606 04bd 09       		.uleb128 0x9
 4607 04be 20000000 		.4byte	.LVL69
 4608 04c2 291F0000 		.4byte	0x1f29
 4609 04c6 0A       		.uleb128 0xa
 4610 04c7 01       		.uleb128 0x1
 4611 04c8 50       		.byte	0x50
 4612 04c9 02       		.uleb128 0x2
 4613 04ca 74       		.byte	0x74
 4614 04cb 00       		.sleb128 0
 4615 04cc 00       		.byte	0
 4616 04cd 00       		.byte	0
 4617 04ce 0D       		.uleb128 0xd
 4618 04cf C7010000 		.4byte	.LASF28
 4619 04d3 01       		.byte	0x1
 4620 04d4 7E01     		.2byte	0x17e
 4621 04d6 00000000 		.4byte	.LFB74
 4622 04da 1C000000 		.4byte	.LFE74-.LFB74
 4623 04de 01       		.uleb128 0x1
 4624 04df 9C       		.byte	0x9c
 4625 04e0 07050000 		.4byte	0x507
 4626 04e4 0C       		.uleb128 0xc
 4627 04e5 08000000 		.4byte	.LVL70
 4628 04e9 341F0000 		.4byte	0x1f34
 4629 04ed F7040000 		.4byte	0x4f7
 4630 04f1 0A       		.uleb128 0xa
 4631 04f2 01       		.uleb128 0x1
 4632 04f3 50       		.byte	0x50
 4633 04f4 01       		.uleb128 0x1
 4634 04f5 30       		.byte	0x30
 4635 04f6 00       		.byte	0
 4636 04f7 09       		.uleb128 0x9
 4637 04f8 0E000000 		.4byte	.LVL71
 4638 04fc 3F1F0000 		.4byte	0x1f3f
 4639 0500 0A       		.uleb128 0xa
 4640 0501 01       		.uleb128 0x1
 4641 0502 50       		.byte	0x50
 4642 0503 01       		.uleb128 0x1
 4643 0504 30       		.byte	0x30
 4644 0505 00       		.byte	0
 4645 0506 00       		.byte	0
 4646 0507 0E       		.uleb128 0xe
 4647 0508 8A050000 		.4byte	.LASF29
 4648 050c 01       		.byte	0x1
 4649 050d 8601     		.2byte	0x186
 4650 050f 00000000 		.4byte	.LFB75
 4651 0513 14010000 		.4byte	.LFE75-.LFB75
 4652 0517 01       		.uleb128 0x1
 4653 0518 9C       		.byte	0x9c
 4654 0519 B6050000 		.4byte	0x5b6
 4655 051d 0F       		.uleb128 0xf
ARM GAS  C:\Users\weiro\AppData\Local\Temp\ccK6dLS7.s 			page 106


 4656 051e 16060000 		.4byte	.LASF30
 4657 0522 01       		.byte	0x1
 4658 0523 8601     		.2byte	0x186
 4659 0525 6F000000 		.4byte	0x6f
 4660 0529 00000000 		.4byte	.LLST0
 4661 052d 0F       		.uleb128 0xf
 4662 052e 00080000 		.4byte	.LASF31
 4663 0532 01       		.byte	0x1
 4664 0533 8601     		.2byte	0x186
 4665 0535 6F000000 		.4byte	0x6f
 4666 0539 21000000 		.4byte	.LLST1
 4667 053d 10       		.uleb128 0x10
 4668 053e DE090000 		.4byte	.LASF32
 4669 0542 01       		.byte	0x1
 4670 0543 8801     		.2byte	0x188
 4671 0545 25000000 		.4byte	0x25
 4672 0549 4D000000 		.4byte	.LLST2
 4673 054d 10       		.uleb128 0x10
 4674 054e 6E070000 		.4byte	.LASF33
 4675 0552 01       		.byte	0x1
 4676 0553 8801     		.2byte	0x188
 4677 0555 25000000 		.4byte	0x25
 4678 0559 95000000 		.4byte	.LLST3
 4679 055d 10       		.uleb128 0x10
 4680 055e 66040000 		.4byte	.LASF34
 4681 0562 01       		.byte	0x1
 4682 0563 8901     		.2byte	0x189
 4683 0565 6F000000 		.4byte	0x6f
 4684 0569 DD000000 		.4byte	.LLST4
 4685 056d 08       		.uleb128 0x8
 4686 056e 1E000000 		.4byte	.LVL78
 4687 0572 4A1F0000 		.4byte	0x1f4a
 4688 0576 08       		.uleb128 0x8
 4689 0577 26000000 		.4byte	.LVL79
 4690 057b 551F0000 		.4byte	0x1f55
 4691 057f 08       		.uleb128 0x8
 4692 0580 30000000 		.4byte	.LVL80
 4693 0584 4A030000 		.4byte	0x34a
 4694 0588 08       		.uleb128 0x8
 4695 0589 36000000 		.4byte	.LVL81
 4696 058d AB030000 		.4byte	0x3ab
 4697 0591 08       		.uleb128 0x8
 4698 0592 56000000 		.4byte	.LVL82
 4699 0596 E7020000 		.4byte	0x2e7
 4700 059a 08       		.uleb128 0x8
 4701 059b 5A000000 		.4byte	.LVL83
 4702 059f 4A1F0000 		.4byte	0x1f4a
 4703 05a3 08       		.uleb128 0x8
 4704 05a4 60000000 		.4byte	.LVL84
 4705 05a8 551F0000 		.4byte	0x1f55
 4706 05ac 08       		.uleb128 0x8
 4707 05ad F4000000 		.4byte	.LVL103
 4708 05b1 CE040000 		.4byte	0x4ce
 4709 05b5 00       		.byte	0
 4710 05b6 11       		.uleb128 0x11
 4711 05b7 AB010000 		.4byte	.LASF35
 4712 05bb 01       		.byte	0x1
ARM GAS  C:\Users\weiro\AppData\Local\Temp\ccK6dLS7.s 			page 107


 4713 05bc B001     		.2byte	0x1b0
 4714 05be 00000000 		.4byte	.LFB76
 4715 05c2 00010000 		.4byte	.LFE76-.LFB76
 4716 05c6 01       		.uleb128 0x1
 4717 05c7 9C       		.byte	0x9c
 4718 05c8 99060000 		.4byte	0x699
 4719 05cc 10       		.uleb128 0x10
 4720 05cd DE090000 		.4byte	.LASF32
 4721 05d1 01       		.byte	0x1
 4722 05d2 B201     		.2byte	0x1b2
 4723 05d4 25000000 		.4byte	0x25
 4724 05d8 FB000000 		.4byte	.LLST5
 4725 05dc 10       		.uleb128 0x10
 4726 05dd 6E070000 		.4byte	.LASF33
 4727 05e1 01       		.byte	0x1
 4728 05e2 B201     		.2byte	0x1b2
 4729 05e4 25000000 		.4byte	0x25
 4730 05e8 43010000 		.4byte	.LLST6
 4731 05ec 08       		.uleb128 0x8
 4732 05ed 08000000 		.4byte	.LVL105
 4733 05f1 4A030000 		.4byte	0x34a
 4734 05f5 0C       		.uleb128 0xc
 4735 05f6 0E000000 		.4byte	.LVL106
 4736 05fa E71E0000 		.4byte	0x1ee7
 4737 05fe 09060000 		.4byte	0x609
 4738 0602 0A       		.uleb128 0xa
 4739 0603 01       		.uleb128 0x1
 4740 0604 50       		.byte	0x50
 4741 0605 02       		.uleb128 0x2
 4742 0606 08       		.byte	0x8
 4743 0607 32       		.byte	0x32
 4744 0608 00       		.byte	0
 4745 0609 0C       		.uleb128 0xc
 4746 060a 1C000000 		.4byte	.LVL107
 4747 060e 601F0000 		.4byte	0x1f60
 4748 0612 1D060000 		.4byte	0x61d
 4749 0616 0A       		.uleb128 0xa
 4750 0617 01       		.uleb128 0x1
 4751 0618 50       		.byte	0x50
 4752 0619 02       		.uleb128 0x2
 4753 061a 74       		.byte	0x74
 4754 061b 00       		.sleb128 0
 4755 061c 00       		.byte	0
 4756 061d 0C       		.uleb128 0xc
 4757 061e 22000000 		.4byte	.LVL108
 4758 0622 E71E0000 		.4byte	0x1ee7
 4759 0626 31060000 		.4byte	0x631
 4760 062a 0A       		.uleb128 0xa
 4761 062b 01       		.uleb128 0x1
 4762 062c 50       		.byte	0x50
 4763 062d 02       		.uleb128 0x2
 4764 062e 08       		.byte	0x8
 4765 062f 32       		.byte	0x32
 4766 0630 00       		.byte	0
 4767 0631 0C       		.uleb128 0xc
 4768 0632 28000000 		.4byte	.LVL109
 4769 0636 6B1F0000 		.4byte	0x1f6b
ARM GAS  C:\Users\weiro\AppData\Local\Temp\ccK6dLS7.s 			page 108


 4770 063a 44060000 		.4byte	0x644
 4771 063e 0A       		.uleb128 0xa
 4772 063f 01       		.uleb128 0x1
 4773 0640 50       		.byte	0x50
 4774 0641 01       		.uleb128 0x1
 4775 0642 31       		.byte	0x31
 4776 0643 00       		.byte	0
 4777 0644 0C       		.uleb128 0xc
 4778 0645 2E000000 		.4byte	.LVL110
 4779 0649 761F0000 		.4byte	0x1f76
 4780 064d 57060000 		.4byte	0x657
 4781 0651 0A       		.uleb128 0xa
 4782 0652 01       		.uleb128 0x1
 4783 0653 50       		.byte	0x50
 4784 0654 01       		.uleb128 0x1
 4785 0655 3A       		.byte	0x3a
 4786 0656 00       		.byte	0
 4787 0657 0C       		.uleb128 0xc
 4788 0658 34000000 		.4byte	.LVL111
 4789 065c 6B1F0000 		.4byte	0x1f6b
 4790 0660 6B060000 		.4byte	0x66b
 4791 0664 0A       		.uleb128 0xa
 4792 0665 01       		.uleb128 0x1
 4793 0666 50       		.byte	0x50
 4794 0667 02       		.uleb128 0x2
 4795 0668 74       		.byte	0x74
 4796 0669 00       		.sleb128 0
 4797 066a 00       		.byte	0
 4798 066b 08       		.uleb128 0x8
 4799 066c 38000000 		.4byte	.LVL112
 4800 0670 811F0000 		.4byte	0x1f81
 4801 0674 08       		.uleb128 0x8
 4802 0675 48000000 		.4byte	.LVL113
 4803 0679 E7020000 		.4byte	0x2e7
 4804 067d 08       		.uleb128 0x8
 4805 067e 4C000000 		.4byte	.LVL114
 4806 0682 4A1F0000 		.4byte	0x1f4a
 4807 0686 08       		.uleb128 0x8
 4808 0687 52000000 		.4byte	.LVL115
 4809 068b 551F0000 		.4byte	0x1f55
 4810 068f 08       		.uleb128 0x8
 4811 0690 E6000000 		.4byte	.LVL134
 4812 0694 CE040000 		.4byte	0x4ce
 4813 0698 00       		.byte	0
 4814 0699 11       		.uleb128 0x11
 4815 069a 0A030000 		.4byte	.LASF36
 4816 069e 01       		.byte	0x1
 4817 069f DA01     		.2byte	0x1da
 4818 06a1 00000000 		.4byte	.LFB77
 4819 06a5 30010000 		.4byte	.LFE77-.LFB77
 4820 06a9 01       		.uleb128 0x1
 4821 06aa 9C       		.byte	0x9c
 4822 06ab A3070000 		.4byte	0x7a3
 4823 06af 10       		.uleb128 0x10
 4824 06b0 DE090000 		.4byte	.LASF32
 4825 06b4 01       		.byte	0x1
 4826 06b5 DC01     		.2byte	0x1dc
ARM GAS  C:\Users\weiro\AppData\Local\Temp\ccK6dLS7.s 			page 109


 4827 06b7 25000000 		.4byte	0x25
 4828 06bb 8B010000 		.4byte	.LLST7
 4829 06bf 10       		.uleb128 0x10
 4830 06c0 6E070000 		.4byte	.LASF33
 4831 06c4 01       		.byte	0x1
 4832 06c5 DC01     		.2byte	0x1dc
 4833 06c7 25000000 		.4byte	0x25
 4834 06cb D3010000 		.4byte	.LLST8
 4835 06cf 0C       		.uleb128 0xc
 4836 06d0 0A000000 		.4byte	.LVL135
 4837 06d4 E71E0000 		.4byte	0x1ee7
 4838 06d8 E4060000 		.4byte	0x6e4
 4839 06dc 0A       		.uleb128 0xa
 4840 06dd 01       		.uleb128 0x1
 4841 06de 50       		.byte	0x50
 4842 06df 03       		.uleb128 0x3
 4843 06e0 0A       		.byte	0xa
 4844 06e1 F401     		.2byte	0x1f4
 4845 06e3 00       		.byte	0
 4846 06e4 08       		.uleb128 0x8
 4847 06e5 10000000 		.4byte	.LVL136
 4848 06e9 4A030000 		.4byte	0x34a
 4849 06ed 0C       		.uleb128 0xc
 4850 06ee 2A000000 		.4byte	.LVL137
 4851 06f2 FD1E0000 		.4byte	0x1efd
 4852 06f6 01070000 		.4byte	0x701
 4853 06fa 0A       		.uleb128 0xa
 4854 06fb 01       		.uleb128 0x1
 4855 06fc 50       		.byte	0x50
 4856 06fd 02       		.uleb128 0x2
 4857 06fe 74       		.byte	0x74
 4858 06ff 00       		.sleb128 0
 4859 0700 00       		.byte	0
 4860 0701 0C       		.uleb128 0xc
 4861 0702 30000000 		.4byte	.LVL138
 4862 0706 E71E0000 		.4byte	0x1ee7
 4863 070a 15070000 		.4byte	0x715
 4864 070e 0A       		.uleb128 0xa
 4865 070f 01       		.uleb128 0x1
 4866 0710 50       		.byte	0x50
 4867 0711 02       		.uleb128 0x2
 4868 0712 08       		.byte	0x8
 4869 0713 64       		.byte	0x64
 4870 0714 00       		.byte	0
 4871 0715 0C       		.uleb128 0xc
 4872 0716 3C000000 		.4byte	.LVL139
 4873 071a 601F0000 		.4byte	0x1f60
 4874 071e 28070000 		.4byte	0x728
 4875 0722 0A       		.uleb128 0xa
 4876 0723 01       		.uleb128 0x1
 4877 0724 50       		.byte	0x50
 4878 0725 01       		.uleb128 0x1
 4879 0726 32       		.byte	0x32
 4880 0727 00       		.byte	0
 4881 0728 0C       		.uleb128 0xc
 4882 0729 42000000 		.4byte	.LVL140
 4883 072d E71E0000 		.4byte	0x1ee7
ARM GAS  C:\Users\weiro\AppData\Local\Temp\ccK6dLS7.s 			page 110


 4884 0731 3C070000 		.4byte	0x73c
 4885 0735 0A       		.uleb128 0xa
 4886 0736 01       		.uleb128 0x1
 4887 0737 50       		.byte	0x50
 4888 0738 02       		.uleb128 0x2
 4889 0739 08       		.byte	0x8
 4890 073a 32       		.byte	0x32
 4891 073b 00       		.byte	0
 4892 073c 0C       		.uleb128 0xc
 4893 073d 48000000 		.4byte	.LVL141
 4894 0741 6B1F0000 		.4byte	0x1f6b
 4895 0745 4F070000 		.4byte	0x74f
 4896 0749 0A       		.uleb128 0xa
 4897 074a 01       		.uleb128 0x1
 4898 074b 50       		.byte	0x50
 4899 074c 01       		.uleb128 0x1
 4900 074d 31       		.byte	0x31
 4901 074e 00       		.byte	0
 4902 074f 0C       		.uleb128 0xc
 4903 0750 4E000000 		.4byte	.LVL142
 4904 0754 761F0000 		.4byte	0x1f76
 4905 0758 62070000 		.4byte	0x762
 4906 075c 0A       		.uleb128 0xa
 4907 075d 01       		.uleb128 0x1
 4908 075e 50       		.byte	0x50
 4909 075f 01       		.uleb128 0x1
 4910 0760 3A       		.byte	0x3a
 4911 0761 00       		.byte	0
 4912 0762 0C       		.uleb128 0xc
 4913 0763 54000000 		.4byte	.LVL143
 4914 0767 6B1F0000 		.4byte	0x1f6b
 4915 076b 75070000 		.4byte	0x775
 4916 076f 0A       		.uleb128 0xa
 4917 0770 01       		.uleb128 0x1
 4918 0771 50       		.byte	0x50
 4919 0772 01       		.uleb128 0x1
 4920 0773 30       		.byte	0x30
 4921 0774 00       		.byte	0
 4922 0775 08       		.uleb128 0x8
 4923 0776 58000000 		.4byte	.LVL144
 4924 077a 8C1F0000 		.4byte	0x1f8c
 4925 077e 08       		.uleb128 0x8
 4926 077f 6A000000 		.4byte	.LVL145
 4927 0783 E7020000 		.4byte	0x2e7
 4928 0787 08       		.uleb128 0x8
 4929 0788 6E000000 		.4byte	.LVL146
 4930 078c 4A1F0000 		.4byte	0x1f4a
 4931 0790 08       		.uleb128 0x8
 4932 0791 74000000 		.4byte	.LVL147
 4933 0795 551F0000 		.4byte	0x1f55
 4934 0799 08       		.uleb128 0x8
 4935 079a 08010000 		.4byte	.LVL166
 4936 079e CE040000 		.4byte	0x4ce
 4937 07a2 00       		.byte	0
 4938 07a3 11       		.uleb128 0x11
 4939 07a4 F6070000 		.4byte	.LASF37
 4940 07a8 01       		.byte	0x1
ARM GAS  C:\Users\weiro\AppData\Local\Temp\ccK6dLS7.s 			page 111


 4941 07a9 0702     		.2byte	0x207
 4942 07ab 00000000 		.4byte	.LFB78
 4943 07af D8000000 		.4byte	.LFE78-.LFB78
 4944 07b3 01       		.uleb128 0x1
 4945 07b4 9C       		.byte	0x9c
 4946 07b5 25080000 		.4byte	0x825
 4947 07b9 10       		.uleb128 0x10
 4948 07ba DE090000 		.4byte	.LASF32
 4949 07be 01       		.byte	0x1
 4950 07bf 0902     		.2byte	0x209
 4951 07c1 25000000 		.4byte	0x25
 4952 07c5 1B020000 		.4byte	.LLST9
 4953 07c9 10       		.uleb128 0x10
 4954 07ca 6E070000 		.4byte	.LASF33
 4955 07ce 01       		.byte	0x1
 4956 07cf 0902     		.2byte	0x209
 4957 07d1 25000000 		.4byte	0x25
 4958 07d5 63020000 		.4byte	.LLST10
 4959 07d9 08       		.uleb128 0x8
 4960 07da 08000000 		.4byte	.LVL167
 4961 07de 4A030000 		.4byte	0x34a
 4962 07e2 08       		.uleb128 0x8
 4963 07e3 0C000000 		.4byte	.LVL168
 4964 07e7 971F0000 		.4byte	0x1f97
 4965 07eb 08       		.uleb128 0x8
 4966 07ec 14000000 		.4byte	.LVL169
 4967 07f0 E7020000 		.4byte	0x2e7
 4968 07f4 0C       		.uleb128 0xc
 4969 07f5 1C000000 		.4byte	.LVL170
 4970 07f9 E71E0000 		.4byte	0x1ee7
 4971 07fd 09080000 		.4byte	0x809
 4972 0801 0A       		.uleb128 0xa
 4973 0802 01       		.uleb128 0x1
 4974 0803 50       		.byte	0x50
 4975 0804 03       		.uleb128 0x3
 4976 0805 0A       		.byte	0xa
 4977 0806 F401     		.2byte	0x1f4
 4978 0808 00       		.byte	0
 4979 0809 08       		.uleb128 0x8
 4980 080a 20000000 		.4byte	.LVL171
 4981 080e 4A1F0000 		.4byte	0x1f4a
 4982 0812 08       		.uleb128 0x8
 4983 0813 26000000 		.4byte	.LVL172
 4984 0817 551F0000 		.4byte	0x1f55
 4985 081b 08       		.uleb128 0x8
 4986 081c BA000000 		.4byte	.LVL191
 4987 0820 CE040000 		.4byte	0x4ce
 4988 0824 00       		.byte	0
 4989 0825 11       		.uleb128 0x11
 4990 0826 C8070000 		.4byte	.LASF38
 4991 082a 01       		.byte	0x1
 4992 082b 2902     		.2byte	0x229
 4993 082d 00000000 		.4byte	.LFB79
 4994 0831 A8000000 		.4byte	.LFE79-.LFB79
 4995 0835 01       		.uleb128 0x1
 4996 0836 9C       		.byte	0x9c
 4997 0837 D6080000 		.4byte	0x8d6
ARM GAS  C:\Users\weiro\AppData\Local\Temp\ccK6dLS7.s 			page 112


 4998 083b 12       		.uleb128 0x12
 4999 083c 01040000 		.4byte	.LASF39
 5000 0840 01       		.byte	0x1
 5001 0841 2C02     		.2byte	0x22c
 5002 0843 6F000000 		.4byte	0x6f
 5003 0847 05       		.byte	0x5
 5004 0848 10       		.uleb128 0x10
 5005 0849 F4040000 		.4byte	.LASF40
 5006 084d 01       		.byte	0x1
 5007 084e 2D02     		.2byte	0x22d
 5008 0850 6F000000 		.4byte	0x6f
 5009 0854 AB020000 		.4byte	.LLST11
 5010 0858 13       		.uleb128 0x13
 5011 0859 00000000 		.4byte	.Ldebug_ranges0+0
 5012 085d 9D080000 		.4byte	0x89d
 5013 0861 10       		.uleb128 0x10
 5014 0862 08080000 		.4byte	.LASF41
 5015 0866 01       		.byte	0x1
 5016 0867 4502     		.2byte	0x245
 5017 0869 6F000000 		.4byte	0x6f
 5018 086d 08030000 		.4byte	.LLST12
 5019 0871 08       		.uleb128 0x8
 5020 0872 64000000 		.4byte	.LVL204
 5021 0876 E7020000 		.4byte	0x2e7
 5022 087a 08       		.uleb128 0x8
 5023 087b 8E000000 		.4byte	.LVL212
 5024 087f 0C040000 		.4byte	0x40c
 5025 0883 08       		.uleb128 0x8
 5026 0884 94000000 		.4byte	.LVL214
 5027 0888 6D040000 		.4byte	0x46d
 5028 088c 09       		.uleb128 0x9
 5029 088d 9A000000 		.4byte	.LVL215
 5030 0891 E71E0000 		.4byte	0x1ee7
 5031 0895 0A       		.uleb128 0xa
 5032 0896 01       		.uleb128 0x1
 5033 0897 50       		.byte	0x50
 5034 0898 02       		.uleb128 0x2
 5035 0899 08       		.byte	0x8
 5036 089a 32       		.byte	0x32
 5037 089b 00       		.byte	0
 5038 089c 00       		.byte	0
 5039 089d 08       		.uleb128 0x8
 5040 089e 10000000 		.4byte	.LVL194
 5041 08a2 A21F0000 		.4byte	0x1fa2
 5042 08a6 08       		.uleb128 0x8
 5043 08a7 1C000000 		.4byte	.LVL196
 5044 08ab 791E0000 		.4byte	0x1e79
 5045 08af 0C       		.uleb128 0xc
 5046 08b0 6A000000 		.4byte	.LVL205
 5047 08b4 E71E0000 		.4byte	0x1ee7
 5048 08b8 C3080000 		.4byte	0x8c3
 5049 08bc 0A       		.uleb128 0xa
 5050 08bd 01       		.uleb128 0x1
 5051 08be 50       		.byte	0x50
 5052 08bf 02       		.uleb128 0x2
 5053 08c0 08       		.byte	0x8
 5054 08c1 C8       		.byte	0xc8
ARM GAS  C:\Users\weiro\AppData\Local\Temp\ccK6dLS7.s 			page 113


 5055 08c2 00       		.byte	0
 5056 08c3 08       		.uleb128 0x8
 5057 08c4 78000000 		.4byte	.LVL208
 5058 08c8 A21F0000 		.4byte	0x1fa2
 5059 08cc 08       		.uleb128 0x8
 5060 08cd 84000000 		.4byte	.LVL210
 5061 08d1 791E0000 		.4byte	0x1e79
 5062 08d5 00       		.byte	0
 5063 08d6 11       		.uleb128 0x11
 5064 08d7 D3070000 		.4byte	.LASF42
 5065 08db 01       		.byte	0x1
 5066 08dc 5B02     		.2byte	0x25b
 5067 08de 00000000 		.4byte	.LFB80
 5068 08e2 A8000000 		.4byte	.LFE80-.LFB80
 5069 08e6 01       		.uleb128 0x1
 5070 08e7 9C       		.byte	0x9c
 5071 08e8 87090000 		.4byte	0x987
 5072 08ec 12       		.uleb128 0x12
 5073 08ed 01040000 		.4byte	.LASF39
 5074 08f1 01       		.byte	0x1
 5075 08f2 5E02     		.2byte	0x25e
 5076 08f4 6F000000 		.4byte	0x6f
 5077 08f8 01       		.byte	0x1
 5078 08f9 10       		.uleb128 0x10
 5079 08fa F4040000 		.4byte	.LASF40
 5080 08fe 01       		.byte	0x1
 5081 08ff 5F02     		.2byte	0x25f
 5082 0901 6F000000 		.4byte	0x6f
 5083 0905 31030000 		.4byte	.LLST13
 5084 0909 13       		.uleb128 0x13
 5085 090a 18000000 		.4byte	.Ldebug_ranges0+0x18
 5086 090e 4E090000 		.4byte	0x94e
 5087 0912 10       		.uleb128 0x10
 5088 0913 08080000 		.4byte	.LASF41
 5089 0917 01       		.byte	0x1
 5090 0918 7702     		.2byte	0x277
 5091 091a 6F000000 		.4byte	0x6f
 5092 091e 8E030000 		.4byte	.LLST14
 5093 0922 08       		.uleb128 0x8
 5094 0923 64000000 		.4byte	.LVL229
 5095 0927 E7020000 		.4byte	0x2e7
 5096 092b 08       		.uleb128 0x8
 5097 092c 8E000000 		.4byte	.LVL237
 5098 0930 0C040000 		.4byte	0x40c
 5099 0934 08       		.uleb128 0x8
 5100 0935 94000000 		.4byte	.LVL239
 5101 0939 6D040000 		.4byte	0x46d
 5102 093d 09       		.uleb128 0x9
 5103 093e 9A000000 		.4byte	.LVL240
 5104 0942 E71E0000 		.4byte	0x1ee7
 5105 0946 0A       		.uleb128 0xa
 5106 0947 01       		.uleb128 0x1
 5107 0948 50       		.byte	0x50
 5108 0949 02       		.uleb128 0x2
 5109 094a 08       		.byte	0x8
 5110 094b 32       		.byte	0x32
 5111 094c 00       		.byte	0
ARM GAS  C:\Users\weiro\AppData\Local\Temp\ccK6dLS7.s 			page 114


 5112 094d 00       		.byte	0
 5113 094e 08       		.uleb128 0x8
 5114 094f 10000000 		.4byte	.LVL219
 5115 0953 A21F0000 		.4byte	0x1fa2
 5116 0957 08       		.uleb128 0x8
 5117 0958 1C000000 		.4byte	.LVL221
 5118 095c 791E0000 		.4byte	0x1e79
 5119 0960 0C       		.uleb128 0xc
 5120 0961 6A000000 		.4byte	.LVL230
 5121 0965 E71E0000 		.4byte	0x1ee7
 5122 0969 74090000 		.4byte	0x974
 5123 096d 0A       		.uleb128 0xa
 5124 096e 01       		.uleb128 0x1
 5125 096f 50       		.byte	0x50
 5126 0970 02       		.uleb128 0x2
 5127 0971 08       		.byte	0x8
 5128 0972 C8       		.byte	0xc8
 5129 0973 00       		.byte	0
 5130 0974 08       		.uleb128 0x8
 5131 0975 78000000 		.4byte	.LVL233
 5132 0979 A21F0000 		.4byte	0x1fa2
 5133 097d 08       		.uleb128 0x8
 5134 097e 84000000 		.4byte	.LVL235
 5135 0982 791E0000 		.4byte	0x1e79
 5136 0986 00       		.byte	0
 5137 0987 14       		.uleb128 0x14
 5138 0988 435700   		.ascii	"CW\000"
 5139 098b 01       		.byte	0x1
 5140 098c 8D02     		.2byte	0x28d
 5141 098e 00000000 		.4byte	.LFB81
 5142 0992 A0000000 		.4byte	.LFE81-.LFB81
 5143 0996 01       		.uleb128 0x1
 5144 0997 9C       		.byte	0x9c
 5145 0998 2E0A0000 		.4byte	0xa2e
 5146 099c 0F       		.uleb128 0xf
 5147 099d 7B020000 		.4byte	.LASF43
 5148 09a1 01       		.byte	0x1
 5149 09a2 8D02     		.2byte	0x28d
 5150 09a4 6F000000 		.4byte	0x6f
 5151 09a8 B7030000 		.4byte	.LLST15
 5152 09ac 0F       		.uleb128 0xf
 5153 09ad F1050000 		.4byte	.LASF44
 5154 09b1 01       		.byte	0x1
 5155 09b2 8D02     		.2byte	0x28d
 5156 09b4 6F000000 		.4byte	0x6f
 5157 09b8 E3030000 		.4byte	.LLST16
 5158 09bc 08       		.uleb128 0x8
 5159 09bd 0C000000 		.4byte	.LVL244
 5160 09c1 4A1F0000 		.4byte	0x1f4a
 5161 09c5 08       		.uleb128 0x8
 5162 09c6 14000000 		.4byte	.LVL245
 5163 09ca 551F0000 		.4byte	0x1f55
 5164 09ce 08       		.uleb128 0x8
 5165 09cf 1E000000 		.4byte	.LVL246
 5166 09d3 6D040000 		.4byte	0x46d
 5167 09d7 08       		.uleb128 0x8
 5168 09d8 24000000 		.4byte	.LVL247
ARM GAS  C:\Users\weiro\AppData\Local\Temp\ccK6dLS7.s 			page 115


 5169 09dc 0C040000 		.4byte	0x40c
 5170 09e0 08       		.uleb128 0x8
 5171 09e1 44000000 		.4byte	.LVL248
 5172 09e5 E7020000 		.4byte	0x2e7
 5173 09e9 0C       		.uleb128 0xc
 5174 09ea 86000000 		.4byte	.LVL249
 5175 09ee E71E0000 		.4byte	0x1ee7
 5176 09f2 FD090000 		.4byte	0x9fd
 5177 09f6 0A       		.uleb128 0xa
 5178 09f7 01       		.uleb128 0x1
 5179 09f8 50       		.byte	0x50
 5180 09f9 02       		.uleb128 0x2
 5181 09fa 08       		.byte	0x8
 5182 09fb 32       		.byte	0x32
 5183 09fc 00       		.byte	0
 5184 09fd 08       		.uleb128 0x8
 5185 09fe 8A000000 		.4byte	.LVL250
 5186 0a02 25080000 		.4byte	0x825
 5187 0a06 0C       		.uleb128 0xc
 5188 0a07 92000000 		.4byte	.LVL251
 5189 0a0b E71E0000 		.4byte	0x1ee7
 5190 0a0f 1B0A0000 		.4byte	0xa1b
 5191 0a13 0A       		.uleb128 0xa
 5192 0a14 01       		.uleb128 0x1
 5193 0a15 50       		.byte	0x50
 5194 0a16 03       		.uleb128 0x3
 5195 0a17 0A       		.byte	0xa
 5196 0a18 F401     		.2byte	0x1f4
 5197 0a1a 00       		.byte	0
 5198 0a1b 08       		.uleb128 0x8
 5199 0a1c 96000000 		.4byte	.LVL252
 5200 0a20 D6080000 		.4byte	0x8d6
 5201 0a24 08       		.uleb128 0x8
 5202 0a25 9A000000 		.4byte	.LVL253
 5203 0a29 CE040000 		.4byte	0x4ce
 5204 0a2d 00       		.byte	0
 5205 0a2e 0D       		.uleb128 0xd
 5206 0a2f 70080000 		.4byte	.LASF45
 5207 0a33 01       		.byte	0x1
 5208 0a34 BA02     		.2byte	0x2ba
 5209 0a36 00000000 		.4byte	.LFB82
 5210 0a3a D0010000 		.4byte	.LFE82-.LFB82
 5211 0a3e 01       		.uleb128 0x1
 5212 0a3f 9C       		.byte	0x9c
 5213 0a40 B60D0000 		.4byte	0xdb6
 5214 0a44 10       		.uleb128 0x10
 5215 0a45 98010000 		.4byte	.LASF46
 5216 0a49 01       		.byte	0x1
 5217 0a4a BC02     		.2byte	0x2bc
 5218 0a4c 6F000000 		.4byte	0x6f
 5219 0a50 0F040000 		.4byte	.LLST17
 5220 0a54 0C       		.uleb128 0xc
 5221 0a55 08000000 		.4byte	.LVL256
 5222 0a59 AD1F0000 		.4byte	0x1fad
 5223 0a5d 670A0000 		.4byte	0xa67
 5224 0a61 0A       		.uleb128 0xa
 5225 0a62 01       		.uleb128 0x1
ARM GAS  C:\Users\weiro\AppData\Local\Temp\ccK6dLS7.s 			page 116


 5226 0a63 50       		.byte	0x50
 5227 0a64 01       		.uleb128 0x1
 5228 0a65 31       		.byte	0x31
 5229 0a66 00       		.byte	0
 5230 0a67 0C       		.uleb128 0xc
 5231 0a68 0E000000 		.4byte	.LVL257
 5232 0a6c B81F0000 		.4byte	0x1fb8
 5233 0a70 7A0A0000 		.4byte	0xa7a
 5234 0a74 0A       		.uleb128 0xa
 5235 0a75 01       		.uleb128 0x1
 5236 0a76 50       		.byte	0x50
 5237 0a77 01       		.uleb128 0x1
 5238 0a78 31       		.byte	0x31
 5239 0a79 00       		.byte	0
 5240 0a7a 0C       		.uleb128 0xc
 5241 0a7b 14000000 		.4byte	.LVL258
 5242 0a7f C31F0000 		.4byte	0x1fc3
 5243 0a83 8D0A0000 		.4byte	0xa8d
 5244 0a87 0A       		.uleb128 0xa
 5245 0a88 01       		.uleb128 0x1
 5246 0a89 50       		.byte	0x50
 5247 0a8a 01       		.uleb128 0x1
 5248 0a8b 31       		.byte	0x31
 5249 0a8c 00       		.byte	0
 5250 0a8d 0C       		.uleb128 0xc
 5251 0a8e 1A000000 		.4byte	.LVL259
 5252 0a92 E71E0000 		.4byte	0x1ee7
 5253 0a96 A00A0000 		.4byte	0xaa0
 5254 0a9a 0A       		.uleb128 0xa
 5255 0a9b 01       		.uleb128 0x1
 5256 0a9c 50       		.byte	0x50
 5257 0a9d 01       		.uleb128 0x1
 5258 0a9e 3A       		.byte	0x3a
 5259 0a9f 00       		.byte	0
 5260 0aa0 08       		.uleb128 0x8
 5261 0aa1 1E000000 		.4byte	.LVL260
 5262 0aa5 CE1F0000 		.4byte	0x1fce
 5263 0aa9 0C       		.uleb128 0xc
 5264 0aaa 2A000000 		.4byte	.LVL261
 5265 0aae D91F0000 		.4byte	0x1fd9
 5266 0ab2 BD0A0000 		.4byte	0xabd
 5267 0ab6 0A       		.uleb128 0xa
 5268 0ab7 01       		.uleb128 0x1
 5269 0ab8 50       		.byte	0x50
 5270 0ab9 02       		.uleb128 0x2
 5271 0aba 74       		.byte	0x74
 5272 0abb 00       		.sleb128 0
 5273 0abc 00       		.byte	0
 5274 0abd 0C       		.uleb128 0xc
 5275 0abe 30000000 		.4byte	.LVL262
 5276 0ac2 E41F0000 		.4byte	0x1fe4
 5277 0ac6 D10A0000 		.4byte	0xad1
 5278 0aca 0A       		.uleb128 0xa
 5279 0acb 01       		.uleb128 0x1
 5280 0acc 50       		.byte	0x50
 5281 0acd 02       		.uleb128 0x2
 5282 0ace 74       		.byte	0x74
ARM GAS  C:\Users\weiro\AppData\Local\Temp\ccK6dLS7.s 			page 117


 5283 0acf 00       		.sleb128 0
 5284 0ad0 00       		.byte	0
 5285 0ad1 0C       		.uleb128 0xc
 5286 0ad2 36000000 		.4byte	.LVL263
 5287 0ad6 E71E0000 		.4byte	0x1ee7
 5288 0ada E40A0000 		.4byte	0xae4
 5289 0ade 0A       		.uleb128 0xa
 5290 0adf 01       		.uleb128 0x1
 5291 0ae0 50       		.byte	0x50
 5292 0ae1 01       		.uleb128 0x1
 5293 0ae2 44       		.byte	0x44
 5294 0ae3 00       		.byte	0
 5295 0ae4 0C       		.uleb128 0xc
 5296 0ae5 3C000000 		.4byte	.LVL264
 5297 0ae9 EF1F0000 		.4byte	0x1fef
 5298 0aed F70A0000 		.4byte	0xaf7
 5299 0af1 0A       		.uleb128 0xa
 5300 0af2 01       		.uleb128 0x1
 5301 0af3 50       		.byte	0x50
 5302 0af4 01       		.uleb128 0x1
 5303 0af5 31       		.byte	0x31
 5304 0af6 00       		.byte	0
 5305 0af7 0C       		.uleb128 0xc
 5306 0af8 42000000 		.4byte	.LVL265
 5307 0afc E71E0000 		.4byte	0x1ee7
 5308 0b00 0A0B0000 		.4byte	0xb0a
 5309 0b04 0A       		.uleb128 0xa
 5310 0b05 01       		.uleb128 0x1
 5311 0b06 50       		.byte	0x50
 5312 0b07 01       		.uleb128 0x1
 5313 0b08 31       		.byte	0x31
 5314 0b09 00       		.byte	0
 5315 0b0a 0C       		.uleb128 0xc
 5316 0b0b 48000000 		.4byte	.LVL266
 5317 0b0f EF1F0000 		.4byte	0x1fef
 5318 0b13 1E0B0000 		.4byte	0xb1e
 5319 0b17 0A       		.uleb128 0xa
 5320 0b18 01       		.uleb128 0x1
 5321 0b19 50       		.byte	0x50
 5322 0b1a 02       		.uleb128 0x2
 5323 0b1b 74       		.byte	0x74
 5324 0b1c 00       		.sleb128 0
 5325 0b1d 00       		.byte	0
 5326 0b1e 08       		.uleb128 0x8
 5327 0b1f 54000000 		.4byte	.LVL267
 5328 0b23 FA1F0000 		.4byte	0x1ffa
 5329 0b27 0C       		.uleb128 0xc
 5330 0b28 66000000 		.4byte	.LVL268
 5331 0b2c 9A1E0000 		.4byte	0x1e9a
 5332 0b30 440B0000 		.4byte	0xb44
 5333 0b34 0A       		.uleb128 0xa
 5334 0b35 01       		.uleb128 0x1
 5335 0b36 50       		.byte	0x50
 5336 0b37 02       		.uleb128 0x2
 5337 0b38 74       		.byte	0x74
 5338 0b39 00       		.sleb128 0
 5339 0b3a 0A       		.uleb128 0xa
ARM GAS  C:\Users\weiro\AppData\Local\Temp\ccK6dLS7.s 			page 118


 5340 0b3b 01       		.uleb128 0x1
 5341 0b3c 51       		.byte	0x51
 5342 0b3d 05       		.uleb128 0x5
 5343 0b3e 03       		.byte	0x3
 5344 0b3f 44000000 		.4byte	.LC4
 5345 0b43 00       		.byte	0
 5346 0b44 0C       		.uleb128 0xc
 5347 0b45 6C000000 		.4byte	.LVL269
 5348 0b49 FD1E0000 		.4byte	0x1efd
 5349 0b4d 580B0000 		.4byte	0xb58
 5350 0b51 0A       		.uleb128 0xa
 5351 0b52 01       		.uleb128 0x1
 5352 0b53 50       		.byte	0x50
 5353 0b54 02       		.uleb128 0x2
 5354 0b55 74       		.byte	0x74
 5355 0b56 00       		.sleb128 0
 5356 0b57 00       		.byte	0
 5357 0b58 08       		.uleb128 0x8
 5358 0b59 70000000 		.4byte	.LVL270
 5359 0b5d 05200000 		.4byte	0x2005
 5360 0b61 0C       		.uleb128 0xc
 5361 0b62 76000000 		.4byte	.LVL271
 5362 0b66 E71E0000 		.4byte	0x1ee7
 5363 0b6a 750B0000 		.4byte	0xb75
 5364 0b6e 0A       		.uleb128 0xa
 5365 0b6f 01       		.uleb128 0x1
 5366 0b70 50       		.byte	0x50
 5367 0b71 02       		.uleb128 0x2
 5368 0b72 08       		.byte	0x8
 5369 0b73 64       		.byte	0x64
 5370 0b74 00       		.byte	0
 5371 0b75 08       		.uleb128 0x8
 5372 0b76 7A000000 		.4byte	.LVL272
 5373 0b7a CE1F0000 		.4byte	0x1fce
 5374 0b7e 0C       		.uleb128 0xc
 5375 0b7f 84000000 		.4byte	.LVL273
 5376 0b83 D91F0000 		.4byte	0x1fd9
 5377 0b87 910B0000 		.4byte	0xb91
 5378 0b8b 0A       		.uleb128 0xa
 5379 0b8c 01       		.uleb128 0x1
 5380 0b8d 50       		.byte	0x50
 5381 0b8e 01       		.uleb128 0x1
 5382 0b8f 31       		.byte	0x31
 5383 0b90 00       		.byte	0
 5384 0b91 0C       		.uleb128 0xc
 5385 0b92 8A000000 		.4byte	.LVL274
 5386 0b96 E41F0000 		.4byte	0x1fe4
 5387 0b9a A40B0000 		.4byte	0xba4
 5388 0b9e 0A       		.uleb128 0xa
 5389 0b9f 01       		.uleb128 0x1
 5390 0ba0 50       		.byte	0x50
 5391 0ba1 01       		.uleb128 0x1
 5392 0ba2 31       		.byte	0x31
 5393 0ba3 00       		.byte	0
 5394 0ba4 0C       		.uleb128 0xc
 5395 0ba5 90000000 		.4byte	.LVL275
 5396 0ba9 E71E0000 		.4byte	0x1ee7
ARM GAS  C:\Users\weiro\AppData\Local\Temp\ccK6dLS7.s 			page 119


 5397 0bad B70B0000 		.4byte	0xbb7
 5398 0bb1 0A       		.uleb128 0xa
 5399 0bb2 01       		.uleb128 0x1
 5400 0bb3 50       		.byte	0x50
 5401 0bb4 01       		.uleb128 0x1
 5402 0bb5 44       		.byte	0x44
 5403 0bb6 00       		.byte	0
 5404 0bb7 0C       		.uleb128 0xc
 5405 0bb8 96000000 		.4byte	.LVL276
 5406 0bbc EF1F0000 		.4byte	0x1fef
 5407 0bc0 CA0B0000 		.4byte	0xbca
 5408 0bc4 0A       		.uleb128 0xa
 5409 0bc5 01       		.uleb128 0x1
 5410 0bc6 50       		.byte	0x50
 5411 0bc7 01       		.uleb128 0x1
 5412 0bc8 31       		.byte	0x31
 5413 0bc9 00       		.byte	0
 5414 0bca 0C       		.uleb128 0xc
 5415 0bcb 9C000000 		.4byte	.LVL277
 5416 0bcf E71E0000 		.4byte	0x1ee7
 5417 0bd3 DD0B0000 		.4byte	0xbdd
 5418 0bd7 0A       		.uleb128 0xa
 5419 0bd8 01       		.uleb128 0x1
 5420 0bd9 50       		.byte	0x50
 5421 0bda 01       		.uleb128 0x1
 5422 0bdb 31       		.byte	0x31
 5423 0bdc 00       		.byte	0
 5424 0bdd 0C       		.uleb128 0xc
 5425 0bde A2000000 		.4byte	.LVL278
 5426 0be2 EF1F0000 		.4byte	0x1fef
 5427 0be6 F10B0000 		.4byte	0xbf1
 5428 0bea 0A       		.uleb128 0xa
 5429 0beb 01       		.uleb128 0x1
 5430 0bec 50       		.byte	0x50
 5431 0bed 02       		.uleb128 0x2
 5432 0bee 74       		.byte	0x74
 5433 0bef 00       		.sleb128 0
 5434 0bf0 00       		.byte	0
 5435 0bf1 08       		.uleb128 0x8
 5436 0bf2 AE000000 		.4byte	.LVL279
 5437 0bf6 FA1F0000 		.4byte	0x1ffa
 5438 0bfa 0C       		.uleb128 0xc
 5439 0bfb C0000000 		.4byte	.LVL280
 5440 0bff 9A1E0000 		.4byte	0x1e9a
 5441 0c03 170C0000 		.4byte	0xc17
 5442 0c07 0A       		.uleb128 0xa
 5443 0c08 01       		.uleb128 0x1
 5444 0c09 50       		.byte	0x50
 5445 0c0a 02       		.uleb128 0x2
 5446 0c0b 74       		.byte	0x74
 5447 0c0c 00       		.sleb128 0
 5448 0c0d 0A       		.uleb128 0xa
 5449 0c0e 01       		.uleb128 0x1
 5450 0c0f 51       		.byte	0x51
 5451 0c10 05       		.uleb128 0x5
 5452 0c11 03       		.byte	0x3
 5453 0c12 50000000 		.4byte	.LC5
ARM GAS  C:\Users\weiro\AppData\Local\Temp\ccK6dLS7.s 			page 120


 5454 0c16 00       		.byte	0
 5455 0c17 0C       		.uleb128 0xc
 5456 0c18 C6000000 		.4byte	.LVL281
 5457 0c1c FD1E0000 		.4byte	0x1efd
 5458 0c20 2B0C0000 		.4byte	0xc2b
 5459 0c24 0A       		.uleb128 0xa
 5460 0c25 01       		.uleb128 0x1
 5461 0c26 50       		.byte	0x50
 5462 0c27 02       		.uleb128 0x2
 5463 0c28 74       		.byte	0x74
 5464 0c29 00       		.sleb128 0
 5465 0c2a 00       		.byte	0
 5466 0c2b 08       		.uleb128 0x8
 5467 0c2c CA000000 		.4byte	.LVL282
 5468 0c30 05200000 		.4byte	0x2005
 5469 0c34 0C       		.uleb128 0xc
 5470 0c35 D0000000 		.4byte	.LVL283
 5471 0c39 E71E0000 		.4byte	0x1ee7
 5472 0c3d 480C0000 		.4byte	0xc48
 5473 0c41 0A       		.uleb128 0xa
 5474 0c42 01       		.uleb128 0x1
 5475 0c43 50       		.byte	0x50
 5476 0c44 02       		.uleb128 0x2
 5477 0c45 08       		.byte	0x8
 5478 0c46 64       		.byte	0x64
 5479 0c47 00       		.byte	0
 5480 0c48 08       		.uleb128 0x8
 5481 0c49 D4000000 		.4byte	.LVL284
 5482 0c4d CE1F0000 		.4byte	0x1fce
 5483 0c51 0C       		.uleb128 0xc
 5484 0c52 DE000000 		.4byte	.LVL285
 5485 0c56 D91F0000 		.4byte	0x1fd9
 5486 0c5a 650C0000 		.4byte	0xc65
 5487 0c5e 0A       		.uleb128 0xa
 5488 0c5f 01       		.uleb128 0x1
 5489 0c60 50       		.byte	0x50
 5490 0c61 02       		.uleb128 0x2
 5491 0c62 74       		.byte	0x74
 5492 0c63 00       		.sleb128 0
 5493 0c64 00       		.byte	0
 5494 0c65 0C       		.uleb128 0xc
 5495 0c66 E4000000 		.4byte	.LVL286
 5496 0c6a E41F0000 		.4byte	0x1fe4
 5497 0c6e 780C0000 		.4byte	0xc78
 5498 0c72 0A       		.uleb128 0xa
 5499 0c73 01       		.uleb128 0x1
 5500 0c74 50       		.byte	0x50
 5501 0c75 01       		.uleb128 0x1
 5502 0c76 31       		.byte	0x31
 5503 0c77 00       		.byte	0
 5504 0c78 0C       		.uleb128 0xc
 5505 0c79 EA000000 		.4byte	.LVL287
 5506 0c7d E71E0000 		.4byte	0x1ee7
 5507 0c81 8B0C0000 		.4byte	0xc8b
 5508 0c85 0A       		.uleb128 0xa
 5509 0c86 01       		.uleb128 0x1
 5510 0c87 50       		.byte	0x50
ARM GAS  C:\Users\weiro\AppData\Local\Temp\ccK6dLS7.s 			page 121


 5511 0c88 01       		.uleb128 0x1
 5512 0c89 44       		.byte	0x44
 5513 0c8a 00       		.byte	0
 5514 0c8b 0C       		.uleb128 0xc
 5515 0c8c F0000000 		.4byte	.LVL288
 5516 0c90 EF1F0000 		.4byte	0x1fef
 5517 0c94 9E0C0000 		.4byte	0xc9e
 5518 0c98 0A       		.uleb128 0xa
 5519 0c99 01       		.uleb128 0x1
 5520 0c9a 50       		.byte	0x50
 5521 0c9b 01       		.uleb128 0x1
 5522 0c9c 31       		.byte	0x31
 5523 0c9d 00       		.byte	0
 5524 0c9e 0C       		.uleb128 0xc
 5525 0c9f F6000000 		.4byte	.LVL289
 5526 0ca3 E71E0000 		.4byte	0x1ee7
 5527 0ca7 B10C0000 		.4byte	0xcb1
 5528 0cab 0A       		.uleb128 0xa
 5529 0cac 01       		.uleb128 0x1
 5530 0cad 50       		.byte	0x50
 5531 0cae 01       		.uleb128 0x1
 5532 0caf 31       		.byte	0x31
 5533 0cb0 00       		.byte	0
 5534 0cb1 0C       		.uleb128 0xc
 5535 0cb2 FC000000 		.4byte	.LVL290
 5536 0cb6 EF1F0000 		.4byte	0x1fef
 5537 0cba C50C0000 		.4byte	0xcc5
 5538 0cbe 0A       		.uleb128 0xa
 5539 0cbf 01       		.uleb128 0x1
 5540 0cc0 50       		.byte	0x50
 5541 0cc1 02       		.uleb128 0x2
 5542 0cc2 74       		.byte	0x74
 5543 0cc3 00       		.sleb128 0
 5544 0cc4 00       		.byte	0
 5545 0cc5 08       		.uleb128 0x8
 5546 0cc6 08010000 		.4byte	.LVL291
 5547 0cca FA1F0000 		.4byte	0x1ffa
 5548 0cce 0C       		.uleb128 0xc
 5549 0ccf 1A010000 		.4byte	.LVL292
 5550 0cd3 9A1E0000 		.4byte	0x1e9a
 5551 0cd7 EB0C0000 		.4byte	0xceb
 5552 0cdb 0A       		.uleb128 0xa
 5553 0cdc 01       		.uleb128 0x1
 5554 0cdd 50       		.byte	0x50
 5555 0cde 02       		.uleb128 0x2
 5556 0cdf 75       		.byte	0x75
 5557 0ce0 00       		.sleb128 0
 5558 0ce1 0A       		.uleb128 0xa
 5559 0ce2 01       		.uleb128 0x1
 5560 0ce3 51       		.byte	0x51
 5561 0ce4 05       		.uleb128 0x5
 5562 0ce5 03       		.byte	0x3
 5563 0ce6 5C000000 		.4byte	.LC6
 5564 0cea 00       		.byte	0
 5565 0ceb 0C       		.uleb128 0xc
 5566 0cec 20010000 		.4byte	.LVL293
 5567 0cf0 FD1E0000 		.4byte	0x1efd
ARM GAS  C:\Users\weiro\AppData\Local\Temp\ccK6dLS7.s 			page 122


 5568 0cf4 FF0C0000 		.4byte	0xcff
 5569 0cf8 0A       		.uleb128 0xa
 5570 0cf9 01       		.uleb128 0x1
 5571 0cfa 50       		.byte	0x50
 5572 0cfb 02       		.uleb128 0x2
 5573 0cfc 75       		.byte	0x75
 5574 0cfd 00       		.sleb128 0
 5575 0cfe 00       		.byte	0
 5576 0cff 08       		.uleb128 0x8
 5577 0d00 24010000 		.4byte	.LVL294
 5578 0d04 05200000 		.4byte	0x2005
 5579 0d08 0C       		.uleb128 0xc
 5580 0d09 42010000 		.4byte	.LVL295
 5581 0d0d 10200000 		.4byte	0x2010
 5582 0d11 1B0D0000 		.4byte	0xd1b
 5583 0d15 0A       		.uleb128 0xa
 5584 0d16 01       		.uleb128 0x1
 5585 0d17 50       		.byte	0x50
 5586 0d18 01       		.uleb128 0x1
 5587 0d19 31       		.byte	0x31
 5588 0d1a 00       		.byte	0
 5589 0d1b 0C       		.uleb128 0xc
 5590 0d1c 4A010000 		.4byte	.LVL296
 5591 0d20 E71E0000 		.4byte	0x1ee7
 5592 0d24 300D0000 		.4byte	0xd30
 5593 0d28 0A       		.uleb128 0xa
 5594 0d29 01       		.uleb128 0x1
 5595 0d2a 50       		.byte	0x50
 5596 0d2b 03       		.uleb128 0x3
 5597 0d2c 0A       		.byte	0xa
 5598 0d2d E803     		.2byte	0x3e8
 5599 0d2f 00       		.byte	0
 5600 0d30 0C       		.uleb128 0xc
 5601 0d31 50010000 		.4byte	.LVL297
 5602 0d35 10200000 		.4byte	0x2010
 5603 0d39 430D0000 		.4byte	0xd43
 5604 0d3d 0A       		.uleb128 0xa
 5605 0d3e 01       		.uleb128 0x1
 5606 0d3f 50       		.byte	0x50
 5607 0d40 01       		.uleb128 0x1
 5608 0d41 30       		.byte	0x30
 5609 0d42 00       		.byte	0
 5610 0d43 0C       		.uleb128 0xc
 5611 0d44 76010000 		.4byte	.LVL298
 5612 0d48 1B200000 		.4byte	0x201b
 5613 0d4c 560D0000 		.4byte	0xd56
 5614 0d50 0A       		.uleb128 0xa
 5615 0d51 01       		.uleb128 0x1
 5616 0d52 50       		.byte	0x50
 5617 0d53 01       		.uleb128 0x1
 5618 0d54 31       		.byte	0x31
 5619 0d55 00       		.byte	0
 5620 0d56 0C       		.uleb128 0xc
 5621 0d57 7E010000 		.4byte	.LVL299
 5622 0d5b E71E0000 		.4byte	0x1ee7
 5623 0d5f 6B0D0000 		.4byte	0xd6b
 5624 0d63 0A       		.uleb128 0xa
ARM GAS  C:\Users\weiro\AppData\Local\Temp\ccK6dLS7.s 			page 123


 5625 0d64 01       		.uleb128 0x1
 5626 0d65 50       		.byte	0x50
 5627 0d66 03       		.uleb128 0x3
 5628 0d67 0A       		.byte	0xa
 5629 0d68 E803     		.2byte	0x3e8
 5630 0d6a 00       		.byte	0
 5631 0d6b 0C       		.uleb128 0xc
 5632 0d6c 84010000 		.4byte	.LVL300
 5633 0d70 1B200000 		.4byte	0x201b
 5634 0d74 7E0D0000 		.4byte	0xd7e
 5635 0d78 0A       		.uleb128 0xa
 5636 0d79 01       		.uleb128 0x1
 5637 0d7a 50       		.byte	0x50
 5638 0d7b 01       		.uleb128 0x1
 5639 0d7c 30       		.byte	0x30
 5640 0d7d 00       		.byte	0
 5641 0d7e 0C       		.uleb128 0xc
 5642 0d7f AA010000 		.4byte	.LVL301
 5643 0d83 26200000 		.4byte	0x2026
 5644 0d87 910D0000 		.4byte	0xd91
 5645 0d8b 0A       		.uleb128 0xa
 5646 0d8c 01       		.uleb128 0x1
 5647 0d8d 50       		.byte	0x50
 5648 0d8e 01       		.uleb128 0x1
 5649 0d8f 31       		.byte	0x31
 5650 0d90 00       		.byte	0
 5651 0d91 0C       		.uleb128 0xc
 5652 0d92 B2010000 		.4byte	.LVL302
 5653 0d96 E71E0000 		.4byte	0x1ee7
 5654 0d9a A60D0000 		.4byte	0xda6
 5655 0d9e 0A       		.uleb128 0xa
 5656 0d9f 01       		.uleb128 0x1
 5657 0da0 50       		.byte	0x50
 5658 0da1 03       		.uleb128 0x3
 5659 0da2 0A       		.byte	0xa
 5660 0da3 E803     		.2byte	0x3e8
 5661 0da5 00       		.byte	0
 5662 0da6 09       		.uleb128 0x9
 5663 0da7 B8010000 		.4byte	.LVL303
 5664 0dab 26200000 		.4byte	0x2026
 5665 0daf 0A       		.uleb128 0xa
 5666 0db0 01       		.uleb128 0x1
 5667 0db1 50       		.byte	0x50
 5668 0db2 01       		.uleb128 0x1
 5669 0db3 30       		.byte	0x30
 5670 0db4 00       		.byte	0
 5671 0db5 00       		.byte	0
 5672 0db6 0D       		.uleb128 0xd
 5673 0db7 53040000 		.4byte	.LASF47
 5674 0dbb 01       		.byte	0x1
 5675 0dbc 1E03     		.2byte	0x31e
 5676 0dbe 00000000 		.4byte	.LFB83
 5677 0dc2 5E000000 		.4byte	.LFE83-.LFB83
 5678 0dc6 01       		.uleb128 0x1
 5679 0dc7 9C       		.byte	0x9c
 5680 0dc8 DB0E0000 		.4byte	0xedb
 5681 0dcc 0C       		.uleb128 0xc
ARM GAS  C:\Users\weiro\AppData\Local\Temp\ccK6dLS7.s 			page 124


 5682 0dcd 0A000000 		.4byte	.LVL304
 5683 0dd1 C61E0000 		.4byte	0x1ec6
 5684 0dd5 E50D0000 		.4byte	0xde5
 5685 0dd9 0A       		.uleb128 0xa
 5686 0dda 01       		.uleb128 0x1
 5687 0ddb 50       		.byte	0x50
 5688 0ddc 02       		.uleb128 0x2
 5689 0ddd 08       		.byte	0x8
 5690 0dde 68       		.byte	0x68
 5691 0ddf 0A       		.uleb128 0xa
 5692 0de0 01       		.uleb128 0x1
 5693 0de1 51       		.byte	0x51
 5694 0de2 01       		.uleb128 0x1
 5695 0de3 30       		.byte	0x30
 5696 0de4 00       		.byte	0
 5697 0de5 0C       		.uleb128 0xc
 5698 0de6 10000000 		.4byte	.LVL305
 5699 0dea D11E0000 		.4byte	0x1ed1
 5700 0dee F90D0000 		.4byte	0xdf9
 5701 0df2 0A       		.uleb128 0xa
 5702 0df3 01       		.uleb128 0x1
 5703 0df4 50       		.byte	0x50
 5704 0df5 02       		.uleb128 0x2
 5705 0df6 08       		.byte	0x8
 5706 0df7 6B       		.byte	0x6b
 5707 0df8 00       		.byte	0
 5708 0df9 0C       		.uleb128 0xc
 5709 0dfa 16000000 		.4byte	.LVL306
 5710 0dfe D11E0000 		.4byte	0x1ed1
 5711 0e02 0C0E0000 		.4byte	0xe0c
 5712 0e06 0A       		.uleb128 0xa
 5713 0e07 01       		.uleb128 0x1
 5714 0e08 50       		.byte	0x50
 5715 0e09 01       		.uleb128 0x1
 5716 0e0a 30       		.byte	0x30
 5717 0e0b 00       		.byte	0
 5718 0e0c 08       		.uleb128 0x8
 5719 0e0d 1A000000 		.4byte	.LVL307
 5720 0e11 DC1E0000 		.4byte	0x1edc
 5721 0e15 0C       		.uleb128 0xc
 5722 0e16 20000000 		.4byte	.LVL308
 5723 0e1a E71E0000 		.4byte	0x1ee7
 5724 0e1e 280E0000 		.4byte	0xe28
 5725 0e22 0A       		.uleb128 0xa
 5726 0e23 01       		.uleb128 0x1
 5727 0e24 50       		.byte	0x50
 5728 0e25 01       		.uleb128 0x1
 5729 0e26 31       		.byte	0x31
 5730 0e27 00       		.byte	0
 5731 0e28 0C       		.uleb128 0xc
 5732 0e29 28000000 		.4byte	.LVL309
 5733 0e2d C61E0000 		.4byte	0x1ec6
 5734 0e31 410E0000 		.4byte	0xe41
 5735 0e35 0A       		.uleb128 0xa
 5736 0e36 01       		.uleb128 0x1
 5737 0e37 50       		.byte	0x50
 5738 0e38 02       		.uleb128 0x2
ARM GAS  C:\Users\weiro\AppData\Local\Temp\ccK6dLS7.s 			page 125


 5739 0e39 08       		.byte	0x8
 5740 0e3a 68       		.byte	0x68
 5741 0e3b 0A       		.uleb128 0xa
 5742 0e3c 01       		.uleb128 0x1
 5743 0e3d 51       		.byte	0x51
 5744 0e3e 01       		.uleb128 0x1
 5745 0e3f 30       		.byte	0x30
 5746 0e40 00       		.byte	0
 5747 0e41 0C       		.uleb128 0xc
 5748 0e42 2E000000 		.4byte	.LVL310
 5749 0e46 D11E0000 		.4byte	0x1ed1
 5750 0e4a 540E0000 		.4byte	0xe54
 5751 0e4e 0A       		.uleb128 0xa
 5752 0e4f 01       		.uleb128 0x1
 5753 0e50 50       		.byte	0x50
 5754 0e51 01       		.uleb128 0x1
 5755 0e52 4B       		.byte	0x4b
 5756 0e53 00       		.byte	0
 5757 0e54 0C       		.uleb128 0xc
 5758 0e55 34000000 		.4byte	.LVL311
 5759 0e59 D11E0000 		.4byte	0x1ed1
 5760 0e5d 670E0000 		.4byte	0xe67
 5761 0e61 0A       		.uleb128 0xa
 5762 0e62 01       		.uleb128 0x1
 5763 0e63 50       		.byte	0x50
 5764 0e64 01       		.uleb128 0x1
 5765 0e65 38       		.byte	0x38
 5766 0e66 00       		.byte	0
 5767 0e67 08       		.uleb128 0x8
 5768 0e68 38000000 		.4byte	.LVL312
 5769 0e6c DC1E0000 		.4byte	0x1edc
 5770 0e70 0C       		.uleb128 0xc
 5771 0e71 3E000000 		.4byte	.LVL313
 5772 0e75 E71E0000 		.4byte	0x1ee7
 5773 0e79 830E0000 		.4byte	0xe83
 5774 0e7d 0A       		.uleb128 0xa
 5775 0e7e 01       		.uleb128 0x1
 5776 0e7f 50       		.byte	0x50
 5777 0e80 01       		.uleb128 0x1
 5778 0e81 31       		.byte	0x31
 5779 0e82 00       		.byte	0
 5780 0e83 0C       		.uleb128 0xc
 5781 0e84 46000000 		.4byte	.LVL314
 5782 0e88 C61E0000 		.4byte	0x1ec6
 5783 0e8c 9C0E0000 		.4byte	0xe9c
 5784 0e90 0A       		.uleb128 0xa
 5785 0e91 01       		.uleb128 0x1
 5786 0e92 50       		.byte	0x50
 5787 0e93 02       		.uleb128 0x2
 5788 0e94 08       		.byte	0x8
 5789 0e95 68       		.byte	0x68
 5790 0e96 0A       		.uleb128 0xa
 5791 0e97 01       		.uleb128 0x1
 5792 0e98 51       		.byte	0x51
 5793 0e99 01       		.uleb128 0x1
 5794 0e9a 30       		.byte	0x30
 5795 0e9b 00       		.byte	0
ARM GAS  C:\Users\weiro\AppData\Local\Temp\ccK6dLS7.s 			page 126


 5796 0e9c 0C       		.uleb128 0xc
 5797 0e9d 4C000000 		.4byte	.LVL315
 5798 0ea1 D11E0000 		.4byte	0x1ed1
 5799 0ea5 AF0E0000 		.4byte	0xeaf
 5800 0ea9 0A       		.uleb128 0xa
 5801 0eaa 01       		.uleb128 0x1
 5802 0eab 50       		.byte	0x50
 5803 0eac 01       		.uleb128 0x1
 5804 0ead 4A       		.byte	0x4a
 5805 0eae 00       		.byte	0
 5806 0eaf 0C       		.uleb128 0xc
 5807 0eb0 52000000 		.4byte	.LVL316
 5808 0eb4 D11E0000 		.4byte	0x1ed1
 5809 0eb8 C20E0000 		.4byte	0xec2
 5810 0ebc 0A       		.uleb128 0xa
 5811 0ebd 01       		.uleb128 0x1
 5812 0ebe 50       		.byte	0x50
 5813 0ebf 01       		.uleb128 0x1
 5814 0ec0 35       		.byte	0x35
 5815 0ec1 00       		.byte	0
 5816 0ec2 08       		.uleb128 0x8
 5817 0ec3 56000000 		.4byte	.LVL317
 5818 0ec7 DC1E0000 		.4byte	0x1edc
 5819 0ecb 09       		.uleb128 0x9
 5820 0ecc 5C000000 		.4byte	.LVL318
 5821 0ed0 E71E0000 		.4byte	0x1ee7
 5822 0ed4 0A       		.uleb128 0xa
 5823 0ed5 01       		.uleb128 0x1
 5824 0ed6 50       		.byte	0x50
 5825 0ed7 01       		.uleb128 0x1
 5826 0ed8 31       		.byte	0x31
 5827 0ed9 00       		.byte	0
 5828 0eda 00       		.byte	0
 5829 0edb 0D       		.uleb128 0xd
 5830 0edc DF030000 		.4byte	.LASF48
 5831 0ee0 01       		.byte	0x1
 5832 0ee1 3803     		.2byte	0x338
 5833 0ee3 00000000 		.4byte	.LFB84
 5834 0ee7 28000000 		.4byte	.LFE84-.LFB84
 5835 0eeb 01       		.uleb128 0x1
 5836 0eec 9C       		.byte	0x9c
 5837 0eed 780F0000 		.4byte	0xf78
 5838 0ef1 12       		.uleb128 0x12
 5839 0ef2 00080000 		.4byte	.LASF31
 5840 0ef6 01       		.byte	0x1
 5841 0ef7 3A03     		.2byte	0x33a
 5842 0ef9 6F000000 		.4byte	0x6f
 5843 0efd 00       		.byte	0
 5844 0efe 15       		.uleb128 0x15
 5845 0eff E9060000 		.4byte	.LASF49
 5846 0f03 01       		.byte	0x1
 5847 0f04 3B03     		.2byte	0x33b
 5848 0f06 25000000 		.4byte	0x25
 5849 0f0a 08       		.byte	0x8
 5850 0f0b 00000000 		.4byte	0
 5851 0f0f 00001440 		.4byte	0x40140000
 5852 0f13 0C       		.uleb128 0xc
ARM GAS  C:\Users\weiro\AppData\Local\Temp\ccK6dLS7.s 			page 127


 5853 0f14 08000000 		.4byte	.LVL320
 5854 0f18 31200000 		.4byte	0x2031
 5855 0f1c 260F0000 		.4byte	0xf26
 5856 0f20 0A       		.uleb128 0xa
 5857 0f21 01       		.uleb128 0x1
 5858 0f22 50       		.byte	0x50
 5859 0f23 01       		.uleb128 0x1
 5860 0f24 31       		.byte	0x31
 5861 0f25 00       		.byte	0
 5862 0f26 0C       		.uleb128 0xc
 5863 0f27 10000000 		.4byte	.LVL321
 5864 0f2b E71E0000 		.4byte	0x1ee7
 5865 0f2f 3B0F0000 		.4byte	0xf3b
 5866 0f33 0A       		.uleb128 0xa
 5867 0f34 01       		.uleb128 0x1
 5868 0f35 50       		.byte	0x50
 5869 0f36 03       		.uleb128 0x3
 5870 0f37 0A       		.byte	0xa
 5871 0f38 E803     		.2byte	0x3e8
 5872 0f3a 00       		.byte	0
 5873 0f3b 0C       		.uleb128 0xc
 5874 0f3c 18000000 		.4byte	.LVL322
 5875 0f40 07050000 		.4byte	0x507
 5876 0f44 530F0000 		.4byte	0xf53
 5877 0f48 0A       		.uleb128 0xa
 5878 0f49 01       		.uleb128 0x1
 5879 0f4a 50       		.byte	0x50
 5880 0f4b 01       		.uleb128 0x1
 5881 0f4c 35       		.byte	0x35
 5882 0f4d 0A       		.uleb128 0xa
 5883 0f4e 01       		.uleb128 0x1
 5884 0f4f 51       		.byte	0x51
 5885 0f50 01       		.uleb128 0x1
 5886 0f51 30       		.byte	0x30
 5887 0f52 00       		.byte	0
 5888 0f53 0C       		.uleb128 0xc
 5889 0f54 20000000 		.4byte	.LVL323
 5890 0f58 E71E0000 		.4byte	0x1ee7
 5891 0f5c 680F0000 		.4byte	0xf68
 5892 0f60 0A       		.uleb128 0xa
 5893 0f61 01       		.uleb128 0x1
 5894 0f62 50       		.byte	0x50
 5895 0f63 03       		.uleb128 0x3
 5896 0f64 0A       		.byte	0xa
 5897 0f65 F401     		.2byte	0x1f4
 5898 0f67 00       		.byte	0
 5899 0f68 09       		.uleb128 0x9
 5900 0f69 26000000 		.4byte	.LVL324
 5901 0f6d 31200000 		.4byte	0x2031
 5902 0f71 0A       		.uleb128 0xa
 5903 0f72 01       		.uleb128 0x1
 5904 0f73 50       		.byte	0x50
 5905 0f74 01       		.uleb128 0x1
 5906 0f75 30       		.byte	0x30
 5907 0f76 00       		.byte	0
 5908 0f77 00       		.byte	0
 5909 0f78 16       		.uleb128 0x16
ARM GAS  C:\Users\weiro\AppData\Local\Temp\ccK6dLS7.s 			page 128


 5910 0f79 BB080000 		.4byte	.LASF50
 5911 0f7d 01       		.byte	0x1
 5912 0f7e 4403     		.2byte	0x344
 5913 0f80 A0000000 		.4byte	0xa0
 5914 0f84 00000000 		.4byte	.LFB85
 5915 0f88 D4000000 		.4byte	.LFE85-.LFB85
 5916 0f8c 01       		.uleb128 0x1
 5917 0f8d 9C       		.byte	0x9c
 5918 0f8e BF100000 		.4byte	0x10bf
 5919 0f92 10       		.uleb128 0x10
 5920 0f93 CB060000 		.4byte	.LASF51
 5921 0f97 01       		.byte	0x1
 5922 0f98 4603     		.2byte	0x346
 5923 0f9a 6F000000 		.4byte	0x6f
 5924 0f9e 47040000 		.4byte	.LLST18
 5925 0fa2 10       		.uleb128 0x10
 5926 0fa3 7B050000 		.4byte	.LASF52
 5927 0fa7 01       		.byte	0x1
 5928 0fa8 4703     		.2byte	0x347
 5929 0faa A0000000 		.4byte	0xa0
 5930 0fae 76040000 		.4byte	.LLST19
 5931 0fb2 10       		.uleb128 0x10
 5932 0fb3 56000000 		.4byte	.LASF53
 5933 0fb7 01       		.byte	0x1
 5934 0fb8 4803     		.2byte	0x348
 5935 0fba A0000000 		.4byte	0xa0
 5936 0fbe 99040000 		.4byte	.LLST20
 5937 0fc2 10       		.uleb128 0x10
 5938 0fc3 71040000 		.4byte	.LASF54
 5939 0fc7 01       		.byte	0x1
 5940 0fc8 4903     		.2byte	0x349
 5941 0fca 6F000000 		.4byte	0x6f
 5942 0fce D2040000 		.4byte	.LLST21
 5943 0fd2 10       		.uleb128 0x10
 5944 0fd3 11040000 		.4byte	.LASF55
 5945 0fd7 01       		.byte	0x1
 5946 0fd8 4A03     		.2byte	0x34a
 5947 0fda A0000000 		.4byte	0xa0
 5948 0fde F1040000 		.4byte	.LLST22
 5949 0fe2 10       		.uleb128 0x10
 5950 0fe3 85000000 		.4byte	.LASF56
 5951 0fe7 01       		.byte	0x1
 5952 0fe8 4B03     		.2byte	0x34b
 5953 0fea A0000000 		.4byte	0xa0
 5954 0fee 14050000 		.4byte	.LLST23
 5955 0ff2 08       		.uleb128 0x8
 5956 0ff3 0C000000 		.4byte	.LVL327
 5957 0ff7 3C200000 		.4byte	0x203c
 5958 0ffb 0C       		.uleb128 0xc
 5959 0ffc 12000000 		.4byte	.LVL328
 5960 1000 47200000 		.4byte	0x2047
 5961 1004 0E100000 		.4byte	0x100e
 5962 1008 0A       		.uleb128 0xa
 5963 1009 01       		.uleb128 0x1
 5964 100a 50       		.byte	0x50
 5965 100b 01       		.uleb128 0x1
 5966 100c 31       		.byte	0x31
ARM GAS  C:\Users\weiro\AppData\Local\Temp\ccK6dLS7.s 			page 129


 5967 100d 00       		.byte	0
 5968 100e 08       		.uleb128 0x8
 5969 100f 1A000000 		.4byte	.LVL329
 5970 1013 52200000 		.4byte	0x2052
 5971 1017 0C       		.uleb128 0xc
 5972 1018 34000000 		.4byte	.LVL334
 5973 101c E71E0000 		.4byte	0x1ee7
 5974 1020 2A100000 		.4byte	0x102a
 5975 1024 0A       		.uleb128 0xa
 5976 1025 01       		.uleb128 0x1
 5977 1026 50       		.byte	0x50
 5978 1027 01       		.uleb128 0x1
 5979 1028 44       		.byte	0x44
 5980 1029 00       		.byte	0
 5981 102a 0C       		.uleb128 0xc
 5982 102b 6C000000 		.4byte	.LVL340
 5983 102f 5D200000 		.4byte	0x205d
 5984 1033 4C100000 		.4byte	0x104c
 5985 1037 0A       		.uleb128 0xa
 5986 1038 06       		.uleb128 0x6
 5987 1039 52       		.byte	0x52
 5988 103a 93       		.byte	0x93
 5989 103b 04       		.uleb128 0x4
 5990 103c 53       		.byte	0x53
 5991 103d 93       		.byte	0x93
 5992 103e 04       		.uleb128 0x4
 5993 103f 0B       		.uleb128 0xb
 5994 1040 F4       		.byte	0xf4
 5995 1041 25       		.uleb128 0x25
 5996 1042 08       		.byte	0x8
 5997 1043 1A578E1A 		.4byte	0x1a8e571a
 5998 1047 578EEABF 		.4byte	0xbfea8e57
 5999 104b 00       		.byte	0
 6000 104c 0C       		.uleb128 0xc
 6001 104d 78000000 		.4byte	.LVL344
 6002 1051 E71E0000 		.4byte	0x1ee7
 6003 1055 60100000 		.4byte	0x1060
 6004 1059 0A       		.uleb128 0xa
 6005 105a 01       		.uleb128 0x1
 6006 105b 50       		.byte	0x50
 6007 105c 02       		.uleb128 0x2
 6008 105d 08       		.byte	0x8
 6009 105e C8       		.byte	0xc8
 6010 105f 00       		.byte	0
 6011 1060 0C       		.uleb128 0xc
 6012 1061 86000000 		.4byte	.LVL346
 6013 1065 9A1E0000 		.4byte	0x1e9a
 6014 1069 7D100000 		.4byte	0x107d
 6015 106d 0A       		.uleb128 0xa
 6016 106e 01       		.uleb128 0x1
 6017 106f 50       		.byte	0x50
 6018 1070 02       		.uleb128 0x2
 6019 1071 74       		.byte	0x74
 6020 1072 00       		.sleb128 0
 6021 1073 0A       		.uleb128 0xa
 6022 1074 01       		.uleb128 0x1
 6023 1075 51       		.byte	0x51
ARM GAS  C:\Users\weiro\AppData\Local\Temp\ccK6dLS7.s 			page 130


 6024 1076 05       		.uleb128 0x5
 6025 1077 03       		.byte	0x3
 6026 1078 68000000 		.4byte	.LC7
 6027 107c 00       		.byte	0
 6028 107d 0C       		.uleb128 0xc
 6029 107e 8C000000 		.4byte	.LVL347
 6030 1082 FD1E0000 		.4byte	0x1efd
 6031 1086 91100000 		.4byte	0x1091
 6032 108a 0A       		.uleb128 0xa
 6033 108b 01       		.uleb128 0x1
 6034 108c 50       		.byte	0x50
 6035 108d 02       		.uleb128 0x2
 6036 108e 74       		.byte	0x74
 6037 108f 00       		.sleb128 0
 6038 1090 00       		.byte	0
 6039 1091 0C       		.uleb128 0xc
 6040 1092 9E000000 		.4byte	.LVL349
 6041 1096 9A1E0000 		.4byte	0x1e9a
 6042 109a AE100000 		.4byte	0x10ae
 6043 109e 0A       		.uleb128 0xa
 6044 109f 01       		.uleb128 0x1
 6045 10a0 50       		.byte	0x50
 6046 10a1 02       		.uleb128 0x2
 6047 10a2 74       		.byte	0x74
 6048 10a3 00       		.sleb128 0
 6049 10a4 0A       		.uleb128 0xa
 6050 10a5 01       		.uleb128 0x1
 6051 10a6 51       		.byte	0x51
 6052 10a7 05       		.uleb128 0x5
 6053 10a8 03       		.byte	0x3
 6054 10a9 78000000 		.4byte	.LC8
 6055 10ad 00       		.byte	0
 6056 10ae 09       		.uleb128 0x9
 6057 10af A4000000 		.4byte	.LVL350
 6058 10b3 FD1E0000 		.4byte	0x1efd
 6059 10b7 0A       		.uleb128 0xa
 6060 10b8 01       		.uleb128 0x1
 6061 10b9 50       		.byte	0x50
 6062 10ba 02       		.uleb128 0x2
 6063 10bb 74       		.byte	0x74
 6064 10bc 00       		.sleb128 0
 6065 10bd 00       		.byte	0
 6066 10be 00       		.byte	0
 6067 10bf 17       		.uleb128 0x17
 6068 10c0 620A0000 		.4byte	.LASF187
 6069 10c4 01       		.byte	0x1
 6070 10c5 6703     		.2byte	0x367
 6071 10c7 6F000000 		.4byte	0x6f
 6072 10cb 00000000 		.4byte	.LFB86
 6073 10cf 58060000 		.4byte	.LFE86-.LFB86
 6074 10d3 01       		.uleb128 0x1
 6075 10d4 9C       		.byte	0x9c
 6076 10d5 91190000 		.4byte	0x1991
 6077 10d9 10       		.uleb128 0x10
 6078 10da 00080000 		.4byte	.LASF31
 6079 10de 01       		.byte	0x1
 6080 10df 8503     		.2byte	0x385
ARM GAS  C:\Users\weiro\AppData\Local\Temp\ccK6dLS7.s 			page 131


 6081 10e1 6F000000 		.4byte	0x6f
 6082 10e5 4D050000 		.4byte	.LLST24
 6083 10e9 10       		.uleb128 0x10
 6084 10ea F1050000 		.4byte	.LASF44
 6085 10ee 01       		.byte	0x1
 6086 10ef 8603     		.2byte	0x386
 6087 10f1 6F000000 		.4byte	0x6f
 6088 10f5 CD050000 		.4byte	.LLST25
 6089 10f9 10       		.uleb128 0x10
 6090 10fa E9060000 		.4byte	.LASF49
 6091 10fe 01       		.byte	0x1
 6092 10ff 8903     		.2byte	0x389
 6093 1101 25000000 		.4byte	0x25
 6094 1105 3E060000 		.4byte	.LLST26
 6095 1109 18       		.uleb128 0x18
 6096 110a BA020000 		.4byte	.LBB6
 6097 110e 44000000 		.4byte	.LBE6-.LBB6
 6098 1112 A2110000 		.4byte	0x11a2
 6099 1116 10       		.uleb128 0x10
 6100 1117 00080000 		.4byte	.LASF31
 6101 111b 01       		.byte	0x1
 6102 111c F403     		.2byte	0x3f4
 6103 111e 6F000000 		.4byte	0x6f
 6104 1122 FA060000 		.4byte	.LLST27
 6105 1126 10       		.uleb128 0x10
 6106 1127 E9060000 		.4byte	.LASF49
 6107 112b 01       		.byte	0x1
 6108 112c F503     		.2byte	0x3f5
 6109 112e 6F000000 		.4byte	0x6f
 6110 1132 0E070000 		.4byte	.LLST28
 6111 1136 0C       		.uleb128 0xc
 6112 1137 C2020000 		.4byte	.LVL431
 6113 113b 07050000 		.4byte	0x507
 6114 113f 4E110000 		.4byte	0x114e
 6115 1143 0A       		.uleb128 0xa
 6116 1144 01       		.uleb128 0x1
 6117 1145 50       		.byte	0x50
 6118 1146 01       		.uleb128 0x1
 6119 1147 32       		.byte	0x32
 6120 1148 0A       		.uleb128 0xa
 6121 1149 01       		.uleb128 0x1
 6122 114a 51       		.byte	0x51
 6123 114b 01       		.uleb128 0x1
 6124 114c 30       		.byte	0x30
 6125 114d 00       		.byte	0
 6126 114e 0C       		.uleb128 0xc
 6127 114f CA020000 		.4byte	.LVL432
 6128 1153 E71E0000 		.4byte	0x1ee7
 6129 1157 63110000 		.4byte	0x1163
 6130 115b 0A       		.uleb128 0xa
 6131 115c 01       		.uleb128 0x1
 6132 115d 50       		.byte	0x50
 6133 115e 03       		.uleb128 0x3
 6134 115f 0A       		.byte	0xa
 6135 1160 F401     		.2byte	0x1f4
 6136 1162 00       		.byte	0
 6137 1163 08       		.uleb128 0x8
ARM GAS  C:\Users\weiro\AppData\Local\Temp\ccK6dLS7.s 			page 132


 6138 1164 CE020000 		.4byte	.LVL433
 6139 1168 2E0A0000 		.4byte	0xa2e
 6140 116c 0C       		.uleb128 0xc
 6141 116d DE020000 		.4byte	.LVL434
 6142 1171 10200000 		.4byte	0x2010
 6143 1175 7F110000 		.4byte	0x117f
 6144 1179 0A       		.uleb128 0xa
 6145 117a 01       		.uleb128 0x1
 6146 117b 50       		.byte	0x50
 6147 117c 01       		.uleb128 0x1
 6148 117d 31       		.byte	0x31
 6149 117e 00       		.byte	0
 6150 117f 0C       		.uleb128 0xc
 6151 1180 EA020000 		.4byte	.LVL435
 6152 1184 1B200000 		.4byte	0x201b
 6153 1188 92110000 		.4byte	0x1192
 6154 118c 0A       		.uleb128 0xa
 6155 118d 01       		.uleb128 0x1
 6156 118e 50       		.byte	0x50
 6157 118f 01       		.uleb128 0x1
 6158 1190 31       		.byte	0x31
 6159 1191 00       		.byte	0
 6160 1192 09       		.uleb128 0x9
 6161 1193 F6020000 		.4byte	.LVL436
 6162 1197 26200000 		.4byte	0x2026
 6163 119b 0A       		.uleb128 0xa
 6164 119c 01       		.uleb128 0x1
 6165 119d 50       		.byte	0x50
 6166 119e 01       		.uleb128 0x1
 6167 119f 31       		.byte	0x31
 6168 11a0 00       		.byte	0
 6169 11a1 00       		.byte	0
 6170 11a2 0C       		.uleb128 0xc
 6171 11a3 84000000 		.4byte	.LVL358
 6172 11a7 68200000 		.4byte	0x2068
 6173 11ab B9110000 		.4byte	0x11b9
 6174 11af 0A       		.uleb128 0xa
 6175 11b0 01       		.uleb128 0x1
 6176 11b1 50       		.byte	0x50
 6177 11b2 05       		.uleb128 0x5
 6178 11b3 03       		.byte	0x3
 6179 11b4 00000000 		.4byte	Speed_Control
 6180 11b8 00       		.byte	0
 6181 11b9 0C       		.uleb128 0xc
 6182 11ba 8A000000 		.4byte	.LVL359
 6183 11be 73200000 		.4byte	0x2073
 6184 11c2 D0110000 		.4byte	0x11d0
 6185 11c6 0A       		.uleb128 0xa
 6186 11c7 01       		.uleb128 0x1
 6187 11c8 50       		.byte	0x50
 6188 11c9 05       		.uleb128 0x5
 6189 11ca 03       		.byte	0x3
 6190 11cb 00000000 		.4byte	Color_sensing
 6191 11cf 00       		.byte	0
 6192 11d0 08       		.uleb128 0x8
 6193 11d1 8E000000 		.4byte	.LVL360
 6194 11d5 7E200000 		.4byte	0x207e
ARM GAS  C:\Users\weiro\AppData\Local\Temp\ccK6dLS7.s 			page 133


 6195 11d9 0C       		.uleb128 0xc
 6196 11da 94000000 		.4byte	.LVL361
 6197 11de 89200000 		.4byte	0x2089
 6198 11e2 F0110000 		.4byte	0x11f0
 6199 11e6 0A       		.uleb128 0xa
 6200 11e7 01       		.uleb128 0x1
 6201 11e8 50       		.byte	0x50
 6202 11e9 05       		.uleb128 0x5
 6203 11ea 03       		.byte	0x3
 6204 11eb 00000000 		.4byte	ultrasonic_echo
 6205 11ef 00       		.byte	0
 6206 11f0 08       		.uleb128 0x8
 6207 11f1 98000000 		.4byte	.LVL362
 6208 11f5 94200000 		.4byte	0x2094
 6209 11f9 0C       		.uleb128 0xc
 6210 11fa 9E000000 		.4byte	.LVL363
 6211 11fe 9F200000 		.4byte	0x209f
 6212 1202 10120000 		.4byte	0x1210
 6213 1206 0A       		.uleb128 0xa
 6214 1207 01       		.uleb128 0x1
 6215 1208 50       		.byte	0x50
 6216 1209 05       		.uleb128 0x5
 6217 120a 03       		.byte	0x3
 6218 120b 00000000 		.4byte	Bluetooth
 6219 120f 00       		.byte	0
 6220 1210 0C       		.uleb128 0xc
 6221 1211 A4000000 		.4byte	.LVL364
 6222 1215 31200000 		.4byte	0x2031
 6223 1219 23120000 		.4byte	0x1223
 6224 121d 0A       		.uleb128 0xa
 6225 121e 01       		.uleb128 0x1
 6226 121f 50       		.byte	0x50
 6227 1220 01       		.uleb128 0x1
 6228 1221 30       		.byte	0x30
 6229 1222 00       		.byte	0
 6230 1223 08       		.uleb128 0x8
 6231 1224 A8000000 		.4byte	.LVL365
 6232 1228 AA200000 		.4byte	0x20aa
 6233 122c 08       		.uleb128 0x8
 6234 122d AC000000 		.4byte	.LVL366
 6235 1231 B5200000 		.4byte	0x20b5
 6236 1235 08       		.uleb128 0x8
 6237 1236 B0000000 		.4byte	.LVL367
 6238 123a C0200000 		.4byte	0x20c0
 6239 123e 08       		.uleb128 0x8
 6240 123f B4000000 		.4byte	.LVL368
 6241 1243 CB200000 		.4byte	0x20cb
 6242 1247 0C       		.uleb128 0xc
 6243 1248 BA000000 		.4byte	.LVL369
 6244 124c 341F0000 		.4byte	0x1f34
 6245 1250 5A120000 		.4byte	0x125a
 6246 1254 0A       		.uleb128 0xa
 6247 1255 01       		.uleb128 0x1
 6248 1256 50       		.byte	0x50
 6249 1257 01       		.uleb128 0x1
 6250 1258 30       		.byte	0x30
 6251 1259 00       		.byte	0
ARM GAS  C:\Users\weiro\AppData\Local\Temp\ccK6dLS7.s 			page 134


 6252 125a 08       		.uleb128 0x8
 6253 125b BE000000 		.4byte	.LVL370
 6254 125f D6200000 		.4byte	0x20d6
 6255 1263 0C       		.uleb128 0xc
 6256 1264 C4000000 		.4byte	.LVL371
 6257 1268 3F1F0000 		.4byte	0x1f3f
 6258 126c 76120000 		.4byte	0x1276
 6259 1270 0A       		.uleb128 0xa
 6260 1271 01       		.uleb128 0x1
 6261 1272 50       		.byte	0x50
 6262 1273 01       		.uleb128 0x1
 6263 1274 30       		.byte	0x30
 6264 1275 00       		.byte	0
 6265 1276 08       		.uleb128 0x8
 6266 1277 C8000000 		.4byte	.LVL372
 6267 127b E1200000 		.4byte	0x20e1
 6268 127f 0C       		.uleb128 0xc
 6269 1280 CE000000 		.4byte	.LVL373
 6270 1284 C31F0000 		.4byte	0x1fc3
 6271 1288 92120000 		.4byte	0x1292
 6272 128c 0A       		.uleb128 0xa
 6273 128d 01       		.uleb128 0x1
 6274 128e 50       		.byte	0x50
 6275 128f 01       		.uleb128 0x1
 6276 1290 30       		.byte	0x30
 6277 1291 00       		.byte	0
 6278 1292 08       		.uleb128 0x8
 6279 1293 D2000000 		.4byte	.LVL374
 6280 1297 EC200000 		.4byte	0x20ec
 6281 129b 08       		.uleb128 0x8
 6282 129c D6000000 		.4byte	.LVL375
 6283 12a0 F7200000 		.4byte	0x20f7
 6284 12a4 0C       		.uleb128 0xc
 6285 12a5 DC000000 		.4byte	.LVL376
 6286 12a9 02210000 		.4byte	0x2102
 6287 12ad BB120000 		.4byte	0x12bb
 6288 12b1 0A       		.uleb128 0xa
 6289 12b2 01       		.uleb128 0x1
 6290 12b3 50       		.byte	0x50
 6291 12b4 05       		.uleb128 0x5
 6292 12b5 03       		.byte	0x3
 6293 12b6 00000000 		.4byte	Gyroscope
 6294 12ba 00       		.byte	0
 6295 12bb 08       		.uleb128 0x8
 6296 12bc E0000000 		.4byte	.LVL377
 6297 12c0 B60D0000 		.4byte	0xdb6
 6298 12c4 08       		.uleb128 0x8
 6299 12c5 EE000000 		.4byte	.LVL379
 6300 12c9 A21F0000 		.4byte	0x1fa2
 6301 12cd 08       		.uleb128 0x8
 6302 12ce FC000000 		.4byte	.LVL381
 6303 12d2 791E0000 		.4byte	0x1e79
 6304 12d6 0C       		.uleb128 0xc
 6305 12d7 0C010000 		.4byte	.LVL382
 6306 12db 0D210000 		.4byte	0x210d
 6307 12df F6120000 		.4byte	0x12f6
 6308 12e3 0A       		.uleb128 0xa
ARM GAS  C:\Users\weiro\AppData\Local\Temp\ccK6dLS7.s 			page 135


 6309 12e4 01       		.uleb128 0x1
 6310 12e5 50       		.byte	0x50
 6311 12e6 05       		.uleb128 0x5
 6312 12e7 03       		.byte	0x3
 6313 12e8 00000000 		.4byte	string_bt
 6314 12ec 0A       		.uleb128 0xa
 6315 12ed 01       		.uleb128 0x1
 6316 12ee 51       		.byte	0x51
 6317 12ef 05       		.uleb128 0x5
 6318 12f0 03       		.byte	0x3
 6319 12f1 88000000 		.4byte	.LC9
 6320 12f5 00       		.byte	0
 6321 12f6 0C       		.uleb128 0xc
 6322 12f7 14010000 		.4byte	.LVL383
 6323 12fb FD1E0000 		.4byte	0x1efd
 6324 12ff 0D130000 		.4byte	0x130d
 6325 1303 0A       		.uleb128 0xa
 6326 1304 01       		.uleb128 0x1
 6327 1305 50       		.byte	0x50
 6328 1306 05       		.uleb128 0x5
 6329 1307 03       		.byte	0x3
 6330 1308 98000000 		.4byte	.LC10
 6331 130c 00       		.byte	0
 6332 130d 0C       		.uleb128 0xc
 6333 130e 1E010000 		.4byte	.LVL384
 6334 1312 0D210000 		.4byte	0x210d
 6335 1316 2D130000 		.4byte	0x132d
 6336 131a 0A       		.uleb128 0xa
 6337 131b 01       		.uleb128 0x1
 6338 131c 50       		.byte	0x50
 6339 131d 05       		.uleb128 0x5
 6340 131e 03       		.byte	0x3
 6341 131f 00000000 		.4byte	string_bt
 6342 1323 0A       		.uleb128 0xa
 6343 1324 01       		.uleb128 0x1
 6344 1325 51       		.byte	0x51
 6345 1326 05       		.uleb128 0x5
 6346 1327 03       		.byte	0x3
 6347 1328 A4000000 		.4byte	.LC11
 6348 132c 00       		.byte	0
 6349 132d 0C       		.uleb128 0xc
 6350 132e 2C010000 		.4byte	.LVL385
 6351 1332 E71E0000 		.4byte	0x1ee7
 6352 1336 42130000 		.4byte	0x1342
 6353 133a 0A       		.uleb128 0xa
 6354 133b 01       		.uleb128 0x1
 6355 133c 50       		.byte	0x50
 6356 133d 03       		.uleb128 0x3
 6357 133e 0A       		.byte	0xa
 6358 133f E803     		.2byte	0x3e8
 6359 1341 00       		.byte	0
 6360 1342 0C       		.uleb128 0xc
 6361 1343 34010000 		.4byte	.LVL386
 6362 1347 07050000 		.4byte	0x507
 6363 134b 5A130000 		.4byte	0x135a
 6364 134f 0A       		.uleb128 0xa
 6365 1350 01       		.uleb128 0x1
ARM GAS  C:\Users\weiro\AppData\Local\Temp\ccK6dLS7.s 			page 136


 6366 1351 50       		.byte	0x50
 6367 1352 01       		.uleb128 0x1
 6368 1353 3F       		.byte	0x3f
 6369 1354 0A       		.uleb128 0xa
 6370 1355 01       		.uleb128 0x1
 6371 1356 51       		.byte	0x51
 6372 1357 01       		.uleb128 0x1
 6373 1358 31       		.byte	0x31
 6374 1359 00       		.byte	0
 6375 135a 0C       		.uleb128 0xc
 6376 135b 3C010000 		.4byte	.LVL387
 6377 135f E71E0000 		.4byte	0x1ee7
 6378 1363 6F130000 		.4byte	0x136f
 6379 1367 0A       		.uleb128 0xa
 6380 1368 01       		.uleb128 0x1
 6381 1369 50       		.byte	0x50
 6382 136a 03       		.uleb128 0x3
 6383 136b 0A       		.byte	0xa
 6384 136c F401     		.2byte	0x1f4
 6385 136e 00       		.byte	0
 6386 136f 0C       		.uleb128 0xc
 6387 1370 4C010000 		.4byte	.LVL389
 6388 1374 87090000 		.4byte	0x987
 6389 1378 82130000 		.4byte	0x1382
 6390 137c 0A       		.uleb128 0xa
 6391 137d 01       		.uleb128 0x1
 6392 137e 51       		.byte	0x51
 6393 137f 01       		.uleb128 0x1
 6394 1380 30       		.byte	0x30
 6395 1381 00       		.byte	0
 6396 1382 0C       		.uleb128 0xc
 6397 1383 54010000 		.4byte	.LVL390
 6398 1387 E71E0000 		.4byte	0x1ee7
 6399 138b 97130000 		.4byte	0x1397
 6400 138f 0A       		.uleb128 0xa
 6401 1390 01       		.uleb128 0x1
 6402 1391 50       		.byte	0x50
 6403 1392 03       		.uleb128 0x3
 6404 1393 0A       		.byte	0xa
 6405 1394 F401     		.2byte	0x1f4
 6406 1396 00       		.byte	0
 6407 1397 0C       		.uleb128 0xc
 6408 1398 62010000 		.4byte	.LVL392
 6409 139c 87090000 		.4byte	0x987
 6410 13a0 AA130000 		.4byte	0x13aa
 6411 13a4 0A       		.uleb128 0xa
 6412 13a5 01       		.uleb128 0x1
 6413 13a6 51       		.byte	0x51
 6414 13a7 01       		.uleb128 0x1
 6415 13a8 30       		.byte	0x30
 6416 13a9 00       		.byte	0
 6417 13aa 0C       		.uleb128 0xc
 6418 13ab 6A010000 		.4byte	.LVL393
 6419 13af E71E0000 		.4byte	0x1ee7
 6420 13b3 BF130000 		.4byte	0x13bf
 6421 13b7 0A       		.uleb128 0xa
 6422 13b8 01       		.uleb128 0x1
ARM GAS  C:\Users\weiro\AppData\Local\Temp\ccK6dLS7.s 			page 137


 6423 13b9 50       		.byte	0x50
 6424 13ba 03       		.uleb128 0x3
 6425 13bb 0A       		.byte	0xa
 6426 13bc F401     		.2byte	0x1f4
 6427 13be 00       		.byte	0
 6428 13bf 0C       		.uleb128 0xc
 6429 13c0 78010000 		.4byte	.LVL395
 6430 13c4 87090000 		.4byte	0x987
 6431 13c8 D2130000 		.4byte	0x13d2
 6432 13cc 0A       		.uleb128 0xa
 6433 13cd 01       		.uleb128 0x1
 6434 13ce 51       		.byte	0x51
 6435 13cf 01       		.uleb128 0x1
 6436 13d0 30       		.byte	0x30
 6437 13d1 00       		.byte	0
 6438 13d2 0C       		.uleb128 0xc
 6439 13d3 80010000 		.4byte	.LVL396
 6440 13d7 E71E0000 		.4byte	0x1ee7
 6441 13db E7130000 		.4byte	0x13e7
 6442 13df 0A       		.uleb128 0xa
 6443 13e0 01       		.uleb128 0x1
 6444 13e1 50       		.byte	0x50
 6445 13e2 03       		.uleb128 0x3
 6446 13e3 0A       		.byte	0xa
 6447 13e4 F401     		.2byte	0x1f4
 6448 13e6 00       		.byte	0
 6449 13e7 0C       		.uleb128 0xc
 6450 13e8 8E010000 		.4byte	.LVL398
 6451 13ec 87090000 		.4byte	0x987
 6452 13f0 FA130000 		.4byte	0x13fa
 6453 13f4 0A       		.uleb128 0xa
 6454 13f5 01       		.uleb128 0x1
 6455 13f6 51       		.byte	0x51
 6456 13f7 01       		.uleb128 0x1
 6457 13f8 30       		.byte	0x30
 6458 13f9 00       		.byte	0
 6459 13fa 0C       		.uleb128 0xc
 6460 13fb 96010000 		.4byte	.LVL399
 6461 13ff E71E0000 		.4byte	0x1ee7
 6462 1403 0F140000 		.4byte	0x140f
 6463 1407 0A       		.uleb128 0xa
 6464 1408 01       		.uleb128 0x1
 6465 1409 50       		.byte	0x50
 6466 140a 03       		.uleb128 0x3
 6467 140b 0A       		.byte	0xa
 6468 140c F401     		.2byte	0x1f4
 6469 140e 00       		.byte	0
 6470 140f 0C       		.uleb128 0xc
 6471 1410 A4010000 		.4byte	.LVL401
 6472 1414 87090000 		.4byte	0x987
 6473 1418 22140000 		.4byte	0x1422
 6474 141c 0A       		.uleb128 0xa
 6475 141d 01       		.uleb128 0x1
 6476 141e 51       		.byte	0x51
 6477 141f 01       		.uleb128 0x1
 6478 1420 31       		.byte	0x31
 6479 1421 00       		.byte	0
ARM GAS  C:\Users\weiro\AppData\Local\Temp\ccK6dLS7.s 			page 138


 6480 1422 0C       		.uleb128 0xc
 6481 1423 AC010000 		.4byte	.LVL402
 6482 1427 E71E0000 		.4byte	0x1ee7
 6483 142b 37140000 		.4byte	0x1437
 6484 142f 0A       		.uleb128 0xa
 6485 1430 01       		.uleb128 0x1
 6486 1431 50       		.byte	0x50
 6487 1432 03       		.uleb128 0x3
 6488 1433 0A       		.byte	0xa
 6489 1434 F401     		.2byte	0x1f4
 6490 1436 00       		.byte	0
 6491 1437 0C       		.uleb128 0xc
 6492 1438 B6010000 		.4byte	.LVL404
 6493 143c 07050000 		.4byte	0x507
 6494 1440 50140000 		.4byte	0x1450
 6495 1444 0A       		.uleb128 0xa
 6496 1445 01       		.uleb128 0x1
 6497 1446 50       		.byte	0x50
 6498 1447 02       		.uleb128 0x2
 6499 1448 08       		.byte	0x8
 6500 1449 32       		.byte	0x32
 6501 144a 0A       		.uleb128 0xa
 6502 144b 01       		.uleb128 0x1
 6503 144c 51       		.byte	0x51
 6504 144d 01       		.uleb128 0x1
 6505 144e 31       		.byte	0x31
 6506 144f 00       		.byte	0
 6507 1450 0C       		.uleb128 0xc
 6508 1451 C6010000 		.4byte	.LVL406
 6509 1455 87090000 		.4byte	0x987
 6510 1459 63140000 		.4byte	0x1463
 6511 145d 0A       		.uleb128 0xa
 6512 145e 01       		.uleb128 0x1
 6513 145f 51       		.byte	0x51
 6514 1460 01       		.uleb128 0x1
 6515 1461 30       		.byte	0x30
 6516 1462 00       		.byte	0
 6517 1463 08       		.uleb128 0x8
 6518 1464 CA010000 		.4byte	.LVL407
 6519 1468 B6050000 		.4byte	0x5b6
 6520 146c 0C       		.uleb128 0xc
 6521 146d D8010000 		.4byte	.LVL409
 6522 1471 87090000 		.4byte	0x987
 6523 1475 7F140000 		.4byte	0x147f
 6524 1479 0A       		.uleb128 0xa
 6525 147a 01       		.uleb128 0x1
 6526 147b 51       		.byte	0x51
 6527 147c 01       		.uleb128 0x1
 6528 147d 31       		.byte	0x31
 6529 147e 00       		.byte	0
 6530 147f 0C       		.uleb128 0xc
 6531 1480 F6010000 		.4byte	.LVL411
 6532 1484 E71E0000 		.4byte	0x1ee7
 6533 1488 94140000 		.4byte	0x1494
 6534 148c 0A       		.uleb128 0xa
 6535 148d 01       		.uleb128 0x1
 6536 148e 50       		.byte	0x50
ARM GAS  C:\Users\weiro\AppData\Local\Temp\ccK6dLS7.s 			page 139


 6537 148f 03       		.uleb128 0x3
 6538 1490 0A       		.byte	0xa
 6539 1491 F401     		.2byte	0x1f4
 6540 1493 00       		.byte	0
 6541 1494 08       		.uleb128 0x8
 6542 1495 FC010000 		.4byte	.LVL412
 6543 1499 B6050000 		.4byte	0x5b6
 6544 149d 0C       		.uleb128 0xc
 6545 149e 04020000 		.4byte	.LVL413
 6546 14a2 E71E0000 		.4byte	0x1ee7
 6547 14a6 B2140000 		.4byte	0x14b2
 6548 14aa 0A       		.uleb128 0xa
 6549 14ab 01       		.uleb128 0x1
 6550 14ac 50       		.byte	0x50
 6551 14ad 03       		.uleb128 0x3
 6552 14ae 0A       		.byte	0xa
 6553 14af F401     		.2byte	0x1f4
 6554 14b1 00       		.byte	0
 6555 14b2 0C       		.uleb128 0xc
 6556 14b3 14020000 		.4byte	.LVL415
 6557 14b7 87090000 		.4byte	0x987
 6558 14bb C5140000 		.4byte	0x14c5
 6559 14bf 0A       		.uleb128 0xa
 6560 14c0 01       		.uleb128 0x1
 6561 14c1 51       		.byte	0x51
 6562 14c2 01       		.uleb128 0x1
 6563 14c3 31       		.byte	0x31
 6564 14c4 00       		.byte	0
 6565 14c5 0C       		.uleb128 0xc
 6566 14c6 2C020000 		.4byte	.LVL417
 6567 14ca E71E0000 		.4byte	0x1ee7
 6568 14ce DA140000 		.4byte	0x14da
 6569 14d2 0A       		.uleb128 0xa
 6570 14d3 01       		.uleb128 0x1
 6571 14d4 50       		.byte	0x50
 6572 14d5 03       		.uleb128 0x3
 6573 14d6 0A       		.byte	0xa
 6574 14d7 E803     		.2byte	0x3e8
 6575 14d9 00       		.byte	0
 6576 14da 08       		.uleb128 0x8
 6577 14db 32020000 		.4byte	.LVL418
 6578 14df 99060000 		.4byte	0x699
 6579 14e3 0C       		.uleb128 0xc
 6580 14e4 48020000 		.4byte	.LVL419
 6581 14e8 FD1E0000 		.4byte	0x1efd
 6582 14ec FA140000 		.4byte	0x14fa
 6583 14f0 0A       		.uleb128 0xa
 6584 14f1 01       		.uleb128 0x1
 6585 14f2 50       		.byte	0x50
 6586 14f3 05       		.uleb128 0x5
 6587 14f4 03       		.byte	0x3
 6588 14f5 00000000 		.4byte	string_1
 6589 14f9 00       		.byte	0
 6590 14fa 0C       		.uleb128 0xc
 6591 14fb 50020000 		.4byte	.LVL420
 6592 14ff E71E0000 		.4byte	0x1ee7
 6593 1503 0F150000 		.4byte	0x150f
ARM GAS  C:\Users\weiro\AppData\Local\Temp\ccK6dLS7.s 			page 140


 6594 1507 0A       		.uleb128 0xa
 6595 1508 01       		.uleb128 0x1
 6596 1509 50       		.byte	0x50
 6597 150a 03       		.uleb128 0x3
 6598 150b 0A       		.byte	0xa
 6599 150c F401     		.2byte	0x1f4
 6600 150e 00       		.byte	0
 6601 150f 0C       		.uleb128 0xc
 6602 1510 68020000 		.4byte	.LVL421
 6603 1514 E71E0000 		.4byte	0x1ee7
 6604 1518 24150000 		.4byte	0x1524
 6605 151c 0A       		.uleb128 0xa
 6606 151d 01       		.uleb128 0x1
 6607 151e 50       		.byte	0x50
 6608 151f 03       		.uleb128 0x3
 6609 1520 0A       		.byte	0xa
 6610 1521 F401     		.2byte	0x1f4
 6611 1523 00       		.byte	0
 6612 1524 0C       		.uleb128 0xc
 6613 1525 72020000 		.4byte	.LVL423
 6614 1529 07050000 		.4byte	0x507
 6615 152d 3C150000 		.4byte	0x153c
 6616 1531 0A       		.uleb128 0xa
 6617 1532 01       		.uleb128 0x1
 6618 1533 50       		.byte	0x50
 6619 1534 01       		.uleb128 0x1
 6620 1535 38       		.byte	0x38
 6621 1536 0A       		.uleb128 0xa
 6622 1537 01       		.uleb128 0x1
 6623 1538 51       		.byte	0x51
 6624 1539 01       		.uleb128 0x1
 6625 153a 31       		.byte	0x31
 6626 153b 00       		.byte	0
 6627 153c 0C       		.uleb128 0xc
 6628 153d 82020000 		.4byte	.LVL425
 6629 1541 87090000 		.4byte	0x987
 6630 1545 4F150000 		.4byte	0x154f
 6631 1549 0A       		.uleb128 0xa
 6632 154a 01       		.uleb128 0x1
 6633 154b 51       		.byte	0x51
 6634 154c 01       		.uleb128 0x1
 6635 154d 30       		.byte	0x30
 6636 154e 00       		.byte	0
 6637 154f 0C       		.uleb128 0xc
 6638 1550 9A020000 		.4byte	.LVL427
 6639 1554 E71E0000 		.4byte	0x1ee7
 6640 1558 64150000 		.4byte	0x1564
 6641 155c 0A       		.uleb128 0xa
 6642 155d 01       		.uleb128 0x1
 6643 155e 50       		.byte	0x50
 6644 155f 03       		.uleb128 0x3
 6645 1560 0A       		.byte	0xa
 6646 1561 F401     		.2byte	0x1f4
 6647 1563 00       		.byte	0
 6648 1564 08       		.uleb128 0x8
 6649 1565 A0020000 		.4byte	.LVL428
 6650 1569 A3070000 		.4byte	0x7a3
ARM GAS  C:\Users\weiro\AppData\Local\Temp\ccK6dLS7.s 			page 141


 6651 156d 0C       		.uleb128 0xc
 6652 156e B8020000 		.4byte	.LVL429
 6653 1572 E71E0000 		.4byte	0x1ee7
 6654 1576 82150000 		.4byte	0x1582
 6655 157a 0A       		.uleb128 0xa
 6656 157b 01       		.uleb128 0x1
 6657 157c 50       		.byte	0x50
 6658 157d 03       		.uleb128 0x3
 6659 157e 0A       		.byte	0xa
 6660 157f F401     		.2byte	0x1f4
 6661 1581 00       		.byte	0
 6662 1582 0C       		.uleb128 0xc
 6663 1583 0E030000 		.4byte	.LVL438
 6664 1587 E71E0000 		.4byte	0x1ee7
 6665 158b 97150000 		.4byte	0x1597
 6666 158f 0A       		.uleb128 0xa
 6667 1590 01       		.uleb128 0x1
 6668 1591 50       		.byte	0x50
 6669 1592 03       		.uleb128 0x3
 6670 1593 0A       		.byte	0xa
 6671 1594 F401     		.2byte	0x1f4
 6672 1596 00       		.byte	0
 6673 1597 0C       		.uleb128 0xc
 6674 1598 5C030000 		.4byte	.LVL440
 6675 159c 07050000 		.4byte	0x507
 6676 15a0 AF150000 		.4byte	0x15af
 6677 15a4 0A       		.uleb128 0xa
 6678 15a5 01       		.uleb128 0x1
 6679 15a6 50       		.byte	0x50
 6680 15a7 01       		.uleb128 0x1
 6681 15a8 42       		.byte	0x42
 6682 15a9 0A       		.uleb128 0xa
 6683 15aa 01       		.uleb128 0x1
 6684 15ab 51       		.byte	0x51
 6685 15ac 01       		.uleb128 0x1
 6686 15ad 31       		.byte	0x31
 6687 15ae 00       		.byte	0
 6688 15af 08       		.uleb128 0x8
 6689 15b0 66030000 		.4byte	.LVL441
 6690 15b4 18210000 		.4byte	0x2118
 6691 15b8 0C       		.uleb128 0xc
 6692 15b9 6E030000 		.4byte	.LVL442
 6693 15bd E71E0000 		.4byte	0x1ee7
 6694 15c1 CD150000 		.4byte	0x15cd
 6695 15c5 0A       		.uleb128 0xa
 6696 15c6 01       		.uleb128 0x1
 6697 15c7 50       		.byte	0x50
 6698 15c8 03       		.uleb128 0x3
 6699 15c9 0A       		.byte	0xa
 6700 15ca F401     		.2byte	0x1f4
 6701 15cc 00       		.byte	0
 6702 15cd 08       		.uleb128 0x8
 6703 15ce 76030000 		.4byte	.LVL443
 6704 15d2 23210000 		.4byte	0x2123
 6705 15d6 0C       		.uleb128 0xc
 6706 15d7 7E030000 		.4byte	.LVL444
 6707 15db E71E0000 		.4byte	0x1ee7
ARM GAS  C:\Users\weiro\AppData\Local\Temp\ccK6dLS7.s 			page 142


 6708 15df EB150000 		.4byte	0x15eb
 6709 15e3 0A       		.uleb128 0xa
 6710 15e4 01       		.uleb128 0x1
 6711 15e5 50       		.byte	0x50
 6712 15e6 03       		.uleb128 0x3
 6713 15e7 0A       		.byte	0xa
 6714 15e8 F401     		.2byte	0x1f4
 6715 15ea 00       		.byte	0
 6716 15eb 08       		.uleb128 0x8
 6717 15ec 86030000 		.4byte	.LVL445
 6718 15f0 18210000 		.4byte	0x2118
 6719 15f4 0C       		.uleb128 0xc
 6720 15f5 9C030000 		.4byte	.LVL447
 6721 15f9 E71E0000 		.4byte	0x1ee7
 6722 15fd 09160000 		.4byte	0x1609
 6723 1601 0A       		.uleb128 0xa
 6724 1602 01       		.uleb128 0x1
 6725 1603 50       		.byte	0x50
 6726 1604 03       		.uleb128 0x3
 6727 1605 0A       		.byte	0xa
 6728 1606 F401     		.2byte	0x1f4
 6729 1608 00       		.byte	0
 6730 1609 0C       		.uleb128 0xc
 6731 160a A6030000 		.4byte	.LVL449
 6732 160e 07050000 		.4byte	0x507
 6733 1612 22160000 		.4byte	0x1622
 6734 1616 0A       		.uleb128 0xa
 6735 1617 01       		.uleb128 0x1
 6736 1618 50       		.byte	0x50
 6737 1619 02       		.uleb128 0x2
 6738 161a 08       		.byte	0x8
 6739 161b 32       		.byte	0x32
 6740 161c 0A       		.uleb128 0xa
 6741 161d 01       		.uleb128 0x1
 6742 161e 51       		.byte	0x51
 6743 161f 01       		.uleb128 0x1
 6744 1620 30       		.byte	0x30
 6745 1621 00       		.byte	0
 6746 1622 0C       		.uleb128 0xc
 6747 1623 AE030000 		.4byte	.LVL450
 6748 1627 E71E0000 		.4byte	0x1ee7
 6749 162b 37160000 		.4byte	0x1637
 6750 162f 0A       		.uleb128 0xa
 6751 1630 01       		.uleb128 0x1
 6752 1631 50       		.byte	0x50
 6753 1632 03       		.uleb128 0x3
 6754 1633 0A       		.byte	0xa
 6755 1634 F401     		.2byte	0x1f4
 6756 1636 00       		.byte	0
 6757 1637 0C       		.uleb128 0xc
 6758 1638 CC030000 		.4byte	.LVL453
 6759 163c 87090000 		.4byte	0x987
 6760 1640 4B160000 		.4byte	0x164b
 6761 1644 0A       		.uleb128 0xa
 6762 1645 01       		.uleb128 0x1
 6763 1646 51       		.byte	0x51
 6764 1647 02       		.uleb128 0x2
ARM GAS  C:\Users\weiro\AppData\Local\Temp\ccK6dLS7.s 			page 143


 6765 1648 74       		.byte	0x74
 6766 1649 00       		.sleb128 0
 6767 164a 00       		.byte	0
 6768 164b 0C       		.uleb128 0xc
 6769 164c E4030000 		.4byte	.LVL455
 6770 1650 E71E0000 		.4byte	0x1ee7
 6771 1654 60160000 		.4byte	0x1660
 6772 1658 0A       		.uleb128 0xa
 6773 1659 01       		.uleb128 0x1
 6774 165a 50       		.byte	0x50
 6775 165b 03       		.uleb128 0x3
 6776 165c 0A       		.byte	0xa
 6777 165d F401     		.2byte	0x1f4
 6778 165f 00       		.byte	0
 6779 1660 08       		.uleb128 0x8
 6780 1661 F0030000 		.4byte	.LVL456
 6781 1665 B6050000 		.4byte	0x5b6
 6782 1669 0C       		.uleb128 0xc
 6783 166a 00040000 		.4byte	.LVL458
 6784 166e 87090000 		.4byte	0x987
 6785 1672 7C160000 		.4byte	0x167c
 6786 1676 0A       		.uleb128 0xa
 6787 1677 01       		.uleb128 0x1
 6788 1678 51       		.byte	0x51
 6789 1679 01       		.uleb128 0x1
 6790 167a 31       		.byte	0x31
 6791 167b 00       		.byte	0
 6792 167c 0C       		.uleb128 0xc
 6793 167d 18040000 		.4byte	.LVL460
 6794 1681 E71E0000 		.4byte	0x1ee7
 6795 1685 91160000 		.4byte	0x1691
 6796 1689 0A       		.uleb128 0xa
 6797 168a 01       		.uleb128 0x1
 6798 168b 50       		.byte	0x50
 6799 168c 03       		.uleb128 0x3
 6800 168d 0A       		.byte	0xa
 6801 168e F401     		.2byte	0x1f4
 6802 1690 00       		.byte	0
 6803 1691 0C       		.uleb128 0xc
 6804 1692 28040000 		.4byte	.LVL462
 6805 1696 07050000 		.4byte	0x507
 6806 169a AA160000 		.4byte	0x16aa
 6807 169e 0A       		.uleb128 0xa
 6808 169f 01       		.uleb128 0x1
 6809 16a0 50       		.byte	0x50
 6810 16a1 02       		.uleb128 0x2
 6811 16a2 08       		.byte	0x8
 6812 16a3 46       		.byte	0x46
 6813 16a4 0A       		.uleb128 0xa
 6814 16a5 01       		.uleb128 0x1
 6815 16a6 51       		.byte	0x51
 6816 16a7 01       		.uleb128 0x1
 6817 16a8 30       		.byte	0x30
 6818 16a9 00       		.byte	0
 6819 16aa 0C       		.uleb128 0xc
 6820 16ab 30040000 		.4byte	.LVL463
 6821 16af E71E0000 		.4byte	0x1ee7
ARM GAS  C:\Users\weiro\AppData\Local\Temp\ccK6dLS7.s 			page 144


 6822 16b3 BF160000 		.4byte	0x16bf
 6823 16b7 0A       		.uleb128 0xa
 6824 16b8 01       		.uleb128 0x1
 6825 16b9 50       		.byte	0x50
 6826 16ba 03       		.uleb128 0x3
 6827 16bb 0A       		.byte	0xa
 6828 16bc F401     		.2byte	0x1f4
 6829 16be 00       		.byte	0
 6830 16bf 0C       		.uleb128 0xc
 6831 16c0 58040000 		.4byte	.LVL465
 6832 16c4 E71E0000 		.4byte	0x1ee7
 6833 16c8 D4160000 		.4byte	0x16d4
 6834 16cc 0A       		.uleb128 0xa
 6835 16cd 01       		.uleb128 0x1
 6836 16ce 50       		.byte	0x50
 6837 16cf 03       		.uleb128 0x3
 6838 16d0 0A       		.byte	0xa
 6839 16d1 F401     		.2byte	0x1f4
 6840 16d3 00       		.byte	0
 6841 16d4 0C       		.uleb128 0xc
 6842 16d5 70040000 		.4byte	.LVL466
 6843 16d9 E71E0000 		.4byte	0x1ee7
 6844 16dd E9160000 		.4byte	0x16e9
 6845 16e1 0A       		.uleb128 0xa
 6846 16e2 01       		.uleb128 0x1
 6847 16e3 50       		.byte	0x50
 6848 16e4 03       		.uleb128 0x3
 6849 16e5 0A       		.byte	0xa
 6850 16e6 F401     		.2byte	0x1f4
 6851 16e8 00       		.byte	0
 6852 16e9 08       		.uleb128 0x8
 6853 16ea 7C040000 		.4byte	.LVL467
 6854 16ee 18210000 		.4byte	0x2118
 6855 16f2 0C       		.uleb128 0xc
 6856 16f3 84040000 		.4byte	.LVL468
 6857 16f7 E71E0000 		.4byte	0x1ee7
 6858 16fb 07170000 		.4byte	0x1707
 6859 16ff 0A       		.uleb128 0xa
 6860 1700 01       		.uleb128 0x1
 6861 1701 50       		.byte	0x50
 6862 1702 03       		.uleb128 0x3
 6863 1703 0A       		.byte	0xa
 6864 1704 E803     		.2byte	0x3e8
 6865 1706 00       		.byte	0
 6866 1707 08       		.uleb128 0x8
 6867 1708 8C040000 		.4byte	.LVL469
 6868 170c 23210000 		.4byte	0x2123
 6869 1710 0C       		.uleb128 0xc
 6870 1711 94040000 		.4byte	.LVL470
 6871 1715 E71E0000 		.4byte	0x1ee7
 6872 1719 25170000 		.4byte	0x1725
 6873 171d 0A       		.uleb128 0xa
 6874 171e 01       		.uleb128 0x1
 6875 171f 50       		.byte	0x50
 6876 1720 03       		.uleb128 0x3
 6877 1721 0A       		.byte	0xa
 6878 1722 F401     		.2byte	0x1f4
ARM GAS  C:\Users\weiro\AppData\Local\Temp\ccK6dLS7.s 			page 145


 6879 1724 00       		.byte	0
 6880 1725 08       		.uleb128 0x8
 6881 1726 9C040000 		.4byte	.LVL471
 6882 172a 18210000 		.4byte	0x2118
 6883 172e 0C       		.uleb128 0xc
 6884 172f A4040000 		.4byte	.LVL472
 6885 1733 E71E0000 		.4byte	0x1ee7
 6886 1737 43170000 		.4byte	0x1743
 6887 173b 0A       		.uleb128 0xa
 6888 173c 01       		.uleb128 0x1
 6889 173d 50       		.byte	0x50
 6890 173e 03       		.uleb128 0x3
 6891 173f 0A       		.byte	0xa
 6892 1740 F401     		.2byte	0x1f4
 6893 1742 00       		.byte	0
 6894 1743 08       		.uleb128 0x8
 6895 1744 AC040000 		.4byte	.LVL473
 6896 1748 23210000 		.4byte	0x2123
 6897 174c 0C       		.uleb128 0xc
 6898 174d C2040000 		.4byte	.LVL474
 6899 1751 E71E0000 		.4byte	0x1ee7
 6900 1755 61170000 		.4byte	0x1761
 6901 1759 0A       		.uleb128 0xa
 6902 175a 01       		.uleb128 0x1
 6903 175b 50       		.byte	0x50
 6904 175c 03       		.uleb128 0x3
 6905 175d 0A       		.byte	0xa
 6906 175e F401     		.2byte	0x1f4
 6907 1760 00       		.byte	0
 6908 1761 0C       		.uleb128 0xc
 6909 1762 CC040000 		.4byte	.LVL476
 6910 1766 07050000 		.4byte	0x507
 6911 176a 79170000 		.4byte	0x1779
 6912 176e 0A       		.uleb128 0xa
 6913 176f 01       		.uleb128 0x1
 6914 1770 50       		.byte	0x50
 6915 1771 01       		.uleb128 0x1
 6916 1772 44       		.byte	0x44
 6917 1773 0A       		.uleb128 0xa
 6918 1774 01       		.uleb128 0x1
 6919 1775 51       		.byte	0x51
 6920 1776 01       		.uleb128 0x1
 6921 1777 31       		.byte	0x31
 6922 1778 00       		.byte	0
 6923 1779 0C       		.uleb128 0xc
 6924 177a D4040000 		.4byte	.LVL477
 6925 177e E71E0000 		.4byte	0x1ee7
 6926 1782 8E170000 		.4byte	0x178e
 6927 1786 0A       		.uleb128 0xa
 6928 1787 01       		.uleb128 0x1
 6929 1788 50       		.byte	0x50
 6930 1789 03       		.uleb128 0x3
 6931 178a 0A       		.byte	0xa
 6932 178b F401     		.2byte	0x1f4
 6933 178d 00       		.byte	0
 6934 178e 08       		.uleb128 0x8
 6935 178f DE040000 		.4byte	.LVL478
ARM GAS  C:\Users\weiro\AppData\Local\Temp\ccK6dLS7.s 			page 146


 6936 1793 18210000 		.4byte	0x2118
 6937 1797 0C       		.uleb128 0xc
 6938 1798 E6040000 		.4byte	.LVL479
 6939 179c E71E0000 		.4byte	0x1ee7
 6940 17a0 AC170000 		.4byte	0x17ac
 6941 17a4 0A       		.uleb128 0xa
 6942 17a5 01       		.uleb128 0x1
 6943 17a6 50       		.byte	0x50
 6944 17a7 03       		.uleb128 0x3
 6945 17a8 0A       		.byte	0xa
 6946 17a9 F401     		.2byte	0x1f4
 6947 17ab 00       		.byte	0
 6948 17ac 0C       		.uleb128 0xc
 6949 17ad FC040000 		.4byte	.LVL481
 6950 17b1 E71E0000 		.4byte	0x1ee7
 6951 17b5 C1170000 		.4byte	0x17c1
 6952 17b9 0A       		.uleb128 0xa
 6953 17ba 01       		.uleb128 0x1
 6954 17bb 50       		.byte	0x50
 6955 17bc 03       		.uleb128 0x3
 6956 17bd 0A       		.byte	0xa
 6957 17be F401     		.2byte	0x1f4
 6958 17c0 00       		.byte	0
 6959 17c1 0C       		.uleb128 0xc
 6960 17c2 06050000 		.4byte	.LVL483
 6961 17c6 07050000 		.4byte	0x507
 6962 17ca D9170000 		.4byte	0x17d9
 6963 17ce 0A       		.uleb128 0xa
 6964 17cf 01       		.uleb128 0x1
 6965 17d0 50       		.byte	0x50
 6966 17d1 01       		.uleb128 0x1
 6967 17d2 44       		.byte	0x44
 6968 17d3 0A       		.uleb128 0xa
 6969 17d4 01       		.uleb128 0x1
 6970 17d5 51       		.byte	0x51
 6971 17d6 01       		.uleb128 0x1
 6972 17d7 30       		.byte	0x30
 6973 17d8 00       		.byte	0
 6974 17d9 0C       		.uleb128 0xc
 6975 17da 0E050000 		.4byte	.LVL484
 6976 17de E71E0000 		.4byte	0x1ee7
 6977 17e2 EE170000 		.4byte	0x17ee
 6978 17e6 0A       		.uleb128 0xa
 6979 17e7 01       		.uleb128 0x1
 6980 17e8 50       		.byte	0x50
 6981 17e9 03       		.uleb128 0x3
 6982 17ea 0A       		.byte	0xa
 6983 17eb F401     		.2byte	0x1f4
 6984 17ed 00       		.byte	0
 6985 17ee 08       		.uleb128 0x8
 6986 17ef 18050000 		.4byte	.LVL485
 6987 17f3 18210000 		.4byte	0x2118
 6988 17f7 0C       		.uleb128 0xc
 6989 17f8 20050000 		.4byte	.LVL486
 6990 17fc E71E0000 		.4byte	0x1ee7
 6991 1800 0C180000 		.4byte	0x180c
 6992 1804 0A       		.uleb128 0xa
ARM GAS  C:\Users\weiro\AppData\Local\Temp\ccK6dLS7.s 			page 147


 6993 1805 01       		.uleb128 0x1
 6994 1806 50       		.byte	0x50
 6995 1807 03       		.uleb128 0x3
 6996 1808 0A       		.byte	0xa
 6997 1809 F401     		.2byte	0x1f4
 6998 180b 00       		.byte	0
 6999 180c 0C       		.uleb128 0xc
 7000 180d 36050000 		.4byte	.LVL488
 7001 1811 E71E0000 		.4byte	0x1ee7
 7002 1815 21180000 		.4byte	0x1821
 7003 1819 0A       		.uleb128 0xa
 7004 181a 01       		.uleb128 0x1
 7005 181b 50       		.byte	0x50
 7006 181c 03       		.uleb128 0x3
 7007 181d 0A       		.byte	0xa
 7008 181e F401     		.2byte	0x1f4
 7009 1820 00       		.byte	0
 7010 1821 0C       		.uleb128 0xc
 7011 1822 56050000 		.4byte	.LVL491
 7012 1826 87090000 		.4byte	0x987
 7013 182a 35180000 		.4byte	0x1835
 7014 182e 0A       		.uleb128 0xa
 7015 182f 01       		.uleb128 0x1
 7016 1830 51       		.byte	0x51
 7017 1831 02       		.uleb128 0x2
 7018 1832 74       		.byte	0x74
 7019 1833 00       		.sleb128 0
 7020 1834 00       		.byte	0
 7021 1835 0C       		.uleb128 0xc
 7022 1836 5E050000 		.4byte	.LVL492
 7023 183a E71E0000 		.4byte	0x1ee7
 7024 183e 4A180000 		.4byte	0x184a
 7025 1842 0A       		.uleb128 0xa
 7026 1843 01       		.uleb128 0x1
 7027 1844 50       		.byte	0x50
 7028 1845 03       		.uleb128 0x3
 7029 1846 0A       		.byte	0xa
 7030 1847 F401     		.2byte	0x1f4
 7031 1849 00       		.byte	0
 7032 184a 0C       		.uleb128 0xc
 7033 184b 66050000 		.4byte	.LVL493
 7034 184f 07050000 		.4byte	0x507
 7035 1853 63180000 		.4byte	0x1863
 7036 1857 0A       		.uleb128 0xa
 7037 1858 01       		.uleb128 0x1
 7038 1859 50       		.byte	0x50
 7039 185a 02       		.uleb128 0x2
 7040 185b 08       		.byte	0x8
 7041 185c 32       		.byte	0x32
 7042 185d 0A       		.uleb128 0xa
 7043 185e 01       		.uleb128 0x1
 7044 185f 51       		.byte	0x51
 7045 1860 01       		.uleb128 0x1
 7046 1861 31       		.byte	0x31
 7047 1862 00       		.byte	0
 7048 1863 0C       		.uleb128 0xc
 7049 1864 6E050000 		.4byte	.LVL494
ARM GAS  C:\Users\weiro\AppData\Local\Temp\ccK6dLS7.s 			page 148


 7050 1868 E71E0000 		.4byte	0x1ee7
 7051 186c 78180000 		.4byte	0x1878
 7052 1870 0A       		.uleb128 0xa
 7053 1871 01       		.uleb128 0x1
 7054 1872 50       		.byte	0x50
 7055 1873 03       		.uleb128 0x3
 7056 1874 0A       		.byte	0xa
 7057 1875 F401     		.2byte	0x1f4
 7058 1877 00       		.byte	0
 7059 1878 0C       		.uleb128 0xc
 7060 1879 86050000 		.4byte	.LVL496
 7061 187d E71E0000 		.4byte	0x1ee7
 7062 1881 8D180000 		.4byte	0x188d
 7063 1885 0A       		.uleb128 0xa
 7064 1886 01       		.uleb128 0x1
 7065 1887 50       		.byte	0x50
 7066 1888 03       		.uleb128 0x3
 7067 1889 0A       		.byte	0xa
 7068 188a F401     		.2byte	0x1f4
 7069 188c 00       		.byte	0
 7070 188d 0C       		.uleb128 0xc
 7071 188e A6050000 		.4byte	.LVL499
 7072 1892 87090000 		.4byte	0x987
 7073 1896 A1180000 		.4byte	0x18a1
 7074 189a 0A       		.uleb128 0xa
 7075 189b 01       		.uleb128 0x1
 7076 189c 51       		.byte	0x51
 7077 189d 02       		.uleb128 0x2
 7078 189e 74       		.byte	0x74
 7079 189f 00       		.sleb128 0
 7080 18a0 00       		.byte	0
 7081 18a1 0C       		.uleb128 0xc
 7082 18a2 AE050000 		.4byte	.LVL500
 7083 18a6 E71E0000 		.4byte	0x1ee7
 7084 18aa B6180000 		.4byte	0x18b6
 7085 18ae 0A       		.uleb128 0xa
 7086 18af 01       		.uleb128 0x1
 7087 18b0 50       		.byte	0x50
 7088 18b1 03       		.uleb128 0x3
 7089 18b2 0A       		.byte	0xa
 7090 18b3 F401     		.2byte	0x1f4
 7091 18b5 00       		.byte	0
 7092 18b6 0C       		.uleb128 0xc
 7093 18b7 B6050000 		.4byte	.LVL501
 7094 18bb 07050000 		.4byte	0x507
 7095 18bf CF180000 		.4byte	0x18cf
 7096 18c3 0A       		.uleb128 0xa
 7097 18c4 01       		.uleb128 0x1
 7098 18c5 50       		.byte	0x50
 7099 18c6 02       		.uleb128 0x2
 7100 18c7 08       		.byte	0x8
 7101 18c8 32       		.byte	0x32
 7102 18c9 0A       		.uleb128 0xa
 7103 18ca 01       		.uleb128 0x1
 7104 18cb 51       		.byte	0x51
 7105 18cc 01       		.uleb128 0x1
 7106 18cd 31       		.byte	0x31
ARM GAS  C:\Users\weiro\AppData\Local\Temp\ccK6dLS7.s 			page 149


 7107 18ce 00       		.byte	0
 7108 18cf 0C       		.uleb128 0xc
 7109 18d0 BE050000 		.4byte	.LVL502
 7110 18d4 E71E0000 		.4byte	0x1ee7
 7111 18d8 E4180000 		.4byte	0x18e4
 7112 18dc 0A       		.uleb128 0xa
 7113 18dd 01       		.uleb128 0x1
 7114 18de 50       		.byte	0x50
 7115 18df 03       		.uleb128 0x3
 7116 18e0 0A       		.byte	0xa
 7117 18e1 F401     		.2byte	0x1f4
 7118 18e3 00       		.byte	0
 7119 18e4 0C       		.uleb128 0xc
 7120 18e5 D8050000 		.4byte	.LVL504
 7121 18e9 2E210000 		.4byte	0x212e
 7122 18ed 04190000 		.4byte	0x1904
 7123 18f1 0A       		.uleb128 0xa
 7124 18f2 01       		.uleb128 0x1
 7125 18f3 50       		.byte	0x50
 7126 18f4 05       		.uleb128 0x5
 7127 18f5 03       		.byte	0x3
 7128 18f6 00000000 		.4byte	string_bt
 7129 18fa 0A       		.uleb128 0xa
 7130 18fb 01       		.uleb128 0x1
 7131 18fc 51       		.byte	0x51
 7132 18fd 05       		.uleb128 0x5
 7133 18fe 03       		.byte	0x3
 7134 18ff B4000000 		.4byte	.LC13
 7135 1903 00       		.byte	0
 7136 1904 0C       		.uleb128 0xc
 7137 1905 F2050000 		.4byte	.LVL505
 7138 1909 39210000 		.4byte	0x2139
 7139 190d 25190000 		.4byte	0x1925
 7140 1911 0A       		.uleb128 0xa
 7141 1912 01       		.uleb128 0x1
 7142 1913 50       		.byte	0x50
 7143 1914 0F       		.uleb128 0xf
 7144 1915 74       		.byte	0x74
 7145 1916 00       		.sleb128 0
 7146 1917 32       		.byte	0x32
 7147 1918 24       		.byte	0x24
 7148 1919 74       		.byte	0x74
 7149 191a 00       		.sleb128 0
 7150 191b 22       		.byte	0x22
 7151 191c 32       		.byte	0x32
 7152 191d 24       		.byte	0x24
 7153 191e 03       		.byte	0x3
 7154 191f 00000000 		.4byte	task_info
 7155 1923 22       		.byte	0x22
 7156 1924 00       		.byte	0
 7157 1925 0C       		.uleb128 0xc
 7158 1926 00060000 		.4byte	.LVL506
 7159 192a 2E210000 		.4byte	0x212e
 7160 192e 41190000 		.4byte	0x1941
 7161 1932 0A       		.uleb128 0xa
 7162 1933 01       		.uleb128 0x1
 7163 1934 50       		.byte	0x50
ARM GAS  C:\Users\weiro\AppData\Local\Temp\ccK6dLS7.s 			page 150


 7164 1935 01       		.uleb128 0x1
 7165 1936 30       		.byte	0x30
 7166 1937 0A       		.uleb128 0xa
 7167 1938 01       		.uleb128 0x1
 7168 1939 51       		.byte	0x51
 7169 193a 05       		.uleb128 0x5
 7170 193b 03       		.byte	0x3
 7171 193c B4000000 		.4byte	.LC13
 7172 1940 00       		.byte	0
 7173 1941 0C       		.uleb128 0xc
 7174 1942 14060000 		.4byte	.LVL507
 7175 1946 FD1E0000 		.4byte	0x1efd
 7176 194a 55190000 		.4byte	0x1955
 7177 194e 0A       		.uleb128 0xa
 7178 194f 01       		.uleb128 0x1
 7179 1950 50       		.byte	0x50
 7180 1951 02       		.uleb128 0x2
 7181 1952 74       		.byte	0x74
 7182 1953 00       		.sleb128 0
 7183 1954 00       		.byte	0
 7184 1955 0C       		.uleb128 0xc
 7185 1956 1C060000 		.4byte	.LVL508
 7186 195a FD1E0000 		.4byte	0x1efd
 7187 195e 69190000 		.4byte	0x1969
 7188 1962 0A       		.uleb128 0xa
 7189 1963 01       		.uleb128 0x1
 7190 1964 50       		.byte	0x50
 7191 1965 02       		.uleb128 0x2
 7192 1966 74       		.byte	0x74
 7193 1967 14       		.sleb128 20
 7194 1968 00       		.byte	0
 7195 1969 0C       		.uleb128 0xc
 7196 196a 24060000 		.4byte	.LVL509
 7197 196e FD1E0000 		.4byte	0x1efd
 7198 1972 7D190000 		.4byte	0x197d
 7199 1976 0A       		.uleb128 0xa
 7200 1977 01       		.uleb128 0x1
 7201 1978 50       		.byte	0x50
 7202 1979 02       		.uleb128 0x2
 7203 197a 74       		.byte	0x74
 7204 197b 28       		.sleb128 40
 7205 197c 00       		.byte	0
 7206 197d 09       		.uleb128 0x9
 7207 197e 2A060000 		.4byte	.LVL510
 7208 1982 FD1E0000 		.4byte	0x1efd
 7209 1986 0A       		.uleb128 0xa
 7210 1987 01       		.uleb128 0x1
 7211 1988 50       		.byte	0x50
 7212 1989 05       		.uleb128 0x5
 7213 198a 03       		.byte	0x3
 7214 198b B8000000 		.4byte	.LC14
 7215 198f 00       		.byte	0
 7216 1990 00       		.byte	0
 7217 1991 19       		.uleb128 0x19
 7218 1992 2C070000 		.4byte	.LASF57
 7219 1996 05       		.byte	0x5
 7220 1997 1207     		.2byte	0x712
ARM GAS  C:\Users\weiro\AppData\Local\Temp\ccK6dLS7.s 			page 151


 7221 1999 9D190000 		.4byte	0x199d
 7222 199d 1A       		.uleb128 0x1a
 7223 199e 7D000000 		.4byte	0x7d
 7224 19a2 1B       		.uleb128 0x1b
 7225 19a3 E0000000 		.4byte	.LASF58
 7226 19a7 01       		.byte	0x1
 7227 19a8 15       		.byte	0x15
 7228 19a9 6F000000 		.4byte	0x6f
 7229 19ad 05       		.uleb128 0x5
 7230 19ae 03       		.byte	0x3
 7231 19af 00000000 		.4byte	initial
 7232 19b3 1B       		.uleb128 0x1b
 7233 19b4 AA060000 		.4byte	.LASF59
 7234 19b8 01       		.byte	0x1
 7235 19b9 16       		.byte	0x16
 7236 19ba 25000000 		.4byte	0x25
 7237 19be 05       		.uleb128 0x5
 7238 19bf 03       		.byte	0x3
 7239 19c0 00000000 		.4byte	WHEEL_DIAMETER
 7240 19c4 1B       		.uleb128 0x1b
 7241 19c5 E9010000 		.4byte	.LASF60
 7242 19c9 01       		.byte	0x1
 7243 19ca 17       		.byte	0x17
 7244 19cb 25000000 		.4byte	0x25
 7245 19cf 05       		.uleb128 0x5
 7246 19d0 03       		.byte	0x3
 7247 19d1 00000000 		.4byte	WHEEL_CIRCUMFERENCE
 7248 19d5 1B       		.uleb128 0x1b
 7249 19d6 BD000000 		.4byte	.LASF61
 7250 19da 01       		.byte	0x1
 7251 19db 18       		.byte	0x18
 7252 19dc 6F000000 		.4byte	0x6f
 7253 19e0 05       		.uleb128 0x5
 7254 19e1 03       		.byte	0x3
 7255 19e2 00000000 		.4byte	CS_count_Red
 7256 19e6 1B       		.uleb128 0x1b
 7257 19e7 D3010000 		.4byte	.LASF62
 7258 19eb 01       		.byte	0x1
 7259 19ec 19       		.byte	0x19
 7260 19ed 6F000000 		.4byte	0x6f
 7261 19f1 05       		.uleb128 0x5
 7262 19f2 03       		.byte	0x3
 7263 19f3 00000000 		.4byte	CS_count_Blue
 7264 19f7 1B       		.uleb128 0x1b
 7265 19f8 B8010000 		.4byte	.LASF63
 7266 19fc 01       		.byte	0x1
 7267 19fd 1A       		.byte	0x1a
 7268 19fe 6F000000 		.4byte	0x6f
 7269 1a02 05       		.uleb128 0x5
 7270 1a03 03       		.byte	0x3
 7271 1a04 00000000 		.4byte	CS_count_Green
 7272 1a08 1B       		.uleb128 0x1b
 7273 1a09 D3030000 		.4byte	.LASF64
 7274 1a0d 01       		.byte	0x1
 7275 1a0e 1B       		.byte	0x1b
 7276 1a0f 25000000 		.4byte	0x25
 7277 1a13 05       		.uleb128 0x5
ARM GAS  C:\Users\weiro\AppData\Local\Temp\ccK6dLS7.s 			page 152


 7278 1a14 03       		.byte	0x3
 7279 1a15 00000000 		.4byte	COUNT_WHEEL
 7280 1a19 1B       		.uleb128 0x1b
 7281 1a1a 41000000 		.4byte	.LASF65
 7282 1a1e 01       		.byte	0x1
 7283 1a1f 1C       		.byte	0x1c
 7284 1a20 25000000 		.4byte	0x25
 7285 1a24 05       		.uleb128 0x5
 7286 1a25 03       		.byte	0x3
 7287 1a26 00000000 		.4byte	CM_COUNT_CONV
 7288 1a2a 1B       		.uleb128 0x1b
 7289 1a2b 9A050000 		.4byte	.LASF66
 7290 1a2f 01       		.byte	0x1
 7291 1a30 1D       		.byte	0x1d
 7292 1a31 25000000 		.4byte	0x25
 7293 1a35 05       		.uleb128 0x5
 7294 1a36 03       		.byte	0x3
 7295 1a37 00000000 		.4byte	DISTANCE_BETW_WHEEL
 7296 1a3b 1B       		.uleb128 0x1b
 7297 1a3c 3B020000 		.4byte	.LASF67
 7298 1a40 01       		.byte	0x1
 7299 1a41 1E       		.byte	0x1e
 7300 1a42 25000000 		.4byte	0x25
 7301 1a46 05       		.uleb128 0x5
 7302 1a47 03       		.byte	0x3
 7303 1a48 00000000 		.4byte	DISTANCE_PT_TURN
 7304 1a4c 1B       		.uleb128 0x1b
 7305 1a4d 7B020000 		.4byte	.LASF43
 7306 1a51 01       		.byte	0x1
 7307 1a52 1F       		.byte	0x1f
 7308 1a53 25000000 		.4byte	0x25
 7309 1a57 05       		.uleb128 0x5
 7310 1a58 03       		.byte	0x3
 7311 1a59 00000000 		.4byte	PT_TURN_COUNT
 7312 1a5d 1B       		.uleb128 0x1b
 7313 1a5e E9070000 		.4byte	.LASF68
 7314 1a62 01       		.byte	0x1
 7315 1a63 20       		.byte	0x20
 7316 1a64 6F000000 		.4byte	0x6f
 7317 1a68 05       		.uleb128 0x5
 7318 1a69 03       		.byte	0x3
 7319 1a6a 00000000 		.4byte	Count_Master
 7320 1a6e 1B       		.uleb128 0x1b
 7321 1a6f DD060000 		.4byte	.LASF69
 7322 1a73 01       		.byte	0x1
 7323 1a74 21       		.byte	0x21
 7324 1a75 6F000000 		.4byte	0x6f
 7325 1a79 05       		.uleb128 0x5
 7326 1a7a 03       		.byte	0x3
 7327 1a7b 00000000 		.4byte	Count_Slave
 7328 1a7f 1C       		.uleb128 0x1c
 7329 1a80 A7000000 		.4byte	0xa7
 7330 1a84 8F1A0000 		.4byte	0x1a8f
 7331 1a88 1D       		.uleb128 0x1d
 7332 1a89 B5000000 		.4byte	0xb5
 7333 1a8d C7       		.byte	0xc7
 7334 1a8e 00       		.byte	0
ARM GAS  C:\Users\weiro\AppData\Local\Temp\ccK6dLS7.s 			page 153


 7335 1a8f 1B       		.uleb128 0x1b
 7336 1a90 6E0A0000 		.4byte	.LASF70
 7337 1a94 01       		.byte	0x1
 7338 1a95 22       		.byte	0x22
 7339 1a96 7F1A0000 		.4byte	0x1a7f
 7340 1a9a 05       		.uleb128 0x5
 7341 1a9b 03       		.byte	0x3
 7342 1a9c 00000000 		.4byte	string_1
 7343 1aa0 1B       		.uleb128 0x1b
 7344 1aa1 770A0000 		.4byte	.LASF71
 7345 1aa5 01       		.byte	0x1
 7346 1aa6 23       		.byte	0x23
 7347 1aa7 7F1A0000 		.4byte	0x1a7f
 7348 1aab 05       		.uleb128 0x5
 7349 1aac 03       		.byte	0x3
 7350 1aad 00000000 		.4byte	string_2
 7351 1ab1 1B       		.uleb128 0x1b
 7352 1ab2 800A0000 		.4byte	.LASF72
 7353 1ab6 01       		.byte	0x1
 7354 1ab7 24       		.byte	0x24
 7355 1ab8 7F1A0000 		.4byte	0x1a7f
 7356 1abc 05       		.uleb128 0x5
 7357 1abd 03       		.byte	0x3
 7358 1abe 00000000 		.4byte	string_3
 7359 1ac2 1B       		.uleb128 0x1b
 7360 1ac3 92010000 		.4byte	.LASF73
 7361 1ac7 01       		.byte	0x1
 7362 1ac8 25       		.byte	0x25
 7363 1ac9 25000000 		.4byte	0x25
 7364 1acd 05       		.uleb128 0x5
 7365 1ace 03       		.byte	0x3
 7366 1acf 00000000 		.4byte	error
 7367 1ad3 1B       		.uleb128 0x1b
 7368 1ad4 C1030000 		.4byte	.LASF74
 7369 1ad8 01       		.byte	0x1
 7370 1ad9 26       		.byte	0x26
 7371 1ada 25000000 		.4byte	0x25
 7372 1ade 05       		.uleb128 0x5
 7373 1adf 03       		.byte	0x3
 7374 1ae0 00000000 		.4byte	accumulated_error
 7375 1ae4 1B       		.uleb128 0x1b
 7376 1ae5 87080000 		.4byte	.LASF75
 7377 1ae9 01       		.byte	0x1
 7378 1aea 27       		.byte	0x27
 7379 1aeb 25000000 		.4byte	0x25
 7380 1aef 05       		.uleb128 0x5
 7381 1af0 03       		.byte	0x3
 7382 1af1 00000000 		.4byte	last_error
 7383 1af5 1B       		.uleb128 0x1b
 7384 1af6 5F080000 		.4byte	.LASF76
 7385 1afa 01       		.byte	0x1
 7386 1afb 28       		.byte	0x28
 7387 1afc 25000000 		.4byte	0x25
 7388 1b00 05       		.uleb128 0x5
 7389 1b01 03       		.byte	0x3
 7390 1b02 00000000 		.4byte	derivative_error
 7391 1b06 1B       		.uleb128 0x1b
ARM GAS  C:\Users\weiro\AppData\Local\Temp\ccK6dLS7.s 			page 154


 7392 1b07 3B010000 		.4byte	.LASF77
 7393 1b0b 01       		.byte	0x1
 7394 1b0c 29       		.byte	0x29
 7395 1b0d 25000000 		.4byte	0x25
 7396 1b11 05       		.uleb128 0x5
 7397 1b12 03       		.byte	0x3
 7398 1b13 00000000 		.4byte	timer_period
 7399 1b17 1E       		.uleb128 0x1e
 7400 1b18 4B5F7000 		.ascii	"K_p\000"
 7401 1b1c 01       		.byte	0x1
 7402 1b1d 2A       		.byte	0x2a
 7403 1b1e 25000000 		.4byte	0x25
 7404 1b22 05       		.uleb128 0x5
 7405 1b23 03       		.byte	0x3
 7406 1b24 00000000 		.4byte	K_p
 7407 1b28 1E       		.uleb128 0x1e
 7408 1b29 4B5F6900 		.ascii	"K_i\000"
 7409 1b2d 01       		.byte	0x1
 7410 1b2e 2B       		.byte	0x2b
 7411 1b2f 25000000 		.4byte	0x25
 7412 1b33 05       		.uleb128 0x5
 7413 1b34 03       		.byte	0x3
 7414 1b35 00000000 		.4byte	K_i
 7415 1b39 1E       		.uleb128 0x1e
 7416 1b3a 4B5F6400 		.ascii	"K_d\000"
 7417 1b3e 01       		.byte	0x1
 7418 1b3f 2C       		.byte	0x2c
 7419 1b40 25000000 		.4byte	0x25
 7420 1b44 05       		.uleb128 0x5
 7421 1b45 03       		.byte	0x3
 7422 1b46 00000000 		.4byte	K_d
 7423 1b4a 1B       		.uleb128 0x1b
 7424 1b4b 1B000000 		.4byte	.LASF78
 7425 1b4f 01       		.byte	0x1
 7426 1b50 2D       		.byte	0x2d
 7427 1b51 A0000000 		.4byte	0xa0
 7428 1b55 05       		.uleb128 0x5
 7429 1b56 03       		.byte	0x3
 7430 1b57 00000000 		.4byte	PWM_Master
 7431 1b5b 1B       		.uleb128 0x1b
 7432 1b5c FE080000 		.4byte	.LASF79
 7433 1b60 01       		.byte	0x1
 7434 1b61 2E       		.byte	0x2e
 7435 1b62 A0000000 		.4byte	0xa0
 7436 1b66 05       		.uleb128 0x5
 7437 1b67 03       		.byte	0x3
 7438 1b68 00000000 		.4byte	PWM_Cal
 7439 1b6c 1B       		.uleb128 0x1b
 7440 1b6d 14090000 		.4byte	.LASF80
 7441 1b71 01       		.byte	0x1
 7442 1b72 30       		.byte	0x30
 7443 1b73 A0000000 		.4byte	0xa0
 7444 1b77 05       		.uleb128 0x5
 7445 1b78 03       		.byte	0x3
 7446 1b79 00000000 		.4byte	PWM_Slave
 7447 1b7d 1B       		.uleb128 0x1b
 7448 1b7e 96070000 		.4byte	.LASF81
ARM GAS  C:\Users\weiro\AppData\Local\Temp\ccK6dLS7.s 			page 155


 7449 1b82 01       		.byte	0x1
 7450 1b83 31       		.byte	0x31
 7451 1b84 A0000000 		.4byte	0xa0
 7452 1b88 05       		.uleb128 0x5
 7453 1b89 03       		.byte	0x3
 7454 1b8a 00000000 		.4byte	PWM_Master_puck
 7455 1b8e 1B       		.uleb128 0x1b
 7456 1b8f 3B090000 		.4byte	.LASF82
 7457 1b93 01       		.byte	0x1
 7458 1b94 32       		.byte	0x32
 7459 1b95 A0000000 		.4byte	0xa0
 7460 1b99 05       		.uleb128 0x5
 7461 1b9a 03       		.byte	0x3
 7462 1b9b 00000000 		.4byte	PWM_Slave_puck
 7463 1b9f 1B       		.uleb128 0x1b
 7464 1ba0 E9020000 		.4byte	.LASF83
 7465 1ba4 01       		.byte	0x1
 7466 1ba5 33       		.byte	0x33
 7467 1ba6 6F000000 		.4byte	0x6f
 7468 1baa 05       		.uleb128 0x5
 7469 1bab 03       		.byte	0x3
 7470 1bac 00000000 		.4byte	is_moving
 7471 1bb0 1B       		.uleb128 0x1b
 7472 1bb1 890A0000 		.4byte	.LASF84
 7473 1bb5 01       		.byte	0x1
 7474 1bb6 34       		.byte	0x34
 7475 1bb7 6F000000 		.4byte	0x6f
 7476 1bbb 05       		.uleb128 0x5
 7477 1bbc 03       		.byte	0x3
 7478 1bbd 00000000 		.4byte	ultrasonic_count
 7479 1bc1 1B       		.uleb128 0x1b
 7480 1bc2 00050000 		.4byte	.LASF85
 7481 1bc6 01       		.byte	0x1
 7482 1bc7 35       		.byte	0x35
 7483 1bc8 25000000 		.4byte	0x25
 7484 1bcc 05       		.uleb128 0x5
 7485 1bcd 03       		.byte	0x3
 7486 1bce 00000000 		.4byte	ultrasonic_measure
 7487 1bd2 1B       		.uleb128 0x1b
 7488 1bd3 A6070000 		.4byte	.LASF86
 7489 1bd7 01       		.byte	0x1
 7490 1bd8 36       		.byte	0x36
 7491 1bd9 25000000 		.4byte	0x25
 7492 1bdd 05       		.uleb128 0x5
 7493 1bde 03       		.byte	0x3
 7494 1bdf 00000000 		.4byte	front_measured_1
 7495 1be3 1B       		.uleb128 0x1b
 7496 1be4 B7070000 		.4byte	.LASF87
 7497 1be8 01       		.byte	0x1
 7498 1be9 36       		.byte	0x36
 7499 1bea 25000000 		.4byte	0x25
 7500 1bee 05       		.uleb128 0x5
 7501 1bef 03       		.byte	0x3
 7502 1bf0 00000000 		.4byte	front_measured_2
 7503 1bf4 1B       		.uleb128 0x1b
 7504 1bf5 2C010000 		.4byte	.LASF88
 7505 1bf9 01       		.byte	0x1
ARM GAS  C:\Users\weiro\AppData\Local\Temp\ccK6dLS7.s 			page 156


 7506 1bfa 36       		.byte	0x36
 7507 1bfb 25000000 		.4byte	0x25
 7508 1bff 05       		.uleb128 0x5
 7509 1c00 03       		.byte	0x3
 7510 1c01 00000000 		.4byte	right_measured
 7511 1c05 1B       		.uleb128 0x1b
 7512 1c06 C5020000 		.4byte	.LASF89
 7513 1c0a 01       		.byte	0x1
 7514 1c0b 36       		.byte	0x36
 7515 1c0c 25000000 		.4byte	0x25
 7516 1c10 05       		.uleb128 0x5
 7517 1c11 03       		.byte	0x3
 7518 1c12 00000000 		.4byte	left_measured
 7519 1c16 1B       		.uleb128 0x1b
 7520 1c17 18080000 		.4byte	.LASF90
 7521 1c1b 01       		.byte	0x1
 7522 1c1c 37       		.byte	0x37
 7523 1c1d 6F000000 		.4byte	0x6f
 7524 1c21 05       		.uleb128 0x5
 7525 1c22 03       		.byte	0x3
 7526 1c23 00000000 		.4byte	echo_select
 7527 1c27 1B       		.uleb128 0x1b
 7528 1c28 2E020000 		.4byte	.LASF91
 7529 1c2c 01       		.byte	0x1
 7530 1c2d 38       		.byte	0x38
 7531 1c2e 25000000 		.4byte	0x25
 7532 1c32 05       		.uleb128 0x5
 7533 1c33 03       		.byte	0x3
 7534 1c34 00000000 		.4byte	x_coord
 7535 1c38 1B       		.uleb128 0x1b
 7536 1c39 A2060000 		.4byte	.LASF92
 7537 1c3d 01       		.byte	0x1
 7538 1c3e 39       		.byte	0x39
 7539 1c3f 25000000 		.4byte	0x25
 7540 1c43 05       		.uleb128 0x5
 7541 1c44 03       		.byte	0x3
 7542 1c45 00000000 		.4byte	y_coord
 7543 1c49 1B       		.uleb128 0x1b
 7544 1c4a 00000000 		.4byte	.LASF93
 7545 1c4e 01       		.byte	0x1
 7546 1c4f 3A       		.byte	0x3a
 7547 1c50 6F000000 		.4byte	0x6f
 7548 1c54 05       		.uleb128 0x5
 7549 1c55 03       		.byte	0x3
 7550 1c56 00000000 		.4byte	direction
 7551 1c5a 1B       		.uleb128 0x1b
 7552 1c5b 01060000 		.4byte	.LASF94
 7553 1c5f 01       		.byte	0x1
 7554 1c60 3B       		.byte	0x3b
 7555 1c61 6F000000 		.4byte	0x6f
 7556 1c65 05       		.uleb128 0x5
 7557 1c66 03       		.byte	0x3
 7558 1c67 00000000 		.4byte	step
 7559 1c6b 1B       		.uleb128 0x1b
 7560 1c6c 33060000 		.4byte	.LASF95
 7561 1c70 01       		.byte	0x1
 7562 1c71 3C       		.byte	0x3c
ARM GAS  C:\Users\weiro\AppData\Local\Temp\ccK6dLS7.s 			page 157


 7563 1c72 6F000000 		.4byte	0x6f
 7564 1c76 05       		.uleb128 0x5
 7565 1c77 03       		.byte	0x3
 7566 1c78 00000000 		.4byte	compare_ready
 7567 1c7c 1B       		.uleb128 0x1b
 7568 1c7d 1E090000 		.4byte	.LASF96
 7569 1c81 01       		.byte	0x1
 7570 1c82 3D       		.byte	0x3d
 7571 1c83 6F000000 		.4byte	0x6f
 7572 1c87 05       		.uleb128 0x5
 7573 1c88 03       		.byte	0x3
 7574 1c89 00000000 		.4byte	color_detected
 7575 1c8d 1B       		.uleb128 0x1b
 7576 1c8e D10A0000 		.4byte	.LASF97
 7577 1c92 01       		.byte	0x1
 7578 1c93 3E       		.byte	0x3e
 7579 1c94 6F000000 		.4byte	0x6f
 7580 1c98 05       		.uleb128 0x5
 7581 1c99 03       		.byte	0x3
 7582 1c9a 00000000 		.4byte	wall_detected_10
 7583 1c9e 1B       		.uleb128 0x1b
 7584 1c9f 9D010000 		.4byte	.LASF98
 7585 1ca3 01       		.byte	0x1
 7586 1ca4 3F       		.byte	0x3f
 7587 1ca5 6F000000 		.4byte	0x6f
 7588 1ca9 05       		.uleb128 0x5
 7589 1caa 03       		.byte	0x3
 7590 1cab 00000000 		.4byte	slit_detected
 7591 1caf 1B       		.uleb128 0x1b
 7592 1cb0 0A000000 		.4byte	.LASF99
 7593 1cb4 01       		.byte	0x1
 7594 1cb5 40       		.byte	0x40
 7595 1cb6 6F000000 		.4byte	0x6f
 7596 1cba 05       		.uleb128 0x5
 7597 1cbb 03       		.byte	0x3
 7598 1cbc 00000000 		.4byte	down_big
 7599 1cc0 1B       		.uleb128 0x1b
 7600 1cc1 670A0000 		.4byte	.LASF100
 7601 1cc5 01       		.byte	0x1
 7602 1cc6 41       		.byte	0x41
 7603 1cc7 6F000000 		.4byte	0x6f
 7604 1ccb 05       		.uleb128 0x5
 7605 1ccc 03       		.byte	0x3
 7606 1ccd 00000000 		.4byte	up_big
 7607 1cd1 1B       		.uleb128 0x1b
 7608 1cd2 DE070000 		.4byte	.LASF101
 7609 1cd6 01       		.byte	0x1
 7610 1cd7 42       		.byte	0x42
 7611 1cd8 6F000000 		.4byte	0x6f
 7612 1cdc 05       		.uleb128 0x5
 7613 1cdd 03       		.byte	0x3
 7614 1cde 00000000 		.4byte	open_small
 7615 1ce2 1B       		.uleb128 0x1b
 7616 1ce3 6F020000 		.4byte	.LASF102
 7617 1ce7 01       		.byte	0x1
 7618 1ce8 43       		.byte	0x43
 7619 1ce9 6F000000 		.4byte	0x6f
ARM GAS  C:\Users\weiro\AppData\Local\Temp\ccK6dLS7.s 			page 158


 7620 1ced 05       		.uleb128 0x5
 7621 1cee 03       		.byte	0x3
 7622 1cef 00000000 		.4byte	close_small
 7623 1cf3 1E       		.uleb128 0x1e
 7624 1cf4 527800   		.ascii	"Rx\000"
 7625 1cf7 01       		.byte	0x1
 7626 1cf8 45       		.byte	0x45
 7627 1cf9 A7000000 		.4byte	0xa7
 7628 1cfd 05       		.uleb128 0x5
 7629 1cfe 03       		.byte	0x3
 7630 1cff 00000000 		.4byte	Rx
 7631 1d03 1E       		.uleb128 0x1e
 7632 1d04 6900     		.ascii	"i\000"
 7633 1d06 01       		.byte	0x1
 7634 1d07 46       		.byte	0x46
 7635 1d08 6F000000 		.4byte	0x6f
 7636 1d0c 05       		.uleb128 0x5
 7637 1d0d 03       		.byte	0x3
 7638 1d0e 00000000 		.4byte	i
 7639 1d12 1B       		.uleb128 0x1b
 7640 1d13 7B060000 		.4byte	.LASF103
 7641 1d17 01       		.byte	0x1
 7642 1d18 47       		.byte	0x47
 7643 1d19 7F1A0000 		.4byte	0x1a7f
 7644 1d1d 05       		.uleb128 0x5
 7645 1d1e 03       		.byte	0x3
 7646 1d1f 00000000 		.4byte	string_bt
 7647 1d23 1B       		.uleb128 0x1b
 7648 1d24 9A0A0000 		.4byte	.LASF104
 7649 1d28 01       		.byte	0x1
 7650 1d29 48       		.byte	0x48
 7651 1d2a 6F000000 		.4byte	0x6f
 7652 1d2e 05       		.uleb128 0x5
 7653 1d2f 03       		.byte	0x3
 7654 1d30 00000000 		.4byte	stop_bt
 7655 1d34 1B       		.uleb128 0x1b
 7656 1d35 A20A0000 		.4byte	.LASF105
 7657 1d39 01       		.byte	0x1
 7658 1d3a 49       		.byte	0x49
 7659 1d3b BC000000 		.4byte	0xbc
 7660 1d3f 05       		.uleb128 0x5
 7661 1d40 03       		.byte	0x3
 7662 1d41 00000000 		.4byte	tokenPtr
 7663 1d45 1C       		.uleb128 0x1c
 7664 1d46 A7000000 		.4byte	0xa7
 7665 1d4a 5B1D0000 		.4byte	0x1d5b
 7666 1d4e 1D       		.uleb128 0x1d
 7667 1d4f B5000000 		.4byte	0xb5
 7668 1d53 02       		.byte	0x2
 7669 1d54 1D       		.uleb128 0x1d
 7670 1d55 B5000000 		.4byte	0xb5
 7671 1d59 13       		.byte	0x13
 7672 1d5a 00       		.byte	0
 7673 1d5b 1B       		.uleb128 0x1b
 7674 1d5c 79090000 		.4byte	.LASF106
 7675 1d60 01       		.byte	0x1
 7676 1d61 4A       		.byte	0x4a
ARM GAS  C:\Users\weiro\AppData\Local\Temp\ccK6dLS7.s 			page 159


 7677 1d62 451D0000 		.4byte	0x1d45
 7678 1d66 05       		.uleb128 0x5
 7679 1d67 03       		.byte	0x3
 7680 1d68 00000000 		.4byte	task_info
 7681 1d6c 1E       		.uleb128 0x1e
 7682 1d6d 6A00     		.ascii	"j\000"
 7683 1d6f 01       		.byte	0x1
 7684 1d70 4B       		.byte	0x4b
 7685 1d71 6F000000 		.4byte	0x6f
 7686 1d75 05       		.uleb128 0x5
 7687 1d76 03       		.byte	0x3
 7688 1d77 00000000 		.4byte	j
 7689 1d7b 1C       		.uleb128 0x1c
 7690 1d7c 88000000 		.4byte	0x88
 7691 1d80 8B1D0000 		.4byte	0x1d8b
 7692 1d84 1D       		.uleb128 0x1d
 7693 1d85 B5000000 		.4byte	0xb5
 7694 1d89 05       		.byte	0x5
 7695 1d8a 00       		.byte	0
 7696 1d8b 1B       		.uleb128 0x1b
 7697 1d8c D8000000 		.4byte	.LASF107
 7698 1d90 01       		.byte	0x1
 7699 1d91 4D       		.byte	0x4d
 7700 1d92 7B1D0000 		.4byte	0x1d7b
 7701 1d96 05       		.uleb128 0x5
 7702 1d97 03       		.byte	0x3
 7703 1d98 00000000 		.4byte	array_1
 7704 1d9c 1B       		.uleb128 0x1b
 7705 1d9d 77070000 		.4byte	.LASF108
 7706 1da1 01       		.byte	0x1
 7707 1da2 4E       		.byte	0x4e
 7708 1da3 94000000 		.4byte	0x94
 7709 1da7 05       		.uleb128 0x5
 7710 1da8 03       		.byte	0x3
 7711 1da9 00000000 		.4byte	temp
 7712 1dad 1B       		.uleb128 0x1b
 7713 1dae A7040000 		.4byte	.LASF109
 7714 1db2 01       		.byte	0x1
 7715 1db3 4F       		.byte	0x4f
 7716 1db4 25000000 		.4byte	0x25
 7717 1db8 05       		.uleb128 0x5
 7718 1db9 03       		.byte	0x3
 7719 1dba 00000000 		.4byte	yaw_rate
 7720 1dbe 1B       		.uleb128 0x1b
 7721 1dbf 1B060000 		.4byte	.LASF110
 7722 1dc3 01       		.byte	0x1
 7723 1dc4 50       		.byte	0x50
 7724 1dc5 25000000 		.4byte	0x25
 7725 1dc9 05       		.uleb128 0x5
 7726 1dca 03       		.byte	0x3
 7727 1dcb 00000000 		.4byte	yaw_angle
 7728 1dcf 1B       		.uleb128 0x1b
 7729 1dd0 E20A0000 		.4byte	.LASF111
 7730 1dd4 01       		.byte	0x1
 7731 1dd5 51       		.byte	0x51
 7732 1dd6 25000000 		.4byte	0x25
 7733 1dda 05       		.uleb128 0x5
ARM GAS  C:\Users\weiro\AppData\Local\Temp\ccK6dLS7.s 			page 160


 7734 1ddb 03       		.byte	0x3
 7735 1ddc 00000000 		.4byte	previous_reading
 7736 1de0 1B       		.uleb128 0x1b
 7737 1de1 23030000 		.4byte	.LASF112
 7738 1de5 01       		.byte	0x1
 7739 1de6 52       		.byte	0x52
 7740 1de7 25000000 		.4byte	0x25
 7741 1deb 05       		.uleb128 0x5
 7742 1dec 03       		.byte	0x3
 7743 1ded 00000000 		.4byte	current_reading
 7744 1df1 1B       		.uleb128 0x1b
 7745 1df2 57050000 		.4byte	.LASF113
 7746 1df6 01       		.byte	0x1
 7747 1df7 53       		.byte	0x53
 7748 1df8 25000000 		.4byte	0x25
 7749 1dfc 05       		.uleb128 0x5
 7750 1dfd 03       		.byte	0x3
 7751 1dfe 00000000 		.4byte	heading
 7752 1e02 1B       		.uleb128 0x1b
 7753 1e03 26000000 		.4byte	.LASF114
 7754 1e07 01       		.byte	0x1
 7755 1e08 54       		.byte	0x54
 7756 1e09 6F000000 		.4byte	0x6f
 7757 1e0d 05       		.uleb128 0x5
 7758 1e0e 03       		.byte	0x3
 7759 1e0f 00000000 		.4byte	cycles
 7760 1e13 1B       		.uleb128 0x1b
 7761 1e14 B5090000 		.4byte	.LASF115
 7762 1e18 01       		.byte	0x1
 7763 1e19 55       		.byte	0x55
 7764 1e1a 7F1A0000 		.4byte	0x1a7f
 7765 1e1e 05       		.uleb128 0x5
 7766 1e1f 03       		.byte	0x3
 7767 1e20 00000000 		.4byte	string_gyro
 7768 1e24 1E       		.uleb128 0x1e
 7769 1e25 63616C00 		.ascii	"cal\000"
 7770 1e29 01       		.byte	0x1
 7771 1e2a 56       		.byte	0x56
 7772 1e2b 6F000000 		.4byte	0x6f
 7773 1e2f 05       		.uleb128 0x5
 7774 1e30 03       		.byte	0x3
 7775 1e31 00000000 		.4byte	cal
 7776 1e35 1B       		.uleb128 0x1b
 7777 1e36 69020000 		.4byte	.LASF116
 7778 1e3a 01       		.byte	0x1
 7779 1e3b 57       		.byte	0x57
 7780 1e3c 6F000000 		.4byte	0x6f
 7781 1e40 05       		.uleb128 0x5
 7782 1e41 03       		.byte	0x3
 7783 1e42 00000000 		.4byte	count
 7784 1e46 1B       		.uleb128 0x1b
 7785 1e47 03010000 		.4byte	.LASF117
 7786 1e4b 01       		.byte	0x1
 7787 1e4c 58       		.byte	0x58
 7788 1e4d 94000000 		.4byte	0x94
 7789 1e51 05       		.uleb128 0x5
 7790 1e52 03       		.byte	0x3
ARM GAS  C:\Users\weiro\AppData\Local\Temp\ccK6dLS7.s 			page 161


 7791 1e53 00000000 		.4byte	error_gyro
 7792 1e57 1B       		.uleb128 0x1b
 7793 1e58 73010000 		.4byte	.LASF118
 7794 1e5c 01       		.byte	0x1
 7795 1e5d 59       		.byte	0x59
 7796 1e5e 94000000 		.4byte	0x94
 7797 1e62 05       		.uleb128 0x5
 7798 1e63 03       		.byte	0x3
 7799 1e64 00000000 		.4byte	error_gyro_avg
 7800 1e68 1B       		.uleb128 0x1b
 7801 1e69 D4090000 		.4byte	.LASF119
 7802 1e6d 01       		.byte	0x1
 7803 1e6e 5A       		.byte	0x5a
 7804 1e6f 25000000 		.4byte	0x25
 7805 1e73 05       		.uleb128 0x5
 7806 1e74 03       		.byte	0x3
 7807 1e75 00000000 		.4byte	threshold
 7808 1e79 1F       		.uleb128 0x1f
 7809 1e7a DD080000 		.4byte	.LASF120
 7810 1e7e DD080000 		.4byte	.LASF120
 7811 1e82 06       		.byte	0x6
 7812 1e83 CA       		.byte	0xca
 7813 1e84 1F       		.uleb128 0x1f
 7814 1e85 48010000 		.4byte	.LASF121
 7815 1e89 48010000 		.4byte	.LASF121
 7816 1e8d 07       		.byte	0x7
 7817 1e8e 5E       		.byte	0x5e
 7818 1e8f 1F       		.uleb128 0x1f
 7819 1e90 43050000 		.4byte	.LASF122
 7820 1e94 43050000 		.4byte	.LASF122
 7821 1e98 07       		.byte	0x7
 7822 1e99 69       		.byte	0x69
 7823 1e9a 1F       		.uleb128 0x1f
 7824 1e9b 41060000 		.4byte	.LASF123
 7825 1e9f 41060000 		.4byte	.LASF123
 7826 1ea3 08       		.byte	0x8
 7827 1ea4 E7       		.byte	0xe7
 7828 1ea5 1F       		.uleb128 0x1f
 7829 1ea6 C3040000 		.4byte	.LASF124
 7830 1eaa C3040000 		.4byte	.LASF124
 7831 1eae 09       		.byte	0x9
 7832 1eaf 97       		.byte	0x97
 7833 1eb0 1F       		.uleb128 0x1f
 7834 1eb1 B80A0000 		.4byte	.LASF125
 7835 1eb5 B80A0000 		.4byte	.LASF125
 7836 1eb9 0A       		.byte	0xa
 7837 1eba 71       		.byte	0x71
 7838 1ebb 1F       		.uleb128 0x1f
 7839 1ebc 93020000 		.4byte	.LASF126
 7840 1ec0 93020000 		.4byte	.LASF126
 7841 1ec4 0B       		.byte	0xb
 7842 1ec5 5E       		.byte	0x5e
 7843 1ec6 1F       		.uleb128 0x1f
 7844 1ec7 0D070000 		.4byte	.LASF127
 7845 1ecb 0D070000 		.4byte	.LASF127
 7846 1ecf 0C       		.byte	0xc
 7847 1ed0 B1       		.byte	0xb1
ARM GAS  C:\Users\weiro\AppData\Local\Temp\ccK6dLS7.s 			page 162


 7848 1ed1 1F       		.uleb128 0x1f
 7849 1ed2 9F090000 		.4byte	.LASF128
 7850 1ed6 9F090000 		.4byte	.LASF128
 7851 1eda 0C       		.byte	0xc
 7852 1edb B6       		.byte	0xb6
 7853 1edc 1F       		.uleb128 0x1f
 7854 1edd FD010000 		.4byte	.LASF129
 7855 1ee1 FD010000 		.4byte	.LASF129
 7856 1ee5 0C       		.byte	0xc
 7857 1ee6 B5       		.byte	0xb5
 7858 1ee7 1F       		.uleb128 0x1f
 7859 1ee8 13000000 		.4byte	.LASF130
 7860 1eec 13000000 		.4byte	.LASF130
 7861 1ef0 0D       		.byte	0xd
 7862 1ef1 76       		.byte	0x76
 7863 1ef2 1F       		.uleb128 0x1f
 7864 1ef3 BC050000 		.4byte	.LASF131
 7865 1ef7 BC050000 		.4byte	.LASF131
 7866 1efb 0C       		.byte	0xc
 7867 1efc B7       		.byte	0xb7
 7868 1efd 1F       		.uleb128 0x1f
 7869 1efe F0030000 		.4byte	.LASF132
 7870 1f02 F0030000 		.4byte	.LASF132
 7871 1f06 0A       		.byte	0xa
 7872 1f07 8B       		.byte	0x8b
 7873 1f08 1F       		.uleb128 0x1f
 7874 1f09 94040000 		.4byte	.LASF133
 7875 1f0d 94040000 		.4byte	.LASF133
 7876 1f11 0E       		.byte	0xe
 7877 1f12 26       		.byte	0x26
 7878 1f13 1F       		.uleb128 0x1f
 7879 1f14 5D090000 		.4byte	.LASF134
 7880 1f18 5D090000 		.4byte	.LASF134
 7881 1f1c 0F       		.byte	0xf
 7882 1f1d 26       		.byte	0x26
 7883 1f1e 1F       		.uleb128 0x1f
 7884 1f1f 4A090000 		.4byte	.LASF135
 7885 1f23 4A090000 		.4byte	.LASF135
 7886 1f27 10       		.byte	0x10
 7887 1f28 26       		.byte	0x26
 7888 1f29 1F       		.uleb128 0x1f
 7889 1f2a B0040000 		.4byte	.LASF136
 7890 1f2e B0040000 		.4byte	.LASF136
 7891 1f32 11       		.byte	0x11
 7892 1f33 26       		.byte	0x26
 7893 1f34 1F       		.uleb128 0x1f
 7894 1f35 8A090000 		.4byte	.LASF137
 7895 1f39 8A090000 		.4byte	.LASF137
 7896 1f3d 12       		.byte	0x12
 7897 1f3e 4F       		.byte	0x4f
 7898 1f3f 1F       		.uleb128 0x1f
 7899 1f40 19020000 		.4byte	.LASF138
 7900 1f44 19020000 		.4byte	.LASF138
 7901 1f48 13       		.byte	0x13
 7902 1f49 4F       		.byte	0x4f
 7903 1f4a 1F       		.uleb128 0x1f
 7904 1f4b A8000000 		.4byte	.LASF139
ARM GAS  C:\Users\weiro\AppData\Local\Temp\ccK6dLS7.s 			page 163


 7905 1f4f A8000000 		.4byte	.LASF139
 7906 1f53 12       		.byte	0x12
 7907 1f54 4E       		.byte	0x4e
 7908 1f55 1F       		.uleb128 0x1f
 7909 1f56 7F040000 		.4byte	.LASF140
 7910 1f5a 7F040000 		.4byte	.LASF140
 7911 1f5e 13       		.byte	0x13
 7912 1f5f 4E       		.byte	0x4e
 7913 1f60 1F       		.uleb128 0x1f
 7914 1f61 2D000000 		.4byte	.LASF141
 7915 1f65 2D000000 		.4byte	.LASF141
 7916 1f69 14       		.byte	0x14
 7917 1f6a 2F       		.byte	0x2f
 7918 1f6b 1F       		.uleb128 0x1f
 7919 1f6c FC020000 		.4byte	.LASF142
 7920 1f70 FC020000 		.4byte	.LASF142
 7921 1f74 15       		.byte	0x15
 7922 1f75 26       		.byte	0x26
 7923 1f76 1F       		.uleb128 0x1f
 7924 1f77 89020000 		.4byte	.LASF143
 7925 1f7b 89020000 		.4byte	.LASF143
 7926 1f7f 0D       		.byte	0xd
 7927 1f80 77       		.byte	0x77
 7928 1f81 1F       		.uleb128 0x1f
 7929 1f82 B9060000 		.4byte	.LASF144
 7930 1f86 B9060000 		.4byte	.LASF144
 7931 1f8a 16       		.byte	0x16
 7932 1f8b 29       		.byte	0x29
 7933 1f8c 1F       		.uleb128 0x1f
 7934 1f8d 39070000 		.4byte	.LASF145
 7935 1f91 39070000 		.4byte	.LASF145
 7936 1f95 17       		.byte	0x17
 7937 1f96 29       		.byte	0x29
 7938 1f97 1F       		.uleb128 0x1f
 7939 1f98 1E010000 		.4byte	.LASF146
 7940 1f9c 1E010000 		.4byte	.LASF146
 7941 1fa0 18       		.byte	0x18
 7942 1fa1 29       		.byte	0x29
 7943 1fa2 1F       		.uleb128 0x1f
 7944 1fa3 C4080000 		.4byte	.LASF147
 7945 1fa7 C4080000 		.4byte	.LASF147
 7946 1fab 06       		.byte	0x6
 7947 1fac C7       		.byte	0xc7
 7948 1fad 1F       		.uleb128 0x1f
 7949 1fae 8D070000 		.4byte	.LASF148
 7950 1fb2 8D070000 		.4byte	.LASF148
 7951 1fb6 19       		.byte	0x19
 7952 1fb7 26       		.byte	0x26
 7953 1fb8 1F       		.uleb128 0x1f
 7954 1fb9 F3020000 		.4byte	.LASF149
 7955 1fbd F3020000 		.4byte	.LASF149
 7956 1fc1 1A       		.byte	0x1a
 7957 1fc2 26       		.byte	0x26
 7958 1fc3 1F       		.uleb128 0x1f
 7959 1fc4 78000000 		.4byte	.LASF150
 7960 1fc8 78000000 		.4byte	.LASF150
 7961 1fcc 1B       		.byte	0x1b
ARM GAS  C:\Users\weiro\AppData\Local\Temp\ccK6dLS7.s 			page 164


 7962 1fcd 26       		.byte	0x26
 7963 1fce 1F       		.uleb128 0x1f
 7964 1fcf 54070000 		.4byte	.LASF151
 7965 1fd3 54070000 		.4byte	.LASF151
 7966 1fd7 1C       		.byte	0x1c
 7967 1fd8 4F       		.byte	0x4f
 7968 1fd9 1F       		.uleb128 0x1f
 7969 1fda 70090000 		.4byte	.LASF152
 7970 1fde 70090000 		.4byte	.LASF152
 7971 1fe2 1D       		.byte	0x1d
 7972 1fe3 26       		.byte	0x26
 7973 1fe4 1F       		.uleb128 0x1f
 7974 1fe5 E6040000 		.4byte	.LASF153
 7975 1fe9 E6040000 		.4byte	.LASF153
 7976 1fed 1E       		.byte	0x1e
 7977 1fee 26       		.byte	0x26
 7978 1fef 1F       		.uleb128 0x1f
 7979 1ff0 13050000 		.4byte	.LASF154
 7980 1ff4 13050000 		.4byte	.LASF154
 7981 1ff8 1F       		.byte	0x1f
 7982 1ff9 2F       		.byte	0x2f
 7983 1ffa 1F       		.uleb128 0x1f
 7984 1ffb D1050000 		.4byte	.LASF155
 7985 1fff D1050000 		.4byte	.LASF155
 7986 2003 1C       		.byte	0x1c
 7987 2004 5E       		.byte	0x5e
 7988 2005 1F       		.uleb128 0x1f
 7989 2006 24080000 		.4byte	.LASF156
 7990 200a 24080000 		.4byte	.LASF156
 7991 200e 1C       		.byte	0x1c
 7992 200f 50       		.byte	0x50
 7993 2010 1F       		.uleb128 0x1f
 7994 2011 06090000 		.4byte	.LASF157
 7995 2015 06090000 		.4byte	.LASF157
 7996 2019 20       		.byte	0x20
 7997 201a 26       		.byte	0x26
 7998 201b 1F       		.uleb128 0x1f
 7999 201c 82010000 		.4byte	.LASF158
 8000 2020 82010000 		.4byte	.LASF158
 8001 2024 21       		.byte	0x21
 8002 2025 26       		.byte	0x26
 8003 2026 1F       		.uleb128 0x1f
 8004 2027 14030000 		.4byte	.LASF159
 8005 202b 14030000 		.4byte	.LASF159
 8006 202f 22       		.byte	0x22
 8007 2030 26       		.byte	0x26
 8008 2031 1F       		.uleb128 0x1f
 8009 2032 27050000 		.4byte	.LASF160
 8010 2036 27050000 		.4byte	.LASF160
 8011 203a 23       		.byte	0x23
 8012 203b 26       		.byte	0x26
 8013 203c 1F       		.uleb128 0x1f
 8014 203d 52020000 		.4byte	.LASF161
 8015 2041 52020000 		.4byte	.LASF161
 8016 2045 24       		.byte	0x24
 8017 2046 D1       		.byte	0xd1
 8018 2047 1F       		.uleb128 0x1f
ARM GAS  C:\Users\weiro\AppData\Local\Temp\ccK6dLS7.s 			page 165


 8019 2048 1F040000 		.4byte	.LASF162
 8020 204c 1F040000 		.4byte	.LASF162
 8021 2050 24       		.byte	0x24
 8022 2051 39       		.byte	0x39
 8023 2052 1F       		.uleb128 0x1f
 8024 2053 3D080000 		.4byte	.LASF163
 8025 2057 3D080000 		.4byte	.LASF163
 8026 205b 24       		.byte	0x24
 8027 205c 3A       		.byte	0x3a
 8028 205d 20       		.uleb128 0x20
 8029 205e 706F7700 		.ascii	"pow\000"
 8030 2062 706F7700 		.ascii	"pow\000"
 8031 2066 2E       		.byte	0x2e
 8032 2067 86       		.byte	0x86
 8033 2068 1F       		.uleb128 0x1f
 8034 2069 CA000000 		.4byte	.LASF164
 8035 206d CA000000 		.4byte	.LASF164
 8036 2071 25       		.byte	0x25
 8037 2072 18       		.byte	0x18
 8038 2073 1F       		.uleb128 0x1f
 8039 2074 5F050000 		.4byte	.LASF165
 8040 2078 5F050000 		.4byte	.LASF165
 8041 207c 26       		.byte	0x26
 8042 207d 18       		.byte	0x18
 8043 207e 1F       		.uleb128 0x1f
 8044 207f 350A0000 		.4byte	.LASF166
 8045 2083 350A0000 		.4byte	.LASF166
 8046 2087 27       		.byte	0x27
 8047 2088 5A       		.byte	0x5a
 8048 2089 1F       		.uleb128 0x1f
 8049 208a 85060000 		.4byte	.LASF167
 8050 208e 85060000 		.4byte	.LASF167
 8051 2092 28       		.byte	0x28
 8052 2093 18       		.byte	0x18
 8053 2094 1F       		.uleb128 0x1f
 8054 2095 D3020000 		.4byte	.LASF168
 8055 2099 D3020000 		.4byte	.LASF168
 8056 209d 09       		.byte	0x9
 8057 209e 92       		.byte	0x92
 8058 209f 1F       		.uleb128 0x1f
 8059 20a0 9B080000 		.4byte	.LASF169
 8060 20a4 9B080000 		.4byte	.LASF169
 8061 20a8 29       		.byte	0x29
 8062 20a9 18       		.byte	0x18
 8063 20aa 1F       		.uleb128 0x1f
 8064 20ab 7C070000 		.4byte	.LASF170
 8065 20af 7C070000 		.4byte	.LASF170
 8066 20b3 06       		.byte	0x6
 8067 20b4 92       		.byte	0x92
 8068 20b5 1F       		.uleb128 0x1f
 8069 20b6 93000000 		.4byte	.LASF171
 8070 20ba 93000000 		.4byte	.LASF171
 8071 20be 2A       		.byte	0x2a
 8072 20bf 92       		.byte	0x92
 8073 20c0 1F       		.uleb128 0x1f
 8074 20c1 65000000 		.4byte	.LASF172
 8075 20c5 65000000 		.4byte	.LASF172
ARM GAS  C:\Users\weiro\AppData\Local\Temp\ccK6dLS7.s 			page 166


 8076 20c9 2B       		.byte	0x2b
 8077 20ca 92       		.byte	0x92
 8078 20cb 1F       		.uleb128 0x1f
 8079 20cc 63010000 		.4byte	.LASF173
 8080 20d0 63010000 		.4byte	.LASF173
 8081 20d4 12       		.byte	0x12
 8082 20d5 48       		.byte	0x48
 8083 20d6 1F       		.uleb128 0x1f
 8084 20d7 F3060000 		.4byte	.LASF174
 8085 20db F3060000 		.4byte	.LASF174
 8086 20df 13       		.byte	0x13
 8087 20e0 48       		.byte	0x48
 8088 20e1 1F       		.uleb128 0x1f
 8089 20e2 52080000 		.4byte	.LASF175
 8090 20e6 52080000 		.4byte	.LASF175
 8091 20ea 0A       		.byte	0xa
 8092 20eb 54       		.byte	0x54
 8093 20ec 1F       		.uleb128 0x1f
 8094 20ed 48070000 		.4byte	.LASF176
 8095 20f1 48070000 		.4byte	.LASF176
 8096 20f5 0C       		.byte	0xc
 8097 20f6 93       		.byte	0x93
 8098 20f7 1F       		.uleb128 0x1f
 8099 20f8 35050000 		.4byte	.LASF177
 8100 20fc 35050000 		.4byte	.LASF177
 8101 2100 0B       		.byte	0xb
 8102 2101 5A       		.byte	0x5a
 8103 2102 1F       		.uleb128 0x1f
 8104 2103 AE050000 		.4byte	.LASF178
 8105 2107 AE050000 		.4byte	.LASF178
 8106 210b 2C       		.byte	0x2c
 8107 210c 18       		.byte	0x18
 8108 210d 1F       		.uleb128 0x1f
 8109 210e F30A0000 		.4byte	.LASF179
 8110 2112 F30A0000 		.4byte	.LASF179
 8111 2116 2D       		.byte	0x2d
 8112 2117 1C       		.byte	0x1c
 8113 2118 1F       		.uleb128 0x1f
 8114 2119 39040000 		.4byte	.LASF180
 8115 211d 39040000 		.4byte	.LASF180
 8116 2121 2B       		.byte	0x2b
 8117 2122 C3       		.byte	0xc3
 8118 2123 1F       		.uleb128 0x1f
 8119 2124 53060000 		.4byte	.LASF181
 8120 2128 53060000 		.4byte	.LASF181
 8121 212c 2A       		.byte	0x2a
 8122 212d C3       		.byte	0xc3
 8123 212e 1F       		.uleb128 0x1f
 8124 212f 83090000 		.4byte	.LASF182
 8125 2133 83090000 		.4byte	.LASF182
 8126 2137 2D       		.byte	0x2d
 8127 2138 2A       		.byte	0x2a
 8128 2139 1F       		.uleb128 0x1f
 8129 213a 12020000 		.4byte	.LASF183
 8130 213e 12020000 		.4byte	.LASF183
 8131 2142 2D       		.byte	0x2d
 8132 2143 1E       		.byte	0x1e
ARM GAS  C:\Users\weiro\AppData\Local\Temp\ccK6dLS7.s 			page 167


 8133 2144 00       		.byte	0
 8134              		.section	.debug_abbrev,"",%progbits
 8135              	.Ldebug_abbrev0:
 8136 0000 01       		.uleb128 0x1
 8137 0001 11       		.uleb128 0x11
 8138 0002 01       		.byte	0x1
 8139 0003 25       		.uleb128 0x25
 8140 0004 0E       		.uleb128 0xe
 8141 0005 13       		.uleb128 0x13
 8142 0006 0B       		.uleb128 0xb
 8143 0007 03       		.uleb128 0x3
 8144 0008 0E       		.uleb128 0xe
 8145 0009 1B       		.uleb128 0x1b
 8146 000a 0E       		.uleb128 0xe
 8147 000b 55       		.uleb128 0x55
 8148 000c 17       		.uleb128 0x17
 8149 000d 11       		.uleb128 0x11
 8150 000e 01       		.uleb128 0x1
 8151 000f 10       		.uleb128 0x10
 8152 0010 17       		.uleb128 0x17
 8153 0011 00       		.byte	0
 8154 0012 00       		.byte	0
 8155 0013 02       		.uleb128 0x2
 8156 0014 24       		.uleb128 0x24
 8157 0015 00       		.byte	0
 8158 0016 0B       		.uleb128 0xb
 8159 0017 0B       		.uleb128 0xb
 8160 0018 3E       		.uleb128 0x3e
 8161 0019 0B       		.uleb128 0xb
 8162 001a 03       		.uleb128 0x3
 8163 001b 0E       		.uleb128 0xe
 8164 001c 00       		.byte	0
 8165 001d 00       		.byte	0
 8166 001e 03       		.uleb128 0x3
 8167 001f 16       		.uleb128 0x16
 8168 0020 00       		.byte	0
 8169 0021 03       		.uleb128 0x3
 8170 0022 0E       		.uleb128 0xe
 8171 0023 3A       		.uleb128 0x3a
 8172 0024 0B       		.uleb128 0xb
 8173 0025 3B       		.uleb128 0x3b
 8174 0026 0B       		.uleb128 0xb
 8175 0027 49       		.uleb128 0x49
 8176 0028 13       		.uleb128 0x13
 8177 0029 00       		.byte	0
 8178 002a 00       		.byte	0
 8179 002b 04       		.uleb128 0x4
 8180 002c 24       		.uleb128 0x24
 8181 002d 00       		.byte	0
 8182 002e 0B       		.uleb128 0xb
 8183 002f 0B       		.uleb128 0xb
 8184 0030 3E       		.uleb128 0x3e
 8185 0031 0B       		.uleb128 0xb
 8186 0032 03       		.uleb128 0x3
 8187 0033 08       		.uleb128 0x8
 8188 0034 00       		.byte	0
 8189 0035 00       		.byte	0
ARM GAS  C:\Users\weiro\AppData\Local\Temp\ccK6dLS7.s 			page 168


 8190 0036 05       		.uleb128 0x5
 8191 0037 16       		.uleb128 0x16
 8192 0038 00       		.byte	0
 8193 0039 03       		.uleb128 0x3
 8194 003a 0E       		.uleb128 0xe
 8195 003b 3A       		.uleb128 0x3a
 8196 003c 0B       		.uleb128 0xb
 8197 003d 3B       		.uleb128 0x3b
 8198 003e 05       		.uleb128 0x5
 8199 003f 49       		.uleb128 0x49
 8200 0040 13       		.uleb128 0x13
 8201 0041 00       		.byte	0
 8202 0042 00       		.byte	0
 8203 0043 06       		.uleb128 0x6
 8204 0044 0F       		.uleb128 0xf
 8205 0045 00       		.byte	0
 8206 0046 0B       		.uleb128 0xb
 8207 0047 0B       		.uleb128 0xb
 8208 0048 49       		.uleb128 0x49
 8209 0049 13       		.uleb128 0x13
 8210 004a 00       		.byte	0
 8211 004b 00       		.byte	0
 8212 004c 07       		.uleb128 0x7
 8213 004d 2E       		.uleb128 0x2e
 8214 004e 01       		.byte	0x1
 8215 004f 3F       		.uleb128 0x3f
 8216 0050 19       		.uleb128 0x19
 8217 0051 03       		.uleb128 0x3
 8218 0052 0E       		.uleb128 0xe
 8219 0053 3A       		.uleb128 0x3a
 8220 0054 0B       		.uleb128 0xb
 8221 0055 3B       		.uleb128 0x3b
 8222 0056 0B       		.uleb128 0xb
 8223 0057 27       		.uleb128 0x27
 8224 0058 19       		.uleb128 0x19
 8225 0059 11       		.uleb128 0x11
 8226 005a 01       		.uleb128 0x1
 8227 005b 12       		.uleb128 0x12
 8228 005c 06       		.uleb128 0x6
 8229 005d 40       		.uleb128 0x40
 8230 005e 18       		.uleb128 0x18
 8231 005f 9642     		.uleb128 0x2116
 8232 0061 19       		.uleb128 0x19
 8233 0062 01       		.uleb128 0x1
 8234 0063 13       		.uleb128 0x13
 8235 0064 00       		.byte	0
 8236 0065 00       		.byte	0
 8237 0066 08       		.uleb128 0x8
 8238 0067 898201   		.uleb128 0x4109
 8239 006a 00       		.byte	0
 8240 006b 11       		.uleb128 0x11
 8241 006c 01       		.uleb128 0x1
 8242 006d 31       		.uleb128 0x31
 8243 006e 13       		.uleb128 0x13
 8244 006f 00       		.byte	0
 8245 0070 00       		.byte	0
 8246 0071 09       		.uleb128 0x9
ARM GAS  C:\Users\weiro\AppData\Local\Temp\ccK6dLS7.s 			page 169


 8247 0072 898201   		.uleb128 0x4109
 8248 0075 01       		.byte	0x1
 8249 0076 11       		.uleb128 0x11
 8250 0077 01       		.uleb128 0x1
 8251 0078 31       		.uleb128 0x31
 8252 0079 13       		.uleb128 0x13
 8253 007a 00       		.byte	0
 8254 007b 00       		.byte	0
 8255 007c 0A       		.uleb128 0xa
 8256 007d 8A8201   		.uleb128 0x410a
 8257 0080 00       		.byte	0
 8258 0081 02       		.uleb128 0x2
 8259 0082 18       		.uleb128 0x18
 8260 0083 9142     		.uleb128 0x2111
 8261 0085 18       		.uleb128 0x18
 8262 0086 00       		.byte	0
 8263 0087 00       		.byte	0
 8264 0088 0B       		.uleb128 0xb
 8265 0089 2E       		.uleb128 0x2e
 8266 008a 01       		.byte	0x1
 8267 008b 3F       		.uleb128 0x3f
 8268 008c 19       		.uleb128 0x19
 8269 008d 03       		.uleb128 0x3
 8270 008e 0E       		.uleb128 0xe
 8271 008f 3A       		.uleb128 0x3a
 8272 0090 0B       		.uleb128 0xb
 8273 0091 3B       		.uleb128 0x3b
 8274 0092 0B       		.uleb128 0xb
 8275 0093 27       		.uleb128 0x27
 8276 0094 19       		.uleb128 0x19
 8277 0095 11       		.uleb128 0x11
 8278 0096 01       		.uleb128 0x1
 8279 0097 12       		.uleb128 0x12
 8280 0098 06       		.uleb128 0x6
 8281 0099 40       		.uleb128 0x40
 8282 009a 18       		.uleb128 0x18
 8283 009b 9742     		.uleb128 0x2117
 8284 009d 19       		.uleb128 0x19
 8285 009e 01       		.uleb128 0x1
 8286 009f 13       		.uleb128 0x13
 8287 00a0 00       		.byte	0
 8288 00a1 00       		.byte	0
 8289 00a2 0C       		.uleb128 0xc
 8290 00a3 898201   		.uleb128 0x4109
 8291 00a6 01       		.byte	0x1
 8292 00a7 11       		.uleb128 0x11
 8293 00a8 01       		.uleb128 0x1
 8294 00a9 31       		.uleb128 0x31
 8295 00aa 13       		.uleb128 0x13
 8296 00ab 01       		.uleb128 0x1
 8297 00ac 13       		.uleb128 0x13
 8298 00ad 00       		.byte	0
 8299 00ae 00       		.byte	0
 8300 00af 0D       		.uleb128 0xd
 8301 00b0 2E       		.uleb128 0x2e
 8302 00b1 01       		.byte	0x1
 8303 00b2 3F       		.uleb128 0x3f
ARM GAS  C:\Users\weiro\AppData\Local\Temp\ccK6dLS7.s 			page 170


 8304 00b3 19       		.uleb128 0x19
 8305 00b4 03       		.uleb128 0x3
 8306 00b5 0E       		.uleb128 0xe
 8307 00b6 3A       		.uleb128 0x3a
 8308 00b7 0B       		.uleb128 0xb
 8309 00b8 3B       		.uleb128 0x3b
 8310 00b9 05       		.uleb128 0x5
 8311 00ba 11       		.uleb128 0x11
 8312 00bb 01       		.uleb128 0x1
 8313 00bc 12       		.uleb128 0x12
 8314 00bd 06       		.uleb128 0x6
 8315 00be 40       		.uleb128 0x40
 8316 00bf 18       		.uleb128 0x18
 8317 00c0 9742     		.uleb128 0x2117
 8318 00c2 19       		.uleb128 0x19
 8319 00c3 01       		.uleb128 0x1
 8320 00c4 13       		.uleb128 0x13
 8321 00c5 00       		.byte	0
 8322 00c6 00       		.byte	0
 8323 00c7 0E       		.uleb128 0xe
 8324 00c8 2E       		.uleb128 0x2e
 8325 00c9 01       		.byte	0x1
 8326 00ca 3F       		.uleb128 0x3f
 8327 00cb 19       		.uleb128 0x19
 8328 00cc 03       		.uleb128 0x3
 8329 00cd 0E       		.uleb128 0xe
 8330 00ce 3A       		.uleb128 0x3a
 8331 00cf 0B       		.uleb128 0xb
 8332 00d0 3B       		.uleb128 0x3b
 8333 00d1 05       		.uleb128 0x5
 8334 00d2 27       		.uleb128 0x27
 8335 00d3 19       		.uleb128 0x19
 8336 00d4 11       		.uleb128 0x11
 8337 00d5 01       		.uleb128 0x1
 8338 00d6 12       		.uleb128 0x12
 8339 00d7 06       		.uleb128 0x6
 8340 00d8 40       		.uleb128 0x40
 8341 00d9 18       		.uleb128 0x18
 8342 00da 9642     		.uleb128 0x2116
 8343 00dc 19       		.uleb128 0x19
 8344 00dd 01       		.uleb128 0x1
 8345 00de 13       		.uleb128 0x13
 8346 00df 00       		.byte	0
 8347 00e0 00       		.byte	0
 8348 00e1 0F       		.uleb128 0xf
 8349 00e2 05       		.uleb128 0x5
 8350 00e3 00       		.byte	0
 8351 00e4 03       		.uleb128 0x3
 8352 00e5 0E       		.uleb128 0xe
 8353 00e6 3A       		.uleb128 0x3a
 8354 00e7 0B       		.uleb128 0xb
 8355 00e8 3B       		.uleb128 0x3b
 8356 00e9 05       		.uleb128 0x5
 8357 00ea 49       		.uleb128 0x49
 8358 00eb 13       		.uleb128 0x13
 8359 00ec 02       		.uleb128 0x2
 8360 00ed 17       		.uleb128 0x17
ARM GAS  C:\Users\weiro\AppData\Local\Temp\ccK6dLS7.s 			page 171


 8361 00ee 00       		.byte	0
 8362 00ef 00       		.byte	0
 8363 00f0 10       		.uleb128 0x10
 8364 00f1 34       		.uleb128 0x34
 8365 00f2 00       		.byte	0
 8366 00f3 03       		.uleb128 0x3
 8367 00f4 0E       		.uleb128 0xe
 8368 00f5 3A       		.uleb128 0x3a
 8369 00f6 0B       		.uleb128 0xb
 8370 00f7 3B       		.uleb128 0x3b
 8371 00f8 05       		.uleb128 0x5
 8372 00f9 49       		.uleb128 0x49
 8373 00fa 13       		.uleb128 0x13
 8374 00fb 02       		.uleb128 0x2
 8375 00fc 17       		.uleb128 0x17
 8376 00fd 00       		.byte	0
 8377 00fe 00       		.byte	0
 8378 00ff 11       		.uleb128 0x11
 8379 0100 2E       		.uleb128 0x2e
 8380 0101 01       		.byte	0x1
 8381 0102 3F       		.uleb128 0x3f
 8382 0103 19       		.uleb128 0x19
 8383 0104 03       		.uleb128 0x3
 8384 0105 0E       		.uleb128 0xe
 8385 0106 3A       		.uleb128 0x3a
 8386 0107 0B       		.uleb128 0xb
 8387 0108 3B       		.uleb128 0x3b
 8388 0109 05       		.uleb128 0x5
 8389 010a 11       		.uleb128 0x11
 8390 010b 01       		.uleb128 0x1
 8391 010c 12       		.uleb128 0x12
 8392 010d 06       		.uleb128 0x6
 8393 010e 40       		.uleb128 0x40
 8394 010f 18       		.uleb128 0x18
 8395 0110 9642     		.uleb128 0x2116
 8396 0112 19       		.uleb128 0x19
 8397 0113 01       		.uleb128 0x1
 8398 0114 13       		.uleb128 0x13
 8399 0115 00       		.byte	0
 8400 0116 00       		.byte	0
 8401 0117 12       		.uleb128 0x12
 8402 0118 34       		.uleb128 0x34
 8403 0119 00       		.byte	0
 8404 011a 03       		.uleb128 0x3
 8405 011b 0E       		.uleb128 0xe
 8406 011c 3A       		.uleb128 0x3a
 8407 011d 0B       		.uleb128 0xb
 8408 011e 3B       		.uleb128 0x3b
 8409 011f 05       		.uleb128 0x5
 8410 0120 49       		.uleb128 0x49
 8411 0121 13       		.uleb128 0x13
 8412 0122 1C       		.uleb128 0x1c
 8413 0123 0B       		.uleb128 0xb
 8414 0124 00       		.byte	0
 8415 0125 00       		.byte	0
 8416 0126 13       		.uleb128 0x13
 8417 0127 0B       		.uleb128 0xb
ARM GAS  C:\Users\weiro\AppData\Local\Temp\ccK6dLS7.s 			page 172


 8418 0128 01       		.byte	0x1
 8419 0129 55       		.uleb128 0x55
 8420 012a 17       		.uleb128 0x17
 8421 012b 01       		.uleb128 0x1
 8422 012c 13       		.uleb128 0x13
 8423 012d 00       		.byte	0
 8424 012e 00       		.byte	0
 8425 012f 14       		.uleb128 0x14
 8426 0130 2E       		.uleb128 0x2e
 8427 0131 01       		.byte	0x1
 8428 0132 3F       		.uleb128 0x3f
 8429 0133 19       		.uleb128 0x19
 8430 0134 03       		.uleb128 0x3
 8431 0135 08       		.uleb128 0x8
 8432 0136 3A       		.uleb128 0x3a
 8433 0137 0B       		.uleb128 0xb
 8434 0138 3B       		.uleb128 0x3b
 8435 0139 05       		.uleb128 0x5
 8436 013a 27       		.uleb128 0x27
 8437 013b 19       		.uleb128 0x19
 8438 013c 11       		.uleb128 0x11
 8439 013d 01       		.uleb128 0x1
 8440 013e 12       		.uleb128 0x12
 8441 013f 06       		.uleb128 0x6
 8442 0140 40       		.uleb128 0x40
 8443 0141 18       		.uleb128 0x18
 8444 0142 9742     		.uleb128 0x2117
 8445 0144 19       		.uleb128 0x19
 8446 0145 01       		.uleb128 0x1
 8447 0146 13       		.uleb128 0x13
 8448 0147 00       		.byte	0
 8449 0148 00       		.byte	0
 8450 0149 15       		.uleb128 0x15
 8451 014a 34       		.uleb128 0x34
 8452 014b 00       		.byte	0
 8453 014c 03       		.uleb128 0x3
 8454 014d 0E       		.uleb128 0xe
 8455 014e 3A       		.uleb128 0x3a
 8456 014f 0B       		.uleb128 0xb
 8457 0150 3B       		.uleb128 0x3b
 8458 0151 05       		.uleb128 0x5
 8459 0152 49       		.uleb128 0x49
 8460 0153 13       		.uleb128 0x13
 8461 0154 1C       		.uleb128 0x1c
 8462 0155 0A       		.uleb128 0xa
 8463 0156 00       		.byte	0
 8464 0157 00       		.byte	0
 8465 0158 16       		.uleb128 0x16
 8466 0159 2E       		.uleb128 0x2e
 8467 015a 01       		.byte	0x1
 8468 015b 3F       		.uleb128 0x3f
 8469 015c 19       		.uleb128 0x19
 8470 015d 03       		.uleb128 0x3
 8471 015e 0E       		.uleb128 0xe
 8472 015f 3A       		.uleb128 0x3a
 8473 0160 0B       		.uleb128 0xb
 8474 0161 3B       		.uleb128 0x3b
ARM GAS  C:\Users\weiro\AppData\Local\Temp\ccK6dLS7.s 			page 173


 8475 0162 05       		.uleb128 0x5
 8476 0163 49       		.uleb128 0x49
 8477 0164 13       		.uleb128 0x13
 8478 0165 11       		.uleb128 0x11
 8479 0166 01       		.uleb128 0x1
 8480 0167 12       		.uleb128 0x12
 8481 0168 06       		.uleb128 0x6
 8482 0169 40       		.uleb128 0x40
 8483 016a 18       		.uleb128 0x18
 8484 016b 9642     		.uleb128 0x2116
 8485 016d 19       		.uleb128 0x19
 8486 016e 01       		.uleb128 0x1
 8487 016f 13       		.uleb128 0x13
 8488 0170 00       		.byte	0
 8489 0171 00       		.byte	0
 8490 0172 17       		.uleb128 0x17
 8491 0173 2E       		.uleb128 0x2e
 8492 0174 01       		.byte	0x1
 8493 0175 3F       		.uleb128 0x3f
 8494 0176 19       		.uleb128 0x19
 8495 0177 03       		.uleb128 0x3
 8496 0178 0E       		.uleb128 0xe
 8497 0179 3A       		.uleb128 0x3a
 8498 017a 0B       		.uleb128 0xb
 8499 017b 3B       		.uleb128 0x3b
 8500 017c 05       		.uleb128 0x5
 8501 017d 27       		.uleb128 0x27
 8502 017e 19       		.uleb128 0x19
 8503 017f 49       		.uleb128 0x49
 8504 0180 13       		.uleb128 0x13
 8505 0181 8701     		.uleb128 0x87
 8506 0183 19       		.uleb128 0x19
 8507 0184 11       		.uleb128 0x11
 8508 0185 01       		.uleb128 0x1
 8509 0186 12       		.uleb128 0x12
 8510 0187 06       		.uleb128 0x6
 8511 0188 40       		.uleb128 0x40
 8512 0189 18       		.uleb128 0x18
 8513 018a 9642     		.uleb128 0x2116
 8514 018c 19       		.uleb128 0x19
 8515 018d 01       		.uleb128 0x1
 8516 018e 13       		.uleb128 0x13
 8517 018f 00       		.byte	0
 8518 0190 00       		.byte	0
 8519 0191 18       		.uleb128 0x18
 8520 0192 0B       		.uleb128 0xb
 8521 0193 01       		.byte	0x1
 8522 0194 11       		.uleb128 0x11
 8523 0195 01       		.uleb128 0x1
 8524 0196 12       		.uleb128 0x12
 8525 0197 06       		.uleb128 0x6
 8526 0198 01       		.uleb128 0x1
 8527 0199 13       		.uleb128 0x13
 8528 019a 00       		.byte	0
 8529 019b 00       		.byte	0
 8530 019c 19       		.uleb128 0x19
 8531 019d 34       		.uleb128 0x34
ARM GAS  C:\Users\weiro\AppData\Local\Temp\ccK6dLS7.s 			page 174


 8532 019e 00       		.byte	0
 8533 019f 03       		.uleb128 0x3
 8534 01a0 0E       		.uleb128 0xe
 8535 01a1 3A       		.uleb128 0x3a
 8536 01a2 0B       		.uleb128 0xb
 8537 01a3 3B       		.uleb128 0x3b
 8538 01a4 05       		.uleb128 0x5
 8539 01a5 49       		.uleb128 0x49
 8540 01a6 13       		.uleb128 0x13
 8541 01a7 3F       		.uleb128 0x3f
 8542 01a8 19       		.uleb128 0x19
 8543 01a9 3C       		.uleb128 0x3c
 8544 01aa 19       		.uleb128 0x19
 8545 01ab 00       		.byte	0
 8546 01ac 00       		.byte	0
 8547 01ad 1A       		.uleb128 0x1a
 8548 01ae 35       		.uleb128 0x35
 8549 01af 00       		.byte	0
 8550 01b0 49       		.uleb128 0x49
 8551 01b1 13       		.uleb128 0x13
 8552 01b2 00       		.byte	0
 8553 01b3 00       		.byte	0
 8554 01b4 1B       		.uleb128 0x1b
 8555 01b5 34       		.uleb128 0x34
 8556 01b6 00       		.byte	0
 8557 01b7 03       		.uleb128 0x3
 8558 01b8 0E       		.uleb128 0xe
 8559 01b9 3A       		.uleb128 0x3a
 8560 01ba 0B       		.uleb128 0xb
 8561 01bb 3B       		.uleb128 0x3b
 8562 01bc 0B       		.uleb128 0xb
 8563 01bd 49       		.uleb128 0x49
 8564 01be 13       		.uleb128 0x13
 8565 01bf 3F       		.uleb128 0x3f
 8566 01c0 19       		.uleb128 0x19
 8567 01c1 02       		.uleb128 0x2
 8568 01c2 18       		.uleb128 0x18
 8569 01c3 00       		.byte	0
 8570 01c4 00       		.byte	0
 8571 01c5 1C       		.uleb128 0x1c
 8572 01c6 01       		.uleb128 0x1
 8573 01c7 01       		.byte	0x1
 8574 01c8 49       		.uleb128 0x49
 8575 01c9 13       		.uleb128 0x13
 8576 01ca 01       		.uleb128 0x1
 8577 01cb 13       		.uleb128 0x13
 8578 01cc 00       		.byte	0
 8579 01cd 00       		.byte	0
 8580 01ce 1D       		.uleb128 0x1d
 8581 01cf 21       		.uleb128 0x21
 8582 01d0 00       		.byte	0
 8583 01d1 49       		.uleb128 0x49
 8584 01d2 13       		.uleb128 0x13
 8585 01d3 2F       		.uleb128 0x2f
 8586 01d4 0B       		.uleb128 0xb
 8587 01d5 00       		.byte	0
 8588 01d6 00       		.byte	0
ARM GAS  C:\Users\weiro\AppData\Local\Temp\ccK6dLS7.s 			page 175


 8589 01d7 1E       		.uleb128 0x1e
 8590 01d8 34       		.uleb128 0x34
 8591 01d9 00       		.byte	0
 8592 01da 03       		.uleb128 0x3
 8593 01db 08       		.uleb128 0x8
 8594 01dc 3A       		.uleb128 0x3a
 8595 01dd 0B       		.uleb128 0xb
 8596 01de 3B       		.uleb128 0x3b
 8597 01df 0B       		.uleb128 0xb
 8598 01e0 49       		.uleb128 0x49
 8599 01e1 13       		.uleb128 0x13
 8600 01e2 3F       		.uleb128 0x3f
 8601 01e3 19       		.uleb128 0x19
 8602 01e4 02       		.uleb128 0x2
 8603 01e5 18       		.uleb128 0x18
 8604 01e6 00       		.byte	0
 8605 01e7 00       		.byte	0
 8606 01e8 1F       		.uleb128 0x1f
 8607 01e9 2E       		.uleb128 0x2e
 8608 01ea 00       		.byte	0
 8609 01eb 3F       		.uleb128 0x3f
 8610 01ec 19       		.uleb128 0x19
 8611 01ed 3C       		.uleb128 0x3c
 8612 01ee 19       		.uleb128 0x19
 8613 01ef 6E       		.uleb128 0x6e
 8614 01f0 0E       		.uleb128 0xe
 8615 01f1 03       		.uleb128 0x3
 8616 01f2 0E       		.uleb128 0xe
 8617 01f3 3A       		.uleb128 0x3a
 8618 01f4 0B       		.uleb128 0xb
 8619 01f5 3B       		.uleb128 0x3b
 8620 01f6 0B       		.uleb128 0xb
 8621 01f7 00       		.byte	0
 8622 01f8 00       		.byte	0
 8623 01f9 20       		.uleb128 0x20
 8624 01fa 2E       		.uleb128 0x2e
 8625 01fb 00       		.byte	0
 8626 01fc 3F       		.uleb128 0x3f
 8627 01fd 19       		.uleb128 0x19
 8628 01fe 3C       		.uleb128 0x3c
 8629 01ff 19       		.uleb128 0x19
 8630 0200 6E       		.uleb128 0x6e
 8631 0201 08       		.uleb128 0x8
 8632 0202 03       		.uleb128 0x3
 8633 0203 08       		.uleb128 0x8
 8634 0204 3A       		.uleb128 0x3a
 8635 0205 0B       		.uleb128 0xb
 8636 0206 3B       		.uleb128 0x3b
 8637 0207 0B       		.uleb128 0xb
 8638 0208 00       		.byte	0
 8639 0209 00       		.byte	0
 8640 020a 00       		.byte	0
 8641              		.section	.debug_loc,"",%progbits
 8642              	.Ldebug_loc0:
 8643              	.LLST0:
 8644 0000 00000000 		.4byte	.LVL72
 8645 0004 07000000 		.4byte	.LVL73-1
ARM GAS  C:\Users\weiro\AppData\Local\Temp\ccK6dLS7.s 			page 176


 8646 0008 0100     		.2byte	0x1
 8647 000a 50       		.byte	0x50
 8648 000b 07000000 		.4byte	.LVL73-1
 8649 000f 14010000 		.4byte	.LFE75
 8650 0013 0400     		.2byte	0x4
 8651 0015 F3       		.byte	0xf3
 8652 0016 01       		.uleb128 0x1
 8653 0017 50       		.byte	0x50
 8654 0018 9F       		.byte	0x9f
 8655 0019 00000000 		.4byte	0
 8656 001d 00000000 		.4byte	0
 8657              	.LLST1:
 8658 0021 00000000 		.4byte	.LVL72
 8659 0025 07000000 		.4byte	.LVL73-1
 8660 0029 0100     		.2byte	0x1
 8661 002b 51       		.byte	0x51
 8662 002c 07000000 		.4byte	.LVL73-1
 8663 0030 F6000000 		.4byte	.LVL104
 8664 0034 0100     		.2byte	0x1
 8665 0036 56       		.byte	0x56
 8666 0037 F6000000 		.4byte	.LVL104
 8667 003b 14010000 		.4byte	.LFE75
 8668 003f 0400     		.2byte	0x4
 8669 0041 F3       		.byte	0xf3
 8670 0042 01       		.uleb128 0x1
 8671 0043 51       		.byte	0x51
 8672 0044 9F       		.byte	0x9f
 8673 0045 00000000 		.4byte	0
 8674 0049 00000000 		.4byte	0
 8675              	.LLST2:
 8676 004d 70000000 		.4byte	.LVL86
 8677 0051 A0000000 		.4byte	.LVL90
 8678 0055 0600     		.2byte	0x6
 8679 0057 54       		.byte	0x54
 8680 0058 93       		.byte	0x93
 8681 0059 04       		.uleb128 0x4
 8682 005a 55       		.byte	0x55
 8683 005b 93       		.byte	0x93
 8684 005c 04       		.uleb128 0x4
 8685 005d AE000000 		.4byte	.LVL92
 8686 0061 B4000000 		.4byte	.LVL93
 8687 0065 0600     		.2byte	0x6
 8688 0067 54       		.byte	0x54
 8689 0068 93       		.byte	0x93
 8690 0069 04       		.uleb128 0x4
 8691 006a 55       		.byte	0x55
 8692 006b 93       		.byte	0x93
 8693 006c 04       		.uleb128 0x4
 8694 006d C2000000 		.4byte	.LVL95
 8695 0071 C8000000 		.4byte	.LVL96
 8696 0075 0600     		.2byte	0x6
 8697 0077 54       		.byte	0x54
 8698 0078 93       		.byte	0x93
 8699 0079 04       		.uleb128 0x4
 8700 007a 55       		.byte	0x55
 8701 007b 93       		.byte	0x93
 8702 007c 04       		.uleb128 0x4
ARM GAS  C:\Users\weiro\AppData\Local\Temp\ccK6dLS7.s 			page 177


 8703 007d DA000000 		.4byte	.LVL99
 8704 0081 E0000000 		.4byte	.LVL100
 8705 0085 0600     		.2byte	0x6
 8706 0087 54       		.byte	0x54
 8707 0088 93       		.byte	0x93
 8708 0089 04       		.uleb128 0x4
 8709 008a 55       		.byte	0x55
 8710 008b 93       		.byte	0x93
 8711 008c 04       		.uleb128 0x4
 8712 008d 00000000 		.4byte	0
 8713 0091 00000000 		.4byte	0
 8714              	.LLST3:
 8715 0095 96000000 		.4byte	.LVL89
 8716 0099 A7000000 		.4byte	.LVL91-1
 8717 009d 0600     		.2byte	0x6
 8718 009f 50       		.byte	0x50
 8719 00a0 93       		.byte	0x93
 8720 00a1 04       		.uleb128 0x4
 8721 00a2 51       		.byte	0x51
 8722 00a3 93       		.byte	0x93
 8723 00a4 04       		.uleb128 0x4
 8724 00a5 AE000000 		.4byte	.LVL92
 8725 00a9 BB000000 		.4byte	.LVL94-1
 8726 00ad 0600     		.2byte	0x6
 8727 00af 50       		.byte	0x50
 8728 00b0 93       		.byte	0x93
 8729 00b1 04       		.uleb128 0x4
 8730 00b2 51       		.byte	0x51
 8731 00b3 93       		.byte	0x93
 8732 00b4 04       		.uleb128 0x4
 8733 00b5 C2000000 		.4byte	.LVL95
 8734 00b9 D0000000 		.4byte	.LVL97
 8735 00bd 0600     		.2byte	0x6
 8736 00bf 50       		.byte	0x50
 8737 00c0 93       		.byte	0x93
 8738 00c1 04       		.uleb128 0x4
 8739 00c2 51       		.byte	0x51
 8740 00c3 93       		.byte	0x93
 8741 00c4 04       		.uleb128 0x4
 8742 00c5 DA000000 		.4byte	.LVL99
 8743 00c9 E8000000 		.4byte	.LVL101
 8744 00cd 0600     		.2byte	0x6
 8745 00cf 50       		.byte	0x50
 8746 00d0 93       		.byte	0x93
 8747 00d1 04       		.uleb128 0x4
 8748 00d2 51       		.byte	0x51
 8749 00d3 93       		.byte	0x93
 8750 00d4 04       		.uleb128 0x4
 8751 00d5 00000000 		.4byte	0
 8752 00d9 00000000 		.4byte	0
 8753              	.LLST4:
 8754 00dd 18000000 		.4byte	.LVL76
 8755 00e1 1A000000 		.4byte	.LVL77
 8756 00e5 0100     		.2byte	0x1
 8757 00e7 50       		.byte	0x50
 8758 00e8 1A000000 		.4byte	.LVL77
 8759 00ec 70000000 		.4byte	.LVL86
ARM GAS  C:\Users\weiro\AppData\Local\Temp\ccK6dLS7.s 			page 178


 8760 00f0 0100     		.2byte	0x1
 8761 00f2 55       		.byte	0x55
 8762 00f3 00000000 		.4byte	0
 8763 00f7 00000000 		.4byte	0
 8764              	.LLST5:
 8765 00fb 62000000 		.4byte	.LVL117
 8766 00ff 92000000 		.4byte	.LVL121
 8767 0103 0600     		.2byte	0x6
 8768 0105 54       		.byte	0x54
 8769 0106 93       		.byte	0x93
 8770 0107 04       		.uleb128 0x4
 8771 0108 55       		.byte	0x55
 8772 0109 93       		.byte	0x93
 8773 010a 04       		.uleb128 0x4
 8774 010b A0000000 		.4byte	.LVL123
 8775 010f A6000000 		.4byte	.LVL124
 8776 0113 0600     		.2byte	0x6
 8777 0115 54       		.byte	0x54
 8778 0116 93       		.byte	0x93
 8779 0117 04       		.uleb128 0x4
 8780 0118 55       		.byte	0x55
 8781 0119 93       		.byte	0x93
 8782 011a 04       		.uleb128 0x4
 8783 011b B4000000 		.4byte	.LVL126
 8784 011f BA000000 		.4byte	.LVL127
 8785 0123 0600     		.2byte	0x6
 8786 0125 54       		.byte	0x54
 8787 0126 93       		.byte	0x93
 8788 0127 04       		.uleb128 0x4
 8789 0128 55       		.byte	0x55
 8790 0129 93       		.byte	0x93
 8791 012a 04       		.uleb128 0x4
 8792 012b CC000000 		.4byte	.LVL130
 8793 012f D2000000 		.4byte	.LVL131
 8794 0133 0600     		.2byte	0x6
 8795 0135 54       		.byte	0x54
 8796 0136 93       		.byte	0x93
 8797 0137 04       		.uleb128 0x4
 8798 0138 55       		.byte	0x55
 8799 0139 93       		.byte	0x93
 8800 013a 04       		.uleb128 0x4
 8801 013b 00000000 		.4byte	0
 8802 013f 00000000 		.4byte	0
 8803              	.LLST6:
 8804 0143 88000000 		.4byte	.LVL120
 8805 0147 99000000 		.4byte	.LVL122-1
 8806 014b 0600     		.2byte	0x6
 8807 014d 50       		.byte	0x50
 8808 014e 93       		.byte	0x93
 8809 014f 04       		.uleb128 0x4
 8810 0150 51       		.byte	0x51
 8811 0151 93       		.byte	0x93
 8812 0152 04       		.uleb128 0x4
 8813 0153 A0000000 		.4byte	.LVL123
 8814 0157 AD000000 		.4byte	.LVL125-1
 8815 015b 0600     		.2byte	0x6
 8816 015d 50       		.byte	0x50
ARM GAS  C:\Users\weiro\AppData\Local\Temp\ccK6dLS7.s 			page 179


 8817 015e 93       		.byte	0x93
 8818 015f 04       		.uleb128 0x4
 8819 0160 51       		.byte	0x51
 8820 0161 93       		.byte	0x93
 8821 0162 04       		.uleb128 0x4
 8822 0163 B4000000 		.4byte	.LVL126
 8823 0167 C2000000 		.4byte	.LVL128
 8824 016b 0600     		.2byte	0x6
 8825 016d 50       		.byte	0x50
 8826 016e 93       		.byte	0x93
 8827 016f 04       		.uleb128 0x4
 8828 0170 51       		.byte	0x51
 8829 0171 93       		.byte	0x93
 8830 0172 04       		.uleb128 0x4
 8831 0173 CC000000 		.4byte	.LVL130
 8832 0177 DA000000 		.4byte	.LVL132
 8833 017b 0600     		.2byte	0x6
 8834 017d 50       		.byte	0x50
 8835 017e 93       		.byte	0x93
 8836 017f 04       		.uleb128 0x4
 8837 0180 51       		.byte	0x51
 8838 0181 93       		.byte	0x93
 8839 0182 04       		.uleb128 0x4
 8840 0183 00000000 		.4byte	0
 8841 0187 00000000 		.4byte	0
 8842              	.LLST7:
 8843 018b 84000000 		.4byte	.LVL149
 8844 018f B4000000 		.4byte	.LVL153
 8845 0193 0600     		.2byte	0x6
 8846 0195 54       		.byte	0x54
 8847 0196 93       		.byte	0x93
 8848 0197 04       		.uleb128 0x4
 8849 0198 55       		.byte	0x55
 8850 0199 93       		.byte	0x93
 8851 019a 04       		.uleb128 0x4
 8852 019b C2000000 		.4byte	.LVL155
 8853 019f C8000000 		.4byte	.LVL156
 8854 01a3 0600     		.2byte	0x6
 8855 01a5 54       		.byte	0x54
 8856 01a6 93       		.byte	0x93
 8857 01a7 04       		.uleb128 0x4
 8858 01a8 55       		.byte	0x55
 8859 01a9 93       		.byte	0x93
 8860 01aa 04       		.uleb128 0x4
 8861 01ab D6000000 		.4byte	.LVL158
 8862 01af DC000000 		.4byte	.LVL159
 8863 01b3 0600     		.2byte	0x6
 8864 01b5 54       		.byte	0x54
 8865 01b6 93       		.byte	0x93
 8866 01b7 04       		.uleb128 0x4
 8867 01b8 55       		.byte	0x55
 8868 01b9 93       		.byte	0x93
 8869 01ba 04       		.uleb128 0x4
 8870 01bb EE000000 		.4byte	.LVL162
 8871 01bf F4000000 		.4byte	.LVL163
 8872 01c3 0600     		.2byte	0x6
 8873 01c5 54       		.byte	0x54
ARM GAS  C:\Users\weiro\AppData\Local\Temp\ccK6dLS7.s 			page 180


 8874 01c6 93       		.byte	0x93
 8875 01c7 04       		.uleb128 0x4
 8876 01c8 55       		.byte	0x55
 8877 01c9 93       		.byte	0x93
 8878 01ca 04       		.uleb128 0x4
 8879 01cb 00000000 		.4byte	0
 8880 01cf 00000000 		.4byte	0
 8881              	.LLST8:
 8882 01d3 AA000000 		.4byte	.LVL152
 8883 01d7 BB000000 		.4byte	.LVL154-1
 8884 01db 0600     		.2byte	0x6
 8885 01dd 50       		.byte	0x50
 8886 01de 93       		.byte	0x93
 8887 01df 04       		.uleb128 0x4
 8888 01e0 51       		.byte	0x51
 8889 01e1 93       		.byte	0x93
 8890 01e2 04       		.uleb128 0x4
 8891 01e3 C2000000 		.4byte	.LVL155
 8892 01e7 CF000000 		.4byte	.LVL157-1
 8893 01eb 0600     		.2byte	0x6
 8894 01ed 50       		.byte	0x50
 8895 01ee 93       		.byte	0x93
 8896 01ef 04       		.uleb128 0x4
 8897 01f0 51       		.byte	0x51
 8898 01f1 93       		.byte	0x93
 8899 01f2 04       		.uleb128 0x4
 8900 01f3 D6000000 		.4byte	.LVL158
 8901 01f7 E4000000 		.4byte	.LVL160
 8902 01fb 0600     		.2byte	0x6
 8903 01fd 50       		.byte	0x50
 8904 01fe 93       		.byte	0x93
 8905 01ff 04       		.uleb128 0x4
 8906 0200 51       		.byte	0x51
 8907 0201 93       		.byte	0x93
 8908 0202 04       		.uleb128 0x4
 8909 0203 EE000000 		.4byte	.LVL162
 8910 0207 FC000000 		.4byte	.LVL164
 8911 020b 0600     		.2byte	0x6
 8912 020d 50       		.byte	0x50
 8913 020e 93       		.byte	0x93
 8914 020f 04       		.uleb128 0x4
 8915 0210 51       		.byte	0x51
 8916 0211 93       		.byte	0x93
 8917 0212 04       		.uleb128 0x4
 8918 0213 00000000 		.4byte	0
 8919 0217 00000000 		.4byte	0
 8920              	.LLST9:
 8921 021b 36000000 		.4byte	.LVL174
 8922 021f 66000000 		.4byte	.LVL178
 8923 0223 0600     		.2byte	0x6
 8924 0225 54       		.byte	0x54
 8925 0226 93       		.byte	0x93
 8926 0227 04       		.uleb128 0x4
 8927 0228 55       		.byte	0x55
 8928 0229 93       		.byte	0x93
 8929 022a 04       		.uleb128 0x4
 8930 022b 74000000 		.4byte	.LVL180
ARM GAS  C:\Users\weiro\AppData\Local\Temp\ccK6dLS7.s 			page 181


 8931 022f 7A000000 		.4byte	.LVL181
 8932 0233 0600     		.2byte	0x6
 8933 0235 54       		.byte	0x54
 8934 0236 93       		.byte	0x93
 8935 0237 04       		.uleb128 0x4
 8936 0238 55       		.byte	0x55
 8937 0239 93       		.byte	0x93
 8938 023a 04       		.uleb128 0x4
 8939 023b 88000000 		.4byte	.LVL183
 8940 023f 8E000000 		.4byte	.LVL184
 8941 0243 0600     		.2byte	0x6
 8942 0245 54       		.byte	0x54
 8943 0246 93       		.byte	0x93
 8944 0247 04       		.uleb128 0x4
 8945 0248 55       		.byte	0x55
 8946 0249 93       		.byte	0x93
 8947 024a 04       		.uleb128 0x4
 8948 024b A0000000 		.4byte	.LVL187
 8949 024f A6000000 		.4byte	.LVL188
 8950 0253 0600     		.2byte	0x6
 8951 0255 54       		.byte	0x54
 8952 0256 93       		.byte	0x93
 8953 0257 04       		.uleb128 0x4
 8954 0258 55       		.byte	0x55
 8955 0259 93       		.byte	0x93
 8956 025a 04       		.uleb128 0x4
 8957 025b 00000000 		.4byte	0
 8958 025f 00000000 		.4byte	0
 8959              	.LLST10:
 8960 0263 5C000000 		.4byte	.LVL177
 8961 0267 6D000000 		.4byte	.LVL179-1
 8962 026b 0600     		.2byte	0x6
 8963 026d 50       		.byte	0x50
 8964 026e 93       		.byte	0x93
 8965 026f 04       		.uleb128 0x4
 8966 0270 51       		.byte	0x51
 8967 0271 93       		.byte	0x93
 8968 0272 04       		.uleb128 0x4
 8969 0273 74000000 		.4byte	.LVL180
 8970 0277 81000000 		.4byte	.LVL182-1
 8971 027b 0600     		.2byte	0x6
 8972 027d 50       		.byte	0x50
 8973 027e 93       		.byte	0x93
 8974 027f 04       		.uleb128 0x4
 8975 0280 51       		.byte	0x51
 8976 0281 93       		.byte	0x93
 8977 0282 04       		.uleb128 0x4
 8978 0283 88000000 		.4byte	.LVL183
 8979 0287 96000000 		.4byte	.LVL185
 8980 028b 0600     		.2byte	0x6
 8981 028d 50       		.byte	0x50
 8982 028e 93       		.byte	0x93
 8983 028f 04       		.uleb128 0x4
 8984 0290 51       		.byte	0x51
 8985 0291 93       		.byte	0x93
 8986 0292 04       		.uleb128 0x4
 8987 0293 A0000000 		.4byte	.LVL187
ARM GAS  C:\Users\weiro\AppData\Local\Temp\ccK6dLS7.s 			page 182


 8988 0297 AE000000 		.4byte	.LVL189
 8989 029b 0600     		.2byte	0x6
 8990 029d 50       		.byte	0x50
 8991 029e 93       		.byte	0x93
 8992 029f 04       		.uleb128 0x4
 8993 02a0 51       		.byte	0x51
 8994 02a1 93       		.byte	0x93
 8995 02a2 04       		.uleb128 0x4
 8996 02a3 00000000 		.4byte	0
 8997 02a7 00000000 		.4byte	0
 8998              	.LLST11:
 8999 02ab 02000000 		.4byte	.LVL192
 9000 02af 32000000 		.4byte	.LVL197
 9001 02b3 0200     		.2byte	0x2
 9002 02b5 30       		.byte	0x30
 9003 02b6 9F       		.byte	0x9f
 9004 02b7 32000000 		.4byte	.LVL197
 9005 02bb 36000000 		.4byte	.LVL198
 9006 02bf 0300     		.2byte	0x3
 9007 02c1 08       		.byte	0x8
 9008 02c2 B4       		.byte	0xb4
 9009 02c3 9F       		.byte	0x9f
 9010 02c4 36000000 		.4byte	.LVL198
 9011 02c8 3C000000 		.4byte	.LVL199
 9012 02cc 0400     		.2byte	0x4
 9013 02ce 0A       		.byte	0xa
 9014 02cf 0E01     		.2byte	0x10e
 9015 02d1 9F       		.byte	0x9f
 9016 02d2 3C000000 		.4byte	.LVL199
 9017 02d6 3E000000 		.4byte	.LVL200
 9018 02da 0200     		.2byte	0x2
 9019 02dc 30       		.byte	0x30
 9020 02dd 9F       		.byte	0x9f
 9021 02de 3E000000 		.4byte	.LVL200
 9022 02e2 6C000000 		.4byte	.LVL206
 9023 02e6 0100     		.2byte	0x1
 9024 02e8 54       		.byte	0x54
 9025 02e9 86000000 		.4byte	.LVL211
 9026 02ed 9C000000 		.4byte	.LVL216
 9027 02f1 0100     		.2byte	0x1
 9028 02f3 54       		.byte	0x54
 9029 02f4 9C000000 		.4byte	.LVL216
 9030 02f8 A8000000 		.4byte	.LFE79
 9031 02fc 0200     		.2byte	0x2
 9032 02fe 30       		.byte	0x30
 9033 02ff 9F       		.byte	0x9f
 9034 0300 00000000 		.4byte	0
 9035 0304 00000000 		.4byte	0
 9036              	.LLST12:
 9037 0308 56000000 		.4byte	.LVL203
 9038 030c 63000000 		.4byte	.LVL204-1
 9039 0310 0100     		.2byte	0x1
 9040 0312 50       		.byte	0x50
 9041 0313 86000000 		.4byte	.LVL211
 9042 0317 8D000000 		.4byte	.LVL212-1
 9043 031b 0100     		.2byte	0x1
 9044 031d 50       		.byte	0x50
ARM GAS  C:\Users\weiro\AppData\Local\Temp\ccK6dLS7.s 			page 183


 9045 031e 90000000 		.4byte	.LVL213
 9046 0322 93000000 		.4byte	.LVL214-1
 9047 0326 0100     		.2byte	0x1
 9048 0328 50       		.byte	0x50
 9049 0329 00000000 		.4byte	0
 9050 032d 00000000 		.4byte	0
 9051              	.LLST13:
 9052 0331 02000000 		.4byte	.LVL217
 9053 0335 32000000 		.4byte	.LVL222
 9054 0339 0200     		.2byte	0x2
 9055 033b 30       		.byte	0x30
 9056 033c 9F       		.byte	0x9f
 9057 033d 32000000 		.4byte	.LVL222
 9058 0341 36000000 		.4byte	.LVL223
 9059 0345 0300     		.2byte	0x3
 9060 0347 08       		.byte	0x8
 9061 0348 B4       		.byte	0xb4
 9062 0349 9F       		.byte	0x9f
 9063 034a 36000000 		.4byte	.LVL223
 9064 034e 3C000000 		.4byte	.LVL224
 9065 0352 0400     		.2byte	0x4
 9066 0354 0A       		.byte	0xa
 9067 0355 0E01     		.2byte	0x10e
 9068 0357 9F       		.byte	0x9f
 9069 0358 3C000000 		.4byte	.LVL224
 9070 035c 3E000000 		.4byte	.LVL225
 9071 0360 0200     		.2byte	0x2
 9072 0362 30       		.byte	0x30
 9073 0363 9F       		.byte	0x9f
 9074 0364 3E000000 		.4byte	.LVL225
 9075 0368 6C000000 		.4byte	.LVL231
 9076 036c 0100     		.2byte	0x1
 9077 036e 54       		.byte	0x54
 9078 036f 86000000 		.4byte	.LVL236
 9079 0373 9C000000 		.4byte	.LVL241
 9080 0377 0100     		.2byte	0x1
 9081 0379 54       		.byte	0x54
 9082 037a 9C000000 		.4byte	.LVL241
 9083 037e A8000000 		.4byte	.LFE80
 9084 0382 0200     		.2byte	0x2
 9085 0384 30       		.byte	0x30
 9086 0385 9F       		.byte	0x9f
 9087 0386 00000000 		.4byte	0
 9088 038a 00000000 		.4byte	0
 9089              	.LLST14:
 9090 038e 56000000 		.4byte	.LVL228
 9091 0392 63000000 		.4byte	.LVL229-1
 9092 0396 0100     		.2byte	0x1
 9093 0398 50       		.byte	0x50
 9094 0399 86000000 		.4byte	.LVL236
 9095 039d 8D000000 		.4byte	.LVL237-1
 9096 03a1 0100     		.2byte	0x1
 9097 03a3 50       		.byte	0x50
 9098 03a4 90000000 		.4byte	.LVL238
 9099 03a8 93000000 		.4byte	.LVL239-1
 9100 03ac 0100     		.2byte	0x1
 9101 03ae 50       		.byte	0x50
ARM GAS  C:\Users\weiro\AppData\Local\Temp\ccK6dLS7.s 			page 184


 9102 03af 00000000 		.4byte	0
 9103 03b3 00000000 		.4byte	0
 9104              	.LLST15:
 9105 03b7 00000000 		.4byte	.LVL242
 9106 03bb 08000000 		.4byte	.LVL243
 9107 03bf 0100     		.2byte	0x1
 9108 03c1 50       		.byte	0x50
 9109 03c2 08000000 		.4byte	.LVL243
 9110 03c6 9C000000 		.4byte	.LVL254
 9111 03ca 0100     		.2byte	0x1
 9112 03cc 55       		.byte	0x55
 9113 03cd 9C000000 		.4byte	.LVL254
 9114 03d1 A0000000 		.4byte	.LFE81
 9115 03d5 0400     		.2byte	0x4
 9116 03d7 F3       		.byte	0xf3
 9117 03d8 01       		.uleb128 0x1
 9118 03d9 50       		.byte	0x50
 9119 03da 9F       		.byte	0x9f
 9120 03db 00000000 		.4byte	0
 9121 03df 00000000 		.4byte	0
 9122              	.LLST16:
 9123 03e3 00000000 		.4byte	.LVL242
 9124 03e7 08000000 		.4byte	.LVL243
 9125 03eb 0100     		.2byte	0x1
 9126 03ed 51       		.byte	0x51
 9127 03ee 08000000 		.4byte	.LVL243
 9128 03f2 9C000000 		.4byte	.LVL254
 9129 03f6 0100     		.2byte	0x1
 9130 03f8 56       		.byte	0x56
 9131 03f9 9C000000 		.4byte	.LVL254
 9132 03fd A0000000 		.4byte	.LFE81
 9133 0401 0400     		.2byte	0x4
 9134 0403 F3       		.byte	0xf3
 9135 0404 01       		.uleb128 0x1
 9136 0405 51       		.byte	0x51
 9137 0406 9F       		.byte	0x9f
 9138 0407 00000000 		.4byte	0
 9139 040b 00000000 		.4byte	0
 9140              	.LLST17:
 9141 040f 02000000 		.4byte	.LVL255
 9142 0413 6C000000 		.4byte	.LVL269
 9143 0417 0200     		.2byte	0x2
 9144 0419 31       		.byte	0x31
 9145 041a 9F       		.byte	0x9f
 9146 041b 6C000000 		.4byte	.LVL269
 9147 041f C6000000 		.4byte	.LVL281
 9148 0423 0200     		.2byte	0x2
 9149 0425 32       		.byte	0x32
 9150 0426 9F       		.byte	0x9f
 9151 0427 C6000000 		.4byte	.LVL281
 9152 042b 20010000 		.4byte	.LVL293
 9153 042f 0200     		.2byte	0x2
 9154 0431 33       		.byte	0x33
 9155 0432 9F       		.byte	0x9f
 9156 0433 20010000 		.4byte	.LVL293
 9157 0437 D0010000 		.4byte	.LFE82
 9158 043b 0200     		.2byte	0x2
ARM GAS  C:\Users\weiro\AppData\Local\Temp\ccK6dLS7.s 			page 185


 9159 043d 30       		.byte	0x30
 9160 043e 9F       		.byte	0x9f
 9161 043f 00000000 		.4byte	0
 9162 0443 00000000 		.4byte	0
 9163              	.LLST18:
 9164 0447 02000000 		.4byte	.LVL325
 9165 044b 08000000 		.4byte	.LVL326
 9166 044f 0200     		.2byte	0x2
 9167 0451 30       		.byte	0x30
 9168 0452 9F       		.byte	0x9f
 9169 0453 12000000 		.4byte	.LVL328
 9170 0457 19000000 		.4byte	.LVL329-1
 9171 045b 0600     		.2byte	0x6
 9172 045d 70       		.byte	0x70
 9173 045e 00       		.sleb128 0
 9174 045f 08       		.byte	0x8
 9175 0460 FF       		.byte	0xff
 9176 0461 1A       		.byte	0x1a
 9177 0462 9F       		.byte	0x9f
 9178 0463 1A000000 		.4byte	.LVL329
 9179 0467 21000000 		.4byte	.LVL330-1
 9180 046b 0100     		.2byte	0x1
 9181 046d 50       		.byte	0x50
 9182 046e 00000000 		.4byte	0
 9183 0472 00000000 		.4byte	0
 9184              	.LLST19:
 9185 0476 02000000 		.4byte	.LVL325
 9186 047a 40000000 		.4byte	.LVL335
 9187 047e 0600     		.2byte	0x6
 9188 0480 9E       		.byte	0x9e
 9189 0481 04       		.uleb128 0x4
 9190 0482 00000000 		.4byte	0
 9191 0486 40000000 		.4byte	.LVL335
 9192 048a 45000000 		.4byte	.LVL336-1
 9193 048e 0100     		.2byte	0x1
 9194 0490 50       		.byte	0x50
 9195 0491 00000000 		.4byte	0
 9196 0495 00000000 		.4byte	0
 9197              	.LLST20:
 9198 0499 02000000 		.4byte	.LVL325
 9199 049d 08000000 		.4byte	.LVL326
 9200 04a1 0600     		.2byte	0x6
 9201 04a3 9E       		.byte	0x9e
 9202 04a4 04       		.uleb128 0x4
 9203 04a5 00000000 		.4byte	0
 9204 04a9 08000000 		.4byte	.LVL326
 9205 04ad 2C000000 		.4byte	.LVL332
 9206 04b1 0100     		.2byte	0x1
 9207 04b3 55       		.byte	0x55
 9208 04b4 2C000000 		.4byte	.LVL332
 9209 04b8 2E000000 		.4byte	.LVL333
 9210 04bc 0100     		.2byte	0x1
 9211 04be 50       		.byte	0x50
 9212 04bf 2E000000 		.4byte	.LVL333
 9213 04c3 72000000 		.4byte	.LVL342
 9214 04c7 0100     		.2byte	0x1
 9215 04c9 55       		.byte	0x55
ARM GAS  C:\Users\weiro\AppData\Local\Temp\ccK6dLS7.s 			page 186


 9216 04ca 00000000 		.4byte	0
 9217 04ce 00000000 		.4byte	0
 9218              	.LLST21:
 9219 04d2 02000000 		.4byte	.LVL325
 9220 04d6 08000000 		.4byte	.LVL326
 9221 04da 0200     		.2byte	0x2
 9222 04dc 30       		.byte	0x30
 9223 04dd 9F       		.byte	0x9f
 9224 04de 08000000 		.4byte	.LVL326
 9225 04e2 7A000000 		.4byte	.LVL345
 9226 04e6 0100     		.2byte	0x1
 9227 04e8 54       		.byte	0x54
 9228 04e9 00000000 		.4byte	0
 9229 04ed 00000000 		.4byte	0
 9230              	.LLST22:
 9231 04f1 02000000 		.4byte	.LVL325
 9232 04f5 46000000 		.4byte	.LVL336
 9233 04f9 0600     		.2byte	0x6
 9234 04fb 9E       		.byte	0x9e
 9235 04fc 04       		.uleb128 0x4
 9236 04fd 00000000 		.4byte	0
 9237 0501 46000000 		.4byte	.LVL336
 9238 0505 49000000 		.4byte	.LVL337-1
 9239 0509 0100     		.2byte	0x1
 9240 050b 50       		.byte	0x50
 9241 050c 00000000 		.4byte	0
 9242 0510 00000000 		.4byte	0
 9243              	.LLST23:
 9244 0514 02000000 		.4byte	.LVL325
 9245 0518 72000000 		.4byte	.LVL342
 9246 051c 0600     		.2byte	0x6
 9247 051e 9E       		.byte	0x9e
 9248 051f 04       		.uleb128 0x4
 9249 0520 00000000 		.4byte	0
 9250 0524 72000000 		.4byte	.LVL342
 9251 0528 74000000 		.4byte	.LVL343
 9252 052c 0100     		.2byte	0x1
 9253 052e 50       		.byte	0x50
 9254 052f 74000000 		.4byte	.LVL343
 9255 0533 A8000000 		.4byte	.LVL351
 9256 0537 0100     		.2byte	0x1
 9257 0539 55       		.byte	0x55
 9258 053a A8000000 		.4byte	.LVL351
 9259 053e D4000000 		.4byte	.LFE85
 9260 0542 0100     		.2byte	0x1
 9261 0544 50       		.byte	0x50
 9262 0545 00000000 		.4byte	0
 9263 0549 00000000 		.4byte	0
 9264              	.LLST24:
 9265 054d E0000000 		.4byte	.LVL377
 9266 0551 FC000000 		.4byte	.LVL381
 9267 0555 0200     		.2byte	0x2
 9268 0557 31       		.byte	0x31
 9269 0558 9F       		.byte	0x9f
 9270 0559 AE010000 		.4byte	.LVL403
 9271 055d E0010000 		.4byte	.LVL410
 9272 0561 0200     		.2byte	0x2
ARM GAS  C:\Users\weiro\AppData\Local\Temp\ccK6dLS7.s 			page 187


 9273 0563 31       		.byte	0x31
 9274 0564 9F       		.byte	0x9f
 9275 0565 6A020000 		.4byte	.LVL422
 9276 0569 8A020000 		.4byte	.LVL426
 9277 056d 0200     		.2byte	0x2
 9278 056f 31       		.byte	0x31
 9279 0570 9F       		.byte	0x9f
 9280 0571 54030000 		.4byte	.LVL439
 9281 0575 8C030000 		.4byte	.LVL446
 9282 0579 0200     		.2byte	0x2
 9283 057b 31       		.byte	0x31
 9284 057c 9F       		.byte	0x9f
 9285 057d 9E030000 		.4byte	.LVL448
 9286 0581 D4030000 		.4byte	.LVL454
 9287 0585 0200     		.2byte	0x2
 9288 0587 30       		.byte	0x30
 9289 0588 9F       		.byte	0x9f
 9290 0589 20040000 		.4byte	.LVL461
 9291 058d 38040000 		.4byte	.LVL464
 9292 0591 0200     		.2byte	0x2
 9293 0593 30       		.byte	0x30
 9294 0594 9F       		.byte	0x9f
 9295 0595 C4040000 		.4byte	.LVL475
 9296 0599 EC040000 		.4byte	.LVL480
 9297 059d 0200     		.2byte	0x2
 9298 059f 31       		.byte	0x31
 9299 05a0 9F       		.byte	0x9f
 9300 05a1 FE040000 		.4byte	.LVL482
 9301 05a5 26050000 		.4byte	.LVL487
 9302 05a9 0200     		.2byte	0x2
 9303 05ab 30       		.byte	0x30
 9304 05ac 9F       		.byte	0x9f
 9305 05ad 5E050000 		.4byte	.LVL492
 9306 05b1 76050000 		.4byte	.LVL495
 9307 05b5 0200     		.2byte	0x2
 9308 05b7 31       		.byte	0x31
 9309 05b8 9F       		.byte	0x9f
 9310 05b9 AE050000 		.4byte	.LVL500
 9311 05bd C6050000 		.4byte	.LVL503
 9312 05c1 0200     		.2byte	0x2
 9313 05c3 31       		.byte	0x31
 9314 05c4 9F       		.byte	0x9f
 9315 05c5 00000000 		.4byte	0
 9316 05c9 00000000 		.4byte	0
 9317              	.LLST25:
 9318 05cd E0000000 		.4byte	.LVL377
 9319 05d1 FC000000 		.4byte	.LVL381
 9320 05d5 0200     		.2byte	0x2
 9321 05d7 31       		.byte	0x31
 9322 05d8 9F       		.byte	0x9f
 9323 05d9 B6010000 		.4byte	.LVL404
 9324 05dd CA010000 		.4byte	.LVL407
 9325 05e1 0200     		.2byte	0x2
 9326 05e3 30       		.byte	0x30
 9327 05e4 9F       		.byte	0x9f
 9328 05e5 CA010000 		.4byte	.LVL407
 9329 05e9 E0010000 		.4byte	.LVL410
ARM GAS  C:\Users\weiro\AppData\Local\Temp\ccK6dLS7.s 			page 188


 9330 05ed 0200     		.2byte	0x2
 9331 05ef 31       		.byte	0x31
 9332 05f0 9F       		.byte	0x9f
 9333 05f1 04020000 		.4byte	.LVL413
 9334 05f5 1C020000 		.4byte	.LVL416
 9335 05f9 0200     		.2byte	0x2
 9336 05fb 31       		.byte	0x31
 9337 05fc 9F       		.byte	0x9f
 9338 05fd 72020000 		.4byte	.LVL423
 9339 0601 8A020000 		.4byte	.LVL426
 9340 0605 0200     		.2byte	0x2
 9341 0607 30       		.byte	0x30
 9342 0608 9F       		.byte	0x9f
 9343 0609 BC030000 		.4byte	.LVL451
 9344 060d D4030000 		.4byte	.LVL454
 9345 0611 0100     		.2byte	0x1
 9346 0613 54       		.byte	0x54
 9347 0614 F0030000 		.4byte	.LVL456
 9348 0618 08040000 		.4byte	.LVL459
 9349 061c 0200     		.2byte	0x2
 9350 061e 31       		.byte	0x31
 9351 061f 9F       		.byte	0x9f
 9352 0620 46050000 		.4byte	.LVL489
 9353 0624 76050000 		.4byte	.LVL495
 9354 0628 0100     		.2byte	0x1
 9355 062a 54       		.byte	0x54
 9356 062b 96050000 		.4byte	.LVL497
 9357 062f C6050000 		.4byte	.LVL503
 9358 0633 0100     		.2byte	0x1
 9359 0635 54       		.byte	0x54
 9360 0636 00000000 		.4byte	0
 9361 063a 00000000 		.4byte	0
 9362              	.LLST26:
 9363 063e AE010000 		.4byte	.LVL403
 9364 0642 E0010000 		.4byte	.LVL410
 9365 0646 0A00     		.2byte	0xa
 9366 0648 9E       		.byte	0x9e
 9367 0649 08       		.uleb128 0x8
 9368 064a 00000000 		.4byte	0
 9369 064e 00004940 		.4byte	0x40490000
 9370 0652 6A020000 		.4byte	.LVL422
 9371 0656 8A020000 		.4byte	.LVL426
 9372 065a 0A00     		.2byte	0xa
 9373 065c 9E       		.byte	0x9e
 9374 065d 08       		.uleb128 0x8
 9375 065e 00000000 		.4byte	0
 9376 0662 00002140 		.4byte	0x40210000
 9377 0666 54030000 		.4byte	.LVL439
 9378 066a 8C030000 		.4byte	.LVL446
 9379 066e 0A00     		.2byte	0xa
 9380 0670 9E       		.byte	0x9e
 9381 0671 08       		.uleb128 0x8
 9382 0672 00000000 		.4byte	0
 9383 0676 00003240 		.4byte	0x40320000
 9384 067a 9E030000 		.4byte	.LVL448
 9385 067e D4030000 		.4byte	.LVL454
 9386 0682 0A00     		.2byte	0xa
ARM GAS  C:\Users\weiro\AppData\Local\Temp\ccK6dLS7.s 			page 189


 9387 0684 9E       		.byte	0x9e
 9388 0685 08       		.uleb128 0x8
 9389 0686 00000000 		.4byte	0
 9390 068a 00004940 		.4byte	0x40490000
 9391 068e 20040000 		.4byte	.LVL461
 9392 0692 38040000 		.4byte	.LVL464
 9393 0696 0A00     		.2byte	0xa
 9394 0698 9E       		.byte	0x9e
 9395 0699 08       		.uleb128 0x8
 9396 069a 00000000 		.4byte	0
 9397 069e 00805140 		.4byte	0x40518000
 9398 06a2 C4040000 		.4byte	.LVL475
 9399 06a6 EC040000 		.4byte	.LVL480
 9400 06aa 0A00     		.2byte	0xa
 9401 06ac 9E       		.byte	0x9e
 9402 06ad 08       		.uleb128 0x8
 9403 06ae 00000000 		.4byte	0
 9404 06b2 00003440 		.4byte	0x40340000
 9405 06b6 FE040000 		.4byte	.LVL482
 9406 06ba 26050000 		.4byte	.LVL487
 9407 06be 0A00     		.2byte	0xa
 9408 06c0 9E       		.byte	0x9e
 9409 06c1 08       		.uleb128 0x8
 9410 06c2 00000000 		.4byte	0
 9411 06c6 00003440 		.4byte	0x40340000
 9412 06ca 5E050000 		.4byte	.LVL492
 9413 06ce 76050000 		.4byte	.LVL495
 9414 06d2 0A00     		.2byte	0xa
 9415 06d4 9E       		.byte	0x9e
 9416 06d5 08       		.uleb128 0x8
 9417 06d6 00000000 		.4byte	0
 9418 06da 00004940 		.4byte	0x40490000
 9419 06de AE050000 		.4byte	.LVL500
 9420 06e2 C6050000 		.4byte	.LVL503
 9421 06e6 0A00     		.2byte	0xa
 9422 06e8 9E       		.byte	0x9e
 9423 06e9 08       		.uleb128 0x8
 9424 06ea 00000000 		.4byte	0
 9425 06ee 00004940 		.4byte	0x40490000
 9426 06f2 00000000 		.4byte	0
 9427 06f6 00000000 		.4byte	0
 9428              	.LLST27:
 9429 06fa BA020000 		.4byte	.LVL430
 9430 06fe FE020000 		.4byte	.LVL437
 9431 0702 0200     		.2byte	0x2
 9432 0704 30       		.byte	0x30
 9433 0705 9F       		.byte	0x9f
 9434 0706 00000000 		.4byte	0
 9435 070a 00000000 		.4byte	0
 9436              	.LLST28:
 9437 070e BA020000 		.4byte	.LVL430
 9438 0712 FE020000 		.4byte	.LVL437
 9439 0716 0200     		.2byte	0x2
 9440 0718 32       		.byte	0x32
 9441 0719 9F       		.byte	0x9f
 9442 071a 00000000 		.4byte	0
 9443 071e 00000000 		.4byte	0
ARM GAS  C:\Users\weiro\AppData\Local\Temp\ccK6dLS7.s 			page 190


 9444              		.section	.debug_aranges,"",%progbits
 9445 0000 CC000000 		.4byte	0xcc
 9446 0004 0200     		.2byte	0x2
 9447 0006 00000000 		.4byte	.Ldebug_info0
 9448 000a 04       		.byte	0x4
 9449 000b 00       		.byte	0
 9450 000c 0000     		.2byte	0
 9451 000e 0000     		.2byte	0
 9452 0010 00000000 		.4byte	.LFB64
 9453 0014 78000000 		.4byte	.LFE64-.LFB64
 9454 0018 00000000 		.4byte	.LFB65
 9455 001c B8000000 		.4byte	.LFE65-.LFB65
 9456 0020 00000000 		.4byte	.LFB66
 9457 0024 14000000 		.4byte	.LFE66-.LFB66
 9458 0028 00000000 		.4byte	.LFB67
 9459 002c 38000000 		.4byte	.LFE67-.LFB67
 9460 0030 00000000 		.4byte	.LFB68
 9461 0034 58020000 		.4byte	.LFE68-.LFB68
 9462 0038 00000000 		.4byte	.LFB69
 9463 003c 28000000 		.4byte	.LFE69-.LFB69
 9464 0040 00000000 		.4byte	.LFB70
 9465 0044 28000000 		.4byte	.LFE70-.LFB70
 9466 0048 00000000 		.4byte	.LFB71
 9467 004c 28000000 		.4byte	.LFE71-.LFB71
 9468 0050 00000000 		.4byte	.LFB72
 9469 0054 28000000 		.4byte	.LFE72-.LFB72
 9470 0058 00000000 		.4byte	.LFB73
 9471 005c 28000000 		.4byte	.LFE73-.LFB73
 9472 0060 00000000 		.4byte	.LFB74
 9473 0064 1C000000 		.4byte	.LFE74-.LFB74
 9474 0068 00000000 		.4byte	.LFB75
 9475 006c 14010000 		.4byte	.LFE75-.LFB75
 9476 0070 00000000 		.4byte	.LFB76
 9477 0074 00010000 		.4byte	.LFE76-.LFB76
 9478 0078 00000000 		.4byte	.LFB77
 9479 007c 30010000 		.4byte	.LFE77-.LFB77
 9480 0080 00000000 		.4byte	.LFB78
 9481 0084 D8000000 		.4byte	.LFE78-.LFB78
 9482 0088 00000000 		.4byte	.LFB79
 9483 008c A8000000 		.4byte	.LFE79-.LFB79
 9484 0090 00000000 		.4byte	.LFB80
 9485 0094 A8000000 		.4byte	.LFE80-.LFB80
 9486 0098 00000000 		.4byte	.LFB81
 9487 009c A0000000 		.4byte	.LFE81-.LFB81
 9488 00a0 00000000 		.4byte	.LFB82
 9489 00a4 D0010000 		.4byte	.LFE82-.LFB82
 9490 00a8 00000000 		.4byte	.LFB83
 9491 00ac 5E000000 		.4byte	.LFE83-.LFB83
 9492 00b0 00000000 		.4byte	.LFB84
 9493 00b4 28000000 		.4byte	.LFE84-.LFB84
 9494 00b8 00000000 		.4byte	.LFB85
 9495 00bc D4000000 		.4byte	.LFE85-.LFB85
 9496 00c0 00000000 		.4byte	.LFB86
 9497 00c4 58060000 		.4byte	.LFE86-.LFB86
 9498 00c8 00000000 		.4byte	0
 9499 00cc 00000000 		.4byte	0
 9500              		.section	.debug_ranges,"",%progbits
ARM GAS  C:\Users\weiro\AppData\Local\Temp\ccK6dLS7.s 			page 191


 9501              	.Ldebug_ranges0:
 9502 0000 3E000000 		.4byte	.LBB2
 9503 0004 64000000 		.4byte	.LBE2
 9504 0008 86000000 		.4byte	.LBB3
 9505 000c 9A000000 		.4byte	.LBE3
 9506 0010 00000000 		.4byte	0
 9507 0014 00000000 		.4byte	0
 9508 0018 3E000000 		.4byte	.LBB4
 9509 001c 64000000 		.4byte	.LBE4
 9510 0020 86000000 		.4byte	.LBB5
 9511 0024 9A000000 		.4byte	.LBE5
 9512 0028 00000000 		.4byte	0
 9513 002c 00000000 		.4byte	0
 9514 0030 00000000 		.4byte	.LFB64
 9515 0034 78000000 		.4byte	.LFE64
 9516 0038 00000000 		.4byte	.LFB65
 9517 003c B8000000 		.4byte	.LFE65
 9518 0040 00000000 		.4byte	.LFB66
 9519 0044 14000000 		.4byte	.LFE66
 9520 0048 00000000 		.4byte	.LFB67
 9521 004c 38000000 		.4byte	.LFE67
 9522 0050 00000000 		.4byte	.LFB68
 9523 0054 58020000 		.4byte	.LFE68
 9524 0058 00000000 		.4byte	.LFB69
 9525 005c 28000000 		.4byte	.LFE69
 9526 0060 00000000 		.4byte	.LFB70
 9527 0064 28000000 		.4byte	.LFE70
 9528 0068 00000000 		.4byte	.LFB71
 9529 006c 28000000 		.4byte	.LFE71
 9530 0070 00000000 		.4byte	.LFB72
 9531 0074 28000000 		.4byte	.LFE72
 9532 0078 00000000 		.4byte	.LFB73
 9533 007c 28000000 		.4byte	.LFE73
 9534 0080 00000000 		.4byte	.LFB74
 9535 0084 1C000000 		.4byte	.LFE74
 9536 0088 00000000 		.4byte	.LFB75
 9537 008c 14010000 		.4byte	.LFE75
 9538 0090 00000000 		.4byte	.LFB76
 9539 0094 00010000 		.4byte	.LFE76
 9540 0098 00000000 		.4byte	.LFB77
 9541 009c 30010000 		.4byte	.LFE77
 9542 00a0 00000000 		.4byte	.LFB78
 9543 00a4 D8000000 		.4byte	.LFE78
 9544 00a8 00000000 		.4byte	.LFB79
 9545 00ac A8000000 		.4byte	.LFE79
 9546 00b0 00000000 		.4byte	.LFB80
 9547 00b4 A8000000 		.4byte	.LFE80
 9548 00b8 00000000 		.4byte	.LFB81
 9549 00bc A0000000 		.4byte	.LFE81
 9550 00c0 00000000 		.4byte	.LFB82
 9551 00c4 D0010000 		.4byte	.LFE82
 9552 00c8 00000000 		.4byte	.LFB83
 9553 00cc 5E000000 		.4byte	.LFE83
 9554 00d0 00000000 		.4byte	.LFB84
 9555 00d4 28000000 		.4byte	.LFE84
 9556 00d8 00000000 		.4byte	.LFB85
 9557 00dc D4000000 		.4byte	.LFE85
ARM GAS  C:\Users\weiro\AppData\Local\Temp\ccK6dLS7.s 			page 192


 9558 00e0 00000000 		.4byte	.LFB86
 9559 00e4 58060000 		.4byte	.LFE86
 9560 00e8 00000000 		.4byte	0
 9561 00ec 00000000 		.4byte	0
 9562              		.section	.debug_line,"",%progbits
 9563              	.Ldebug_line0:
 9564 0000 50080000 		.section	.debug_str,"MS",%progbits,1
 9564      0200F303 
 9564      00000201 
 9564      FB0E0D00 
 9564      01010101 
 9565              	.LASF93:
 9566 0000 64697265 		.ascii	"direction\000"
 9566      6374696F 
 9566      6E00
 9567              	.LASF99:
 9568 000a 646F776E 		.ascii	"down_big\000"
 9568      5F626967 
 9568      00
 9569              	.LASF130:
 9570 0013 43794465 		.ascii	"CyDelay\000"
 9570      6C617900 
 9571              	.LASF78:
 9572 001b 50574D5F 		.ascii	"PWM_Master\000"
 9572      4D617374 
 9572      657200
 9573              	.LASF114:
 9574 0026 6379636C 		.ascii	"cycles\000"
 9574      657300
 9575              	.LASF141:
 9576 002d 436F6E74 		.ascii	"Control_Reg_2_Write\000"
 9576      726F6C5F 
 9576      5265675F 
 9576      325F5772 
 9576      69746500 
 9577              	.LASF65:
 9578 0041 434D5F43 		.ascii	"CM_COUNT_CONV\000"
 9578      4F554E54 
 9578      5F434F4E 
 9578      5600
 9579              	.LASF185:
 9580 004f 6D61696E 		.ascii	"main.c\000"
 9580      2E6300
 9581              	.LASF53:
 9582 0056 53686172 		.ascii	"Sharp_IR_sum_a\000"
 9582      705F4952 
 9582      5F73756D 
 9582      5F6100
 9583              	.LASF172:
 9584 0065 50574D5F 		.ascii	"PWM_BigServo_Start\000"
 9584      42696753 
 9584      6572766F 
 9584      5F537461 
 9584      727400
 9585              	.LASF150:
 9586 0078 43535F4C 		.ascii	"CS_LED_Write\000"
 9586      45445F57 
ARM GAS  C:\Users\weiro\AppData\Local\Temp\ccK6dLS7.s 			page 193


 9586      72697465 
 9586      00
 9587              	.LASF56:
 9588 0085 53686172 		.ascii	"Sharp_IR_dist\000"
 9588      705F4952 
 9588      5F646973 
 9588      7400
 9589              	.LASF171:
 9590 0093 50574D5F 		.ascii	"PWM_SmallServo_Start\000"
 9590      536D616C 
 9590      6C536572 
 9590      766F5F53 
 9590      74617274 
 9591              	.LASF139:
 9592 00a8 51756164 		.ascii	"QuadDec_1_GetCounter\000"
 9592      4465635F 
 9592      315F4765 
 9592      74436F75 
 9592      6E746572 
 9593              	.LASF61:
 9594 00bd 43535F63 		.ascii	"CS_count_Red\000"
 9594      6F756E74 
 9594      5F526564 
 9594      00
 9595              	.LASF164:
 9596 00ca 6973725F 		.ascii	"isr_1_StartEx\000"
 9596      315F5374 
 9596      61727445 
 9596      7800
 9597              	.LASF107:
 9598 00d8 61727261 		.ascii	"array_1\000"
 9598      795F3100 
 9599              	.LASF58:
 9600 00e0 696E6974 		.ascii	"initial\000"
 9600      69616C00 
 9601              	.LASF9:
 9602 00e8 756E7369 		.ascii	"unsigned int\000"
 9602      676E6564 
 9602      20696E74 
 9602      00
 9603              	.LASF18:
 9604 00f5 53706565 		.ascii	"Speed_Control\000"
 9604      645F436F 
 9604      6E74726F 
 9604      6C00
 9605              	.LASF117:
 9606 0103 6572726F 		.ascii	"error_gyro\000"
 9606      725F6779 
 9606      726F00
 9607              	.LASF10:
 9608 010e 5F5F696E 		.ascii	"__int32_t\000"
 9608      7433325F 
 9608      7400
 9609              	.LASF13:
 9610 0118 696E7431 		.ascii	"int16\000"
 9610      3600
 9611              	.LASF146:
ARM GAS  C:\Users\weiro\AppData\Local\Temp\ccK6dLS7.s 			page 194


 9612 011e 49525F69 		.ascii	"IR_input_Read\000"
 9612      6E707574 
 9612      5F526561 
 9612      6400
 9613              	.LASF88:
 9614 012c 72696768 		.ascii	"right_measured\000"
 9614      745F6D65 
 9614      61737572 
 9614      656400
 9615              	.LASF77:
 9616 013b 74696D65 		.ascii	"timer_period\000"
 9616      725F7065 
 9616      72696F64 
 9616      00
 9617              	.LASF121:
 9618 0148 54696D65 		.ascii	"Timer_3_ReadStatusRegister\000"
 9618      725F335F 
 9618      52656164 
 9618      53746174 
 9618      75735265 
 9619              	.LASF173:
 9620 0163 51756164 		.ascii	"QuadDec_1_Start\000"
 9620      4465635F 
 9620      315F5374 
 9620      61727400 
 9621              	.LASF118:
 9622 0173 6572726F 		.ascii	"error_gyro_avg\000"
 9622      725F6779 
 9622      726F5F61 
 9622      766700
 9623              	.LASF158:
 9624 0182 6C65645F 		.ascii	"led_green_Write\000"
 9624      67726565 
 9624      6E5F5772 
 9624      69746500 
 9625              	.LASF73:
 9626 0192 6572726F 		.ascii	"error\000"
 9626      7200
 9627              	.LASF46:
 9628 0198 6D6F6465 		.ascii	"mode\000"
 9628      00
 9629              	.LASF98:
 9630 019d 736C6974 		.ascii	"slit_detected\000"
 9630      5F646574 
 9630      65637465 
 9630      6400
 9631              	.LASF35:
 9632 01ab 666F7277 		.ascii	"forward2wall\000"
 9632      61726432 
 9632      77616C6C 
 9632      00
 9633              	.LASF63:
 9634 01b8 43535F63 		.ascii	"CS_count_Green\000"
 9634      6F756E74 
 9634      5F477265 
 9634      656E00
 9635              	.LASF28:
ARM GAS  C:\Users\weiro\AppData\Local\Temp\ccK6dLS7.s 			page 195


 9636 01c7 72657365 		.ascii	"reset_count\000"
 9636      745F636F 
 9636      756E7400 
 9637              	.LASF62:
 9638 01d3 43535F63 		.ascii	"CS_count_Blue\000"
 9638      6F756E74 
 9638      5F426C75 
 9638      6500
 9639              	.LASF25:
 9640 01e1 72657665 		.ascii	"reverse\000"
 9640      72736500 
 9641              	.LASF60:
 9642 01e9 57484545 		.ascii	"WHEEL_CIRCUMFERENCE\000"
 9642      4C5F4349 
 9642      5243554D 
 9642      46455245 
 9642      4E434500 
 9643              	.LASF129:
 9644 01fd 4932435F 		.ascii	"I2C_1_MasterSendStop\000"
 9644      315F4D61 
 9644      73746572 
 9644      53656E64 
 9644      53746F70 
 9645              	.LASF183:
 9646 0212 73747263 		.ascii	"strcpy\000"
 9646      707900
 9647              	.LASF138:
 9648 0219 51756164 		.ascii	"QuadDec_2_SetCounter\000"
 9648      4465635F 
 9648      325F5365 
 9648      74436F75 
 9648      6E746572 
 9649              	.LASF91:
 9650 022e 785F636F 		.ascii	"x_coord\000"
 9650      6F726400 
 9651              	.LASF23:
 9652 0236 73746F70 		.ascii	"stop\000"
 9652      00
 9653              	.LASF67:
 9654 023b 44495354 		.ascii	"DISTANCE_PT_TURN\000"
 9654      414E4345 
 9654      5F50545F 
 9654      5455524E 
 9654      00
 9655              	.LASF14:
 9656 024c 666C6F61 		.ascii	"float\000"
 9656      7400
 9657              	.LASF161:
 9658 0252 4144435F 		.ascii	"ADC_SAR_1_StartConvert\000"
 9658      5341525F 
 9658      315F5374 
 9658      61727443 
 9658      6F6E7665 
 9659              	.LASF116:
 9660 0269 636F756E 		.ascii	"count\000"
 9660      7400
 9661              	.LASF102:
ARM GAS  C:\Users\weiro\AppData\Local\Temp\ccK6dLS7.s 			page 196


 9662 026f 636C6F73 		.ascii	"close_small\000"
 9662      655F736D 
 9662      616C6C00 
 9663              	.LASF43:
 9664 027b 50545F54 		.ascii	"PT_TURN_COUNT\000"
 9664      55524E5F 
 9664      434F554E 
 9664      5400
 9665              	.LASF143:
 9666 0289 43794465 		.ascii	"CyDelayUs\000"
 9666      6C617955 
 9666      7300
 9667              	.LASF126:
 9668 0293 54696D65 		.ascii	"Timer_2_ReadStatusRegister\000"
 9668      725F325F 
 9668      52656164 
 9668      53746174 
 9668      75735265 
 9669              	.LASF8:
 9670 02ae 6C6F6E67 		.ascii	"long long unsigned int\000"
 9670      206C6F6E 
 9670      6720756E 
 9670      7369676E 
 9670      65642069 
 9671              	.LASF89:
 9672 02c5 6C656674 		.ascii	"left_measured\000"
 9672      5F6D6561 
 9672      73757265 
 9672      6400
 9673              	.LASF168:
 9674 02d3 50574D5F 		.ascii	"PWM_ColorSensor_Start\000"
 9674      436F6C6F 
 9674      7253656E 
 9674      736F725F 
 9674      53746172 
 9675              	.LASF83:
 9676 02e9 69735F6D 		.ascii	"is_moving\000"
 9676      6F76696E 
 9676      6700
 9677              	.LASF149:
 9678 02f3 53315F57 		.ascii	"S1_Write\000"
 9678      72697465 
 9678      00
 9679              	.LASF142:
 9680 02fc 54726967 		.ascii	"Trigger_Write\000"
 9680      6765725F 
 9680      57726974 
 9680      6500
 9681              	.LASF36:
 9682 030a 6D6F7665 		.ascii	"move2slit\000"
 9682      32736C69 
 9682      7400
 9683              	.LASF159:
 9684 0314 6C65645F 		.ascii	"led_blue_Write\000"
 9684      626C7565 
 9684      5F577269 
 9684      746500
ARM GAS  C:\Users\weiro\AppData\Local\Temp\ccK6dLS7.s 			page 197


 9685              	.LASF112:
 9686 0323 63757272 		.ascii	"current_reading\000"
 9686      656E745F 
 9686      72656164 
 9686      696E6700 
 9687              	.LASF184:
 9688 0333 474E5520 		.ascii	"GNU C11 5.4.1 20160609 (release) [ARM/embedded-5-br"
 9688      43313120 
 9688      352E342E 
 9688      31203230 
 9688      31363036 
 9689 0366 616E6368 		.ascii	"anch revision 237715] -mcpu=cortex-m3 -mthumb -g -O"
 9689      20726576 
 9689      6973696F 
 9689      6E203233 
 9689      37373135 
 9690 0399 67202D66 		.ascii	"g -ffunction-sections -ffat-lto-objects\000"
 9690      66756E63 
 9690      74696F6E 
 9690      2D736563 
 9690      74696F6E 
 9691              	.LASF74:
 9692 03c1 61636375 		.ascii	"accumulated_error\000"
 9692      6D756C61 
 9692      7465645F 
 9692      6572726F 
 9692      7200
 9693              	.LASF64:
 9694 03d3 434F554E 		.ascii	"COUNT_WHEEL\000"
 9694      545F5748 
 9694      45454C00 
 9695              	.LASF48:
 9696 03df 466C6963 		.ascii	"Flicker_Function\000"
 9696      6B65725F 
 9696      46756E63 
 9696      74696F6E 
 9696      00
 9697              	.LASF132:
 9698 03f0 55415254 		.ascii	"UART_1_PutString\000"
 9698      5F315F50 
 9698      75745374 
 9698      72696E67 
 9698      00
 9699              	.LASF39:
 9700 0401 414E474C 		.ascii	"ANGLE_TOLERANCE\000"
 9700      455F544F 
 9700      4C455241 
 9700      4E434500 
 9701              	.LASF55:
 9702 0411 53686172 		.ascii	"Sharp_IR_volt\000"
 9702      705F4952 
 9702      5F766F6C 
 9702      7400
 9703              	.LASF162:
 9704 041f 4144435F 		.ascii	"ADC_SAR_1_IsEndConversion\000"
 9704      5341525F 
 9704      315F4973 
ARM GAS  C:\Users\weiro\AppData\Local\Temp\ccK6dLS7.s 			page 198


 9704      456E6443 
 9704      6F6E7665 
 9705              	.LASF180:
 9706 0439 50574D5F 		.ascii	"PWM_BigServo_WriteCompare\000"
 9706      42696753 
 9706      6572766F 
 9706      5F577269 
 9706      7465436F 
 9707              	.LASF47:
 9708 0453 4779726F 		.ascii	"Gyroscope_Function\000"
 9708      73636F70 
 9708      655F4675 
 9708      6E637469 
 9708      6F6E00
 9709              	.LASF34:
 9710 0466 64697374 		.ascii	"dist_count\000"
 9710      5F636F75 
 9710      6E7400
 9711              	.LASF54:
 9712 0471 53686172 		.ascii	"Sharp_IR_iter\000"
 9712      705F4952 
 9712      5F697465 
 9712      7200
 9713              	.LASF140:
 9714 047f 51756164 		.ascii	"QuadDec_2_GetCounter\000"
 9714      4465635F 
 9714      325F4765 
 9714      74436F75 
 9714      6E746572 
 9715              	.LASF133:
 9716 0494 4D6F746F 		.ascii	"Motor_1_IN_1_Write\000"
 9716      725F315F 
 9716      494E5F31 
 9716      5F577269 
 9716      746500
 9717              	.LASF109:
 9718 04a7 7961775F 		.ascii	"yaw_rate\000"
 9718      72617465 
 9718      00
 9719              	.LASF136:
 9720 04b0 4D6F746F 		.ascii	"Motor_2_IN_4_Write\000"
 9720      725F325F 
 9720      494E5F34 
 9720      5F577269 
 9720      746500
 9721              	.LASF124:
 9722 04c3 50574D5F 		.ascii	"PWM_ColorSensor_ReadStatusRegister\000"
 9722      436F6C6F 
 9722      7253656E 
 9722      736F725F 
 9722      52656164 
 9723              	.LASF153:
 9724 04e6 53335F57 		.ascii	"S3_Write\000"
 9724      72697465 
 9724      00
 9725              	.LASF15:
 9726 04ef 63686172 		.ascii	"char\000"
ARM GAS  C:\Users\weiro\AppData\Local\Temp\ccK6dLS7.s 			page 199


 9726      00
 9727              	.LASF40:
 9728 04f4 74617267 		.ascii	"targetAngle\000"
 9728      6574416E 
 9728      676C6500 
 9729              	.LASF85:
 9730 0500 756C7472 		.ascii	"ultrasonic_measure\000"
 9730      61736F6E 
 9730      69635F6D 
 9730      65617375 
 9730      726500
 9731              	.LASF154:
 9732 0513 436F6E74 		.ascii	"Control_Reg_1_Write\000"
 9732      726F6C5F 
 9732      5265675F 
 9732      315F5772 
 9732      69746500 
 9733              	.LASF160:
 9734 0527 466C6963 		.ascii	"Flicker_Write\000"
 9734      6B65725F 
 9734      57726974 
 9734      6500
 9735              	.LASF177:
 9736 0535 54696D65 		.ascii	"Timer_2_Start\000"
 9736      725F325F 
 9736      53746172 
 9736      7400
 9737              	.LASF122:
 9738 0543 54696D65 		.ascii	"Timer_3_ReadCounter\000"
 9738      725F335F 
 9738      52656164 
 9738      436F756E 
 9738      74657200 
 9739              	.LASF113:
 9740 0557 68656164 		.ascii	"heading\000"
 9740      696E6700 
 9741              	.LASF165:
 9742 055f 6973725F 		.ascii	"isr_6_StartEx\000"
 9742      365F5374 
 9742      61727445 
 9742      7800
 9743              	.LASF7:
 9744 056d 6C6F6E67 		.ascii	"long long int\000"
 9744      206C6F6E 
 9744      6720696E 
 9744      7400
 9745              	.LASF52:
 9746 057b 53686172 		.ascii	"Sharp_IR_avg_a\000"
 9746      705F4952 
 9746      5F617667 
 9746      5F6100
 9747              	.LASF29:
 9748 058a 6D6F7665 		.ascii	"move_fixed_dist\000"
 9748      5F666978 
 9748      65645F64 
 9748      69737400 
 9749              	.LASF66:
ARM GAS  C:\Users\weiro\AppData\Local\Temp\ccK6dLS7.s 			page 200


 9750 059a 44495354 		.ascii	"DISTANCE_BETW_WHEEL\000"
 9750      414E4345 
 9750      5F424554 
 9750      575F5748 
 9750      45454C00 
 9751              	.LASF178:
 9752 05ae 6973725F 		.ascii	"isr_2_StartEx\000"
 9752      325F5374 
 9752      61727445 
 9752      7800
 9753              	.LASF131:
 9754 05bc 4932435F 		.ascii	"I2C_1_MasterReadByte\000"
 9754      315F4D61 
 9754      73746572 
 9754      52656164 
 9754      42797465 
 9755              	.LASF155:
 9756 05d1 436F756E 		.ascii	"Counter_ColorSensor_ReadCapture\000"
 9756      7465725F 
 9756      436F6C6F 
 9756      7253656E 
 9756      736F725F 
 9757              	.LASF44:
 9758 05f1 666C6167 		.ascii	"flag_CW\000"
 9758      5F435700 
 9759              	.LASF24:
 9760 05f9 666F7277 		.ascii	"forward\000"
 9760      61726400 
 9761              	.LASF94:
 9762 0601 73746570 		.ascii	"step\000"
 9762      00
 9763              	.LASF19:
 9764 0606 756C7472 		.ascii	"ultrasonic_echo\000"
 9764      61736F6E 
 9764      69635F65 
 9764      63686F00 
 9765              	.LASF30:
 9766 0616 64697374 		.ascii	"dist\000"
 9766      00
 9767              	.LASF110:
 9768 061b 7961775F 		.ascii	"yaw_angle\000"
 9768      616E676C 
 9768      6500
 9769              	.LASF20:
 9770 0625 436F6C6F 		.ascii	"Color_sensing\000"
 9770      725F7365 
 9770      6E73696E 
 9770      6700
 9771              	.LASF95:
 9772 0633 636F6D70 		.ascii	"compare_ready\000"
 9772      6172655F 
 9772      72656164 
 9772      7900
 9773              	.LASF123:
 9774 0641 73707269 		.ascii	"sprintf\000"
 9774      6E746600 
 9775              	.LASF22:
ARM GAS  C:\Users\weiro\AppData\Local\Temp\ccK6dLS7.s 			page 201


 9776 0649 4779726F 		.ascii	"Gyroscope\000"
 9776      73636F70 
 9776      6500
 9777              	.LASF181:
 9778 0653 50574D5F 		.ascii	"PWM_SmallServo_WriteCompare\000"
 9778      536D616C 
 9778      6C536572 
 9778      766F5F57 
 9778      72697465 
 9779              	.LASF16:
 9780 066f 6C6F6E67 		.ascii	"long double\000"
 9780      20646F75 
 9780      626C6500 
 9781              	.LASF103:
 9782 067b 73747269 		.ascii	"string_bt\000"
 9782      6E675F62 
 9782      7400
 9783              	.LASF167:
 9784 0685 6973725F 		.ascii	"isr_3_StartEx\000"
 9784      335F5374 
 9784      61727445 
 9784      7800
 9785              	.LASF27:
 9786 0693 7475726E 		.ascii	"turn_clockwise\000"
 9786      5F636C6F 
 9786      636B7769 
 9786      736500
 9787              	.LASF92:
 9788 06a2 795F636F 		.ascii	"y_coord\000"
 9788      6F726400 
 9789              	.LASF59:
 9790 06aa 57484545 		.ascii	"WHEEL_DIAMETER\000"
 9790      4C5F4449 
 9790      414D4554 
 9790      455200
 9791              	.LASF144:
 9792 06b9 46726F6E 		.ascii	"Front_Echo_1_Read\000"
 9792      745F4563 
 9792      686F5F31 
 9792      5F526561 
 9792      6400
 9793              	.LASF51:
 9794 06cb 53686172 		.ascii	"Sharp_IR_analogue\000"
 9794      705F4952 
 9794      5F616E61 
 9794      6C6F6775 
 9794      6500
 9795              	.LASF69:
 9796 06dd 436F756E 		.ascii	"Count_Slave\000"
 9796      745F536C 
 9796      61766500 
 9797              	.LASF49:
 9798 06e9 64697374 		.ascii	"dist_trav\000"
 9798      5F747261 
 9798      7600
 9799              	.LASF174:
 9800 06f3 51756164 		.ascii	"QuadDec_2_Start\000"
ARM GAS  C:\Users\weiro\AppData\Local\Temp\ccK6dLS7.s 			page 202


 9800      4465635F 
 9800      325F5374 
 9800      61727400 
 9801              	.LASF3:
 9802 0703 73686F72 		.ascii	"short int\000"
 9802      7420696E 
 9802      7400
 9803              	.LASF127:
 9804 070d 4932435F 		.ascii	"I2C_1_MasterSendStart\000"
 9804      315F4D61 
 9804      73746572 
 9804      53656E64 
 9804      53746172 
 9805              	.LASF5:
 9806 0723 6C6F6E67 		.ascii	"long int\000"
 9806      20696E74 
 9806      00
 9807              	.LASF57:
 9808 072c 49544D5F 		.ascii	"ITM_RxBuffer\000"
 9808      52784275 
 9808      66666572 
 9808      00
 9809              	.LASF145:
 9810 0739 4C656674 		.ascii	"Left_Echo_Read\000"
 9810      5F456368 
 9810      6F5F5265 
 9810      616400
 9811              	.LASF176:
 9812 0748 4932435F 		.ascii	"I2C_1_Start\000"
 9812      315F5374 
 9812      61727400 
 9813              	.LASF151:
 9814 0754 436F756E 		.ascii	"Counter_ColorSensor_Start\000"
 9814      7465725F 
 9814      436F6C6F 
 9814      7253656E 
 9814      736F725F 
 9815              	.LASF33:
 9816 076e 6176675F 		.ascii	"avg_dist\000"
 9816      64697374 
 9816      00
 9817              	.LASF108:
 9818 0777 74656D70 		.ascii	"temp\000"
 9818      00
 9819              	.LASF170:
 9820 077c 50574D5F 		.ascii	"PWM_Wheels_Start\000"
 9820      57686565 
 9820      6C735F53 
 9820      74617274 
 9820      00
 9821              	.LASF148:
 9822 078d 53305F57 		.ascii	"S0_Write\000"
 9822      72697465 
 9822      00
 9823              	.LASF81:
 9824 0796 50574D5F 		.ascii	"PWM_Master_puck\000"
 9824      4D617374 
ARM GAS  C:\Users\weiro\AppData\Local\Temp\ccK6dLS7.s 			page 203


 9824      65725F70 
 9824      75636B00 
 9825              	.LASF86:
 9826 07a6 66726F6E 		.ascii	"front_measured_1\000"
 9826      745F6D65 
 9826      61737572 
 9826      65645F31 
 9826      00
 9827              	.LASF87:
 9828 07b7 66726F6E 		.ascii	"front_measured_2\000"
 9828      745F6D65 
 9828      61737572 
 9828      65645F32 
 9828      00
 9829              	.LASF38:
 9830 07c8 6779726F 		.ascii	"gyro_cal_1\000"
 9830      5F63616C 
 9830      5F3100
 9831              	.LASF42:
 9832 07d3 6779726F 		.ascii	"gyro_cal_2\000"
 9832      5F63616C 
 9832      5F3200
 9833              	.LASF101:
 9834 07de 6F70656E 		.ascii	"open_small\000"
 9834      5F736D61 
 9834      6C6C00
 9835              	.LASF68:
 9836 07e9 436F756E 		.ascii	"Count_Master\000"
 9836      745F4D61 
 9836      73746572 
 9836      00
 9837              	.LASF37:
 9838 07f6 6D6F7665 		.ascii	"move2puck\000"
 9838      32707563 
 9838      6B00
 9839              	.LASF31:
 9840 0800 666C6167 		.ascii	"flag_FR\000"
 9840      5F465200 
 9841              	.LASF41:
 9842 0808 616E676C 		.ascii	"angleDifference\000"
 9842      65446966 
 9842      66657265 
 9842      6E636500 
 9843              	.LASF90:
 9844 0818 6563686F 		.ascii	"echo_select\000"
 9844      5F73656C 
 9844      65637400 
 9845              	.LASF156:
 9846 0824 436F756E 		.ascii	"Counter_ColorSensor_Stop\000"
 9846      7465725F 
 9846      436F6C6F 
 9846      7253656E 
 9846      736F725F 
 9847              	.LASF163:
 9848 083d 4144435F 		.ascii	"ADC_SAR_1_GetResult8\000"
 9848      5341525F 
 9848      315F4765 
ARM GAS  C:\Users\weiro\AppData\Local\Temp\ccK6dLS7.s 			page 204


 9848      74526573 
 9848      756C7438 
 9849              	.LASF175:
 9850 0852 55415254 		.ascii	"UART_1_Start\000"
 9850      5F315F53 
 9850      74617274 
 9850      00
 9851              	.LASF76:
 9852 085f 64657269 		.ascii	"derivative_error\000"
 9852      76617469 
 9852      76655F65 
 9852      72726F72 
 9852      00
 9853              	.LASF45:
 9854 0870 436F6C6F 		.ascii	"Color_Sensing_Function\000"
 9854      725F5365 
 9854      6E73696E 
 9854      675F4675 
 9854      6E637469 
 9855              	.LASF75:
 9856 0887 6C617374 		.ascii	"last_error\000"
 9856      5F657272 
 9856      6F7200
 9857              	.LASF17:
 9858 0892 73697A65 		.ascii	"sizetype\000"
 9858      74797065 
 9858      00
 9859              	.LASF169:
 9860 089b 6973725F 		.ascii	"isr_7_StartEx\000"
 9860      375F5374 
 9860      61727445 
 9860      7800
 9861              	.LASF6:
 9862 08a9 6C6F6E67 		.ascii	"long unsigned int\000"
 9862      20756E73 
 9862      69676E65 
 9862      6420696E 
 9862      7400
 9863              	.LASF50:
 9864 08bb 53686172 		.ascii	"Sharp_IR\000"
 9864      705F4952 
 9864      00
 9865              	.LASF147:
 9866 08c4 50574D5F 		.ascii	"PWM_Wheels_WriteCompare1\000"
 9866      57686565 
 9866      6C735F57 
 9866      72697465 
 9866      436F6D70 
 9867              	.LASF120:
 9868 08dd 50574D5F 		.ascii	"PWM_Wheels_WriteCompare2\000"
 9868      57686565 
 9868      6C735F57 
 9868      72697465 
 9868      436F6D70 
 9869              	.LASF11:
 9870 08f6 696E7433 		.ascii	"int32_t\000"
 9870      325F7400 
ARM GAS  C:\Users\weiro\AppData\Local\Temp\ccK6dLS7.s 			page 205


 9871              	.LASF79:
 9872 08fe 50574D5F 		.ascii	"PWM_Cal\000"
 9872      43616C00 
 9873              	.LASF157:
 9874 0906 6C65645F 		.ascii	"led_red_Write\000"
 9874      7265645F 
 9874      57726974 
 9874      6500
 9875              	.LASF80:
 9876 0914 50574D5F 		.ascii	"PWM_Slave\000"
 9876      536C6176 
 9876      6500
 9877              	.LASF96:
 9878 091e 636F6C6F 		.ascii	"color_detected\000"
 9878      725F6465 
 9878      74656374 
 9878      656400
 9879              	.LASF2:
 9880 092d 756E7369 		.ascii	"unsigned char\000"
 9880      676E6564 
 9880      20636861 
 9880      7200
 9881              	.LASF82:
 9882 093b 50574D5F 		.ascii	"PWM_Slave_puck\000"
 9882      536C6176 
 9882      655F7075 
 9882      636B00
 9883              	.LASF135:
 9884 094a 4D6F746F 		.ascii	"Motor_2_IN_3_Write\000"
 9884      725F325F 
 9884      494E5F33 
 9884      5F577269 
 9884      746500
 9885              	.LASF134:
 9886 095d 4D6F746F 		.ascii	"Motor_1_IN_2_Write\000"
 9886      725F315F 
 9886      494E5F32 
 9886      5F577269 
 9886      746500
 9887              	.LASF152:
 9888 0970 53325F57 		.ascii	"S2_Write\000"
 9888      72697465 
 9888      00
 9889              	.LASF106:
 9890 0979 7461736B 		.ascii	"task_info\000"
 9890      5F696E66 
 9890      6F00
 9891              	.LASF182:
 9892 0983 73747274 		.ascii	"strtok\000"
 9892      6F6B00
 9893              	.LASF137:
 9894 098a 51756164 		.ascii	"QuadDec_1_SetCounter\000"
 9894      4465635F 
 9894      315F5365 
 9894      74436F75 
 9894      6E746572 
 9895              	.LASF128:
ARM GAS  C:\Users\weiro\AppData\Local\Temp\ccK6dLS7.s 			page 206


 9896 099f 4932435F 		.ascii	"I2C_1_MasterWriteByte\000"
 9896      315F4D61 
 9896      73746572 
 9896      57726974 
 9896      65427974 
 9897              	.LASF115:
 9898 09b5 73747269 		.ascii	"string_gyro\000"
 9898      6E675F67 
 9898      79726F00 
 9899              	.LASF26:
 9900 09c1 7475726E 		.ascii	"turn_anticlockwise\000"
 9900      5F616E74 
 9900      69636C6F 
 9900      636B7769 
 9900      736500
 9901              	.LASF119:
 9902 09d4 74687265 		.ascii	"threshold\000"
 9902      73686F6C 
 9902      6400
 9903              	.LASF32:
 9904 09de 6176675F 		.ascii	"avg_count\000"
 9904      636F756E 
 9904      7400
 9905              	.LASF186:
 9906 09e8 433A5C55 		.ascii	"C:\\Users\\weiro\\code repository for ece4191\\ece4"
 9906      73657273 
 9906      5C776569 
 9906      726F5C63 
 9906      6F646520 
 9907 0a17 3139315C 		.ascii	"191\\DC_Motor_1\\Design01.cydsn\000"
 9907      44435F4D 
 9907      6F746F72 
 9907      5F315C44 
 9907      65736967 
 9908              	.LASF166:
 9909 0a35 54696D65 		.ascii	"Timer_1_Start\000"
 9909      725F315F 
 9909      53746172 
 9909      7400
 9910              	.LASF1:
 9911 0a43 7369676E 		.ascii	"signed char\000"
 9911      65642063 
 9911      68617200 
 9912              	.LASF4:
 9913 0a4f 73686F72 		.ascii	"short unsigned int\000"
 9913      7420756E 
 9913      7369676E 
 9913      65642069 
 9913      6E7400
 9914              	.LASF187:
 9915 0a62 6D61696E 		.ascii	"main\000"
 9915      00
 9916              	.LASF100:
 9917 0a67 75705F62 		.ascii	"up_big\000"
 9917      696700
 9918              	.LASF70:
 9919 0a6e 73747269 		.ascii	"string_1\000"
ARM GAS  C:\Users\weiro\AppData\Local\Temp\ccK6dLS7.s 			page 207


 9919      6E675F31 
 9919      00
 9920              	.LASF71:
 9921 0a77 73747269 		.ascii	"string_2\000"
 9921      6E675F32 
 9921      00
 9922              	.LASF72:
 9923 0a80 73747269 		.ascii	"string_3\000"
 9923      6E675F33 
 9923      00
 9924              	.LASF84:
 9925 0a89 756C7472 		.ascii	"ultrasonic_count\000"
 9925      61736F6E 
 9925      69635F63 
 9925      6F756E74 
 9925      00
 9926              	.LASF104:
 9927 0a9a 73746F70 		.ascii	"stop_bt\000"
 9927      5F627400 
 9928              	.LASF105:
 9929 0aa2 746F6B65 		.ascii	"tokenPtr\000"
 9929      6E507472 
 9929      00
 9930              	.LASF12:
 9931 0aab 75696E74 		.ascii	"uint8\000"
 9931      3800
 9932              	.LASF0:
 9933 0ab1 646F7562 		.ascii	"double\000"
 9933      6C6500
 9934              	.LASF125:
 9935 0ab8 55415254 		.ascii	"UART_1_GetChar\000"
 9935      5F315F47 
 9935      65744368 
 9935      617200
 9936              	.LASF21:
 9937 0ac7 426C7565 		.ascii	"Bluetooth\000"
 9937      746F6F74 
 9937      6800
 9938              	.LASF97:
 9939 0ad1 77616C6C 		.ascii	"wall_detected_10\000"
 9939      5F646574 
 9939      65637465 
 9939      645F3130 
 9939      00
 9940              	.LASF111:
 9941 0ae2 70726576 		.ascii	"previous_reading\000"
 9941      696F7573 
 9941      5F726561 
 9941      64696E67 
 9941      00
 9942              	.LASF179:
 9943 0af3 73747263 		.ascii	"strcmp\000"
 9943      6D7000
 9944              		.ident	"GCC: (GNU Tools for ARM Embedded Processors) 5.4.1 20160609 (release) [ARM/embedded-5-bran
