ARM GAS  C:\Users\weiro\AppData\Local\Temp\cc9naSHk.s 			page 1


   1              		.syntax unified
   2              		.cpu cortex-m3
   3              		.fpu softvfp
   4              		.eabi_attribute 20, 1
   5              		.eabi_attribute 21, 1
   6              		.eabi_attribute 23, 3
   7              		.eabi_attribute 24, 1
   8              		.eabi_attribute 25, 1
   9              		.eabi_attribute 26, 1
  10              		.eabi_attribute 30, 1
  11              		.eabi_attribute 34, 1
  12              		.eabi_attribute 18, 4
  13              		.thumb
  14              		.syntax unified
  15              		.file	"main.c"
  16              		.text
  17              	.Ltext0:
  18              		.cfi_sections	.debug_frame
  19              		.global	__aeabi_i2d
  20              		.global	__aeabi_dmul
  21              		.global	__aeabi_f2d
  22              		.global	__aeabi_dadd
  23              		.global	__aeabi_d2f
  24              		.global	__aeabi_f2uiz
  25              		.section	.text.Speed_Control,"ax",%progbits
  26              		.align	2
  27              		.global	Speed_Control
  28              		.thumb
  29              		.thumb_func
  30              		.type	Speed_Control, %function
  31              	Speed_Control:
  32              	.LFB64:
  33              		.file 1 "main.c"
   1:main.c        **** /* ========================================
   2:main.c        ****  *
   3:main.c        ****  * Copyright YOUR COMPANY, THE YEAR
   4:main.c        ****  * All Rights Reserved
   5:main.c        ****  * UNPUBLISHED, LICENSED SOFTWARE.
   6:main.c        ****  *
   7:main.c        ****  * CONFIDENTIAL AND PROPRIETARY INFORMATION
   8:main.c        ****  * WHICH IS THE PROPERTY OF your company.
   9:main.c        ****  *
  10:main.c        ****  * ========================================
  11:main.c        **** */
  12:main.c        **** // ECE4191 Group 3
  13:main.c        **** 
  14:main.c        **** #include "project.h"
  15:main.c        **** #include <stdio.h>
  16:main.c        **** #include <stdlib.h>
  17:main.c        **** #include <math.h> 
  18:main.c        **** 
  19:main.c        **** int initial = 0; /// 0 --> initial position at left side, 1 --> inital position at right side
  20:main.c        **** double WHEEL_DIAMETER = 5.4; //cm
  21:main.c        **** double WHEEL_CIRCUMFERENCE = 0;
  22:main.c        **** int CS_count_Red = 0;
  23:main.c        **** int CS_count_Blue = 0;
  24:main.c        **** int CS_count_Green = 0;
ARM GAS  C:\Users\weiro\AppData\Local\Temp\cc9naSHk.s 			page 2


  25:main.c        **** double COUNT_WHEEL = 3667; // Count per rotation
  26:main.c        **** double CM_COUNT_CONV = 0;
  27:main.c        **** double DISTANCE_BETW_WHEEL = 22.30;
  28:main.c        **** double DISTANCE_PT_TURN = 0;
  29:main.c        **** double PT_TURN_COUNT = 0;
  30:main.c        **** int Count_Master = 0;
  31:main.c        **** int Count_Slave = 0;
  32:main.c        **** char string_1[200];
  33:main.c        **** char string_2[200];
  34:main.c        **** char string_3[200];
  35:main.c        **** double error = 0;
  36:main.c        **** double accumulated_error = 0;
  37:main.c        **** double last_error = 0;
  38:main.c        **** double derivative_error = 0;
  39:main.c        **** double timer_period = 5;
  40:main.c        **** double K_p = 5;
  41:main.c        **** double K_i = 0;
  42:main.c        **** double K_d = 0;
  43:main.c        **** float PWM_Master = 20000;
  44:main.c        **** float PWM_Slave = 20000;
  45:main.c        **** float PWM_Master_puck = 5000;
  46:main.c        **** float PWM_Slave_puck = 5000;
  47:main.c        **** int is_moving = 0;
  48:main.c        **** int ultrasonic_count = 0;
  49:main.c        **** double ultrasonic_measure = 0;
  50:main.c        **** double front_measured_1, front_measured_2, right_measured, left_measured = 0;
  51:main.c        **** int ultrasonic_flag = 0;
  52:main.c        **** int echo_select = 0;
  53:main.c        **** double x_coord = 0;
  54:main.c        **** double y_coord = 0;
  55:main.c        **** int direction = 0;
  56:main.c        **** int step = 0;
  57:main.c        **** int compare_ready = 0;
  58:main.c        **** int color_detected = 0; // 1-red, 2-green, 3-blue
  59:main.c        **** int wall_detected_10 = 0;
  60:main.c        **** int slit_detected = 0;
  61:main.c        **** int down_big = 615;
  62:main.c        **** int up_big = 525;
  63:main.c        **** int open_small = 980;
  64:main.c        **** int close_small  = 940;
  65:main.c        **** 
  66:main.c        **** CY_ISR (Speed_Control)
  67:main.c        **** {
  34              		.loc 1 67 0
  35              		.cfi_startproc
  36              		@ args = 0, pretend = 0, frame = 0
  37              		@ frame_needed = 0, uses_anonymous_args = 0
  38 0000 F8B5     		push	{r3, r4, r5, r6, r7, lr}
  39              		.cfi_def_cfa_offset 24
  40              		.cfi_offset 3, -24
  41              		.cfi_offset 4, -20
  42              		.cfi_offset 5, -16
  43              		.cfi_offset 6, -12
  44              		.cfi_offset 7, -8
  45              		.cfi_offset 14, -4
  68:main.c        ****     if(is_moving == 1)
  46              		.loc 1 68 0
ARM GAS  C:\Users\weiro\AppData\Local\Temp\cc9naSHk.s 			page 3


  47 0002 1B4B     		ldr	r3, .L4+8
  48 0004 1B68     		ldr	r3, [r3]
  49 0006 012B     		cmp	r3, #1
  50 0008 2CD1     		bne	.L1
  69:main.c        ****     {
  70:main.c        ****         error = abs(Count_Master) - abs(Count_Slave);
  51              		.loc 1 70 0
  52 000a 194C     		ldr	r4, .L4+8
  53 000c 6068     		ldr	r0, [r4, #4]
  54 000e 0028     		cmp	r0, #0
  55 0010 B8BF     		it	lt
  56 0012 4042     		rsblt	r0, r0, #0
  57 0014 A368     		ldr	r3, [r4, #8]
  58 0016 002B     		cmp	r3, #0
  59 0018 B8BF     		it	lt
  60 001a 5B42     		rsblt	r3, r3, #0
  61 001c C01A     		subs	r0, r0, r3
  62 001e FFF7FEFF 		bl	__aeabi_i2d
  63              	.LVL0:
  64 0022 C4E90401 		strd	r0, [r4, #16]
  71:main.c        ****     	//accumulated_error = accumulated_error + (error*timer_period);
  72:main.c        ****         //derivative_error = (error - last_error)/timer_period;
  73:main.c        ****         //K_i = 1.2 * K_p / timer_period;
  74:main.c        ****         //K_d = 0.075 * K_p * timer_period;
  75:main.c        ****         //PWM_Slave = 25000 - (K_p*error + K_i*accumulated_error + K_d*derivative_error);
  76:main.c        ****         PWM_Slave = 0.65*(PWM_Master + K_p*error);
  65              		.loc 1 76 0
  66 0026 134D     		ldr	r5, .L4+12
  67 0028 D5E90023 		ldrd	r2, [r5]
  68 002c FFF7FEFF 		bl	__aeabi_dmul
  69              	.LVL1:
  70 0030 0646     		mov	r6, r0
  71 0032 0F46     		mov	r7, r1
  72 0034 A868     		ldr	r0, [r5, #8]	@ float
  73 0036 FFF7FEFF 		bl	__aeabi_f2d
  74              	.LVL2:
  75 003a 3246     		mov	r2, r6
  76 003c 3B46     		mov	r3, r7
  77 003e FFF7FEFF 		bl	__aeabi_dadd
  78              	.LVL3:
  79 0042 09A3     		adr	r3, .L4
  80 0044 D3E90023 		ldrd	r2, [r3]
  81 0048 FFF7FEFF 		bl	__aeabi_dmul
  82              	.LVL4:
  83 004c FFF7FEFF 		bl	__aeabi_d2f
  84              	.LVL5:
  85 0050 E860     		str	r0, [r5, #12]	@ float
  77:main.c        ****         //if (PWM_Slave>25000)
  78:main.c        ****         //{
  79:main.c        ****         //    PWM_Slave = 23000;
  80:main.c        ****         //}
  81:main.c        ****     
  82:main.c        ****         PWM_Wheels_WriteCompare2(PWM_Slave);
  86              		.loc 1 82 0
  87 0052 FFF7FEFF 		bl	__aeabi_f2uiz
  88              	.LVL6:
  89 0056 80B2     		uxth	r0, r0
ARM GAS  C:\Users\weiro\AppData\Local\Temp\cc9naSHk.s 			page 4


  90 0058 FFF7FEFF 		bl	PWM_Wheels_WriteCompare2
  91              	.LVL7:
  83:main.c        ****         last_error = error;
  92              		.loc 1 83 0
  93 005c D4E90423 		ldrd	r2, [r4, #16]
  94 0060 C4E90623 		strd	r2, [r4, #24]
  95              	.L1:
  96 0064 F8BD     		pop	{r3, r4, r5, r6, r7, pc}
  97              	.L5:
  98 0066 00BF     		.align	3
  99              	.L4:
 100 0068 CDCCCCCC 		.word	-858993459
 101 006c CCCCE43F 		.word	1071959244
 102 0070 00000000 		.word	.LANCHOR0
 103 0074 00000000 		.word	.LANCHOR1
 104              		.cfi_endproc
 105              	.LFE64:
 106              		.size	Speed_Control, .-Speed_Control
 107              		.section	.text.ultrasonic_trigger,"ax",%progbits
 108              		.align	2
 109              		.global	ultrasonic_trigger
 110              		.thumb
 111              		.thumb_func
 112              		.type	ultrasonic_trigger, %function
 113              	ultrasonic_trigger:
 114              	.LFB65:
  84:main.c        ****     }
  85:main.c        **** 
  86:main.c        ****     //sprintf(string_3, "PWM_Slave: %f\n", PWM_Slave);
  87:main.c        ****     //UART_1_PutString(string_3);
  88:main.c        **** }
  89:main.c        **** 
  90:main.c        **** CY_ISR(ultrasonic_trigger)
  91:main.c        **** {
 115              		.loc 1 91 0
 116              		.cfi_startproc
 117              		@ args = 0, pretend = 0, frame = 0
 118              		@ frame_needed = 0, uses_anonymous_args = 0
 119 0000 08B5     		push	{r3, lr}
 120              		.cfi_def_cfa_offset 8
 121              		.cfi_offset 3, -8
 122              		.cfi_offset 14, -4
  92:main.c        ****     if (ultrasonic_flag == 0)
 123              		.loc 1 92 0
 124 0002 164B     		ldr	r3, .L12
 125 0004 1B6A     		ldr	r3, [r3, #32]
 126 0006 1BB9     		cbnz	r3, .L7
  93:main.c        ****     {
  94:main.c        ****         // front 1
  95:main.c        ****         echo_select = 0;
 127              		.loc 1 95 0
 128 0008 0022     		movs	r2, #0
 129 000a 144B     		ldr	r3, .L12
 130 000c 5A62     		str	r2, [r3, #36]
 131 000e 10E0     		b	.L8
 132              	.L7:
  96:main.c        ****     }
ARM GAS  C:\Users\weiro\AppData\Local\Temp\cc9naSHk.s 			page 5


  97:main.c        ****     else if (ultrasonic_flag == 1)
 133              		.loc 1 97 0
 134 0010 012B     		cmp	r3, #1
 135 0012 03D1     		bne	.L9
  98:main.c        ****     {
  99:main.c        ****         // front 2
 100:main.c        ****         echo_select = 1;
 136              		.loc 1 100 0
 137 0014 0122     		movs	r2, #1
 138 0016 114B     		ldr	r3, .L12
 139 0018 5A62     		str	r2, [r3, #36]
 140 001a 0AE0     		b	.L8
 141              	.L9:
 101:main.c        ****     }
 102:main.c        ****     else if (ultrasonic_flag == 2)
 142              		.loc 1 102 0
 143 001c 022B     		cmp	r3, #2
 144 001e 03D1     		bne	.L10
 103:main.c        ****     {
 104:main.c        ****         // left
 105:main.c        ****         echo_select = 2;
 145              		.loc 1 105 0
 146 0020 0222     		movs	r2, #2
 147 0022 0E4B     		ldr	r3, .L12
 148 0024 5A62     		str	r2, [r3, #36]
 149 0026 04E0     		b	.L8
 150              	.L10:
 106:main.c        ****     }
 107:main.c        ****     else if (ultrasonic_flag == 3)
 151              		.loc 1 107 0
 152 0028 032B     		cmp	r3, #3
 153 002a 02D1     		bne	.L8
 108:main.c        ****     {
 109:main.c        ****         // right
 110:main.c        ****         echo_select = 3;
 154              		.loc 1 110 0
 155 002c 0322     		movs	r2, #3
 156 002e 0B4B     		ldr	r3, .L12
 157 0030 5A62     		str	r2, [r3, #36]
 158              	.L8:
 111:main.c        ****     }
 112:main.c        ****     Control_Reg_2_Write(echo_select);
 159              		.loc 1 112 0
 160 0032 0A4B     		ldr	r3, .L12
 161 0034 93F82400 		ldrb	r0, [r3, #36]	@ zero_extendqisi2
 162 0038 FFF7FEFF 		bl	Control_Reg_2_Write
 163              	.LVL8:
 113:main.c        ****     CyDelay(50);
 164              		.loc 1 113 0
 165 003c 3220     		movs	r0, #50
 166 003e FFF7FEFF 		bl	CyDelay
 167              	.LVL9:
 114:main.c        ****     Timer_2_ReadStatusRegister();
 168              		.loc 1 114 0
 169 0042 FFF7FEFF 		bl	Timer_2_ReadStatusRegister
 170              	.LVL10:
 115:main.c        ****     Trigger_Write(1);
ARM GAS  C:\Users\weiro\AppData\Local\Temp\cc9naSHk.s 			page 6


 171              		.loc 1 115 0
 172 0046 0120     		movs	r0, #1
 173 0048 FFF7FEFF 		bl	Trigger_Write
 174              	.LVL11:
 116:main.c        ****     CyDelayUs(10);
 175              		.loc 1 116 0
 176 004c 0A20     		movs	r0, #10
 177 004e FFF7FEFF 		bl	CyDelayUs
 178              	.LVL12:
 117:main.c        ****     Trigger_Write(0);
 179              		.loc 1 117 0
 180 0052 0020     		movs	r0, #0
 181 0054 FFF7FEFF 		bl	Trigger_Write
 182              	.LVL13:
 183 0058 08BD     		pop	{r3, pc}
 184              	.L13:
 185 005a 00BF     		.align	2
 186              	.L12:
 187 005c 00000000 		.word	.LANCHOR0
 188              		.cfi_endproc
 189              	.LFE65:
 190              		.size	ultrasonic_trigger, .-ultrasonic_trigger
 191              		.global	__aeabi_dcmple
 192              		.section	.text.ultrasonic_echo,"ax",%progbits
 193              		.align	2
 194              		.global	ultrasonic_echo
 195              		.thumb
 196              		.thumb_func
 197              		.type	ultrasonic_echo, %function
 198              	ultrasonic_echo:
 199              	.LFB66:
 118:main.c        **** }
 119:main.c        **** 
 120:main.c        **** CY_ISR(ultrasonic_echo)
 121:main.c        **** {
 200              		.loc 1 121 0
 201              		.cfi_startproc
 202              		@ args = 0, pretend = 0, frame = 0
 203              		@ frame_needed = 0, uses_anonymous_args = 0
 204 0000 10B5     		push	{r4, lr}
 205              		.cfi_def_cfa_offset 8
 206              		.cfi_offset 4, -8
 207              		.cfi_offset 14, -4
 122:main.c        ****     Timer_3_ReadStatusRegister();
 208              		.loc 1 122 0
 209 0002 FFF7FEFF 		bl	Timer_3_ReadStatusRegister
 210              	.LVL14:
 123:main.c        ****     ultrasonic_count = Timer_3_ReadCounter();
 211              		.loc 1 123 0
 212 0006 FFF7FEFF 		bl	Timer_3_ReadCounter
 213              	.LVL15:
 214 000a 234C     		ldr	r4, .L25
 215 000c A062     		str	r0, [r4, #40]
 124:main.c        ****     ultrasonic_measure = (65535-ultrasonic_count)/58;
 216              		.loc 1 124 0
 217 000e C0F57F43 		rsb	r3, r0, #65280
 218 0012 FF33     		adds	r3, r3, #255
ARM GAS  C:\Users\weiro\AppData\Local\Temp\cc9naSHk.s 			page 7


 219 0014 2148     		ldr	r0, .L25+4
 220 0016 80FB0320 		smull	r2, r0, r0, r3
 221 001a 1844     		add	r0, r0, r3
 222 001c DB17     		asrs	r3, r3, #31
 223 001e C3EB6010 		rsb	r0, r3, r0, asr #5
 224 0022 FFF7FEFF 		bl	__aeabi_i2d
 225              	.LVL16:
 226 0026 0246     		mov	r2, r0
 227 0028 0B46     		mov	r3, r1
 228 002a C4E90C23 		strd	r2, [r4, #48]
 125:main.c        ****     sprintf(string_1, "Front dist 1: %lf\n", ultrasonic_measure);
 229              		.loc 1 125 0
 230 002e 1C49     		ldr	r1, .L25+8
 231 0030 1C48     		ldr	r0, .L25+12
 232 0032 FFF7FEFF 		bl	sprintf
 233              	.LVL17:
 126:main.c        ****     
 127:main.c        ****     if (ultrasonic_flag == 0)
 234              		.loc 1 127 0
 235 0036 236A     		ldr	r3, [r4, #32]
 236 0038 2BB9     		cbnz	r3, .L15
 128:main.c        ****     {
 129:main.c        ****         // front 1
 130:main.c        ****         front_measured_1 = ultrasonic_measure;
 237              		.loc 1 130 0
 238 003a D4E90C01 		ldrd	r0, [r4, #48]
 239 003e 1A4B     		ldr	r3, .L25+16
 240 0040 C3E90001 		strd	r0, [r3]
 241 0044 18E0     		b	.L16
 242              	.L15:
 131:main.c        ****     }
 132:main.c        ****     else if (ultrasonic_flag == 1)
 243              		.loc 1 132 0
 244 0046 012B     		cmp	r3, #1
 245 0048 06D1     		bne	.L17
 133:main.c        ****     {
 134:main.c        ****         // front 2
 135:main.c        ****         front_measured_2 = ultrasonic_measure;
 246              		.loc 1 135 0
 247 004a 134B     		ldr	r3, .L25
 248 004c D3E90C01 		ldrd	r0, [r3, #48]
 249 0050 164B     		ldr	r3, .L25+20
 250 0052 C3E90001 		strd	r0, [r3]
 251 0056 0FE0     		b	.L16
 252              	.L17:
 136:main.c        ****     }
 137:main.c        ****     else if (ultrasonic_flag == 2)
 253              		.loc 1 137 0
 254 0058 022B     		cmp	r3, #2
 255 005a 05D1     		bne	.L18
 138:main.c        ****     {
 139:main.c        ****         // left
 140:main.c        ****         left_measured = ultrasonic_measure;
 256              		.loc 1 140 0
 257 005c 0E4B     		ldr	r3, .L25
 258 005e D3E90C01 		ldrd	r0, [r3, #48]
 259 0062 C3E90E01 		strd	r0, [r3, #56]
ARM GAS  C:\Users\weiro\AppData\Local\Temp\cc9naSHk.s 			page 8


 260 0066 07E0     		b	.L16
 261              	.L18:
 141:main.c        ****     }
 142:main.c        ****     else if (ultrasonic_flag == 3)
 262              		.loc 1 142 0
 263 0068 032B     		cmp	r3, #3
 264 006a 05D1     		bne	.L16
 143:main.c        ****     {
 144:main.c        ****         // right
 145:main.c        ****         right_measured = ultrasonic_measure;
 265              		.loc 1 145 0
 266 006c 0A4B     		ldr	r3, .L25
 267 006e D3E90C01 		ldrd	r0, [r3, #48]
 268 0072 0F4B     		ldr	r3, .L25+24
 269 0074 C3E90001 		strd	r0, [r3]
 270              	.L16:
 146:main.c        ****     }
 147:main.c        ****     
 148:main.c        ****     if(front_measured_1 <= 15)
 271              		.loc 1 148 0
 272 0078 0022     		movs	r2, #0
 273 007a 0E4B     		ldr	r3, .L25+28
 274 007c 0A49     		ldr	r1, .L25+16
 275 007e D1E90001 		ldrd	r0, [r1]
 276 0082 FFF7FEFF 		bl	__aeabi_dcmple
 277              	.LVL18:
 278 0086 18B1     		cbz	r0, .L23
 149:main.c        ****     {
 150:main.c        ****         wall_detected_10 = 1;
 279              		.loc 1 150 0
 280 0088 0122     		movs	r2, #1
 281 008a 034B     		ldr	r3, .L25
 282 008c 1A64     		str	r2, [r3, #64]
 283 008e 10BD     		pop	{r4, pc}
 284              	.L23:
 151:main.c        ****     }
 152:main.c        ****     else
 153:main.c        ****     {
 154:main.c        ****         wall_detected_10 = 0;
 285              		.loc 1 154 0
 286 0090 0022     		movs	r2, #0
 287 0092 014B     		ldr	r3, .L25
 288 0094 1A64     		str	r2, [r3, #64]
 289 0096 10BD     		pop	{r4, pc}
 290              	.L26:
 291              		.align	2
 292              	.L25:
 293 0098 00000000 		.word	.LANCHOR0
 294 009c 09CB3D8D 		.word	-1925330167
 295 00a0 00000000 		.word	.LC0
 296 00a4 00000000 		.word	string_1
 297 00a8 00000000 		.word	front_measured_1
 298 00ac 00000000 		.word	front_measured_2
 299 00b0 00000000 		.word	right_measured
 300 00b4 00002E40 		.word	1076756480
 301              		.cfi_endproc
 302              	.LFE66:
ARM GAS  C:\Users\weiro\AppData\Local\Temp\cc9naSHk.s 			page 9


 303              		.size	ultrasonic_echo, .-ultrasonic_echo
 304              		.section	.text.Color_sensing,"ax",%progbits
 305              		.align	2
 306              		.global	Color_sensing
 307              		.thumb
 308              		.thumb_func
 309              		.type	Color_sensing, %function
 310              	Color_sensing:
 311              	.LFB67:
 155:main.c        ****     }
 156:main.c        **** }
 157:main.c        **** 
 158:main.c        **** CY_ISR(Color_sensing)
 159:main.c        **** {
 312              		.loc 1 159 0
 313              		.cfi_startproc
 314              		@ args = 0, pretend = 0, frame = 0
 315              		@ frame_needed = 0, uses_anonymous_args = 0
 316 0000 08B5     		push	{r3, lr}
 317              		.cfi_def_cfa_offset 8
 318              		.cfi_offset 3, -8
 319              		.cfi_offset 14, -4
 160:main.c        ****     // Ready to do the capture --> to count the pulse
 161:main.c        ****     PWM_ColorSensor_ReadStatusRegister();
 320              		.loc 1 161 0
 321 0002 FFF7FEFF 		bl	PWM_ColorSensor_ReadStatusRegister
 322              	.LVL19:
 162:main.c        ****     compare_ready = 1;
 323              		.loc 1 162 0
 324 0006 0122     		movs	r2, #1
 325 0008 014B     		ldr	r3, .L29
 326 000a 5A64     		str	r2, [r3, #68]
 327 000c 08BD     		pop	{r3, pc}
 328              	.L30:
 329 000e 00BF     		.align	2
 330              	.L29:
 331 0010 00000000 		.word	.LANCHOR0
 332              		.cfi_endproc
 333              	.LFE67:
 334              		.size	Color_sensing, .-Color_sensing
 335              		.section	.text.stop,"ax",%progbits
 336              		.align	2
 337              		.global	stop
 338              		.thumb
 339              		.thumb_func
 340              		.type	stop, %function
 341              	stop:
 342              	.LFB68:
 163:main.c        **** }
 164:main.c        **** 
 165:main.c        **** void stop()
 166:main.c        **** {
 343              		.loc 1 166 0
 344              		.cfi_startproc
 345              		@ args = 0, pretend = 0, frame = 0
 346              		@ frame_needed = 0, uses_anonymous_args = 0
 347 0000 10B5     		push	{r4, lr}
ARM GAS  C:\Users\weiro\AppData\Local\Temp\cc9naSHk.s 			page 10


 348              		.cfi_def_cfa_offset 8
 349              		.cfi_offset 4, -8
 350              		.cfi_offset 14, -4
 167:main.c        ****     is_moving = 0;
 351              		.loc 1 167 0
 352 0002 0024     		movs	r4, #0
 353 0004 074B     		ldr	r3, .L33
 354 0006 1C60     		str	r4, [r3]
 168:main.c        ****     Motor_1_IN_1_Write(0);
 355              		.loc 1 168 0
 356 0008 2046     		mov	r0, r4
 357 000a FFF7FEFF 		bl	Motor_1_IN_1_Write
 358              	.LVL20:
 169:main.c        ****     Motor_1_IN_2_Write(0);
 359              		.loc 1 169 0
 360 000e 2046     		mov	r0, r4
 361 0010 FFF7FEFF 		bl	Motor_1_IN_2_Write
 362              	.LVL21:
 170:main.c        ****     Motor_2_IN_3_Write(0);
 363              		.loc 1 170 0
 364 0014 2046     		mov	r0, r4
 365 0016 FFF7FEFF 		bl	Motor_2_IN_3_Write
 366              	.LVL22:
 171:main.c        ****     Motor_2_IN_4_Write(0);
 367              		.loc 1 171 0
 368 001a 2046     		mov	r0, r4
 369 001c FFF7FEFF 		bl	Motor_2_IN_4_Write
 370              	.LVL23:
 371 0020 10BD     		pop	{r4, pc}
 372              	.L34:
 373 0022 00BF     		.align	2
 374              	.L33:
 375 0024 00000000 		.word	.LANCHOR0
 376              		.cfi_endproc
 377              	.LFE68:
 378              		.size	stop, .-stop
 379              		.section	.text.forward,"ax",%progbits
 380              		.align	2
 381              		.global	forward
 382              		.thumb
 383              		.thumb_func
 384              		.type	forward, %function
 385              	forward:
 386              	.LFB69:
 172:main.c        **** }
 173:main.c        **** 
 174:main.c        **** void forward()
 175:main.c        **** {
 387              		.loc 1 175 0
 388              		.cfi_startproc
 389              		@ args = 0, pretend = 0, frame = 0
 390              		@ frame_needed = 0, uses_anonymous_args = 0
 391 0000 10B5     		push	{r4, lr}
 392              		.cfi_def_cfa_offset 8
 393              		.cfi_offset 4, -8
 394              		.cfi_offset 14, -4
 176:main.c        ****     is_moving = 1;
ARM GAS  C:\Users\weiro\AppData\Local\Temp\cc9naSHk.s 			page 11


 395              		.loc 1 176 0
 396 0002 0124     		movs	r4, #1
 397 0004 074B     		ldr	r3, .L37
 398 0006 1C60     		str	r4, [r3]
 177:main.c        ****     Motor_1_IN_1_Write(0);
 399              		.loc 1 177 0
 400 0008 0020     		movs	r0, #0
 401 000a FFF7FEFF 		bl	Motor_1_IN_1_Write
 402              	.LVL24:
 178:main.c        ****     Motor_1_IN_2_Write(1);
 403              		.loc 1 178 0
 404 000e 2046     		mov	r0, r4
 405 0010 FFF7FEFF 		bl	Motor_1_IN_2_Write
 406              	.LVL25:
 179:main.c        ****     Motor_2_IN_3_Write(0);
 407              		.loc 1 179 0
 408 0014 0020     		movs	r0, #0
 409 0016 FFF7FEFF 		bl	Motor_2_IN_3_Write
 410              	.LVL26:
 180:main.c        ****     Motor_2_IN_4_Write(1);
 411              		.loc 1 180 0
 412 001a 2046     		mov	r0, r4
 413 001c FFF7FEFF 		bl	Motor_2_IN_4_Write
 414              	.LVL27:
 415 0020 10BD     		pop	{r4, pc}
 416              	.L38:
 417 0022 00BF     		.align	2
 418              	.L37:
 419 0024 00000000 		.word	.LANCHOR0
 420              		.cfi_endproc
 421              	.LFE69:
 422              		.size	forward, .-forward
 423              		.section	.text.reverse,"ax",%progbits
 424              		.align	2
 425              		.global	reverse
 426              		.thumb
 427              		.thumb_func
 428              		.type	reverse, %function
 429              	reverse:
 430              	.LFB70:
 181:main.c        **** }
 182:main.c        **** 
 183:main.c        **** void reverse()
 184:main.c        **** {
 431              		.loc 1 184 0
 432              		.cfi_startproc
 433              		@ args = 0, pretend = 0, frame = 0
 434              		@ frame_needed = 0, uses_anonymous_args = 0
 435 0000 10B5     		push	{r4, lr}
 436              		.cfi_def_cfa_offset 8
 437              		.cfi_offset 4, -8
 438              		.cfi_offset 14, -4
 185:main.c        ****     is_moving = 1;
 439              		.loc 1 185 0
 440 0002 0124     		movs	r4, #1
 441 0004 074B     		ldr	r3, .L41
 442 0006 1C60     		str	r4, [r3]
ARM GAS  C:\Users\weiro\AppData\Local\Temp\cc9naSHk.s 			page 12


 186:main.c        ****     Motor_1_IN_1_Write(1);
 443              		.loc 1 186 0
 444 0008 2046     		mov	r0, r4
 445 000a FFF7FEFF 		bl	Motor_1_IN_1_Write
 446              	.LVL28:
 187:main.c        ****     Motor_1_IN_2_Write(0);
 447              		.loc 1 187 0
 448 000e 0020     		movs	r0, #0
 449 0010 FFF7FEFF 		bl	Motor_1_IN_2_Write
 450              	.LVL29:
 188:main.c        ****     Motor_2_IN_3_Write(1);
 451              		.loc 1 188 0
 452 0014 2046     		mov	r0, r4
 453 0016 FFF7FEFF 		bl	Motor_2_IN_3_Write
 454              	.LVL30:
 189:main.c        ****     Motor_2_IN_4_Write(0);
 455              		.loc 1 189 0
 456 001a 0020     		movs	r0, #0
 457 001c FFF7FEFF 		bl	Motor_2_IN_4_Write
 458              	.LVL31:
 459 0020 10BD     		pop	{r4, pc}
 460              	.L42:
 461 0022 00BF     		.align	2
 462              	.L41:
 463 0024 00000000 		.word	.LANCHOR0
 464              		.cfi_endproc
 465              	.LFE70:
 466              		.size	reverse, .-reverse
 467              		.section	.text.turn_anticlockwise,"ax",%progbits
 468              		.align	2
 469              		.global	turn_anticlockwise
 470              		.thumb
 471              		.thumb_func
 472              		.type	turn_anticlockwise, %function
 473              	turn_anticlockwise:
 474              	.LFB71:
 190:main.c        **** }
 191:main.c        **** 
 192:main.c        **** void turn_anticlockwise()
 193:main.c        **** {
 475              		.loc 1 193 0
 476              		.cfi_startproc
 477              		@ args = 0, pretend = 0, frame = 0
 478              		@ frame_needed = 0, uses_anonymous_args = 0
 479 0000 10B5     		push	{r4, lr}
 480              		.cfi_def_cfa_offset 8
 481              		.cfi_offset 4, -8
 482              		.cfi_offset 14, -4
 194:main.c        ****     is_moving = 1;
 483              		.loc 1 194 0
 484 0002 0124     		movs	r4, #1
 485 0004 074B     		ldr	r3, .L45
 486 0006 1C60     		str	r4, [r3]
 195:main.c        ****     Motor_1_IN_1_Write(0);
 487              		.loc 1 195 0
 488 0008 0020     		movs	r0, #0
 489 000a FFF7FEFF 		bl	Motor_1_IN_1_Write
ARM GAS  C:\Users\weiro\AppData\Local\Temp\cc9naSHk.s 			page 13


 490              	.LVL32:
 196:main.c        ****     Motor_1_IN_2_Write(1);
 491              		.loc 1 196 0
 492 000e 2046     		mov	r0, r4
 493 0010 FFF7FEFF 		bl	Motor_1_IN_2_Write
 494              	.LVL33:
 197:main.c        ****     Motor_2_IN_3_Write(1);
 495              		.loc 1 197 0
 496 0014 2046     		mov	r0, r4
 497 0016 FFF7FEFF 		bl	Motor_2_IN_3_Write
 498              	.LVL34:
 198:main.c        ****     Motor_2_IN_4_Write(0);
 499              		.loc 1 198 0
 500 001a 0020     		movs	r0, #0
 501 001c FFF7FEFF 		bl	Motor_2_IN_4_Write
 502              	.LVL35:
 503 0020 10BD     		pop	{r4, pc}
 504              	.L46:
 505 0022 00BF     		.align	2
 506              	.L45:
 507 0024 00000000 		.word	.LANCHOR0
 508              		.cfi_endproc
 509              	.LFE71:
 510              		.size	turn_anticlockwise, .-turn_anticlockwise
 511              		.section	.text.turn_clockwise,"ax",%progbits
 512              		.align	2
 513              		.global	turn_clockwise
 514              		.thumb
 515              		.thumb_func
 516              		.type	turn_clockwise, %function
 517              	turn_clockwise:
 518              	.LFB72:
 199:main.c        **** }
 200:main.c        **** 
 201:main.c        **** void turn_clockwise()
 202:main.c        **** {
 519              		.loc 1 202 0
 520              		.cfi_startproc
 521              		@ args = 0, pretend = 0, frame = 0
 522              		@ frame_needed = 0, uses_anonymous_args = 0
 523 0000 10B5     		push	{r4, lr}
 524              		.cfi_def_cfa_offset 8
 525              		.cfi_offset 4, -8
 526              		.cfi_offset 14, -4
 203:main.c        ****     is_moving = 1;
 527              		.loc 1 203 0
 528 0002 0124     		movs	r4, #1
 529 0004 074B     		ldr	r3, .L49
 530 0006 1C60     		str	r4, [r3]
 204:main.c        ****     Motor_1_IN_1_Write(1);
 531              		.loc 1 204 0
 532 0008 2046     		mov	r0, r4
 533 000a FFF7FEFF 		bl	Motor_1_IN_1_Write
 534              	.LVL36:
 205:main.c        ****     Motor_1_IN_2_Write(0);
 535              		.loc 1 205 0
 536 000e 0020     		movs	r0, #0
ARM GAS  C:\Users\weiro\AppData\Local\Temp\cc9naSHk.s 			page 14


 537 0010 FFF7FEFF 		bl	Motor_1_IN_2_Write
 538              	.LVL37:
 206:main.c        ****     Motor_2_IN_3_Write(0);
 539              		.loc 1 206 0
 540 0014 0020     		movs	r0, #0
 541 0016 FFF7FEFF 		bl	Motor_2_IN_3_Write
 542              	.LVL38:
 207:main.c        ****     Motor_2_IN_4_Write(1);
 543              		.loc 1 207 0
 544 001a 2046     		mov	r0, r4
 545 001c FFF7FEFF 		bl	Motor_2_IN_4_Write
 546              	.LVL39:
 547 0020 10BD     		pop	{r4, pc}
 548              	.L50:
 549 0022 00BF     		.align	2
 550              	.L49:
 551 0024 00000000 		.word	.LANCHOR0
 552              		.cfi_endproc
 553              	.LFE72:
 554              		.size	turn_clockwise, .-turn_clockwise
 555              		.section	.text.reset_count,"ax",%progbits
 556              		.align	2
 557              		.global	reset_count
 558              		.thumb
 559              		.thumb_func
 560              		.type	reset_count, %function
 561              	reset_count:
 562              	.LFB73:
 208:main.c        **** }
 209:main.c        **** /*
 210:main.c        **** void F_or_R(int dist_count, int flag_FR, int direction, int min_distance, int max_distance)
 211:main.c        **** {
 212:main.c        ****     double avg_count, avg_dist;
 213:main.c        ****     int flag_stop = 0;
 214:main.c        ****     //while(abs(Count_Master) <= dist_count && abs(Count_Slave) <= dist_count && front_measured>10)
 215:main.c        ****     if direction == 1
 216:main.c        ****     {
 217:main.c        ****         US_measured = front_measured;
 218:main.c        ****     }
 219:main.c        ****     else if direction == 2
 220:main.c        ****     {
 221:main.c        ****         US_measured = left
 222:main.c        ****     
 223:main.c        ****     while(abs(Count_Master) <= dist_count && abs(Count_Slave) <= dist_count && US_measured > min_di
 224:main.c        ****     {
 225:main.c        ****         // Place your application code here. 
 226:main.c        ****         Count_Master = QuadDec_1_GetCounter();
 227:main.c        ****         Count_Slave = QuadDec_2_GetCounter();
 228:main.c        ****         
 229:main.c        ****         sprintf(string_1, "Right (Master): %d\n", Count_Master);
 230:main.c        ****         UART_1_PutString(string_1);
 231:main.c        ****         sprintf(string_2, "Left (Slave): %d\n", Count_Slave);
 232:main.c        ****         UART_1_PutString(string_2);
 233:main.c        ****         sprintf(string_3, "PWM_Slave: %f\n", PWM_Slave);
 234:main.c        ****         UART_1_PutString(string_3);
 235:main.c        **** 
 236:main.c        ****         CyDelay(100);
ARM GAS  C:\Users\weiro\AppData\Local\Temp\cc9naSHk.s 			page 15


 237:main.c        ****         
 238:main.c        ****         if (flag_FR==1)
 239:main.c        ****         {
 240:main.c        ****             forward();
 241:main.c        ****         }
 242:main.c        ****         else
 243:main.c        ****         {
 244:main.c        ****             reverse();
 245:main.c        ****         }
 246:main.c        ****         CyDelay(50);
 247:main.c        ****         while(Front_Echo_Read()==0)
 248:main.c        ****         {
 249:main.c        ****             Front_Trigger_Write(1);
 250:main.c        ****             CyDelayUs(10);
 251:main.c        ****             Front_Trigger_Write(0);
 252:main.c        ****         }
 253:main.c        ****     }
 254:main.c        ****     stop();
 255:main.c        ****     avg_count = (QuadDec_1_GetCounter()+QuadDec_2_GetCounter())/2;
 256:main.c        ****     avg_dist = avg_count*(M_PI*WHEEL_DIAMETER/3667);
 257:main.c        ****     if (direction ==0)
 258:main.c        ****     {
 259:main.c        ****         y_coord = y_coord + avg_dist;
 260:main.c        ****     }
 261:main.c        ****     else if (direction ==1)
 262:main.c        ****     {
 263:main.c        ****         
 264:main.c        ****         x_coord = x_coord + avg_dist;
 265:main.c        ****     }
 266:main.c        ****     else if (direction ==2)
 267:main.c        ****     {
 268:main.c        ****         
 269:main.c        ****         y_coord = y_coord - avg_dist;
 270:main.c        ****     }
 271:main.c        ****     else if (direction ==3)
 272:main.c        ****     {
 273:main.c        ****         
 274:main.c        ****         x_coord = x_coord - avg_dist;
 275:main.c        ****     }
 276:main.c        ****     step = step +1;
 277:main.c        ****     //
 278:main.c        ****     //QuadDec_2_SetCounter(0);
 279:main.c        **** }
 280:main.c        **** */
 281:main.c        **** 
 282:main.c        **** void reset_count()
 283:main.c        **** {
 563              		.loc 1 283 0
 564              		.cfi_startproc
 565              		@ args = 0, pretend = 0, frame = 0
 566              		@ frame_needed = 0, uses_anonymous_args = 0
 567 0000 08B5     		push	{r3, lr}
 568              		.cfi_def_cfa_offset 8
 569              		.cfi_offset 3, -8
 570              		.cfi_offset 14, -4
 284:main.c        ****     QuadDec_1_SetCounter(0);
 571              		.loc 1 284 0
ARM GAS  C:\Users\weiro\AppData\Local\Temp\cc9naSHk.s 			page 16


 572 0002 0020     		movs	r0, #0
 573 0004 FFF7FEFF 		bl	QuadDec_1_SetCounter
 574              	.LVL40:
 285:main.c        ****     QuadDec_2_SetCounter(0);
 575              		.loc 1 285 0
 576 0008 0020     		movs	r0, #0
 577 000a FFF7FEFF 		bl	QuadDec_2_SetCounter
 578              	.LVL41:
 286:main.c        ****     Count_Master = 0;
 579              		.loc 1 286 0
 580 000e 024B     		ldr	r3, .L53
 581 0010 0022     		movs	r2, #0
 582 0012 5A60     		str	r2, [r3, #4]
 287:main.c        ****     Count_Slave = 0;
 583              		.loc 1 287 0
 584 0014 9A60     		str	r2, [r3, #8]
 585 0016 08BD     		pop	{r3, pc}
 586              	.L54:
 587              		.align	2
 588              	.L53:
 589 0018 00000000 		.word	.LANCHOR0
 590              		.cfi_endproc
 591              	.LFE73:
 592              		.size	reset_count, .-reset_count
 593              		.global	__aeabi_d2iz
 594              		.global	__aeabi_ddiv
 595              		.global	__aeabi_dsub
 596              		.section	.text.move_fixed_dist,"ax",%progbits
 597              		.align	2
 598              		.global	move_fixed_dist
 599              		.thumb
 600              		.thumb_func
 601              		.type	move_fixed_dist, %function
 602              	move_fixed_dist:
 603              	.LFB74:
 288:main.c        **** }
 289:main.c        **** 
 290:main.c        **** void move_fixed_dist(int dist, int flag_FR)
 291:main.c        **** {
 604              		.loc 1 291 0
 605              		.cfi_startproc
 606              		@ args = 0, pretend = 0, frame = 0
 607              		@ frame_needed = 0, uses_anonymous_args = 0
 608              	.LVL42:
 609 0000 70B5     		push	{r4, r5, r6, lr}
 610              		.cfi_def_cfa_offset 16
 611              		.cfi_offset 4, -16
 612              		.cfi_offset 5, -12
 613              		.cfi_offset 6, -8
 614              		.cfi_offset 14, -4
 615 0002 0E46     		mov	r6, r1
 292:main.c        ****     double avg_count, avg_dist;
 293:main.c        ****     int dist_count = dist * CM_COUNT_CONV; // convert dist to count
 616              		.loc 1 293 0
 617 0004 FFF7FEFF 		bl	__aeabi_i2d
 618              	.LVL43:
 619 0008 3F4B     		ldr	r3, .L66+16
ARM GAS  C:\Users\weiro\AppData\Local\Temp\cc9naSHk.s 			page 17


 620 000a D3E91223 		ldrd	r2, [r3, #72]
 621 000e FFF7FEFF 		bl	__aeabi_dmul
 622              	.LVL44:
 623 0012 FFF7FEFF 		bl	__aeabi_d2iz
 624              	.LVL45:
 625 0016 0546     		mov	r5, r0
 626              	.LVL46:
 294:main.c        ****     while(abs(Count_Master) <= dist_count && abs(Count_Slave) <= dist_count)
 627              		.loc 1 294 0
 628 0018 0DE0     		b	.L56
 629              	.LVL47:
 630              	.L60:
 295:main.c        ****     {
 296:main.c        ****         Count_Master = QuadDec_1_GetCounter();
 631              		.loc 1 296 0
 632 001a FFF7FEFF 		bl	QuadDec_1_GetCounter
 633              	.LVL48:
 634 001e 3A4C     		ldr	r4, .L66+16
 635 0020 6060     		str	r0, [r4, #4]
 297:main.c        ****         Count_Slave = QuadDec_2_GetCounter();
 636              		.loc 1 297 0
 637 0022 FFF7FEFF 		bl	QuadDec_2_GetCounter
 638              	.LVL49:
 639 0026 A060     		str	r0, [r4, #8]
 298:main.c        ****         if (flag_FR==1)
 640              		.loc 1 298 0
 641 0028 012E     		cmp	r6, #1
 642 002a 02D1     		bne	.L57
 299:main.c        ****         {
 300:main.c        ****             forward();
 643              		.loc 1 300 0
 644 002c FFF7FEFF 		bl	forward
 645              	.LVL50:
 646 0030 01E0     		b	.L56
 647              	.L57:
 301:main.c        ****         }
 302:main.c        ****         else
 303:main.c        ****         {
 304:main.c        ****             reverse();
 648              		.loc 1 304 0
 649 0032 FFF7FEFF 		bl	reverse
 650              	.LVL51:
 651              	.L56:
 294:main.c        ****     {
 652              		.loc 1 294 0
 653 0036 344B     		ldr	r3, .L66+16
 654 0038 5B68     		ldr	r3, [r3, #4]
 655 003a 002B     		cmp	r3, #0
 656 003c B8BF     		it	lt
 657 003e 5B42     		rsblt	r3, r3, #0
 658 0040 9D42     		cmp	r5, r3
 659 0042 06DB     		blt	.L59
 294:main.c        ****     {
 660              		.loc 1 294 0 is_stmt 0 discriminator 1
 661 0044 304B     		ldr	r3, .L66+16
 662 0046 9B68     		ldr	r3, [r3, #8]
 663 0048 002B     		cmp	r3, #0
ARM GAS  C:\Users\weiro\AppData\Local\Temp\cc9naSHk.s 			page 18


 664 004a B8BF     		it	lt
 665 004c 5B42     		rsblt	r3, r3, #0
 666 004e 9D42     		cmp	r5, r3
 667 0050 E3DA     		bge	.L60
 668              	.L59:
 305:main.c        ****         }
 306:main.c        ****     }
 307:main.c        ****     stop();
 669              		.loc 1 307 0 is_stmt 1
 670 0052 FFF7FEFF 		bl	stop
 671              	.LVL52:
 308:main.c        ****     avg_count = (QuadDec_1_GetCounter()+QuadDec_2_GetCounter())/2;
 672              		.loc 1 308 0
 673 0056 FFF7FEFF 		bl	QuadDec_1_GetCounter
 674              	.LVL53:
 675 005a 0446     		mov	r4, r0
 676 005c FFF7FEFF 		bl	QuadDec_2_GetCounter
 677              	.LVL54:
 678 0060 2044     		add	r0, r0, r4
 679 0062 00EBD070 		add	r0, r0, r0, lsr #31
 680 0066 4010     		asrs	r0, r0, #1
 681 0068 FFF7FEFF 		bl	__aeabi_i2d
 682              	.LVL55:
 683 006c 0446     		mov	r4, r0
 684 006e 0D46     		mov	r5, r1
 685              	.LVL56:
 309:main.c        ****     avg_dist = avg_count*(M_PI*WHEEL_DIAMETER/3667);
 686              		.loc 1 309 0
 687 0070 21A3     		adr	r3, .L66
 688 0072 D3E90023 		ldrd	r2, [r3]
 689 0076 2549     		ldr	r1, .L66+20
 690 0078 D1E90401 		ldrd	r0, [r1, #16]
 691 007c FFF7FEFF 		bl	__aeabi_dmul
 692              	.LVL57:
 693 0080 1FA3     		adr	r3, .L66+8
 694 0082 D3E90023 		ldrd	r2, [r3]
 695 0086 FFF7FEFF 		bl	__aeabi_ddiv
 696              	.LVL58:
 697 008a 0246     		mov	r2, r0
 698 008c 0B46     		mov	r3, r1
 699 008e 2046     		mov	r0, r4
 700 0090 2946     		mov	r1, r5
 701 0092 FFF7FEFF 		bl	__aeabi_dmul
 702              	.LVL59:
 310:main.c        ****     if (direction ==0)
 703              		.loc 1 310 0
 704 0096 1C4B     		ldr	r3, .L66+16
 705 0098 1B6D     		ldr	r3, [r3, #80]
 706 009a 3BB9     		cbnz	r3, .L61
 311:main.c        ****     {
 312:main.c        ****         y_coord = y_coord + avg_dist;
 707              		.loc 1 312 0
 708 009c 1A4C     		ldr	r4, .L66+16
 709              	.LVL60:
 710 009e D4E91623 		ldrd	r2, [r4, #88]
 711 00a2 FFF7FEFF 		bl	__aeabi_dadd
 712              	.LVL61:
ARM GAS  C:\Users\weiro\AppData\Local\Temp\cc9naSHk.s 			page 19


 713 00a6 C4E91601 		strd	r0, [r4, #88]
 714 00aa 20E0     		b	.L62
 715              	.LVL62:
 716              	.L61:
 313:main.c        ****     }
 314:main.c        ****     else if (direction ==1)
 717              		.loc 1 314 0
 718 00ac 012B     		cmp	r3, #1
 719 00ae 07D1     		bne	.L63
 315:main.c        ****     {
 316:main.c        ****         
 317:main.c        ****         x_coord = x_coord + avg_dist;
 720              		.loc 1 317 0
 721 00b0 154C     		ldr	r4, .L66+16
 722              	.LVL63:
 723 00b2 D4E91823 		ldrd	r2, [r4, #96]
 724 00b6 FFF7FEFF 		bl	__aeabi_dadd
 725              	.LVL64:
 726 00ba C4E91801 		strd	r0, [r4, #96]
 727 00be 16E0     		b	.L62
 728              	.LVL65:
 729              	.L63:
 318:main.c        ****     }
 319:main.c        ****     else if (direction ==2)
 730              		.loc 1 319 0
 731 00c0 022B     		cmp	r3, #2
 732 00c2 09D1     		bne	.L64
 320:main.c        ****     {
 321:main.c        ****         
 322:main.c        ****         y_coord = y_coord - avg_dist;
 733              		.loc 1 322 0
 734 00c4 104C     		ldr	r4, .L66+16
 735              	.LVL66:
 736 00c6 0246     		mov	r2, r0
 737 00c8 0B46     		mov	r3, r1
 738 00ca D4E91601 		ldrd	r0, [r4, #88]
 739              	.LVL67:
 740 00ce FFF7FEFF 		bl	__aeabi_dsub
 741              	.LVL68:
 742 00d2 C4E91601 		strd	r0, [r4, #88]
 743 00d6 0AE0     		b	.L62
 744              	.LVL69:
 745              	.L64:
 323:main.c        ****     }
 324:main.c        ****     else if (direction ==3)
 746              		.loc 1 324 0
 747 00d8 032B     		cmp	r3, #3
 748 00da 08D1     		bne	.L62
 325:main.c        ****     {
 326:main.c        ****         
 327:main.c        ****         x_coord = x_coord - avg_dist;
 749              		.loc 1 327 0
 750 00dc 0A4C     		ldr	r4, .L66+16
 751              	.LVL70:
 752 00de 0246     		mov	r2, r0
 753 00e0 0B46     		mov	r3, r1
 754 00e2 D4E91801 		ldrd	r0, [r4, #96]
ARM GAS  C:\Users\weiro\AppData\Local\Temp\cc9naSHk.s 			page 20


 755              	.LVL71:
 756 00e6 FFF7FEFF 		bl	__aeabi_dsub
 757              	.LVL72:
 758 00ea C4E91801 		strd	r0, [r4, #96]
 759              	.L62:
 328:main.c        ****     }
 329:main.c        ****     reset_count();
 760              		.loc 1 329 0
 761 00ee FFF7FEFF 		bl	reset_count
 762              	.LVL73:
 763 00f2 70BD     		pop	{r4, r5, r6, pc}
 764              	.LVL74:
 765              	.L67:
 766 00f4 AFF30080 		.align	3
 767              	.L66:
 768 00f8 182D4454 		.word	1413754136
 769 00fc FB210940 		.word	1074340347
 770 0100 00000000 		.word	0
 771 0104 00A6AC40 		.word	1085056512
 772 0108 00000000 		.word	.LANCHOR0
 773 010c 00000000 		.word	.LANCHOR1
 774              		.cfi_endproc
 775              	.LFE74:
 776              		.size	move_fixed_dist, .-move_fixed_dist
 777              		.section	.text.forward2wall,"ax",%progbits
 778              		.align	2
 779              		.global	forward2wall
 780              		.thumb
 781              		.thumb_func
 782              		.type	forward2wall, %function
 783              	forward2wall:
 784              	.LFB75:
 330:main.c        **** }
 331:main.c        **** 
 332:main.c        **** void forward2wall()
 333:main.c        **** {
 785              		.loc 1 333 0
 786              		.cfi_startproc
 787              		@ args = 0, pretend = 0, frame = 0
 788              		@ frame_needed = 0, uses_anonymous_args = 0
 789 0000 38B5     		push	{r3, r4, r5, lr}
 790              		.cfi_def_cfa_offset 16
 791              		.cfi_offset 3, -16
 792              		.cfi_offset 4, -12
 793              		.cfi_offset 5, -8
 794              		.cfi_offset 14, -4
 334:main.c        ****     double avg_count, avg_dist;
 335:main.c        ****     while (wall_detected_10 == 0)
 795              		.loc 1 335 0
 796 0002 12E0     		b	.L69
 797              	.L72:
 336:main.c        ****     {
 337:main.c        ****         forward();
 798              		.loc 1 337 0
 799 0004 FFF7FEFF 		bl	forward
 800              	.LVL75:
 338:main.c        ****         CyDelay(50);
ARM GAS  C:\Users\weiro\AppData\Local\Temp\cc9naSHk.s 			page 21


 801              		.loc 1 338 0
 802 0008 3220     		movs	r0, #50
 803 000a FFF7FEFF 		bl	CyDelay
 804              	.LVL76:
 339:main.c        ****         while(Front_Echo_1_Read()==0)
 805              		.loc 1 339 0
 806 000e 08E0     		b	.L70
 807              	.L71:
 808              	.LBB2:
 340:main.c        ****         {
 341:main.c        ****             Front_Trigger_1_Write(1);
 809              		.loc 1 341 0
 810 0010 0120     		movs	r0, #1
 811 0012 FFF7FEFF 		bl	Front_Trigger_1_Write
 812              	.LVL77:
 342:main.c        ****             CyDelayUs(10);
 813              		.loc 1 342 0
 814 0016 0A20     		movs	r0, #10
 815 0018 FFF7FEFF 		bl	CyDelayUs
 816              	.LVL78:
 343:main.c        ****             Front_Trigger_1_Write(0);
 817              		.loc 1 343 0
 818 001c 0020     		movs	r0, #0
 819 001e FFF7FEFF 		bl	Front_Trigger_1_Write
 820              	.LVL79:
 821              	.L70:
 822              	.LBE2:
 339:main.c        ****         {
 823              		.loc 1 339 0
 824 0022 FFF7FEFF 		bl	Front_Echo_1_Read
 825              	.LVL80:
 826 0026 0028     		cmp	r0, #0
 827 0028 F2D0     		beq	.L71
 828              	.L69:
 335:main.c        ****     {
 829              		.loc 1 335 0
 830 002a 2F4B     		ldr	r3, .L78+16
 831 002c 1B6C     		ldr	r3, [r3, #64]
 832 002e 002B     		cmp	r3, #0
 833 0030 E8D0     		beq	.L72
 344:main.c        ****         }
 345:main.c        ****     }
 346:main.c        ****     stop();
 834              		.loc 1 346 0
 835 0032 FFF7FEFF 		bl	stop
 836              	.LVL81:
 347:main.c        ****     avg_count = (QuadDec_1_GetCounter()+QuadDec_2_GetCounter())/2;
 837              		.loc 1 347 0
 838 0036 FFF7FEFF 		bl	QuadDec_1_GetCounter
 839              	.LVL82:
 840 003a 0446     		mov	r4, r0
 841 003c FFF7FEFF 		bl	QuadDec_2_GetCounter
 842              	.LVL83:
 843 0040 2044     		add	r0, r0, r4
 844 0042 00EBD070 		add	r0, r0, r0, lsr #31
 845 0046 4010     		asrs	r0, r0, #1
 846 0048 FFF7FEFF 		bl	__aeabi_i2d
ARM GAS  C:\Users\weiro\AppData\Local\Temp\cc9naSHk.s 			page 22


 847              	.LVL84:
 848 004c 0446     		mov	r4, r0
 849 004e 0D46     		mov	r5, r1
 850              	.LVL85:
 348:main.c        ****     avg_dist = avg_count*(M_PI*WHEEL_DIAMETER/3667);
 851              		.loc 1 348 0
 852 0050 21A3     		adr	r3, .L78
 853 0052 D3E90023 		ldrd	r2, [r3]
 854 0056 2549     		ldr	r1, .L78+20
 855 0058 D1E90401 		ldrd	r0, [r1, #16]
 856 005c FFF7FEFF 		bl	__aeabi_dmul
 857              	.LVL86:
 858 0060 1FA3     		adr	r3, .L78+8
 859 0062 D3E90023 		ldrd	r2, [r3]
 860 0066 FFF7FEFF 		bl	__aeabi_ddiv
 861              	.LVL87:
 862 006a 0246     		mov	r2, r0
 863 006c 0B46     		mov	r3, r1
 864 006e 2046     		mov	r0, r4
 865 0070 2946     		mov	r1, r5
 866 0072 FFF7FEFF 		bl	__aeabi_dmul
 867              	.LVL88:
 349:main.c        ****     if (direction ==0)
 868              		.loc 1 349 0
 869 0076 1C4B     		ldr	r3, .L78+16
 870 0078 1B6D     		ldr	r3, [r3, #80]
 871 007a 3BB9     		cbnz	r3, .L73
 350:main.c        ****     {
 351:main.c        ****         y_coord = y_coord + avg_dist;
 872              		.loc 1 351 0
 873 007c 1A4C     		ldr	r4, .L78+16
 874              	.LVL89:
 875 007e D4E91623 		ldrd	r2, [r4, #88]
 876 0082 FFF7FEFF 		bl	__aeabi_dadd
 877              	.LVL90:
 878 0086 C4E91601 		strd	r0, [r4, #88]
 879 008a 20E0     		b	.L74
 880              	.LVL91:
 881              	.L73:
 352:main.c        ****     }
 353:main.c        ****     else if (direction ==1)
 882              		.loc 1 353 0
 883 008c 012B     		cmp	r3, #1
 884 008e 07D1     		bne	.L75
 354:main.c        ****     {
 355:main.c        ****         
 356:main.c        ****         x_coord = x_coord + avg_dist;
 885              		.loc 1 356 0
 886 0090 154C     		ldr	r4, .L78+16
 887              	.LVL92:
 888 0092 D4E91823 		ldrd	r2, [r4, #96]
 889 0096 FFF7FEFF 		bl	__aeabi_dadd
 890              	.LVL93:
 891 009a C4E91801 		strd	r0, [r4, #96]
 892 009e 16E0     		b	.L74
 893              	.LVL94:
 894              	.L75:
ARM GAS  C:\Users\weiro\AppData\Local\Temp\cc9naSHk.s 			page 23


 357:main.c        ****     }
 358:main.c        ****     else if (direction ==2)
 895              		.loc 1 358 0
 896 00a0 022B     		cmp	r3, #2
 897 00a2 09D1     		bne	.L76
 359:main.c        ****     {
 360:main.c        ****         
 361:main.c        ****         y_coord = y_coord - avg_dist;
 898              		.loc 1 361 0
 899 00a4 104C     		ldr	r4, .L78+16
 900              	.LVL95:
 901 00a6 0246     		mov	r2, r0
 902 00a8 0B46     		mov	r3, r1
 903 00aa D4E91601 		ldrd	r0, [r4, #88]
 904              	.LVL96:
 905 00ae FFF7FEFF 		bl	__aeabi_dsub
 906              	.LVL97:
 907 00b2 C4E91601 		strd	r0, [r4, #88]
 908 00b6 0AE0     		b	.L74
 909              	.LVL98:
 910              	.L76:
 362:main.c        ****     }
 363:main.c        ****     else if (direction ==3)
 911              		.loc 1 363 0
 912 00b8 032B     		cmp	r3, #3
 913 00ba 08D1     		bne	.L74
 364:main.c        ****     {
 365:main.c        ****         
 366:main.c        ****         x_coord = x_coord - avg_dist;
 914              		.loc 1 366 0
 915 00bc 0A4C     		ldr	r4, .L78+16
 916              	.LVL99:
 917 00be 0246     		mov	r2, r0
 918 00c0 0B46     		mov	r3, r1
 919 00c2 D4E91801 		ldrd	r0, [r4, #96]
 920              	.LVL100:
 921 00c6 FFF7FEFF 		bl	__aeabi_dsub
 922              	.LVL101:
 923 00ca C4E91801 		strd	r0, [r4, #96]
 924              	.L74:
 367:main.c        ****     }
 368:main.c        ****     reset_count();
 925              		.loc 1 368 0
 926 00ce FFF7FEFF 		bl	reset_count
 927              	.LVL102:
 928 00d2 38BD     		pop	{r3, r4, r5, pc}
 929              	.L79:
 930 00d4 AFF30080 		.align	3
 931              	.L78:
 932 00d8 182D4454 		.word	1413754136
 933 00dc FB210940 		.word	1074340347
 934 00e0 00000000 		.word	0
 935 00e4 00A6AC40 		.word	1085056512
 936 00e8 00000000 		.word	.LANCHOR0
 937 00ec 00000000 		.word	.LANCHOR1
 938              		.cfi_endproc
 939              	.LFE75:
ARM GAS  C:\Users\weiro\AppData\Local\Temp\cc9naSHk.s 			page 24


 940              		.size	forward2wall, .-forward2wall
 941              		.section	.text.move2slit,"ax",%progbits
 942              		.align	2
 943              		.global	move2slit
 944              		.thumb
 945              		.thumb_func
 946              		.type	move2slit, %function
 947              	move2slit:
 948              	.LFB76:
 369:main.c        **** }
 370:main.c        **** 
 371:main.c        **** void move2slit()
 372:main.c        **** {
 949              		.loc 1 372 0
 950              		.cfi_startproc
 951              		@ args = 0, pretend = 0, frame = 0
 952              		@ frame_needed = 0, uses_anonymous_args = 0
 953 0000 38B5     		push	{r3, r4, r5, lr}
 954              		.cfi_def_cfa_offset 16
 955              		.cfi_offset 3, -16
 956              		.cfi_offset 4, -12
 957              		.cfi_offset 5, -8
 958              		.cfi_offset 14, -4
 373:main.c        ****     double avg_count, avg_dist;
 374:main.c        ****     CyDelay(500);
 959              		.loc 1 374 0
 960 0002 4FF4FA70 		mov	r0, #500
 961 0006 FFF7FEFF 		bl	CyDelay
 962              	.LVL103:
 375:main.c        ****     while (slit_detected == 0)
 963              		.loc 1 375 0
 964 000a 1FE0     		b	.L81
 965              	.L84:
 376:main.c        ****     {
 377:main.c        ****         forward();
 966              		.loc 1 377 0
 967 000c FFF7FEFF 		bl	forward
 968              	.LVL104:
 378:main.c        ****         sprintf(string_1, "moving to slit");
 969              		.loc 1 378 0
 970 0010 3D4C     		ldr	r4, .L90+16
 971 0012 3E4B     		ldr	r3, .L90+20
 972 0014 07CB     		ldmia	r3!, {r0, r1, r2}
 973 0016 2060     		str	r0, [r4]	@ unaligned
 974 0018 6160     		str	r1, [r4, #4]	@ unaligned
 975 001a A260     		str	r2, [r4, #8]	@ unaligned
 976 001c 1A88     		ldrh	r2, [r3]	@ unaligned
 977 001e 9B78     		ldrb	r3, [r3, #2]	@ zero_extendqisi2
 978 0020 A281     		strh	r2, [r4, #12]	@ unaligned
 979 0022 A373     		strb	r3, [r4, #14]
 379:main.c        ****         UART_1_PutString(string_1);
 980              		.loc 1 379 0
 981 0024 2046     		mov	r0, r4
 982 0026 FFF7FEFF 		bl	UART_1_PutString
 983              	.LVL105:
 380:main.c        ****         CyDelay(100);
 984              		.loc 1 380 0
ARM GAS  C:\Users\weiro\AppData\Local\Temp\cc9naSHk.s 			page 25


 985 002a 6420     		movs	r0, #100
 986 002c FFF7FEFF 		bl	CyDelay
 987              	.LVL106:
 381:main.c        ****         while(Left_Echo_Read()==0)
 988              		.loc 1 381 0
 989 0030 08E0     		b	.L82
 990              	.L83:
 991              	.LBB3:
 382:main.c        ****         {
 383:main.c        ****             Left_Trigger_Write(1);
 992              		.loc 1 383 0
 993 0032 0120     		movs	r0, #1
 994 0034 FFF7FEFF 		bl	Left_Trigger_Write
 995              	.LVL107:
 384:main.c        ****             CyDelayUs(10);
 996              		.loc 1 384 0
 997 0038 0A20     		movs	r0, #10
 998 003a FFF7FEFF 		bl	CyDelayUs
 999              	.LVL108:
 385:main.c        ****             Left_Trigger_Write(0);
 1000              		.loc 1 385 0
 1001 003e 0020     		movs	r0, #0
 1002 0040 FFF7FEFF 		bl	Left_Trigger_Write
 1003              	.LVL109:
 1004              	.L82:
 1005              	.LBE3:
 381:main.c        ****         {
 1006              		.loc 1 381 0
 1007 0044 FFF7FEFF 		bl	Left_Echo_Read
 1008              	.LVL110:
 1009 0048 0028     		cmp	r0, #0
 1010 004a F2D0     		beq	.L83
 1011              	.L81:
 375:main.c        ****     {
 1012              		.loc 1 375 0
 1013 004c 304B     		ldr	r3, .L90+24
 1014 004e 9B6E     		ldr	r3, [r3, #104]
 1015 0050 002B     		cmp	r3, #0
 1016 0052 DBD0     		beq	.L84
 386:main.c        ****         }
 387:main.c        ****     }
 388:main.c        ****     stop();
 1017              		.loc 1 388 0
 1018 0054 FFF7FEFF 		bl	stop
 1019              	.LVL111:
 389:main.c        ****     avg_count = (QuadDec_1_GetCounter()+QuadDec_2_GetCounter())/2;
 1020              		.loc 1 389 0
 1021 0058 FFF7FEFF 		bl	QuadDec_1_GetCounter
 1022              	.LVL112:
 1023 005c 0446     		mov	r4, r0
 1024 005e FFF7FEFF 		bl	QuadDec_2_GetCounter
 1025              	.LVL113:
 1026 0062 2044     		add	r0, r0, r4
 1027 0064 00EBD070 		add	r0, r0, r0, lsr #31
 1028 0068 4010     		asrs	r0, r0, #1
 1029 006a FFF7FEFF 		bl	__aeabi_i2d
 1030              	.LVL114:
ARM GAS  C:\Users\weiro\AppData\Local\Temp\cc9naSHk.s 			page 26


 1031 006e 0446     		mov	r4, r0
 1032 0070 0D46     		mov	r5, r1
 1033              	.LVL115:
 390:main.c        ****     avg_dist = avg_count*(M_PI*WHEEL_DIAMETER/3667);
 1034              		.loc 1 390 0
 1035 0072 21A3     		adr	r3, .L90
 1036 0074 D3E90023 		ldrd	r2, [r3]
 1037 0078 2649     		ldr	r1, .L90+28
 1038 007a D1E90401 		ldrd	r0, [r1, #16]
 1039 007e FFF7FEFF 		bl	__aeabi_dmul
 1040              	.LVL116:
 1041 0082 1FA3     		adr	r3, .L90+8
 1042 0084 D3E90023 		ldrd	r2, [r3]
 1043 0088 FFF7FEFF 		bl	__aeabi_ddiv
 1044              	.LVL117:
 1045 008c 0246     		mov	r2, r0
 1046 008e 0B46     		mov	r3, r1
 1047 0090 2046     		mov	r0, r4
 1048 0092 2946     		mov	r1, r5
 1049 0094 FFF7FEFF 		bl	__aeabi_dmul
 1050              	.LVL118:
 391:main.c        ****     if (direction ==0)
 1051              		.loc 1 391 0
 1052 0098 1D4B     		ldr	r3, .L90+24
 1053 009a 1B6D     		ldr	r3, [r3, #80]
 1054 009c 3BB9     		cbnz	r3, .L85
 392:main.c        ****     {
 393:main.c        ****         y_coord = y_coord + avg_dist;
 1055              		.loc 1 393 0
 1056 009e 1C4C     		ldr	r4, .L90+24
 1057              	.LVL119:
 1058 00a0 D4E91623 		ldrd	r2, [r4, #88]
 1059 00a4 FFF7FEFF 		bl	__aeabi_dadd
 1060              	.LVL120:
 1061 00a8 C4E91601 		strd	r0, [r4, #88]
 1062 00ac 20E0     		b	.L86
 1063              	.LVL121:
 1064              	.L85:
 394:main.c        ****     }
 395:main.c        ****     else if (direction ==1)
 1065              		.loc 1 395 0
 1066 00ae 012B     		cmp	r3, #1
 1067 00b0 07D1     		bne	.L87
 396:main.c        ****     {
 397:main.c        ****         
 398:main.c        ****         x_coord = x_coord + avg_dist;
 1068              		.loc 1 398 0
 1069 00b2 174C     		ldr	r4, .L90+24
 1070              	.LVL122:
 1071 00b4 D4E91823 		ldrd	r2, [r4, #96]
 1072 00b8 FFF7FEFF 		bl	__aeabi_dadd
 1073              	.LVL123:
 1074 00bc C4E91801 		strd	r0, [r4, #96]
 1075 00c0 16E0     		b	.L86
 1076              	.LVL124:
 1077              	.L87:
 399:main.c        ****     }
ARM GAS  C:\Users\weiro\AppData\Local\Temp\cc9naSHk.s 			page 27


 400:main.c        ****     else if (direction ==2)
 1078              		.loc 1 400 0
 1079 00c2 022B     		cmp	r3, #2
 1080 00c4 09D1     		bne	.L88
 401:main.c        ****     {
 402:main.c        ****         
 403:main.c        ****         y_coord = y_coord - avg_dist;
 1081              		.loc 1 403 0
 1082 00c6 124C     		ldr	r4, .L90+24
 1083              	.LVL125:
 1084 00c8 0246     		mov	r2, r0
 1085 00ca 0B46     		mov	r3, r1
 1086 00cc D4E91601 		ldrd	r0, [r4, #88]
 1087              	.LVL126:
 1088 00d0 FFF7FEFF 		bl	__aeabi_dsub
 1089              	.LVL127:
 1090 00d4 C4E91601 		strd	r0, [r4, #88]
 1091 00d8 0AE0     		b	.L86
 1092              	.LVL128:
 1093              	.L88:
 404:main.c        ****     }
 405:main.c        ****     else if (direction ==3)
 1094              		.loc 1 405 0
 1095 00da 032B     		cmp	r3, #3
 1096 00dc 08D1     		bne	.L86
 406:main.c        ****     {
 407:main.c        ****         
 408:main.c        ****         x_coord = x_coord - avg_dist;
 1097              		.loc 1 408 0
 1098 00de 0C4C     		ldr	r4, .L90+24
 1099              	.LVL129:
 1100 00e0 0246     		mov	r2, r0
 1101 00e2 0B46     		mov	r3, r1
 1102 00e4 D4E91801 		ldrd	r0, [r4, #96]
 1103              	.LVL130:
 1104 00e8 FFF7FEFF 		bl	__aeabi_dsub
 1105              	.LVL131:
 1106 00ec C4E91801 		strd	r0, [r4, #96]
 1107              	.L86:
 409:main.c        ****     }
 410:main.c        ****     reset_count();
 1108              		.loc 1 410 0
 1109 00f0 FFF7FEFF 		bl	reset_count
 1110              	.LVL132:
 1111 00f4 38BD     		pop	{r3, r4, r5, pc}
 1112              	.L91:
 1113 00f6 00BF     		.align	3
 1114              	.L90:
 1115 00f8 182D4454 		.word	1413754136
 1116 00fc FB210940 		.word	1074340347
 1117 0100 00000000 		.word	0
 1118 0104 00A6AC40 		.word	1085056512
 1119 0108 00000000 		.word	string_1
 1120 010c 14000000 		.word	.LC1
 1121 0110 00000000 		.word	.LANCHOR0
 1122 0114 00000000 		.word	.LANCHOR1
 1123              		.cfi_endproc
ARM GAS  C:\Users\weiro\AppData\Local\Temp\cc9naSHk.s 			page 28


 1124              	.LFE76:
 1125              		.size	move2slit, .-move2slit
 1126              		.section	.text.move2puck,"ax",%progbits
 1127              		.align	2
 1128              		.global	move2puck
 1129              		.thumb
 1130              		.thumb_func
 1131              		.type	move2puck, %function
 1132              	move2puck:
 1133              	.LFB77:
 411:main.c        **** }
 412:main.c        **** 
 413:main.c        **** void move2puck()
 414:main.c        **** {
 1134              		.loc 1 414 0
 1135              		.cfi_startproc
 1136              		@ args = 0, pretend = 0, frame = 0
 1137              		@ frame_needed = 0, uses_anonymous_args = 0
 1138 0000 38B5     		push	{r3, r4, r5, lr}
 1139              		.cfi_def_cfa_offset 16
 1140              		.cfi_offset 3, -16
 1141              		.cfi_offset 4, -12
 1142              		.cfi_offset 5, -8
 1143              		.cfi_offset 14, -4
 415:main.c        ****     double avg_count, avg_dist;
 416:main.c        ****     while (IR_input_Read() == 1)
 1144              		.loc 1 416 0
 1145 0002 01E0     		b	.L93
 1146              	.L94:
 417:main.c        ****     {
 418:main.c        ****         forward();
 1147              		.loc 1 418 0
 1148 0004 FFF7FEFF 		bl	forward
 1149              	.LVL133:
 1150              	.L93:
 416:main.c        ****     {
 1151              		.loc 1 416 0
 1152 0008 FFF7FEFF 		bl	IR_input_Read
 1153              	.LVL134:
 1154 000c 0128     		cmp	r0, #1
 1155 000e F9D0     		beq	.L94
 419:main.c        ****     }
 420:main.c        ****     stop();
 1156              		.loc 1 420 0
 1157 0010 FFF7FEFF 		bl	stop
 1158              	.LVL135:
 421:main.c        ****     CyDelay(500);
 1159              		.loc 1 421 0
 1160 0014 4FF4FA70 		mov	r0, #500
 1161 0018 FFF7FEFF 		bl	CyDelay
 1162              	.LVL136:
 422:main.c        ****     
 423:main.c        ****     avg_count = (QuadDec_1_GetCounter()+QuadDec_2_GetCounter())/2;
 1163              		.loc 1 423 0
 1164 001c FFF7FEFF 		bl	QuadDec_1_GetCounter
 1165              	.LVL137:
 1166 0020 0446     		mov	r4, r0
ARM GAS  C:\Users\weiro\AppData\Local\Temp\cc9naSHk.s 			page 29


 1167 0022 FFF7FEFF 		bl	QuadDec_2_GetCounter
 1168              	.LVL138:
 1169 0026 2044     		add	r0, r0, r4
 1170 0028 00EBD070 		add	r0, r0, r0, lsr #31
 1171 002c 4010     		asrs	r0, r0, #1
 1172 002e FFF7FEFF 		bl	__aeabi_i2d
 1173              	.LVL139:
 1174 0032 0446     		mov	r4, r0
 1175 0034 0D46     		mov	r5, r1
 1176              	.LVL140:
 424:main.c        ****     avg_dist = avg_count*(M_PI*WHEEL_DIAMETER/3667);
 1177              		.loc 1 424 0
 1178 0036 22A3     		adr	r3, .L100
 1179 0038 D3E90023 		ldrd	r2, [r3]
 1180 003c 2449     		ldr	r1, .L100+16
 1181 003e D1E90401 		ldrd	r0, [r1, #16]
 1182 0042 FFF7FEFF 		bl	__aeabi_dmul
 1183              	.LVL141:
 1184 0046 20A3     		adr	r3, .L100+8
 1185 0048 D3E90023 		ldrd	r2, [r3]
 1186 004c FFF7FEFF 		bl	__aeabi_ddiv
 1187              	.LVL142:
 1188 0050 0246     		mov	r2, r0
 1189 0052 0B46     		mov	r3, r1
 1190 0054 2046     		mov	r0, r4
 1191 0056 2946     		mov	r1, r5
 1192 0058 FFF7FEFF 		bl	__aeabi_dmul
 1193              	.LVL143:
 425:main.c        ****     if (direction ==0)
 1194              		.loc 1 425 0
 1195 005c 1D4B     		ldr	r3, .L100+20
 1196 005e 1B6D     		ldr	r3, [r3, #80]
 1197 0060 3BB9     		cbnz	r3, .L95
 426:main.c        ****     {
 427:main.c        ****         y_coord = y_coord + avg_dist;
 1198              		.loc 1 427 0
 1199 0062 1C4C     		ldr	r4, .L100+20
 1200              	.LVL144:
 1201 0064 D4E91623 		ldrd	r2, [r4, #88]
 1202 0068 FFF7FEFF 		bl	__aeabi_dadd
 1203              	.LVL145:
 1204 006c C4E91601 		strd	r0, [r4, #88]
 1205 0070 20E0     		b	.L96
 1206              	.LVL146:
 1207              	.L95:
 428:main.c        ****     }
 429:main.c        ****     else if (direction ==1)
 1208              		.loc 1 429 0
 1209 0072 012B     		cmp	r3, #1
 1210 0074 07D1     		bne	.L97
 430:main.c        ****     {
 431:main.c        ****         
 432:main.c        ****         x_coord = x_coord + avg_dist;
 1211              		.loc 1 432 0
 1212 0076 174C     		ldr	r4, .L100+20
 1213              	.LVL147:
 1214 0078 D4E91823 		ldrd	r2, [r4, #96]
ARM GAS  C:\Users\weiro\AppData\Local\Temp\cc9naSHk.s 			page 30


 1215 007c FFF7FEFF 		bl	__aeabi_dadd
 1216              	.LVL148:
 1217 0080 C4E91801 		strd	r0, [r4, #96]
 1218 0084 16E0     		b	.L96
 1219              	.LVL149:
 1220              	.L97:
 433:main.c        ****     }
 434:main.c        ****     else if (direction ==2)
 1221              		.loc 1 434 0
 1222 0086 022B     		cmp	r3, #2
 1223 0088 09D1     		bne	.L98
 435:main.c        ****     {
 436:main.c        ****         
 437:main.c        ****         y_coord = y_coord - avg_dist;
 1224              		.loc 1 437 0
 1225 008a 124C     		ldr	r4, .L100+20
 1226              	.LVL150:
 1227 008c 0246     		mov	r2, r0
 1228 008e 0B46     		mov	r3, r1
 1229 0090 D4E91601 		ldrd	r0, [r4, #88]
 1230              	.LVL151:
 1231 0094 FFF7FEFF 		bl	__aeabi_dsub
 1232              	.LVL152:
 1233 0098 C4E91601 		strd	r0, [r4, #88]
 1234 009c 0AE0     		b	.L96
 1235              	.LVL153:
 1236              	.L98:
 438:main.c        ****     }
 439:main.c        ****     else if (direction ==3)
 1237              		.loc 1 439 0
 1238 009e 032B     		cmp	r3, #3
 1239 00a0 08D1     		bne	.L96
 440:main.c        ****     {
 441:main.c        ****         
 442:main.c        ****         x_coord = x_coord - avg_dist;
 1240              		.loc 1 442 0
 1241 00a2 0C4C     		ldr	r4, .L100+20
 1242              	.LVL154:
 1243 00a4 0246     		mov	r2, r0
 1244 00a6 0B46     		mov	r3, r1
 1245 00a8 D4E91801 		ldrd	r0, [r4, #96]
 1246              	.LVL155:
 1247 00ac FFF7FEFF 		bl	__aeabi_dsub
 1248              	.LVL156:
 1249 00b0 C4E91801 		strd	r0, [r4, #96]
 1250              	.L96:
 443:main.c        ****     }
 444:main.c        ****     reset_count();
 1251              		.loc 1 444 0
 1252 00b4 FFF7FEFF 		bl	reset_count
 1253              	.LVL157:
 1254 00b8 38BD     		pop	{r3, r4, r5, pc}
 1255              	.L101:
 1256 00ba 00BFAFF3 		.align	3
 1256      0080
 1257              	.L100:
 1258 00c0 182D4454 		.word	1413754136
ARM GAS  C:\Users\weiro\AppData\Local\Temp\cc9naSHk.s 			page 31


 1259 00c4 FB210940 		.word	1074340347
 1260 00c8 00000000 		.word	0
 1261 00cc 00A6AC40 		.word	1085056512
 1262 00d0 00000000 		.word	.LANCHOR1
 1263 00d4 00000000 		.word	.LANCHOR0
 1264              		.cfi_endproc
 1265              	.LFE77:
 1266              		.size	move2puck, .-move2puck
 1267              		.section	.text.CW,"ax",%progbits
 1268              		.align	2
 1269              		.global	CW
 1270              		.thumb
 1271              		.thumb_func
 1272              		.type	CW, %function
 1273              	CW:
 1274              	.LFB78:
 445:main.c        **** }
 446:main.c        **** /*
 447:main.c        **** void F_or_R_1(int dist_count, int flag_FR)
 448:main.c        **** {
 449:main.c        ****     double avg_count, avg_dist;
 450:main.c        ****     //int flag_stop = 0;
 451:main.c        ****     front_measured_1 = 50;
 452:main.c        ****     //while(abs(Count_Master) <= dist_count && abs(Count_Slave) <= dist_count && front_measured>10)
 453:main.c        ****     
 454:main.c        ****     //while(abs(Count_Master) <= dist_count && abs(Count_Slave) <= dist_count && US_measured > min_
 455:main.c        ****     sprintf(string_1,"Running F_or_R_1...\n");
 456:main.c        ****     UART_1_PutString(string_1);
 457:main.c        ****     
 458:main.c        ****     while(abs(Count_Master) <= dist_count && abs(Count_Slave) <= dist_count && wall_detected_10 == 
 459:main.c        ****     {
 460:main.c        ****         // Place your application code here.
 461:main.c        ****         Count_Master = QuadDec_1_GetCounter();
 462:main.c        ****         Count_Slave = QuadDec_2_GetCounter();
 463:main.c        ****         if (flag_FR==1)
 464:main.c        ****         {
 465:main.c        ****             forward();
 466:main.c        ****         }
 467:main.c        ****         else
 468:main.c        ****         {
 469:main.c        ****             reverse();
 470:main.c        ****         }
 471:main.c        ****         CyDelay(50);
 472:main.c        ****         
 473:main.c        ****         while(Front_Echo_1_Read()==0)
 474:main.c        ****         {
 475:main.c        ****             Front_Trigger_1_Write(1);
 476:main.c        ****             CyDelayUs(10);
 477:main.c        ****             Front_Trigger_1_Write(0);
 478:main.c        ****         }
 479:main.c        ****     }
 480:main.c        ****     stop();
 481:main.c        ****     avg_count = (QuadDec_1_GetCounter()+QuadDec_2_GetCounter())/2;
 482:main.c        ****     avg_dist = avg_count*(M_PI*WHEEL_DIAMETER/3667);
 483:main.c        ****     if (direction ==0)
 484:main.c        ****     {
 485:main.c        ****         y_coord = y_coord + avg_dist;
ARM GAS  C:\Users\weiro\AppData\Local\Temp\cc9naSHk.s 			page 32


 486:main.c        ****     }
 487:main.c        ****     else if (direction ==1)
 488:main.c        ****     {
 489:main.c        ****         
 490:main.c        ****         x_coord = x_coord + avg_dist;
 491:main.c        ****     }
 492:main.c        ****     else if (direction ==2)
 493:main.c        ****     {
 494:main.c        ****         
 495:main.c        ****         y_coord = y_coord - avg_dist;
 496:main.c        ****     }
 497:main.c        ****     else if (direction ==3)
 498:main.c        ****     {
 499:main.c        ****         
 500:main.c        ****         x_coord = x_coord - avg_dist;
 501:main.c        ****     }
 502:main.c        ****     //step = step +1;
 503:main.c        ****     //
 504:main.c        ****     //QuadDec_2_SetCounter(0);
 505:main.c        **** }
 506:main.c        **** 
 507:main.c        **** void F_or_R_2(int dist_count, int flag_FR)
 508:main.c        **** {
 509:main.c        ****     double avg_count, avg_dist;
 510:main.c        ****     int flag_stop = 0;
 511:main.c        ****     //while(abs(Count_Master) <= dist_count && abs(Count_Slave) <= dist_count && front_measured>10)
 512:main.c        ****     
 513:main.c        ****     //while(abs(Count_Master) <= dist_count && abs(Count_Slave) <= dist_count && US_measured > min_
 514:main.c        ****     while(abs(Count_Master) <= dist_count && abs(Count_Slave) <= dist_count && right_measured<30)
 515:main.c        ****     {
 516:main.c        ****         // Place your application code here.
 517:main.c        ****         Count_Master = QuadDec_1_GetCounter();
 518:main.c        ****         Count_Slave = QuadDec_2_GetCounter();
 519:main.c        ****         if (flag_FR==1)
 520:main.c        ****         {
 521:main.c        ****             forward();
 522:main.c        ****         }
 523:main.c        ****         else
 524:main.c        ****         {
 525:main.c        ****             reverse();
 526:main.c        ****         }
 527:main.c        ****         CyDelay(50);
 528:main.c        ****         while(Right_Echo_Read()==0)
 529:main.c        ****         {
 530:main.c        ****             Right_Trigger_Write(1);
 531:main.c        ****             CyDelayUs(10);
 532:main.c        ****             Right_Trigger_Write(0);
 533:main.c        ****         }
 534:main.c        ****     }
 535:main.c        ****     stop();
 536:main.c        ****     avg_count = (QuadDec_1_GetCounter()+QuadDec_2_GetCounter())/2;
 537:main.c        ****     avg_dist = avg_count*(M_PI*WHEEL_DIAMETER/3667);
 538:main.c        ****     if (direction ==0)
 539:main.c        ****     {
 540:main.c        ****         y_coord = y_coord + avg_dist;
 541:main.c        ****     }
 542:main.c        ****     else if (direction ==1)
ARM GAS  C:\Users\weiro\AppData\Local\Temp\cc9naSHk.s 			page 33


 543:main.c        ****     {
 544:main.c        ****         
 545:main.c        ****         x_coord = x_coord + avg_dist;
 546:main.c        ****     }
 547:main.c        ****     else if (direction ==2)
 548:main.c        ****     {
 549:main.c        ****         
 550:main.c        ****         y_coord = y_coord - avg_dist;
 551:main.c        ****     }
 552:main.c        ****     else if (direction ==3)
 553:main.c        ****     {
 554:main.c        ****         
 555:main.c        ****         x_coord = x_coord - avg_dist;
 556:main.c        ****     }
 557:main.c        ****     //step = step +1;
 558:main.c        ****     //
 559:main.c        ****     //QuadDec_2_SetCounter(0);
 560:main.c        **** }
 561:main.c        **** 
 562:main.c        **** void F_or_R_3(int dist_count, int flag_FR)
 563:main.c        **** {
 564:main.c        ****     double avg_count, avg_dist;
 565:main.c        ****     int flag_stop = 0;
 566:main.c        ****     //while(abs(Count_Master) <= dist_count && abs(Count_Slave) <= dist_count && front_measured>10)
 567:main.c        ****     
 568:main.c        ****     //while(abs(Count_Master) <= dist_count && abs(Count_Slave) <= dist_count && US_measured > min_
 569:main.c        ****     while(abs(Count_Master) <= dist_count && abs(Count_Slave) <= dist_count && IR_input_Read()==0)
 570:main.c        ****     {
 571:main.c        ****         // Place your application code here.
 572:main.c        ****         Count_Master = QuadDec_1_GetCounter();
 573:main.c        ****         Count_Slave = QuadDec_2_GetCounter();
 574:main.c        ****         if (flag_FR==1)
 575:main.c        ****         {
 576:main.c        ****             forward();
 577:main.c        ****         }
 578:main.c        ****         else
 579:main.c        ****         {
 580:main.c        ****             reverse();
 581:main.c        ****         }
 582:main.c        ****     }
 583:main.c        ****     stop();
 584:main.c        ****     avg_count = (QuadDec_1_GetCounter()+QuadDec_2_GetCounter())/2;
 585:main.c        ****     avg_dist = avg_count*(M_PI*WHEEL_DIAMETER/3667);
 586:main.c        ****     if (direction ==0)
 587:main.c        ****     {
 588:main.c        ****         y_coord = y_coord + avg_dist;
 589:main.c        ****     }
 590:main.c        ****     else if (direction ==1)
 591:main.c        ****     {
 592:main.c        ****         
 593:main.c        ****         x_coord = x_coord + avg_dist;
 594:main.c        ****     }
 595:main.c        ****     else if (direction ==2)
 596:main.c        ****     {
 597:main.c        ****         
 598:main.c        ****         y_coord = y_coord - avg_dist;
 599:main.c        ****     }
ARM GAS  C:\Users\weiro\AppData\Local\Temp\cc9naSHk.s 			page 34


 600:main.c        ****     else if (direction ==3)
 601:main.c        ****     {
 602:main.c        ****         
 603:main.c        ****         x_coord = x_coord - avg_dist;
 604:main.c        ****     }
 605:main.c        ****     //step = step +1;
 606:main.c        ****     //
 607:main.c        ****     //QuadDec_2_SetCounter(0);
 608:main.c        **** }
 609:main.c        **** */
 610:main.c        **** void CW(int PT_TURN_COUNT, int flag_CW)
 611:main.c        **** {
 1275              		.loc 1 611 0
 1276              		.cfi_startproc
 1277              		@ args = 0, pretend = 0, frame = 0
 1278              		@ frame_needed = 0, uses_anonymous_args = 0
 1279              	.LVL158:
 1280 0000 70B5     		push	{r4, r5, r6, lr}
 1281              		.cfi_def_cfa_offset 16
 1282              		.cfi_offset 4, -16
 1283              		.cfi_offset 5, -12
 1284              		.cfi_offset 6, -8
 1285              		.cfi_offset 14, -4
 1286 0002 0546     		mov	r5, r0
 1287 0004 0E46     		mov	r6, r1
 612:main.c        ****     while(abs(Count_Master) <= PT_TURN_COUNT && abs(Count_Slave) <= PT_TURN_COUNT)
 1288              		.loc 1 612 0
 1289 0006 0DE0     		b	.L103
 1290              	.LVL159:
 1291              	.L107:
 613:main.c        ****     {
 614:main.c        ****         Count_Master = QuadDec_1_GetCounter();
 1292              		.loc 1 614 0
 1293 0008 FFF7FEFF 		bl	QuadDec_1_GetCounter
 1294              	.LVL160:
 1295 000c 1B4C     		ldr	r4, .L113
 1296 000e 6060     		str	r0, [r4, #4]
 615:main.c        ****         Count_Slave = QuadDec_2_GetCounter();
 1297              		.loc 1 615 0
 1298 0010 FFF7FEFF 		bl	QuadDec_2_GetCounter
 1299              	.LVL161:
 1300 0014 A060     		str	r0, [r4, #8]
 616:main.c        ****         if (flag_CW == 1)
 1301              		.loc 1 616 0
 1302 0016 012E     		cmp	r6, #1
 1303 0018 02D1     		bne	.L104
 617:main.c        ****         {
 618:main.c        ****             turn_clockwise();
 1304              		.loc 1 618 0
 1305 001a FFF7FEFF 		bl	turn_clockwise
 1306              	.LVL162:
 1307 001e 01E0     		b	.L103
 1308              	.L104:
 619:main.c        ****         }
 620:main.c        ****         else 
 621:main.c        ****         {
 622:main.c        ****             turn_anticlockwise();
ARM GAS  C:\Users\weiro\AppData\Local\Temp\cc9naSHk.s 			page 35


 1309              		.loc 1 622 0
 1310 0020 FFF7FEFF 		bl	turn_anticlockwise
 1311              	.LVL163:
 1312              	.L103:
 612:main.c        ****     {
 1313              		.loc 1 612 0
 1314 0024 154B     		ldr	r3, .L113
 1315 0026 5B68     		ldr	r3, [r3, #4]
 1316 0028 002B     		cmp	r3, #0
 1317 002a B8BF     		it	lt
 1318 002c 5B42     		rsblt	r3, r3, #0
 1319 002e AB42     		cmp	r3, r5
 1320 0030 06DC     		bgt	.L106
 612:main.c        ****     {
 1321              		.loc 1 612 0 is_stmt 0 discriminator 1
 1322 0032 124B     		ldr	r3, .L113
 1323 0034 9B68     		ldr	r3, [r3, #8]
 1324 0036 002B     		cmp	r3, #0
 1325 0038 B8BF     		it	lt
 1326 003a 5B42     		rsblt	r3, r3, #0
 1327 003c 9D42     		cmp	r5, r3
 1328 003e E3DA     		bge	.L107
 1329              	.L106:
 623:main.c        ****         }
 624:main.c        ****     }
 625:main.c        ****     stop();
 1330              		.loc 1 625 0 is_stmt 1
 1331 0040 FFF7FEFF 		bl	stop
 1332              	.LVL164:
 626:main.c        ****     if (flag_CW == 1)
 1333              		.loc 1 626 0
 1334 0044 012E     		cmp	r6, #1
 1335 0046 0BD1     		bne	.L108
 627:main.c        ****     {
 628:main.c        ****         if (direction == 3)
 1336              		.loc 1 628 0
 1337 0048 0C4B     		ldr	r3, .L113
 1338 004a 1B6D     		ldr	r3, [r3, #80]
 1339 004c 032B     		cmp	r3, #3
 1340 004e 03D1     		bne	.L109
 629:main.c        ****         {
 630:main.c        ****             direction = 0;
 1341              		.loc 1 630 0
 1342 0050 0022     		movs	r2, #0
 1343 0052 0A4B     		ldr	r3, .L113
 1344 0054 1A65     		str	r2, [r3, #80]
 1345 0056 0DE0     		b	.L110
 1346              	.L109:
 631:main.c        ****         }
 632:main.c        ****         else
 633:main.c        ****         {
 634:main.c        ****             direction = direction +1;
 1347              		.loc 1 634 0
 1348 0058 0133     		adds	r3, r3, #1
 1349 005a 084A     		ldr	r2, .L113
 1350 005c 1365     		str	r3, [r2, #80]
 1351 005e 09E0     		b	.L110
ARM GAS  C:\Users\weiro\AppData\Local\Temp\cc9naSHk.s 			page 36


 1352              	.L108:
 635:main.c        ****         }
 636:main.c        ****     }
 637:main.c        ****     else
 638:main.c        ****     {
 639:main.c        ****         if (direction ==0)
 1353              		.loc 1 639 0
 1354 0060 064B     		ldr	r3, .L113
 1355 0062 1B6D     		ldr	r3, [r3, #80]
 1356 0064 1BB9     		cbnz	r3, .L111
 640:main.c        ****         {
 641:main.c        ****             direction = 3;
 1357              		.loc 1 641 0
 1358 0066 0322     		movs	r2, #3
 1359 0068 044B     		ldr	r3, .L113
 1360 006a 1A65     		str	r2, [r3, #80]
 1361 006c 02E0     		b	.L110
 1362              	.L111:
 642:main.c        ****         }
 643:main.c        ****         else
 644:main.c        ****         {
 645:main.c        ****             direction = direction -1;
 1363              		.loc 1 645 0
 1364 006e 013B     		subs	r3, r3, #1
 1365 0070 024A     		ldr	r2, .L113
 1366 0072 1365     		str	r3, [r2, #80]
 1367              	.L110:
 646:main.c        ****         }
 647:main.c        ****     }
 648:main.c        ****     reset_count();
 1368              		.loc 1 648 0
 1369 0074 FFF7FEFF 		bl	reset_count
 1370              	.LVL165:
 1371 0078 70BD     		pop	{r4, r5, r6, pc}
 1372              	.LVL166:
 1373              	.L114:
 1374 007a 00BF     		.align	2
 1375              	.L113:
 1376 007c 00000000 		.word	.LANCHOR0
 1377              		.cfi_endproc
 1378              	.LFE78:
 1379              		.size	CW, .-CW
 1380              		.section	.text.Color_Sensing_Function,"ax",%progbits
 1381              		.align	2
 1382              		.global	Color_Sensing_Function
 1383              		.thumb
 1384              		.thumb_func
 1385              		.type	Color_Sensing_Function, %function
 1386              	Color_Sensing_Function:
 1387              	.LFB79:
 649:main.c        **** }
 650:main.c        **** 
 651:main.c        **** void Color_Sensing_Function()
 652:main.c        **** {
 1388              		.loc 1 652 0
 1389              		.cfi_startproc
 1390              		@ args = 0, pretend = 0, frame = 0
ARM GAS  C:\Users\weiro\AppData\Local\Temp\cc9naSHk.s 			page 37


 1391              		@ frame_needed = 0, uses_anonymous_args = 0
 1392 0000 38B5     		push	{r3, r4, r5, lr}
 1393              		.cfi_def_cfa_offset 16
 1394              		.cfi_offset 3, -16
 1395              		.cfi_offset 4, -12
 1396              		.cfi_offset 5, -8
 1397              		.cfi_offset 14, -4
 1398              	.LVL167:
 653:main.c        ****     int mode = 1;
 654:main.c        **** 
 655:main.c        ****     int count = 0;
 656:main.c        ****     
 657:main.c        ****     S0_Write(1);
 1399              		.loc 1 657 0
 1400 0002 0120     		movs	r0, #1
 1401 0004 FFF7FEFF 		bl	S0_Write
 1402              	.LVL168:
 658:main.c        ****     S1_Write(1);
 1403              		.loc 1 658 0
 1404 0008 0120     		movs	r0, #1
 1405 000a FFF7FEFF 		bl	S1_Write
 1406              	.LVL169:
 659:main.c        ****     CS_LED_Write(1);
 1407              		.loc 1 659 0
 1408 000e 0120     		movs	r0, #1
 1409 0010 FFF7FEFF 		bl	CS_LED_Write
 1410              	.LVL170:
 660:main.c        ****     CyDelay(10);
 1411              		.loc 1 660 0
 1412 0014 0A20     		movs	r0, #10
 1413 0016 FFF7FEFF 		bl	CyDelay
 1414              	.LVL171:
 661:main.c        ****     Counter_ColorSensor_Start();
 1415              		.loc 1 661 0
 1416 001a FFF7FEFF 		bl	Counter_ColorSensor_Start
 1417              	.LVL172:
 662:main.c        ****     
 663:main.c        ****     if (mode == 1) // red mode --> red filter
 664:main.c        ****     {
 665:main.c        ****         compare_ready = 0;
 1418              		.loc 1 665 0
 1419 001e 0024     		movs	r4, #0
 1420 0020 5E4B     		ldr	r3, .L123
 1421 0022 5C64     		str	r4, [r3, #68]
 666:main.c        ****         S2_Write(0);
 1422              		.loc 1 666 0
 1423 0024 2046     		mov	r0, r4
 1424 0026 FFF7FEFF 		bl	S2_Write
 1425              	.LVL173:
 667:main.c        ****         S3_Write(0);
 1426              		.loc 1 667 0
 1427 002a 2046     		mov	r0, r4
 1428 002c FFF7FEFF 		bl	S3_Write
 1429              	.LVL174:
 668:main.c        ****         CyDelay(20);
 1430              		.loc 1 668 0
 1431 0030 1420     		movs	r0, #20
ARM GAS  C:\Users\weiro\AppData\Local\Temp\cc9naSHk.s 			page 38


 1432 0032 FFF7FEFF 		bl	CyDelay
 1433              	.LVL175:
 669:main.c        ****         Control_Reg_1_Write(1);
 1434              		.loc 1 669 0
 1435 0036 0120     		movs	r0, #1
 1436 0038 FFF7FEFF 		bl	Control_Reg_1_Write
 1437              	.LVL176:
 670:main.c        ****         CyDelay(1);
 1438              		.loc 1 670 0
 1439 003c 0120     		movs	r0, #1
 1440 003e FFF7FEFF 		bl	CyDelay
 1441              	.LVL177:
 671:main.c        ****         Control_Reg_1_Write(0);
 1442              		.loc 1 671 0
 1443 0042 2046     		mov	r0, r4
 1444 0044 FFF7FEFF 		bl	Control_Reg_1_Write
 1445              	.LVL178:
 1446              	.L116:
 672:main.c        ****         while(compare_ready==0)
 1447              		.loc 1 672 0 discriminator 1
 1448 0048 544B     		ldr	r3, .L123
 1449 004a 5B6C     		ldr	r3, [r3, #68]
 1450 004c 002B     		cmp	r3, #0
 1451 004e FBD0     		beq	.L116
 673:main.c        ****         {
 674:main.c        ****             // waiting period (until compare ready = 1
 675:main.c        ****             //sprintf(string_1,"waiting\n");
 676:main.c        ****             //UART_1_PutString(string_1);
 677:main.c        ****         }
 678:main.c        ****         CS_count_Red = Counter_ColorSensor_ReadCapture();
 1452              		.loc 1 678 0
 1453 0050 FFF7FEFF 		bl	Counter_ColorSensor_ReadCapture
 1454              	.LVL179:
 1455 0054 0246     		mov	r2, r0
 1456 0056 514D     		ldr	r5, .L123
 1457 0058 E866     		str	r0, [r5, #108]
 679:main.c        ****         sprintf(string_1,"red: %d\n", CS_count_Red);
 1458              		.loc 1 679 0
 1459 005a 514C     		ldr	r4, .L123+4
 1460 005c 5149     		ldr	r1, .L123+8
 1461 005e 2046     		mov	r0, r4
 1462 0060 FFF7FEFF 		bl	sprintf
 1463              	.LVL180:
 680:main.c        ****         UART_1_PutString(string_1);
 1464              		.loc 1 680 0
 1465 0064 2046     		mov	r0, r4
 1466 0066 FFF7FEFF 		bl	UART_1_PutString
 1467              	.LVL181:
 681:main.c        ****         mode = 2;
 682:main.c        ****     }
 683:main.c        ****     Counter_ColorSensor_Stop();
 1468              		.loc 1 683 0
 1469 006a FFF7FEFF 		bl	Counter_ColorSensor_Stop
 1470              	.LVL182:
 684:main.c        ****     CyDelay(100);
 1471              		.loc 1 684 0
 1472 006e 6420     		movs	r0, #100
ARM GAS  C:\Users\weiro\AppData\Local\Temp\cc9naSHk.s 			page 39


 1473 0070 FFF7FEFF 		bl	CyDelay
 1474              	.LVL183:
 685:main.c        ****     Counter_ColorSensor_Start();
 1475              		.loc 1 685 0
 1476 0074 FFF7FEFF 		bl	Counter_ColorSensor_Start
 1477              	.LVL184:
 686:main.c        ****     if (mode == 2) // green mode --> green filter
 687:main.c        ****     {
 688:main.c        ****         compare_ready = 0;
 1478              		.loc 1 688 0
 1479 0078 0024     		movs	r4, #0
 1480 007a 6C64     		str	r4, [r5, #68]
 689:main.c        ****         S2_Write(1);
 1481              		.loc 1 689 0
 1482 007c 0120     		movs	r0, #1
 1483 007e FFF7FEFF 		bl	S2_Write
 1484              	.LVL185:
 690:main.c        ****         S3_Write(1);
 1485              		.loc 1 690 0
 1486 0082 0120     		movs	r0, #1
 1487 0084 FFF7FEFF 		bl	S3_Write
 1488              	.LVL186:
 691:main.c        ****         CyDelay(20);
 1489              		.loc 1 691 0
 1490 0088 1420     		movs	r0, #20
 1491 008a FFF7FEFF 		bl	CyDelay
 1492              	.LVL187:
 692:main.c        ****         Control_Reg_1_Write(1);
 1493              		.loc 1 692 0
 1494 008e 0120     		movs	r0, #1
 1495 0090 FFF7FEFF 		bl	Control_Reg_1_Write
 1496              	.LVL188:
 693:main.c        ****         CyDelay(1);
 1497              		.loc 1 693 0
 1498 0094 0120     		movs	r0, #1
 1499 0096 FFF7FEFF 		bl	CyDelay
 1500              	.LVL189:
 694:main.c        ****         Control_Reg_1_Write(0);
 1501              		.loc 1 694 0
 1502 009a 2046     		mov	r0, r4
 1503 009c FFF7FEFF 		bl	Control_Reg_1_Write
 1504              	.LVL190:
 1505              	.L117:
 695:main.c        ****         while(compare_ready==0)
 1506              		.loc 1 695 0 discriminator 1
 1507 00a0 3E4B     		ldr	r3, .L123
 1508 00a2 5B6C     		ldr	r3, [r3, #68]
 1509 00a4 002B     		cmp	r3, #0
 1510 00a6 FBD0     		beq	.L117
 696:main.c        ****         {
 697:main.c        ****             // waiting period (until compare ready = 1
 698:main.c        ****         }
 699:main.c        ****         CS_count_Green = Counter_ColorSensor_ReadCapture();
 1511              		.loc 1 699 0
 1512 00a8 FFF7FEFF 		bl	Counter_ColorSensor_ReadCapture
 1513              	.LVL191:
 1514 00ac 0246     		mov	r2, r0
ARM GAS  C:\Users\weiro\AppData\Local\Temp\cc9naSHk.s 			page 40


 1515 00ae 3B4D     		ldr	r5, .L123
 1516 00b0 2867     		str	r0, [r5, #112]
 700:main.c        ****         sprintf(string_1,"green: %d\n", CS_count_Green);
 1517              		.loc 1 700 0
 1518 00b2 3B4C     		ldr	r4, .L123+4
 1519 00b4 3C49     		ldr	r1, .L123+12
 1520 00b6 2046     		mov	r0, r4
 1521 00b8 FFF7FEFF 		bl	sprintf
 1522              	.LVL192:
 701:main.c        ****         UART_1_PutString(string_1);
 1523              		.loc 1 701 0
 1524 00bc 2046     		mov	r0, r4
 1525 00be FFF7FEFF 		bl	UART_1_PutString
 1526              	.LVL193:
 702:main.c        ****         mode = 3;
 703:main.c        ****     }
 704:main.c        ****     Counter_ColorSensor_Stop();
 1527              		.loc 1 704 0
 1528 00c2 FFF7FEFF 		bl	Counter_ColorSensor_Stop
 1529              	.LVL194:
 705:main.c        ****     CyDelay(100);
 1530              		.loc 1 705 0
 1531 00c6 6420     		movs	r0, #100
 1532 00c8 FFF7FEFF 		bl	CyDelay
 1533              	.LVL195:
 706:main.c        ****     Counter_ColorSensor_Start();
 1534              		.loc 1 706 0
 1535 00cc FFF7FEFF 		bl	Counter_ColorSensor_Start
 1536              	.LVL196:
 707:main.c        ****     if (mode == 3) // blue mode --> blue filter
 708:main.c        ****     {
 709:main.c        ****         compare_ready = 0;
 1537              		.loc 1 709 0
 1538 00d0 0024     		movs	r4, #0
 1539 00d2 6C64     		str	r4, [r5, #68]
 710:main.c        ****         S2_Write(0);
 1540              		.loc 1 710 0
 1541 00d4 2046     		mov	r0, r4
 1542 00d6 FFF7FEFF 		bl	S2_Write
 1543              	.LVL197:
 711:main.c        ****         S3_Write(1);
 1544              		.loc 1 711 0
 1545 00da 0120     		movs	r0, #1
 1546 00dc FFF7FEFF 		bl	S3_Write
 1547              	.LVL198:
 712:main.c        ****         CyDelay(20);
 1548              		.loc 1 712 0
 1549 00e0 1420     		movs	r0, #20
 1550 00e2 FFF7FEFF 		bl	CyDelay
 1551              	.LVL199:
 713:main.c        ****         Control_Reg_1_Write(1);
 1552              		.loc 1 713 0
 1553 00e6 0120     		movs	r0, #1
 1554 00e8 FFF7FEFF 		bl	Control_Reg_1_Write
 1555              	.LVL200:
 714:main.c        ****         CyDelay(1);
 1556              		.loc 1 714 0
ARM GAS  C:\Users\weiro\AppData\Local\Temp\cc9naSHk.s 			page 41


 1557 00ec 0120     		movs	r0, #1
 1558 00ee FFF7FEFF 		bl	CyDelay
 1559              	.LVL201:
 715:main.c        ****         Control_Reg_1_Write(0);
 1560              		.loc 1 715 0
 1561 00f2 2046     		mov	r0, r4
 1562 00f4 FFF7FEFF 		bl	Control_Reg_1_Write
 1563              	.LVL202:
 1564              	.L118:
 716:main.c        ****         while(compare_ready==0)
 1565              		.loc 1 716 0 discriminator 1
 1566 00f8 284B     		ldr	r3, .L123
 1567 00fa 5B6C     		ldr	r3, [r3, #68]
 1568 00fc 002B     		cmp	r3, #0
 1569 00fe FBD0     		beq	.L118
 717:main.c        ****         {
 718:main.c        ****             // waiting period (until compare ready = 1
 719:main.c        ****         }
 720:main.c        ****         CS_count_Blue = Counter_ColorSensor_ReadCapture();
 1570              		.loc 1 720 0
 1571 0100 FFF7FEFF 		bl	Counter_ColorSensor_ReadCapture
 1572              	.LVL203:
 1573 0104 0246     		mov	r2, r0
 1574 0106 254C     		ldr	r4, .L123
 1575 0108 6067     		str	r0, [r4, #116]
 721:main.c        ****         sprintf(string_1,"blue: %d\n", CS_count_Blue);
 1576              		.loc 1 721 0
 1577 010a 254D     		ldr	r5, .L123+4
 1578 010c 2749     		ldr	r1, .L123+16
 1579 010e 2846     		mov	r0, r5
 1580 0110 FFF7FEFF 		bl	sprintf
 1581              	.LVL204:
 722:main.c        ****         UART_1_PutString(string_1);
 1582              		.loc 1 722 0
 1583 0114 2846     		mov	r0, r5
 1584 0116 FFF7FEFF 		bl	UART_1_PutString
 1585              	.LVL205:
 723:main.c        ****         mode = 0;
 724:main.c        ****     }
 725:main.c        ****     Counter_ColorSensor_Stop();
 1586              		.loc 1 725 0
 1587 011a FFF7FEFF 		bl	Counter_ColorSensor_Stop
 1588              	.LVL206:
 726:main.c        ****     if (CS_count_Red > CS_count_Green && CS_count_Red > CS_count_Blue)
 1589              		.loc 1 726 0
 1590 011e E36E     		ldr	r3, [r4, #108]
 1591 0120 226F     		ldr	r2, [r4, #112]
 1592 0122 9342     		cmp	r3, r2
 1593 0124 0DDD     		ble	.L119
 1594              		.loc 1 726 0 is_stmt 0 discriminator 1
 1595 0126 626F     		ldr	r2, [r4, #116]
 1596 0128 9342     		cmp	r3, r2
 1597 012a 0ADD     		ble	.L119
 727:main.c        ****     {
 728:main.c        ****         color_detected = 1; //red
 1598              		.loc 1 728 0 is_stmt 1
 1599 012c 0120     		movs	r0, #1
ARM GAS  C:\Users\weiro\AppData\Local\Temp\cc9naSHk.s 			page 42


 1600 012e A067     		str	r0, [r4, #120]
 729:main.c        ****         led_red_Write(1);
 1601              		.loc 1 729 0
 1602 0130 FFF7FEFF 		bl	led_red_Write
 1603              	.LVL207:
 730:main.c        ****         CyDelay(1000);
 1604              		.loc 1 730 0
 1605 0134 4FF47A70 		mov	r0, #1000
 1606 0138 FFF7FEFF 		bl	CyDelay
 1607              	.LVL208:
 731:main.c        ****         led_red_Write(0);
 1608              		.loc 1 731 0
 1609 013c 0020     		movs	r0, #0
 1610 013e FFF7FEFF 		bl	led_red_Write
 1611              	.LVL209:
 1612              	.L119:
 732:main.c        ****     }
 733:main.c        ****     if (CS_count_Green > CS_count_Red && CS_count_Green > CS_count_Blue)
 1613              		.loc 1 733 0
 1614 0142 164B     		ldr	r3, .L123
 1615 0144 1A6F     		ldr	r2, [r3, #112]
 1616 0146 DB6E     		ldr	r3, [r3, #108]
 1617 0148 9A42     		cmp	r2, r3
 1618 014a 10DD     		ble	.L120
 1619              		.loc 1 733 0 is_stmt 0 discriminator 1
 1620 014c 134B     		ldr	r3, .L123
 1621 014e 5B6F     		ldr	r3, [r3, #116]
 1622 0150 9A42     		cmp	r2, r3
 1623 0152 0CDD     		ble	.L120
 734:main.c        ****     {
 735:main.c        ****         color_detected = 2; //green
 1624              		.loc 1 735 0 is_stmt 1
 1625 0154 0222     		movs	r2, #2
 1626 0156 114B     		ldr	r3, .L123
 1627 0158 9A67     		str	r2, [r3, #120]
 736:main.c        ****         led_green_Write(1);
 1628              		.loc 1 736 0
 1629 015a 0120     		movs	r0, #1
 1630 015c FFF7FEFF 		bl	led_green_Write
 1631              	.LVL210:
 737:main.c        ****         CyDelay(1000);
 1632              		.loc 1 737 0
 1633 0160 4FF47A70 		mov	r0, #1000
 1634 0164 FFF7FEFF 		bl	CyDelay
 1635              	.LVL211:
 738:main.c        ****         led_green_Write(0);
 1636              		.loc 1 738 0
 1637 0168 0020     		movs	r0, #0
 1638 016a FFF7FEFF 		bl	led_green_Write
 1639              	.LVL212:
 1640              	.L120:
 739:main.c        ****     }
 740:main.c        ****     if (CS_count_Blue > CS_count_Red && CS_count_Blue > CS_count_Green)
 1641              		.loc 1 740 0
 1642 016e 0B4B     		ldr	r3, .L123
 1643 0170 5A6F     		ldr	r2, [r3, #116]
 1644 0172 DB6E     		ldr	r3, [r3, #108]
ARM GAS  C:\Users\weiro\AppData\Local\Temp\cc9naSHk.s 			page 43


 1645 0174 9A42     		cmp	r2, r3
 1646 0176 10DD     		ble	.L115
 1647              		.loc 1 740 0 is_stmt 0 discriminator 1
 1648 0178 084B     		ldr	r3, .L123
 1649 017a 1B6F     		ldr	r3, [r3, #112]
 1650 017c 9A42     		cmp	r2, r3
 1651 017e 0CDD     		ble	.L115
 741:main.c        ****     {
 742:main.c        ****         color_detected = 3; //blue
 1652              		.loc 1 742 0 is_stmt 1
 1653 0180 0322     		movs	r2, #3
 1654 0182 064B     		ldr	r3, .L123
 1655 0184 9A67     		str	r2, [r3, #120]
 743:main.c        ****         led_blue_Write(1);
 1656              		.loc 1 743 0
 1657 0186 0120     		movs	r0, #1
 1658 0188 FFF7FEFF 		bl	led_blue_Write
 1659              	.LVL213:
 744:main.c        ****         CyDelay(1000);
 1660              		.loc 1 744 0
 1661 018c 4FF47A70 		mov	r0, #1000
 1662 0190 FFF7FEFF 		bl	CyDelay
 1663              	.LVL214:
 745:main.c        ****         led_blue_Write(0);
 1664              		.loc 1 745 0
 1665 0194 0020     		movs	r0, #0
 1666 0196 FFF7FEFF 		bl	led_blue_Write
 1667              	.LVL215:
 1668              	.L115:
 1669 019a 38BD     		pop	{r3, r4, r5, pc}
 1670              	.L124:
 1671              		.align	2
 1672              	.L123:
 1673 019c 00000000 		.word	.LANCHOR0
 1674 01a0 00000000 		.word	string_1
 1675 01a4 24000000 		.word	.LC2
 1676 01a8 30000000 		.word	.LC3
 1677 01ac 3C000000 		.word	.LC4
 1678              		.cfi_endproc
 1679              	.LFE79:
 1680              		.size	Color_Sensing_Function, .-Color_Sensing_Function
 1681              		.section	.text.main,"ax",%progbits
 1682              		.align	2
 1683              		.global	main
 1684              		.thumb
 1685              		.thumb_func
 1686              		.type	main, %function
 1687              	main:
 1688              	.LFB80:
 746:main.c        ****     }
 747:main.c        ****     
 748:main.c        ****     //step = step +1;
 749:main.c        **** }
 750:main.c        ****             
 751:main.c        **** int main(void)
 752:main.c        **** {
 1689              		.loc 1 752 0
ARM GAS  C:\Users\weiro\AppData\Local\Temp\cc9naSHk.s 			page 44


 1690              		.cfi_startproc
 1691              		@ args = 0, pretend = 0, frame = 0
 1692              		@ frame_needed = 0, uses_anonymous_args = 0
 1693 0000 2DE9F84F 		push	{r3, r4, r5, r6, r7, r8, r9, r10, fp, lr}
 1694              		.cfi_def_cfa_offset 40
 1695              		.cfi_offset 3, -40
 1696              		.cfi_offset 4, -36
 1697              		.cfi_offset 5, -32
 1698              		.cfi_offset 6, -28
 1699              		.cfi_offset 7, -24
 1700              		.cfi_offset 8, -20
 1701              		.cfi_offset 9, -16
 1702              		.cfi_offset 10, -12
 1703              		.cfi_offset 11, -8
 1704              		.cfi_offset 14, -4
 753:main.c        ****     CyGlobalIntEnable; /* Enable global interrupts. */
 1705              		.loc 1 753 0
 1706              		.syntax unified
 1707              	@ 753 "main.c" 1
 1708 0004 62B6     		CPSIE   i
 1709              	@ 0 "" 2
 754:main.c        **** 
 755:main.c        ****     WHEEL_CIRCUMFERENCE = M_PI*WHEEL_DIAMETER;
 1710              		.loc 1 755 0
 1711              		.thumb
 1712              		.syntax unified
 1713 0006 DFF834A3 		ldr	r10, .L170+44
 1714 000a C1A3     		adr	r3, .L170
 1715 000c D3E90023 		ldrd	r2, [r3]
 1716 0010 DAE90401 		ldrd	r0, [r10, #16]
 1717 0014 FFF7FEFF 		bl	__aeabi_dmul
 1718              	.LVL216:
 1719 0018 0446     		mov	r4, r0
 1720 001a 0D46     		mov	r5, r1
 1721 001c DFF810B3 		ldr	fp, .L170+32
 1722 0020 CBE92045 		strd	r4, [fp, #128]
 756:main.c        ****     DISTANCE_PT_TURN = M_PI*DISTANCE_BETW_WHEEL/4;
 1723              		.loc 1 756 0
 1724 0024 BAA3     		adr	r3, .L170
 1725 0026 D3E90023 		ldrd	r2, [r3]
 1726 002a DAE90601 		ldrd	r0, [r10, #24]
 1727 002e FFF7FEFF 		bl	__aeabi_dmul
 1728              	.LVL217:
 1729 0032 0022     		movs	r2, #0
 1730 0034 B84B     		ldr	r3, .L170+8
 1731 0036 FFF7FEFF 		bl	__aeabi_dmul
 1732              	.LVL218:
 1733 003a 0646     		mov	r6, r0
 1734 003c 0F46     		mov	r7, r1
 1735 003e CBE92267 		strd	r6, [fp, #136]
 757:main.c        ****     CM_COUNT_CONV = COUNT_WHEEL/WHEEL_CIRCUMFERENCE;
 1736              		.loc 1 757 0
 1737 0042 DAE90889 		ldrd	r8, [r10, #32]
 1738 0046 2246     		mov	r2, r4
 1739 0048 2B46     		mov	r3, r5
 1740 004a 4046     		mov	r0, r8
 1741 004c 4946     		mov	r1, r9
ARM GAS  C:\Users\weiro\AppData\Local\Temp\cc9naSHk.s 			page 45


 1742 004e FFF7FEFF 		bl	__aeabi_ddiv
 1743              	.LVL219:
 1744 0052 CBE91201 		strd	r0, [fp, #72]
 758:main.c        ****     PT_TURN_COUNT = COUNT_WHEEL * DISTANCE_PT_TURN/(M_PI*WHEEL_DIAMETER)+100;
 1745              		.loc 1 758 0
 1746 0056 4246     		mov	r2, r8
 1747 0058 4B46     		mov	r3, r9
 1748 005a 3046     		mov	r0, r6
 1749 005c 3946     		mov	r1, r7
 1750 005e FFF7FEFF 		bl	__aeabi_dmul
 1751              	.LVL220:
 1752 0062 2246     		mov	r2, r4
 1753 0064 2B46     		mov	r3, r5
 1754 0066 FFF7FEFF 		bl	__aeabi_ddiv
 1755              	.LVL221:
 1756 006a 0022     		movs	r2, #0
 1757 006c AB4B     		ldr	r3, .L170+12
 1758 006e FFF7FEFF 		bl	__aeabi_dadd
 1759              	.LVL222:
 1760 0072 CBE92401 		strd	r0, [fp, #144]
 759:main.c        ****     isr_1_StartEx(Speed_Control);
 1761              		.loc 1 759 0
 1762 0076 AA48     		ldr	r0, .L170+16
 1763 0078 FFF7FEFF 		bl	isr_1_StartEx
 1764              	.LVL223:
 760:main.c        ****     isr_6_StartEx(Color_sensing);
 1765              		.loc 1 760 0
 1766 007c A948     		ldr	r0, .L170+20
 1767 007e FFF7FEFF 		bl	isr_6_StartEx
 1768              	.LVL224:
 761:main.c        ****     Timer_1_Start();
 1769              		.loc 1 761 0
 1770 0082 FFF7FEFF 		bl	Timer_1_Start
 1771              	.LVL225:
 762:main.c        ****     Timer_2_Start();
 1772              		.loc 1 762 0
 1773 0086 FFF7FEFF 		bl	Timer_2_Start
 1774              	.LVL226:
 763:main.c        ****     Timer_3_Start();
 1775              		.loc 1 763 0
 1776 008a FFF7FEFF 		bl	Timer_3_Start
 1777              	.LVL227:
 764:main.c        ****     isr_2_StartEx(ultrasonic_trigger);
 1778              		.loc 1 764 0
 1779 008e A648     		ldr	r0, .L170+24
 1780 0090 FFF7FEFF 		bl	isr_2_StartEx
 1781              	.LVL228:
 765:main.c        ****     isr_3_StartEx(ultrasonic_echo);
 1782              		.loc 1 765 0
 1783 0094 A548     		ldr	r0, .L170+28
 1784 0096 FFF7FEFF 		bl	isr_3_StartEx
 1785              	.LVL229:
 766:main.c        ****     PWM_ColorSensor_Start();
 1786              		.loc 1 766 0
 1787 009a FFF7FEFF 		bl	PWM_ColorSensor_Start
 1788              	.LVL230:
 767:main.c        ****     
ARM GAS  C:\Users\weiro\AppData\Local\Temp\cc9naSHk.s 			page 46


 768:main.c        ****     PWM_Wheels_Start();
 1789              		.loc 1 768 0
 1790 009e FFF7FEFF 		bl	PWM_Wheels_Start
 1791              	.LVL231:
 769:main.c        ****     PWM_SmallServo_Start();
 1792              		.loc 1 769 0
 1793 00a2 FFF7FEFF 		bl	PWM_SmallServo_Start
 1794              	.LVL232:
 770:main.c        ****     PWM_BigServo_Start();
 1795              		.loc 1 770 0
 1796 00a6 FFF7FEFF 		bl	PWM_BigServo_Start
 1797              	.LVL233:
 771:main.c        ****     QuadDec_1_Start();
 1798              		.loc 1 771 0
 1799 00aa FFF7FEFF 		bl	QuadDec_1_Start
 1800              	.LVL234:
 772:main.c        ****     QuadDec_1_SetCounter(0);
 1801              		.loc 1 772 0
 1802 00ae 0020     		movs	r0, #0
 1803 00b0 FFF7FEFF 		bl	QuadDec_1_SetCounter
 1804              	.LVL235:
 773:main.c        ****     QuadDec_2_Start();
 1805              		.loc 1 773 0
 1806 00b4 FFF7FEFF 		bl	QuadDec_2_Start
 1807              	.LVL236:
 774:main.c        ****     QuadDec_2_SetCounter(0);
 1808              		.loc 1 774 0
 1809 00b8 0020     		movs	r0, #0
 1810 00ba FFF7FEFF 		bl	QuadDec_2_SetCounter
 1811              	.LVL237:
 775:main.c        ****     UART_1_Start();
 1812              		.loc 1 775 0
 1813 00be FFF7FEFF 		bl	UART_1_Start
 1814              	.LVL238:
 776:main.c        ****     CS_LED_Write(0);
 1815              		.loc 1 776 0
 1816 00c2 0020     		movs	r0, #0
 1817 00c4 FFF7FEFF 		bl	CS_LED_Write
 1818              	.LVL239:
 777:main.c        **** 
 778:main.c        ****     int flag_FR = 1;
 779:main.c        ****     int flag_CW = 1;
 780:main.c        ****     PWM_Wheels_WriteCompare1(PWM_Master);
 1819              		.loc 1 780 0
 1820 00c8 DAF80800 		ldr	r0, [r10, #8]	@ float
 1821 00cc FFF7FEFF 		bl	__aeabi_f2uiz
 1822              	.LVL240:
 1823 00d0 80B2     		uxth	r0, r0
 1824 00d2 FFF7FEFF 		bl	PWM_Wheels_WriteCompare1
 1825              	.LVL241:
 781:main.c        ****     PWM_Wheels_WriteCompare2(PWM_Master);
 1826              		.loc 1 781 0
 1827 00d6 DAF80800 		ldr	r0, [r10, #8]	@ float
 1828 00da FFF7FEFF 		bl	__aeabi_f2uiz
 1829              	.LVL242:
 1830 00de 80B2     		uxth	r0, r0
 1831 00e0 FFF7FEFF 		bl	PWM_Wheels_WriteCompare2
ARM GAS  C:\Users\weiro\AppData\Local\Temp\cc9naSHk.s 			page 47


 1832              	.LVL243:
 782:main.c        ****     double dist_trav = 0;
 783:main.c        ****     double dist_count = dist_trav*CM_COUNT_CONV;
 784:main.c        ****     CyDelay(2000);
 1833              		.loc 1 784 0
 1834 00e4 4FF4FA60 		mov	r0, #2000
 1835 00e8 FFF7FEFF 		bl	CyDelay
 1836              	.LVL244:
 785:main.c        ****     
 786:main.c        ****     // move to hug left wall
 787:main.c        ****     while (step == 0)
 1837              		.loc 1 787 0
 1838 00ec 19E0     		b	.L126
 1839              	.LVL245:
 1840              	.L127:
 788:main.c        ****     {
 789:main.c        ****         flag_FR = 1;
 790:main.c        ****         dist_trav = 50;
 791:main.c        ****         move_fixed_dist(dist_trav, flag_FR); // move forward
 1841              		.loc 1 791 0
 1842 00ee 0121     		movs	r1, #1
 1843 00f0 3220     		movs	r0, #50
 1844 00f2 FFF7FEFF 		bl	move_fixed_dist
 1845              	.LVL246:
 792:main.c        ****         
 793:main.c        ****         flag_CW = 0;
 794:main.c        ****         CW(PT_TURN_COUNT, flag_CW); // turn CCW facing left wall
 1846              		.loc 1 794 0
 1847 00f6 8E4C     		ldr	r4, .L170+32
 1848 00f8 D4E92401 		ldrd	r0, [r4, #144]
 1849 00fc FFF7FEFF 		bl	__aeabi_d2iz
 1850              	.LVL247:
 1851 0100 0021     		movs	r1, #0
 1852 0102 FFF7FEFF 		bl	CW
 1853              	.LVL248:
 795:main.c        ****         
 796:main.c        ****         forward2wall(); // move to left wall
 1854              		.loc 1 796 0
 1855 0106 FFF7FEFF 		bl	forward2wall
 1856              	.LVL249:
 797:main.c        ****         flag_CW = 1;
 798:main.c        ****         CW(PT_TURN_COUNT, flag_CW); // turn CW facing front wall
 1857              		.loc 1 798 0
 1858 010a D4E92401 		ldrd	r0, [r4, #144]
 1859 010e FFF7FEFF 		bl	__aeabi_d2iz
 1860              	.LVL250:
 1861 0112 0121     		movs	r1, #1
 1862 0114 FFF7FEFF 		bl	CW
 1863              	.LVL251:
 799:main.c        ****         
 800:main.c        ****         step++; 
 1864              		.loc 1 800 0
 1865 0118 D4F89830 		ldr	r3, [r4, #152]
 1866 011c 0133     		adds	r3, r3, #1
 1867 011e C4F89830 		str	r3, [r4, #152]
 1868              	.LVL252:
 1869              	.L126:
ARM GAS  C:\Users\weiro\AppData\Local\Temp\cc9naSHk.s 			page 48


 787:main.c        ****     {
 1870              		.loc 1 787 0
 1871 0122 834B     		ldr	r3, .L170+32
 1872 0124 D3F89830 		ldr	r3, [r3, #152]
 1873 0128 002B     		cmp	r3, #0
 1874 012a E0D0     		beq	.L127
 801:main.c        ****     }
 802:main.c        ****     wall_detected_10 = 0;
 1875              		.loc 1 802 0
 1876 012c 0022     		movs	r2, #0
 1877 012e 804B     		ldr	r3, .L170+32
 1878 0130 1A64     		str	r2, [r3, #64]
 803:main.c        ****     CyDelay(500);
 1879              		.loc 1 803 0
 1880 0132 4FF4FA70 		mov	r0, #500
 1881 0136 FFF7FEFF 		bl	CyDelay
 1882              	.LVL253:
 804:main.c        ****     
 805:main.c        ****     // move forward to front wall & turn 90 deg CW facing right wall
 806:main.c        ****     while (step == 1)
 1883              		.loc 1 806 0
 1884 013a 12E0     		b	.L128
 1885              	.L129:
 807:main.c        ****     {
 808:main.c        ****         /*flag_FR = 1;
 809:main.c        ****         dist_trav = 150;
 810:main.c        ****         dist_count = dist_trav*CM_COUNT_CONV;
 811:main.c        ****         F_or_R_1(dist_count, flag_FR);*/
 812:main.c        ****         forward2wall(); // move to front wall
 1886              		.loc 1 812 0
 1887 013c FFF7FEFF 		bl	forward2wall
 1888              	.LVL254:
 813:main.c        ****         CyDelay(500);
 1889              		.loc 1 813 0
 1890 0140 4FF4FA70 		mov	r0, #500
 1891 0144 FFF7FEFF 		bl	CyDelay
 1892              	.LVL255:
 814:main.c        ****         flag_CW = 1;
 815:main.c        ****         CW(PT_TURN_COUNT, flag_CW); // turn CW facing right wall --> problem: Step 2 will collide w
 1893              		.loc 1 815 0
 1894 0148 794C     		ldr	r4, .L170+32
 1895 014a D4E92401 		ldrd	r0, [r4, #144]
 1896 014e FFF7FEFF 		bl	__aeabi_d2iz
 1897              	.LVL256:
 1898 0152 0121     		movs	r1, #1
 1899 0154 FFF7FEFF 		bl	CW
 1900              	.LVL257:
 816:main.c        ****         step++;
 1901              		.loc 1 816 0
 1902 0158 D4F89830 		ldr	r3, [r4, #152]
 1903 015c 0133     		adds	r3, r3, #1
 1904 015e C4F89830 		str	r3, [r4, #152]
 1905              	.L128:
 806:main.c        ****     {
 1906              		.loc 1 806 0
 1907 0162 734B     		ldr	r3, .L170+32
 1908 0164 D3F89830 		ldr	r3, [r3, #152]
ARM GAS  C:\Users\weiro\AppData\Local\Temp\cc9naSHk.s 			page 49


 1909 0168 012B     		cmp	r3, #1
 1910 016a E7D0     		beq	.L129
 817:main.c        ****     }
 818:main.c        ****     CyDelay(1000);
 1911              		.loc 1 818 0
 1912 016c 4FF47A70 		mov	r0, #1000
 1913 0170 FFF7FEFF 		bl	CyDelay
 1914              	.LVL258:
 819:main.c        ****     
 820:main.c        ****     // look for slit & adjust so that robot can fit through slit
 821:main.c        ****     while (step == 2)
 1915              		.loc 1 821 0
 1916 0174 16E0     		b	.L130
 1917              	.L131:
 822:main.c        ****     {
 823:main.c        ****         /*flag_FR = 1;
 824:main.c        ****         dist_trav = 200;
 825:main.c        ****         dist_count = dist_trav*CM_COUNT_CONV;
 826:main.c        ****         F_or_R_2(dist_count, flag_FR);*/
 827:main.c        ****         move2slit();
 1918              		.loc 1 827 0
 1919 0176 FFF7FEFF 		bl	move2slit
 1920              	.LVL259:
 828:main.c        ****         sprintf(string_1, "step 2");
 1921              		.loc 1 828 0
 1922 017a 6E4B     		ldr	r3, .L170+36
 1923 017c 6E4A     		ldr	r2, .L170+40
 1924 017e 1068     		ldr	r0, [r2]	@ unaligned
 1925 0180 1860     		str	r0, [r3]	@ unaligned
 1926 0182 9188     		ldrh	r1, [r2, #4]	@ unaligned
 1927 0184 9279     		ldrb	r2, [r2, #6]	@ zero_extendqisi2
 1928 0186 9980     		strh	r1, [r3, #4]	@ unaligned
 1929 0188 9A71     		strb	r2, [r3, #6]
 829:main.c        ****         UART_1_PutString(string_1);
 1930              		.loc 1 829 0
 1931 018a 1846     		mov	r0, r3
 1932 018c FFF7FEFF 		bl	UART_1_PutString
 1933              	.LVL260:
 830:main.c        ****         CyDelay(500);
 1934              		.loc 1 830 0
 1935 0190 4FF4FA70 		mov	r0, #500
 1936 0194 FFF7FEFF 		bl	CyDelay
 1937              	.LVL261:
 831:main.c        ****         
 832:main.c        ****         step++;
 1938              		.loc 1 832 0
 1939 0198 654A     		ldr	r2, .L170+32
 1940 019a D2F89830 		ldr	r3, [r2, #152]
 1941 019e 0133     		adds	r3, r3, #1
 1942 01a0 C2F89830 		str	r3, [r2, #152]
 1943              	.L130:
 821:main.c        ****     {
 1944              		.loc 1 821 0
 1945 01a4 624B     		ldr	r3, .L170+32
 1946 01a6 D3F89830 		ldr	r3, [r3, #152]
 1947 01aa 022B     		cmp	r3, #2
 1948 01ac E3D0     		beq	.L131
ARM GAS  C:\Users\weiro\AppData\Local\Temp\cc9naSHk.s 			page 50


 833:main.c        ****     }
 834:main.c        ****     CyDelay(500);
 1949              		.loc 1 834 0
 1950 01ae 4FF4FA70 		mov	r0, #500
 1951 01b2 FFF7FEFF 		bl	CyDelay
 1952              	.LVL262:
 835:main.c        ****     while (step == 3)
 1953              		.loc 1 835 0
 1954 01b6 10E0     		b	.L132
 1955              	.LVL263:
 1956              	.L133:
 836:main.c        ****     {
 837:main.c        ****         dist_trav = 8.5;
 838:main.c        ****         flag_FR = 1;
 839:main.c        ****         move_fixed_dist(dist_trav, flag_FR);
 1957              		.loc 1 839 0
 1958 01b8 0121     		movs	r1, #1
 1959 01ba 0820     		movs	r0, #8
 1960 01bc FFF7FEFF 		bl	move_fixed_dist
 1961              	.LVL264:
 840:main.c        ****         flag_CW = 0;
 841:main.c        ****         CW(PT_TURN_COUNT, flag_CW); 
 1962              		.loc 1 841 0
 1963 01c0 5B4C     		ldr	r4, .L170+32
 1964 01c2 D4E92401 		ldrd	r0, [r4, #144]
 1965 01c6 FFF7FEFF 		bl	__aeabi_d2iz
 1966              	.LVL265:
 1967 01ca 0021     		movs	r1, #0
 1968 01cc FFF7FEFF 		bl	CW
 1969              	.LVL266:
 842:main.c        ****         step++;
 1970              		.loc 1 842 0
 1971 01d0 D4F89830 		ldr	r3, [r4, #152]
 1972 01d4 0133     		adds	r3, r3, #1
 1973 01d6 C4F89830 		str	r3, [r4, #152]
 1974              	.LVL267:
 1975              	.L132:
 835:main.c        ****     {
 1976              		.loc 1 835 0
 1977 01da 554B     		ldr	r3, .L170+32
 1978 01dc D3F89830 		ldr	r3, [r3, #152]
 1979 01e0 032B     		cmp	r3, #3
 1980 01e2 E9D0     		beq	.L133
 843:main.c        ****     }
 844:main.c        ****     CyDelay(500);
 1981              		.loc 1 844 0
 1982 01e4 4FF4FA70 		mov	r0, #500
 1983 01e8 FFF7FEFF 		bl	CyDelay
 1984              	.LVL268:
 845:main.c        ****     // move forward until puck is detected
 846:main.c        ****     while (step == 4)
 1985              		.loc 1 846 0
 1986 01ec 07E0     		b	.L134
 1987              	.L135:
 847:main.c        ****     {
 848:main.c        ****         /*flag_FR = 1;
 849:main.c        ****         dist_trav = 10;
ARM GAS  C:\Users\weiro\AppData\Local\Temp\cc9naSHk.s 			page 51


 850:main.c        ****         dist_count = dist_trav*CM_COUNT_CONV;
 851:main.c        ****         F_or_R_2(dist_count, flag_FR);*/
 852:main.c        ****         move2puck();
 1988              		.loc 1 852 0
 1989 01ee FFF7FEFF 		bl	move2puck
 1990              	.LVL269:
 853:main.c        ****         step++;
 1991              		.loc 1 853 0
 1992 01f2 4F4A     		ldr	r2, .L170+32
 1993 01f4 D2F89830 		ldr	r3, [r2, #152]
 1994 01f8 0133     		adds	r3, r3, #1
 1995 01fa C2F89830 		str	r3, [r2, #152]
 1996              	.L134:
 846:main.c        ****     {
 1997              		.loc 1 846 0
 1998 01fe 4C4B     		ldr	r3, .L170+32
 1999 0200 D3F89830 		ldr	r3, [r3, #152]
 2000 0204 042B     		cmp	r3, #4
 2001 0206 F2D0     		beq	.L135
 854:main.c        ****     }
 855:main.c        ****     CyDelay(500);
 2002              		.loc 1 855 0
 2003 0208 4FF4FA70 		mov	r0, #500
 2004 020c FFF7FEFF 		bl	CyDelay
 2005              	.LVL270:
 856:main.c        ****     
 857:main.c        ****     // color sensing & light up LED
 858:main.c        ****     while (step == 5)
 2006              		.loc 1 858 0
 2007 0210 22E0     		b	.L136
 2008              	.L140:
 2009              	.LVL271:
 2010              	.LBB4:
 859:main.c        ****     {
 860:main.c        ****         int flag_FR = 0;
 861:main.c        ****         int dist_trav = 2;
 862:main.c        ****         move_fixed_dist(dist_trav, flag_FR); // move backward
 2011              		.loc 1 862 0
 2012 0212 0021     		movs	r1, #0
 2013 0214 0220     		movs	r0, #2
 2014 0216 FFF7FEFF 		bl	move_fixed_dist
 2015              	.LVL272:
 863:main.c        ****         CyDelay(500);
 2016              		.loc 1 863 0
 2017 021a 4FF4FA70 		mov	r0, #500
 2018 021e FFF7FEFF 		bl	CyDelay
 2019              	.LVL273:
 864:main.c        ****         Color_Sensing_Function();
 2020              		.loc 1 864 0
 2021 0222 FFF7FEFF 		bl	Color_Sensing_Function
 2022              	.LVL274:
 865:main.c        ****         if (color_detected == 1) // red
 2023              		.loc 1 865 0
 2024 0226 424B     		ldr	r3, .L170+32
 2025 0228 9B6F     		ldr	r3, [r3, #120]
 2026 022a 012B     		cmp	r3, #1
 2027 022c 03D1     		bne	.L137
ARM GAS  C:\Users\weiro\AppData\Local\Temp\cc9naSHk.s 			page 52


 866:main.c        ****         {
 867:main.c        ****             led_red_Write(1);
 2028              		.loc 1 867 0
 2029 022e 0120     		movs	r0, #1
 2030 0230 FFF7FEFF 		bl	led_red_Write
 2031              	.LVL275:
 2032 0234 0AE0     		b	.L138
 2033              	.L137:
 868:main.c        ****         }
 869:main.c        ****         else if (color_detected == 2) // green
 2034              		.loc 1 869 0
 2035 0236 022B     		cmp	r3, #2
 2036 0238 03D1     		bne	.L139
 870:main.c        ****         {
 871:main.c        ****             led_green_Write(1);
 2037              		.loc 1 871 0
 2038 023a 0120     		movs	r0, #1
 2039 023c FFF7FEFF 		bl	led_green_Write
 2040              	.LVL276:
 2041 0240 04E0     		b	.L138
 2042              	.L139:
 872:main.c        ****         }
 873:main.c        ****         else if (color_detected == 3) // blue
 2043              		.loc 1 873 0
 2044 0242 032B     		cmp	r3, #3
 2045 0244 02D1     		bne	.L138
 874:main.c        ****         {
 875:main.c        ****             led_blue_Write(1);   
 2046              		.loc 1 875 0
 2047 0246 0120     		movs	r0, #1
 2048 0248 FFF7FEFF 		bl	led_blue_Write
 2049              	.LVL277:
 2050              	.L138:
 876:main.c        ****         }
 877:main.c        ****         step++;
 2051              		.loc 1 877 0
 2052 024c 384A     		ldr	r2, .L170+32
 2053 024e D2F89830 		ldr	r3, [r2, #152]
 2054 0252 0133     		adds	r3, r3, #1
 2055 0254 C2F89830 		str	r3, [r2, #152]
 2056              	.LVL278:
 2057              	.L136:
 2058              	.LBE4:
 858:main.c        ****     {
 2059              		.loc 1 858 0
 2060 0258 354B     		ldr	r3, .L170+32
 2061 025a D3F89830 		ldr	r3, [r3, #152]
 2062 025e 052B     		cmp	r3, #5
 2063 0260 D7D0     		beq	.L140
 878:main.c        ****     }
 879:main.c        ****     CyDelay(500);
 2064              		.loc 1 879 0
 2065 0262 4FF4FA70 		mov	r0, #500
 2066 0266 FFF7FEFF 		bl	CyDelay
 2067              	.LVL279:
 880:main.c        ****     
 881:main.c        ****     // move forward & pick up puck
ARM GAS  C:\Users\weiro\AppData\Local\Temp\cc9naSHk.s 			page 53


 882:main.c        ****     while (step == 6)
 2068              		.loc 1 882 0
 2069 026a 1BE0     		b	.L141
 2070              	.L142:
 2071              	.LVL280:
 883:main.c        ****     {
 884:main.c        ****         flag_FR = 1;
 885:main.c        ****         dist_trav = 18; // distance from color sensor to gripper center
 886:main.c        ****         move_fixed_dist(dist_trav, flag_FR);
 2072              		.loc 1 886 0
 2073 026c 0121     		movs	r1, #1
 2074 026e 1220     		movs	r0, #18
 2075 0270 FFF7FEFF 		bl	move_fixed_dist
 2076              	.LVL281:
 887:main.c        ****         PWM_BigServo_WriteCompare(down_big);
 2077              		.loc 1 887 0
 2078 0274 314C     		ldr	r4, .L170+44
 2079 0276 208D     		ldrh	r0, [r4, #40]
 2080 0278 FFF7FEFF 		bl	PWM_BigServo_WriteCompare
 2081              	.LVL282:
 888:main.c        ****         CyDelay(500);
 2082              		.loc 1 888 0
 2083 027c 4FF4FA70 		mov	r0, #500
 2084 0280 FFF7FEFF 		bl	CyDelay
 2085              	.LVL283:
 889:main.c        ****         PWM_SmallServo_WriteCompare(close_small);
 2086              		.loc 1 889 0
 2087 0284 A08D     		ldrh	r0, [r4, #44]
 2088 0286 FFF7FEFF 		bl	PWM_SmallServo_WriteCompare
 2089              	.LVL284:
 890:main.c        ****         CyDelay(500);
 2090              		.loc 1 890 0
 2091 028a 4FF4FA70 		mov	r0, #500
 2092 028e FFF7FEFF 		bl	CyDelay
 2093              	.LVL285:
 891:main.c        ****         PWM_BigServo_WriteCompare(up_big);
 2094              		.loc 1 891 0
 2095 0292 208E     		ldrh	r0, [r4, #48]
 2096 0294 FFF7FEFF 		bl	PWM_BigServo_WriteCompare
 2097              	.LVL286:
 892:main.c        ****         step++;
 2098              		.loc 1 892 0
 2099 0298 254A     		ldr	r2, .L170+32
 2100 029a D2F89830 		ldr	r3, [r2, #152]
 2101 029e 0133     		adds	r3, r3, #1
 2102 02a0 C2F89830 		str	r3, [r2, #152]
 2103              	.LVL287:
 2104              	.L141:
 882:main.c        ****     {
 2105              		.loc 1 882 0
 2106 02a4 224B     		ldr	r3, .L170+32
 2107 02a6 D3F89830 		ldr	r3, [r3, #152]
 2108 02aa 062B     		cmp	r3, #6
 2109 02ac DED0     		beq	.L142
 893:main.c        ****     }
 894:main.c        ****     CyDelay(500);
 2110              		.loc 1 894 0
ARM GAS  C:\Users\weiro\AppData\Local\Temp\cc9naSHk.s 			page 54


 2111 02ae 4FF4FA70 		mov	r0, #500
 2112 02b2 FFF7FEFF 		bl	CyDelay
 2113              	.LVL288:
 895:main.c        ****     
 896:main.c        ****     // go home? YES OF COZ XD
 897:main.c        ****     
 898:main.c        ****     while (step == 7)
 2114              		.loc 1 898 0
 2115 02b6 1BE0     		b	.L143
 2116              	.LVL289:
 2117              	.L145:
 899:main.c        ****     {
 900:main.c        ****         // reverse (out of the slit) and move to the corner of facing the initial position
 901:main.c        ****         flag_FR = 0;
 902:main.c        ****         dist_trav = 50;
 903:main.c        ****         move_fixed_dist(dist_trav, flag_FR);
 2118              		.loc 1 903 0
 2119 02b8 0021     		movs	r1, #0
 2120 02ba 3220     		movs	r0, #50
 2121 02bc FFF7FEFF 		bl	move_fixed_dist
 2122              	.LVL290:
 904:main.c        ****         CyDelay(500);
 2123              		.loc 1 904 0
 2124 02c0 4FF4FA70 		mov	r0, #500
 2125 02c4 FFF7FEFF 		bl	CyDelay
 2126              	.LVL291:
 905:main.c        ****         if (initial == 0)
 2127              		.loc 1 905 0
 2128 02c8 194B     		ldr	r3, .L170+32
 2129 02ca D3F89C30 		ldr	r3, [r3, #156]
 2130 02ce 0BB9     		cbnz	r3, .L166
 906:main.c        ****         {
 907:main.c        ****             flag_CW = 0; // ccw to left wall
 2131              		.loc 1 907 0
 2132 02d0 0025     		movs	r5, #0
 2133 02d2 00E0     		b	.L144
 2134              	.L166:
 908:main.c        ****         }
 909:main.c        ****         else
 910:main.c        ****         {
 911:main.c        ****             flag_CW = 1; // cw to right wall
 2135              		.loc 1 911 0
 2136 02d4 0125     		movs	r5, #1
 2137              	.L144:
 2138              	.LVL292:
 912:main.c        ****         }
 913:main.c        ****         CW(PT_TURN_COUNT, flag_CW); // turn robot facing left or right wall
 2139              		.loc 1 913 0
 2140 02d6 164C     		ldr	r4, .L170+32
 2141 02d8 D4E92401 		ldrd	r0, [r4, #144]
 2142 02dc FFF7FEFF 		bl	__aeabi_d2iz
 2143              	.LVL293:
 2144 02e0 2946     		mov	r1, r5
 2145 02e2 FFF7FEFF 		bl	CW
 2146              	.LVL294:
 914:main.c        ****         step++;     
 2147              		.loc 1 914 0
ARM GAS  C:\Users\weiro\AppData\Local\Temp\cc9naSHk.s 			page 55


 2148 02e6 D4F89830 		ldr	r3, [r4, #152]
 2149 02ea 0133     		adds	r3, r3, #1
 2150 02ec C4F89830 		str	r3, [r4, #152]
 2151              	.LVL295:
 2152              	.L143:
 898:main.c        ****     {
 2153              		.loc 1 898 0
 2154 02f0 0F4B     		ldr	r3, .L170+32
 2155 02f2 D3F89830 		ldr	r3, [r3, #152]
 2156 02f6 072B     		cmp	r3, #7
 2157 02f8 DED0     		beq	.L145
 915:main.c        ****     }
 916:main.c        ****     CyDelay(500);
 2158              		.loc 1 916 0
 2159 02fa 4FF4FA70 		mov	r0, #500
 2160 02fe FFF7FEFF 		bl	CyDelay
 2161              	.LVL296:
 917:main.c        ****     wall_detected_10 = 0;
 2162              		.loc 1 917 0
 2163 0302 0022     		movs	r2, #0
 2164 0304 0A4B     		ldr	r3, .L170+32
 2165 0306 1A64     		str	r2, [r3, #64]
 918:main.c        ****     while (step ==8)
 2166              		.loc 1 918 0
 2167 0308 29E0     		b	.L146
 2168              	.L171:
 2169 030a 00BFAFF3 		.align	3
 2169      0080
 2170              	.L170:
 2171 0310 182D4454 		.word	1413754136
 2172 0314 FB210940 		.word	1074340347
 2173 0318 0000D03F 		.word	1070596096
 2174 031c 00005940 		.word	1079574528
 2175 0320 00000000 		.word	Speed_Control
 2176 0324 00000000 		.word	Color_sensing
 2177 0328 00000000 		.word	ultrasonic_trigger
 2178 032c 00000000 		.word	ultrasonic_echo
 2179 0330 00000000 		.word	.LANCHOR0
 2180 0334 00000000 		.word	string_1
 2181 0338 48000000 		.word	.LC5
 2182 033c 00000000 		.word	.LANCHOR1
 2183              	.L147:
 919:main.c        ****     {
 920:main.c        ****         forward2wall(); // move to left wall
 2184              		.loc 1 920 0
 2185 0340 FFF7FEFF 		bl	forward2wall
 2186              	.LVL297:
 921:main.c        ****         flag_CW = 1;
 922:main.c        ****         CW(PT_TURN_COUNT, flag_CW); // turn CW facing base wall
 2187              		.loc 1 922 0
 2188 0344 824C     		ldr	r4, .L172
 2189 0346 D4E92401 		ldrd	r0, [r4, #144]
 2190 034a FFF7FEFF 		bl	__aeabi_d2iz
 2191              	.LVL298:
 2192 034e 0121     		movs	r1, #1
 2193 0350 FFF7FEFF 		bl	CW
 2194              	.LVL299:
ARM GAS  C:\Users\weiro\AppData\Local\Temp\cc9naSHk.s 			page 56


 923:main.c        ****         
 924:main.c        ****         
 925:main.c        ****        
 926:main.c        ****         step++;
 2195              		.loc 1 926 0
 2196 0354 D4F89830 		ldr	r3, [r4, #152]
 2197 0358 0133     		adds	r3, r3, #1
 2198 035a C4F89830 		str	r3, [r4, #152]
 2199              	.LVL300:
 2200              	.L146:
 918:main.c        ****     {
 2201              		.loc 1 918 0
 2202 035e 7C4B     		ldr	r3, .L172
 2203 0360 D3F89830 		ldr	r3, [r3, #152]
 2204 0364 082B     		cmp	r3, #8
 2205 0366 EBD0     		beq	.L147
 927:main.c        ****         
 928:main.c        ****     }
 929:main.c        ****     CyDelay(500);
 2206              		.loc 1 929 0
 2207 0368 4FF4FA70 		mov	r0, #500
 2208 036c FFF7FEFF 		bl	CyDelay
 2209              	.LVL301:
 930:main.c        ****     
 931:main.c        ****     wall_detected_10 = 0;
 2210              		.loc 1 931 0
 2211 0370 0022     		movs	r2, #0
 2212 0372 774B     		ldr	r3, .L172
 2213 0374 1A64     		str	r2, [r3, #64]
 932:main.c        ****     while (step ==9)
 2214              		.loc 1 932 0
 2215 0376 0DE0     		b	.L148
 2216              	.L149:
 2217              	.LVL302:
 933:main.c        ****     {
 934:main.c        ****         flag_FR = 0
 935:main.c        ****         
 936:main.c        ****         ;
 937:main.c        ****         dist_trav = 70;
 938:main.c        ****         move_fixed_dist(dist_trav, flag_FR);
 2218              		.loc 1 938 0
 2219 0378 0021     		movs	r1, #0
 2220 037a 4620     		movs	r0, #70
 2221 037c FFF7FEFF 		bl	move_fixed_dist
 2222              	.LVL303:
 939:main.c        ****         //move_fixed_dist(200); // move to corner
 940:main.c        ****         CyDelay(500);
 2223              		.loc 1 940 0
 2224 0380 4FF4FA70 		mov	r0, #500
 2225 0384 FFF7FEFF 		bl	CyDelay
 2226              	.LVL304:
 941:main.c        ****         step ++;
 2227              		.loc 1 941 0
 2228 0388 714A     		ldr	r2, .L172
 2229 038a D2F89830 		ldr	r3, [r2, #152]
 2230 038e 0133     		adds	r3, r3, #1
 2231 0390 C2F89830 		str	r3, [r2, #152]
ARM GAS  C:\Users\weiro\AppData\Local\Temp\cc9naSHk.s 			page 57


 2232              	.LVL305:
 2233              	.L148:
 932:main.c        ****     {
 2234              		.loc 1 932 0
 2235 0394 6E4B     		ldr	r3, .L172
 2236 0396 D3F89830 		ldr	r3, [r3, #152]
 2237 039a 092B     		cmp	r3, #9
 2238 039c ECD0     		beq	.L149
 2239 039e 03E0     		b	.L150
 2240              	.L151:
 942:main.c        ****     }
 943:main.c        ****     
 944:main.c        ****     while (step == 10)
 945:main.c        ****     {
 946:main.c        ****          // move away from the corner
 947:main.c        ****         /*
 948:main.c        ****         flag_FR = 0;
 949:main.c        ****         dist_trav = 50;
 950:main.c        ****         move_fixed_dist(dist_trav, flag_FR);
 951:main.c        ****         CyDelay(500);
 952:main.c        ****         if (initial == 0)
 953:main.c        ****         {
 954:main.c        ****             flag_CW = 1;    // ccw
 955:main.c        ****         }
 956:main.c        ****         else
 957:main.c        ****         {
 958:main.c        ****             flag_CW = 0;    // cw
 959:main.c        ****         }
 960:main.c        ****         CW(PT_TURN_COUNT, flag_CW); // turn CCW or CW facing puck landing zone
 961:main.c        ****         CyDelay(500);
 962:main.c        ****         */
 963:main.c        ****         step ++;
 2241              		.loc 1 963 0
 2242 03a0 0133     		adds	r3, r3, #1
 2243 03a2 6B4A     		ldr	r2, .L172
 2244 03a4 C2F89830 		str	r3, [r2, #152]
 2245              	.L150:
 944:main.c        ****     {
 2246              		.loc 1 944 0
 2247 03a8 694B     		ldr	r3, .L172
 2248 03aa D3F89830 		ldr	r3, [r3, #152]
 2249 03ae 0A2B     		cmp	r3, #10
 2250 03b0 F6D0     		beq	.L151
 964:main.c        ****     }
 965:main.c        ****     CyDelay(500);
 2251              		.loc 1 965 0
 2252 03b2 4FF4FA70 		mov	r0, #500
 2253 03b6 FFF7FEFF 		bl	CyDelay
 2254              	.LVL306:
 966:main.c        ****     
 967:main.c        ****     while (step == 11)
 2255              		.loc 1 967 0
 2256 03ba 03E0     		b	.L152
 2257              	.L153:
 968:main.c        ****     {
 969:main.c        ****     
 970:main.c        ****         // move to puck landing
ARM GAS  C:\Users\weiro\AppData\Local\Temp\cc9naSHk.s 			page 58


 971:main.c        ****         /*
 972:main.c        ****         flag_FR = 0;
 973:main.c        ****         dist_trav = 20;
 974:main.c        ****         move_fixed_dist(dist_trav, flag_FR);
 975:main.c        ****         CyDelay(500);
 976:main.c        ****         if (initial == 0)
 977:main.c        ****         {
 978:main.c        ****             flag_CW = 1;    // cw
 979:main.c        ****         }
 980:main.c        ****         else
 981:main.c        ****         {
 982:main.c        ****             flag_CW = 0;    // ccw
 983:main.c        ****         }
 984:main.c        ****         CW(PT_TURN_COUNT, flag_CW); // turn CCW or CW facing puck landing zone
 985:main.c        ****         */
 986:main.c        ****         step++;
 2258              		.loc 1 986 0
 2259 03bc 0133     		adds	r3, r3, #1
 2260 03be 644A     		ldr	r2, .L172
 2261 03c0 C2F89830 		str	r3, [r2, #152]
 2262              	.L152:
 967:main.c        ****     {
 2263              		.loc 1 967 0
 2264 03c4 624B     		ldr	r3, .L172
 2265 03c6 D3F89830 		ldr	r3, [r3, #152]
 2266 03ca 0B2B     		cmp	r3, #11
 2267 03cc F6D0     		beq	.L153
 987:main.c        ****     }
 988:main.c        ****     CyDelay(500);
 2268              		.loc 1 988 0
 2269 03ce 4FF4FA70 		mov	r0, #500
 2270 03d2 FFF7FEFF 		bl	CyDelay
 2271              	.LVL307:
 989:main.c        ****     while (step ==12)
 2272              		.loc 1 989 0
 2273 03d6 1EE0     		b	.L154
 2274              	.L155:
 990:main.c        ****     {
 991:main.c        ****         // put down
 992:main.c        ****         PWM_BigServo_WriteCompare(down_big);
 2275              		.loc 1 992 0
 2276 03d8 5E4C     		ldr	r4, .L172+4
 2277 03da 208D     		ldrh	r0, [r4, #40]
 2278 03dc FFF7FEFF 		bl	PWM_BigServo_WriteCompare
 2279              	.LVL308:
 993:main.c        ****         CyDelay(1000);
 2280              		.loc 1 993 0
 2281 03e0 4FF47A70 		mov	r0, #1000
 2282 03e4 FFF7FEFF 		bl	CyDelay
 2283              	.LVL309:
 994:main.c        ****         PWM_SmallServo_WriteCompare(open_small);
 2284              		.loc 1 994 0
 2285 03e8 A08E     		ldrh	r0, [r4, #52]
 2286 03ea FFF7FEFF 		bl	PWM_SmallServo_WriteCompare
 2287              	.LVL310:
 995:main.c        ****         CyDelay(500);
 2288              		.loc 1 995 0
ARM GAS  C:\Users\weiro\AppData\Local\Temp\cc9naSHk.s 			page 59


 2289 03ee 4FF4FA70 		mov	r0, #500
 2290 03f2 FFF7FEFF 		bl	CyDelay
 2291              	.LVL311:
 996:main.c        ****         PWM_BigServo_WriteCompare(up_big);
 2292              		.loc 1 996 0
 2293 03f6 208E     		ldrh	r0, [r4, #48]
 2294 03f8 FFF7FEFF 		bl	PWM_BigServo_WriteCompare
 2295              	.LVL312:
 997:main.c        ****         CyDelay(500);
 2296              		.loc 1 997 0
 2297 03fc 4FF4FA70 		mov	r0, #500
 2298 0400 FFF7FEFF 		bl	CyDelay
 2299              	.LVL313:
 998:main.c        ****         PWM_SmallServo_WriteCompare(close_small);
 2300              		.loc 1 998 0
 2301 0404 A08D     		ldrh	r0, [r4, #44]
 2302 0406 FFF7FEFF 		bl	PWM_SmallServo_WriteCompare
 2303              	.LVL314:
 999:main.c        ****         step++;
 2304              		.loc 1 999 0
 2305 040a 514A     		ldr	r2, .L172
 2306 040c D2F89830 		ldr	r3, [r2, #152]
 2307 0410 0133     		adds	r3, r3, #1
 2308 0412 C2F89830 		str	r3, [r2, #152]
 2309              	.L154:
 989:main.c        ****     {
 2310              		.loc 1 989 0
 2311 0416 4E4B     		ldr	r3, .L172
 2312 0418 D3F89830 		ldr	r3, [r3, #152]
 2313 041c 0C2B     		cmp	r3, #12
 2314 041e DBD0     		beq	.L155
1000:main.c        ****     }
1001:main.c        ****     CyDelay(500);
 2315              		.loc 1 1001 0
 2316 0420 4FF4FA70 		mov	r0, #500
 2317 0424 FFF7FEFF 		bl	CyDelay
 2318              	.LVL315:
1002:main.c        ****     while (step == 13)
 2319              		.loc 1 1002 0
 2320 0428 15E0     		b	.L156
 2321              	.L157:
 2322              	.LVL316:
1003:main.c        ****     {
1004:main.c        ****         flag_FR = 1;
1005:main.c        ****         dist_trav = 20;
1006:main.c        ****         move_fixed_dist(dist_trav, flag_FR);
 2323              		.loc 1 1006 0
 2324 042a 0121     		movs	r1, #1
 2325 042c 1420     		movs	r0, #20
 2326 042e FFF7FEFF 		bl	move_fixed_dist
 2327              	.LVL317:
1007:main.c        ****         CyDelay(500);
 2328              		.loc 1 1007 0
 2329 0432 4FF4FA70 		mov	r0, #500
 2330 0436 FFF7FEFF 		bl	CyDelay
 2331              	.LVL318:
1008:main.c        ****         PWM_BigServo_WriteCompare(down_big);
ARM GAS  C:\Users\weiro\AppData\Local\Temp\cc9naSHk.s 			page 60


 2332              		.loc 1 1008 0
 2333 043a 464B     		ldr	r3, .L172+4
 2334 043c 188D     		ldrh	r0, [r3, #40]
 2335 043e FFF7FEFF 		bl	PWM_BigServo_WriteCompare
 2336              	.LVL319:
1009:main.c        ****         CyDelay(500);
 2337              		.loc 1 1009 0
 2338 0442 4FF4FA70 		mov	r0, #500
 2339 0446 FFF7FEFF 		bl	CyDelay
 2340              	.LVL320:
1010:main.c        ****         step++;
 2341              		.loc 1 1010 0
 2342 044a 414A     		ldr	r2, .L172
 2343 044c D2F89830 		ldr	r3, [r2, #152]
 2344 0450 0133     		adds	r3, r3, #1
 2345 0452 C2F89830 		str	r3, [r2, #152]
 2346              	.LVL321:
 2347              	.L156:
1002:main.c        ****     {
 2348              		.loc 1 1002 0
 2349 0456 3E4B     		ldr	r3, .L172
 2350 0458 D3F89830 		ldr	r3, [r3, #152]
 2351 045c 0D2B     		cmp	r3, #13
 2352 045e E4D0     		beq	.L157
1011:main.c        ****     }
1012:main.c        ****     CyDelay(500);
 2353              		.loc 1 1012 0
 2354 0460 4FF4FA70 		mov	r0, #500
 2355 0464 FFF7FEFF 		bl	CyDelay
 2356              	.LVL322:
1013:main.c        ****     while (step == 14)
 2357              		.loc 1 1013 0
 2358 0468 15E0     		b	.L158
 2359              	.L159:
 2360              	.LVL323:
1014:main.c        ****     {
1015:main.c        ****         flag_FR = 0;
1016:main.c        ****         dist_trav = 20;
1017:main.c        ****         move_fixed_dist(dist_trav, flag_FR);
 2361              		.loc 1 1017 0
 2362 046a 0021     		movs	r1, #0
 2363 046c 1420     		movs	r0, #20
 2364 046e FFF7FEFF 		bl	move_fixed_dist
 2365              	.LVL324:
1018:main.c        ****         CyDelay(500);
 2366              		.loc 1 1018 0
 2367 0472 4FF4FA70 		mov	r0, #500
 2368 0476 FFF7FEFF 		bl	CyDelay
 2369              	.LVL325:
1019:main.c        ****         PWM_BigServo_WriteCompare(up_big);
 2370              		.loc 1 1019 0
 2371 047a 364B     		ldr	r3, .L172+4
 2372 047c 188E     		ldrh	r0, [r3, #48]
 2373 047e FFF7FEFF 		bl	PWM_BigServo_WriteCompare
 2374              	.LVL326:
1020:main.c        ****         CyDelay(500);
 2375              		.loc 1 1020 0
ARM GAS  C:\Users\weiro\AppData\Local\Temp\cc9naSHk.s 			page 61


 2376 0482 4FF4FA70 		mov	r0, #500
 2377 0486 FFF7FEFF 		bl	CyDelay
 2378              	.LVL327:
1021:main.c        ****         step++;
 2379              		.loc 1 1021 0
 2380 048a 314A     		ldr	r2, .L172
 2381 048c D2F89830 		ldr	r3, [r2, #152]
 2382 0490 0133     		adds	r3, r3, #1
 2383 0492 C2F89830 		str	r3, [r2, #152]
 2384              	.LVL328:
 2385              	.L158:
1013:main.c        ****     {
 2386              		.loc 1 1013 0
 2387 0496 2E4B     		ldr	r3, .L172
 2388 0498 D3F89830 		ldr	r3, [r3, #152]
 2389 049c 0E2B     		cmp	r3, #14
 2390 049e E4D0     		beq	.L159
1022:main.c        ****     }
1023:main.c        ****     CyDelay(500);
 2391              		.loc 1 1023 0
 2392 04a0 4FF4FA70 		mov	r0, #500
 2393 04a4 FFF7FEFF 		bl	CyDelay
 2394              	.LVL329:
1024:main.c        ****     while (step == 15)
 2395              		.loc 1 1024 0
 2396 04a8 1FE0     		b	.L160
 2397              	.L162:
1025:main.c        ****     {
1026:main.c        ****         if (initial == 0)
 2398              		.loc 1 1026 0
 2399 04aa 294B     		ldr	r3, .L172
 2400 04ac D3F89C30 		ldr	r3, [r3, #156]
 2401 04b0 0BB9     		cbnz	r3, .L167
1027:main.c        ****         {
1028:main.c        ****             flag_CW = 1;    // cw
 2402              		.loc 1 1028 0
 2403 04b2 0125     		movs	r5, #1
 2404 04b4 00E0     		b	.L161
 2405              	.L167:
1029:main.c        ****         }
1030:main.c        ****         else
1031:main.c        ****         {
1032:main.c        ****             flag_CW = 0;    // ccw
 2406              		.loc 1 1032 0
 2407 04b6 0025     		movs	r5, #0
 2408              	.L161:
 2409              	.LVL330:
1033:main.c        ****         }
1034:main.c        ****         CW(PT_TURN_COUNT, flag_CW); // turn CCW or CW facing puck landing zone
 2410              		.loc 1 1034 0
 2411 04b8 254C     		ldr	r4, .L172
 2412 04ba D4E92401 		ldrd	r0, [r4, #144]
 2413 04be FFF7FEFF 		bl	__aeabi_d2iz
 2414              	.LVL331:
 2415 04c2 2946     		mov	r1, r5
 2416 04c4 FFF7FEFF 		bl	CW
 2417              	.LVL332:
ARM GAS  C:\Users\weiro\AppData\Local\Temp\cc9naSHk.s 			page 62


1035:main.c        ****         CyDelay(500);
 2418              		.loc 1 1035 0
 2419 04c8 4FF4FA70 		mov	r0, #500
 2420 04cc FFF7FEFF 		bl	CyDelay
 2421              	.LVL333:
1036:main.c        ****         flag_FR = 1;
1037:main.c        ****         dist_trav = 50;
1038:main.c        ****         move_fixed_dist(dist_trav, flag_FR);
 2422              		.loc 1 1038 0
 2423 04d0 0121     		movs	r1, #1
 2424 04d2 3220     		movs	r0, #50
 2425 04d4 FFF7FEFF 		bl	move_fixed_dist
 2426              	.LVL334:
1039:main.c        ****         CyDelay(500);
 2427              		.loc 1 1039 0
 2428 04d8 4FF4FA70 		mov	r0, #500
 2429 04dc FFF7FEFF 		bl	CyDelay
 2430              	.LVL335:
1040:main.c        ****         step++;
 2431              		.loc 1 1040 0
 2432 04e0 D4F89830 		ldr	r3, [r4, #152]
 2433 04e4 0133     		adds	r3, r3, #1
 2434 04e6 C4F89830 		str	r3, [r4, #152]
 2435              	.LVL336:
 2436              	.L160:
1024:main.c        ****     {
 2437              		.loc 1 1024 0
 2438 04ea 194B     		ldr	r3, .L172
 2439 04ec D3F89830 		ldr	r3, [r3, #152]
 2440 04f0 0F2B     		cmp	r3, #15
 2441 04f2 DAD0     		beq	.L162
1041:main.c        ****     }
1042:main.c        ****     CyDelay(500);
 2442              		.loc 1 1042 0
 2443 04f4 4FF4FA70 		mov	r0, #500
 2444 04f8 FFF7FEFF 		bl	CyDelay
 2445              	.LVL337:
1043:main.c        ****     while (step == 16)
 2446              		.loc 1 1043 0
 2447 04fc 1FE0     		b	.L163
 2448              	.L165:
1044:main.c        ****     {
1045:main.c        ****         if (initial == 0)
 2449              		.loc 1 1045 0
 2450 04fe 144B     		ldr	r3, .L172
 2451 0500 D3F89C30 		ldr	r3, [r3, #156]
 2452 0504 0BB9     		cbnz	r3, .L168
1046:main.c        ****         {
1047:main.c        ****             flag_CW = 1;    // cw
 2453              		.loc 1 1047 0
 2454 0506 0125     		movs	r5, #1
 2455 0508 00E0     		b	.L164
 2456              	.L168:
1048:main.c        ****         }
1049:main.c        ****         else
1050:main.c        ****         {
1051:main.c        ****             flag_CW = 0;    // ccw
ARM GAS  C:\Users\weiro\AppData\Local\Temp\cc9naSHk.s 			page 63


 2457              		.loc 1 1051 0
 2458 050a 0025     		movs	r5, #0
 2459              	.L164:
 2460              	.LVL338:
1052:main.c        ****         }
1053:main.c        ****         CW(PT_TURN_COUNT, flag_CW); // turn CCW or CW facing puck landing zone
 2461              		.loc 1 1053 0
 2462 050c 104C     		ldr	r4, .L172
 2463 050e D4E92401 		ldrd	r0, [r4, #144]
 2464 0512 FFF7FEFF 		bl	__aeabi_d2iz
 2465              	.LVL339:
 2466 0516 2946     		mov	r1, r5
 2467 0518 FFF7FEFF 		bl	CW
 2468              	.LVL340:
1054:main.c        ****         CyDelay(500);
 2469              		.loc 1 1054 0
 2470 051c 4FF4FA70 		mov	r0, #500
 2471 0520 FFF7FEFF 		bl	CyDelay
 2472              	.LVL341:
1055:main.c        ****         flag_FR = 1;
1056:main.c        ****         dist_trav = 50;
1057:main.c        ****         move_fixed_dist(dist_trav, flag_FR);
 2473              		.loc 1 1057 0
 2474 0524 0121     		movs	r1, #1
 2475 0526 3220     		movs	r0, #50
 2476 0528 FFF7FEFF 		bl	move_fixed_dist
 2477              	.LVL342:
1058:main.c        ****         CyDelay(500);
 2478              		.loc 1 1058 0
 2479 052c 4FF4FA70 		mov	r0, #500
 2480 0530 FFF7FEFF 		bl	CyDelay
 2481              	.LVL343:
1059:main.c        ****         step ++;
 2482              		.loc 1 1059 0
 2483 0534 D4F89830 		ldr	r3, [r4, #152]
 2484 0538 0133     		adds	r3, r3, #1
 2485 053a C4F89830 		str	r3, [r4, #152]
 2486              	.LVL344:
 2487              	.L163:
1043:main.c        ****     {
 2488              		.loc 1 1043 0
 2489 053e 044B     		ldr	r3, .L172
 2490 0540 D3F89830 		ldr	r3, [r3, #152]
 2491 0544 102B     		cmp	r3, #16
 2492 0546 DAD0     		beq	.L165
1060:main.c        ****     }
1061:main.c        ****     
1062:main.c        ****     // go home
1063:main.c        **** }
 2493              		.loc 1 1063 0
 2494 0548 0020     		movs	r0, #0
 2495 054a BDE8F88F 		pop	{r3, r4, r5, r6, r7, r8, r9, r10, fp, pc}
 2496              	.L173:
 2497 054e 00BF     		.align	2
 2498              	.L172:
 2499 0550 00000000 		.word	.LANCHOR0
 2500 0554 00000000 		.word	.LANCHOR1
ARM GAS  C:\Users\weiro\AppData\Local\Temp\cc9naSHk.s 			page 64


 2501              		.cfi_endproc
 2502              	.LFE80:
 2503              		.size	main, .-main
 2504              		.global	close_small
 2505              		.global	open_small
 2506              		.global	up_big
 2507              		.global	down_big
 2508              		.global	slit_detected
 2509              		.global	wall_detected_10
 2510              		.global	color_detected
 2511              		.global	compare_ready
 2512              		.global	step
 2513              		.global	direction
 2514              		.global	y_coord
 2515              		.global	x_coord
 2516              		.global	echo_select
 2517              		.global	ultrasonic_flag
 2518              		.global	left_measured
 2519              		.comm	right_measured,8,8
 2520              		.comm	front_measured_2,8,8
 2521              		.comm	front_measured_1,8,8
 2522              		.global	ultrasonic_measure
 2523              		.global	ultrasonic_count
 2524              		.global	is_moving
 2525              		.global	PWM_Slave_puck
 2526              		.global	PWM_Master_puck
 2527              		.global	PWM_Slave
 2528              		.global	PWM_Master
 2529              		.global	K_d
 2530              		.global	K_i
 2531              		.global	K_p
 2532              		.global	timer_period
 2533              		.global	derivative_error
 2534              		.global	last_error
 2535              		.global	accumulated_error
 2536              		.global	error
 2537              		.comm	string_3,200,4
 2538              		.comm	string_2,200,4
 2539              		.comm	string_1,200,4
 2540              		.global	Count_Slave
 2541              		.global	Count_Master
 2542              		.global	PT_TURN_COUNT
 2543              		.global	DISTANCE_PT_TURN
 2544              		.global	DISTANCE_BETW_WHEEL
 2545              		.global	CM_COUNT_CONV
 2546              		.global	COUNT_WHEEL
 2547              		.global	CS_count_Green
 2548              		.global	CS_count_Blue
 2549              		.global	CS_count_Red
 2550              		.global	WHEEL_CIRCUMFERENCE
 2551              		.global	WHEEL_DIAMETER
 2552              		.global	initial
 2553              		.data
 2554              		.align	3
 2555              		.set	.LANCHOR1,. + 0
 2556              		.type	K_p, %object
 2557              		.size	K_p, 8
ARM GAS  C:\Users\weiro\AppData\Local\Temp\cc9naSHk.s 			page 65


 2558              	K_p:
 2559 0000 00000000 		.word	0
 2560 0004 00001440 		.word	1075052544
 2561              		.type	PWM_Master, %object
 2562              		.size	PWM_Master, 4
 2563              	PWM_Master:
 2564 0008 00409C46 		.word	1184645120
 2565              		.type	PWM_Slave, %object
 2566              		.size	PWM_Slave, 4
 2567              	PWM_Slave:
 2568 000c 00409C46 		.word	1184645120
 2569              		.type	WHEEL_DIAMETER, %object
 2570              		.size	WHEEL_DIAMETER, 8
 2571              	WHEEL_DIAMETER:
 2572 0010 9A999999 		.word	-1717986918
 2573 0014 99991540 		.word	1075157401
 2574              		.type	DISTANCE_BETW_WHEEL, %object
 2575              		.size	DISTANCE_BETW_WHEEL, 8
 2576              	DISTANCE_BETW_WHEEL:
 2577 0018 CDCCCCCC 		.word	-858993459
 2578 001c CC4C3640 		.word	1077300428
 2579              		.type	COUNT_WHEEL, %object
 2580              		.size	COUNT_WHEEL, 8
 2581              	COUNT_WHEEL:
 2582 0020 00000000 		.word	0
 2583 0024 00A6AC40 		.word	1085056512
 2584              		.type	down_big, %object
 2585              		.size	down_big, 4
 2586              	down_big:
 2587 0028 67020000 		.word	615
 2588              		.type	close_small, %object
 2589              		.size	close_small, 4
 2590              	close_small:
 2591 002c AC030000 		.word	940
 2592              		.type	up_big, %object
 2593              		.size	up_big, 4
 2594              	up_big:
 2595 0030 0D020000 		.word	525
 2596              		.type	open_small, %object
 2597              		.size	open_small, 4
 2598              	open_small:
 2599 0034 D4030000 		.word	980
 2600              		.type	PWM_Slave_puck, %object
 2601              		.size	PWM_Slave_puck, 4
 2602              	PWM_Slave_puck:
 2603 0038 00409C45 		.word	1167867904
 2604              		.type	PWM_Master_puck, %object
 2605              		.size	PWM_Master_puck, 4
 2606              	PWM_Master_puck:
 2607 003c 00409C45 		.word	1167867904
 2608              		.type	timer_period, %object
 2609              		.size	timer_period, 8
 2610              	timer_period:
 2611 0040 00000000 		.word	0
 2612 0044 00001440 		.word	1075052544
 2613              		.section	.rodata.str1.4,"aMS",%progbits,1
 2614              		.align	2
ARM GAS  C:\Users\weiro\AppData\Local\Temp\cc9naSHk.s 			page 66


 2615              	.LC0:
 2616 0000 46726F6E 		.ascii	"Front dist 1: %lf\012\000"
 2616      74206469 
 2616      73742031 
 2616      3A20256C 
 2616      660A00
 2617 0013 00       		.space	1
 2618              	.LC1:
 2619 0014 6D6F7669 		.ascii	"moving to slit\000"
 2619      6E672074 
 2619      6F20736C 
 2619      697400
 2620 0023 00       		.space	1
 2621              	.LC2:
 2622 0024 7265643A 		.ascii	"red: %d\012\000"
 2622      2025640A 
 2622      00
 2623 002d 000000   		.space	3
 2624              	.LC3:
 2625 0030 67726565 		.ascii	"green: %d\012\000"
 2625      6E3A2025 
 2625      640A00
 2626 003b 00       		.space	1
 2627              	.LC4:
 2628 003c 626C7565 		.ascii	"blue: %d\012\000"
 2628      3A202564 
 2628      0A00
 2629 0046 0000     		.space	2
 2630              	.LC5:
 2631 0048 73746570 		.ascii	"step 2\000"
 2631      203200
 2632              		.bss
 2633              		.align	3
 2634              		.set	.LANCHOR0,. + 0
 2635              		.type	is_moving, %object
 2636              		.size	is_moving, 4
 2637              	is_moving:
 2638 0000 00000000 		.space	4
 2639              		.type	Count_Master, %object
 2640              		.size	Count_Master, 4
 2641              	Count_Master:
 2642 0004 00000000 		.space	4
 2643              		.type	Count_Slave, %object
 2644              		.size	Count_Slave, 4
 2645              	Count_Slave:
 2646 0008 00000000 		.space	4
 2647 000c 00000000 		.space	4
 2648              		.type	error, %object
 2649              		.size	error, 8
 2650              	error:
 2651 0010 00000000 		.space	8
 2651      00000000 
 2652              		.type	last_error, %object
 2653              		.size	last_error, 8
 2654              	last_error:
 2655 0018 00000000 		.space	8
 2655      00000000 
ARM GAS  C:\Users\weiro\AppData\Local\Temp\cc9naSHk.s 			page 67


 2656              		.type	ultrasonic_flag, %object
 2657              		.size	ultrasonic_flag, 4
 2658              	ultrasonic_flag:
 2659 0020 00000000 		.space	4
 2660              		.type	echo_select, %object
 2661              		.size	echo_select, 4
 2662              	echo_select:
 2663 0024 00000000 		.space	4
 2664              		.type	ultrasonic_count, %object
 2665              		.size	ultrasonic_count, 4
 2666              	ultrasonic_count:
 2667 0028 00000000 		.space	4
 2668 002c 00000000 		.space	4
 2669              		.type	ultrasonic_measure, %object
 2670              		.size	ultrasonic_measure, 8
 2671              	ultrasonic_measure:
 2672 0030 00000000 		.space	8
 2672      00000000 
 2673              		.type	left_measured, %object
 2674              		.size	left_measured, 8
 2675              	left_measured:
 2676 0038 00000000 		.space	8
 2676      00000000 
 2677              		.type	wall_detected_10, %object
 2678              		.size	wall_detected_10, 4
 2679              	wall_detected_10:
 2680 0040 00000000 		.space	4
 2681              		.type	compare_ready, %object
 2682              		.size	compare_ready, 4
 2683              	compare_ready:
 2684 0044 00000000 		.space	4
 2685              		.type	CM_COUNT_CONV, %object
 2686              		.size	CM_COUNT_CONV, 8
 2687              	CM_COUNT_CONV:
 2688 0048 00000000 		.space	8
 2688      00000000 
 2689              		.type	direction, %object
 2690              		.size	direction, 4
 2691              	direction:
 2692 0050 00000000 		.space	4
 2693 0054 00000000 		.space	4
 2694              		.type	y_coord, %object
 2695              		.size	y_coord, 8
 2696              	y_coord:
 2697 0058 00000000 		.space	8
 2697      00000000 
 2698              		.type	x_coord, %object
 2699              		.size	x_coord, 8
 2700              	x_coord:
 2701 0060 00000000 		.space	8
 2701      00000000 
 2702              		.type	slit_detected, %object
 2703              		.size	slit_detected, 4
 2704              	slit_detected:
 2705 0068 00000000 		.space	4
 2706              		.type	CS_count_Red, %object
 2707              		.size	CS_count_Red, 4
ARM GAS  C:\Users\weiro\AppData\Local\Temp\cc9naSHk.s 			page 68


 2708              	CS_count_Red:
 2709 006c 00000000 		.space	4
 2710              		.type	CS_count_Green, %object
 2711              		.size	CS_count_Green, 4
 2712              	CS_count_Green:
 2713 0070 00000000 		.space	4
 2714              		.type	CS_count_Blue, %object
 2715              		.size	CS_count_Blue, 4
 2716              	CS_count_Blue:
 2717 0074 00000000 		.space	4
 2718              		.type	color_detected, %object
 2719              		.size	color_detected, 4
 2720              	color_detected:
 2721 0078 00000000 		.space	4
 2722 007c 00000000 		.space	4
 2723              		.type	WHEEL_CIRCUMFERENCE, %object
 2724              		.size	WHEEL_CIRCUMFERENCE, 8
 2725              	WHEEL_CIRCUMFERENCE:
 2726 0080 00000000 		.space	8
 2726      00000000 
 2727              		.type	DISTANCE_PT_TURN, %object
 2728              		.size	DISTANCE_PT_TURN, 8
 2729              	DISTANCE_PT_TURN:
 2730 0088 00000000 		.space	8
 2730      00000000 
 2731              		.type	PT_TURN_COUNT, %object
 2732              		.size	PT_TURN_COUNT, 8
 2733              	PT_TURN_COUNT:
 2734 0090 00000000 		.space	8
 2734      00000000 
 2735              		.type	step, %object
 2736              		.size	step, 4
 2737              	step:
 2738 0098 00000000 		.space	4
 2739              		.type	initial, %object
 2740              		.size	initial, 4
 2741              	initial:
 2742 009c 00000000 		.space	4
 2743              		.type	K_d, %object
 2744              		.size	K_d, 8
 2745              	K_d:
 2746 00a0 00000000 		.space	8
 2746      00000000 
 2747              		.type	K_i, %object
 2748              		.size	K_i, 8
 2749              	K_i:
 2750 00a8 00000000 		.space	8
 2750      00000000 
 2751              		.type	derivative_error, %object
 2752              		.size	derivative_error, 8
 2753              	derivative_error:
 2754 00b0 00000000 		.space	8
 2754      00000000 
 2755              		.type	accumulated_error, %object
 2756              		.size	accumulated_error, 8
 2757              	accumulated_error:
 2758 00b8 00000000 		.space	8
ARM GAS  C:\Users\weiro\AppData\Local\Temp\cc9naSHk.s 			page 69


 2758      00000000 
 2759              		.text
 2760              	.Letext0:
 2761              		.file 2 "c:\\program files (x86)\\cypress\\psoc creator\\4.4\\psoc creator\\import\\gnu\\arm\\5.4.
 2762              		.file 3 "c:\\program files (x86)\\cypress\\psoc creator\\4.4\\psoc creator\\import\\gnu\\arm\\5.4.
 2763              		.file 4 "Generated_Source\\PSoC5/core_cm3.h"
 2764              		.file 5 "Generated_Source\\PSoC5/PWM_Wheels.h"
 2765              		.file 6 "Generated_Source\\PSoC5/Control_Reg_2.h"
 2766              		.file 7 "Generated_Source\\PSoC5/CyLib.h"
 2767              		.file 8 "Generated_Source\\PSoC5/Timer_2.h"
 2768              		.file 9 "Generated_Source\\PSoC5/Trigger.h"
 2769              		.file 10 "Generated_Source\\PSoC5/Timer_3.h"
 2770              		.file 11 "c:\\program files (x86)\\cypress\\psoc creator\\4.4\\psoc creator\\import\\gnu\\arm\\5.4
 2771              		.file 12 "Generated_Source\\PSoC5/PWM_ColorSensor.h"
 2772              		.file 13 "Generated_Source\\PSoC5/Motor_1_IN_1.h"
 2773              		.file 14 "Generated_Source\\PSoC5/Motor_1_IN_2.h"
 2774              		.file 15 "Generated_Source\\PSoC5/Motor_2_IN_3.h"
 2775              		.file 16 "Generated_Source\\PSoC5/Motor_2_IN_4.h"
 2776              		.file 17 "Generated_Source\\PSoC5/QuadDec_1.h"
 2777              		.file 18 "Generated_Source\\PSoC5/QuadDec_2.h"
 2778              		.file 19 "Generated_Source\\PSoC5/Front_Echo_1.h"
 2779              		.file 20 "Generated_Source\\PSoC5/UART_1.h"
 2780              		.file 21 "Generated_Source\\PSoC5/Left_Echo.h"
 2781              		.file 22 "Generated_Source\\PSoC5/IR_input.h"
 2782              		.file 23 "Generated_Source\\PSoC5/S0.h"
 2783              		.file 24 "Generated_Source\\PSoC5/S1.h"
 2784              		.file 25 "Generated_Source\\PSoC5/CS_LED.h"
 2785              		.file 26 "Generated_Source\\PSoC5/Counter_ColorSensor.h"
 2786              		.file 27 "Generated_Source\\PSoC5/S2.h"
 2787              		.file 28 "Generated_Source\\PSoC5/S3.h"
 2788              		.file 29 "Generated_Source\\PSoC5/Control_Reg_1.h"
 2789              		.file 30 "Generated_Source\\PSoC5/led_red.h"
 2790              		.file 31 "Generated_Source\\PSoC5/led_green.h"
 2791              		.file 32 "Generated_Source\\PSoC5/led_blue.h"
 2792              		.file 33 "Generated_Source\\PSoC5/isr_1.h"
 2793              		.file 34 "Generated_Source\\PSoC5/isr_6.h"
 2794              		.file 35 "Generated_Source\\PSoC5/Timer_1.h"
 2795              		.file 36 "Generated_Source\\PSoC5/isr_2.h"
 2796              		.file 37 "Generated_Source\\PSoC5/isr_3.h"
 2797              		.file 38 "Generated_Source\\PSoC5/PWM_SmallServo.h"
 2798              		.file 39 "Generated_Source\\PSoC5/PWM_BigServo.h"
 2799              		.section	.debug_info,"",%progbits
 2800              	.Ldebug_info0:
 2801 0000 14170000 		.4byte	0x1714
 2802 0004 0400     		.2byte	0x4
 2803 0006 00000000 		.4byte	.Ldebug_abbrev0
 2804 000a 04       		.byte	0x4
 2805 000b 01       		.uleb128 0x1
 2806 000c C2020000 		.4byte	.LASF140
 2807 0010 0C       		.byte	0xc
 2808 0011 48000000 		.4byte	.LASF141
 2809 0015 F9070000 		.4byte	.LASF142
 2810 0019 00000000 		.4byte	.Ldebug_ranges0+0
 2811 001d 00000000 		.4byte	0
 2812 0021 00000000 		.4byte	.Ldebug_line0
 2813 0025 02       		.uleb128 0x2
 2814 0026 08       		.byte	0x8
ARM GAS  C:\Users\weiro\AppData\Local\Temp\cc9naSHk.s 			page 70


 2815 0027 04       		.byte	0x4
 2816 0028 AB080000 		.4byte	.LASF0
 2817 002c 02       		.uleb128 0x2
 2818 002d 01       		.byte	0x1
 2819 002e 06       		.byte	0x6
 2820 002f 54080000 		.4byte	.LASF1
 2821 0033 02       		.uleb128 0x2
 2822 0034 01       		.byte	0x1
 2823 0035 08       		.byte	0x8
 2824 0036 7B070000 		.4byte	.LASF2
 2825 003a 02       		.uleb128 0x2
 2826 003b 02       		.byte	0x2
 2827 003c 05       		.byte	0x5
 2828 003d BF050000 		.4byte	.LASF3
 2829 0041 02       		.uleb128 0x2
 2830 0042 02       		.byte	0x2
 2831 0043 07       		.byte	0x7
 2832 0044 60080000 		.4byte	.LASF4
 2833 0048 03       		.uleb128 0x3
 2834 0049 E5000000 		.4byte	.LASF10
 2835 004d 02       		.byte	0x2
 2836 004e 3F       		.byte	0x3f
 2837 004f 53000000 		.4byte	0x53
 2838 0053 02       		.uleb128 0x2
 2839 0054 04       		.byte	0x4
 2840 0055 05       		.byte	0x5
 2841 0056 C9050000 		.4byte	.LASF5
 2842 005a 02       		.uleb128 0x2
 2843 005b 04       		.byte	0x4
 2844 005c 07       		.byte	0x7
 2845 005d F5060000 		.4byte	.LASF6
 2846 0061 02       		.uleb128 0x2
 2847 0062 08       		.byte	0x8
 2848 0063 05       		.byte	0x5
 2849 0064 75040000 		.4byte	.LASF7
 2850 0068 02       		.uleb128 0x2
 2851 0069 08       		.byte	0x8
 2852 006a 07       		.byte	0x7
 2853 006b 4D020000 		.4byte	.LASF8
 2854 006f 04       		.uleb128 0x4
 2855 0070 04       		.byte	0x4
 2856 0071 05       		.byte	0x5
 2857 0072 696E7400 		.ascii	"int\000"
 2858 0076 02       		.uleb128 0x2
 2859 0077 04       		.byte	0x4
 2860 0078 07       		.byte	0x7
 2861 0079 CA000000 		.4byte	.LASF9
 2862 007d 03       		.uleb128 0x3
 2863 007e 39070000 		.4byte	.LASF11
 2864 0082 03       		.byte	0x3
 2865 0083 2C       		.byte	0x2c
 2866 0084 48000000 		.4byte	0x48
 2867 0088 02       		.uleb128 0x2
 2868 0089 04       		.byte	0x4
 2869 008a 04       		.byte	0x4
 2870 008b F2010000 		.4byte	.LASF12
 2871 008f 02       		.uleb128 0x2
ARM GAS  C:\Users\weiro\AppData\Local\Temp\cc9naSHk.s 			page 71


 2872 0090 01       		.byte	0x1
 2873 0091 08       		.byte	0x8
 2874 0092 19040000 		.4byte	.LASF13
 2875 0096 02       		.uleb128 0x2
 2876 0097 08       		.byte	0x8
 2877 0098 04       		.byte	0x4
 2878 0099 29050000 		.4byte	.LASF14
 2879 009d 02       		.uleb128 0x2
 2880 009e 04       		.byte	0x4
 2881 009f 07       		.byte	0x7
 2882 00a0 EC060000 		.4byte	.LASF15
 2883 00a4 05       		.uleb128 0x5
 2884 00a5 D7000000 		.4byte	.LASF16
 2885 00a9 01       		.byte	0x1
 2886 00aa 42       		.byte	0x42
 2887 00ab 00000000 		.4byte	.LFB64
 2888 00af 78000000 		.4byte	.LFE64-.LFB64
 2889 00b3 01       		.uleb128 0x1
 2890 00b4 9C       		.byte	0x9c
 2891 00b5 C3000000 		.4byte	0xc3
 2892 00b9 06       		.uleb128 0x6
 2893 00ba 5C000000 		.4byte	.LVL7
 2894 00be CE140000 		.4byte	0x14ce
 2895 00c2 00       		.byte	0
 2896 00c3 07       		.uleb128 0x7
 2897 00c4 68070000 		.4byte	.LASF17
 2898 00c8 01       		.byte	0x1
 2899 00c9 5A       		.byte	0x5a
 2900 00ca 00000000 		.4byte	.LFB65
 2901 00ce 60000000 		.4byte	.LFE65-.LFB65
 2902 00d2 01       		.uleb128 0x1
 2903 00d3 9C       		.byte	0x9c
 2904 00d4 34010000 		.4byte	0x134
 2905 00d8 06       		.uleb128 0x6
 2906 00d9 3C000000 		.4byte	.LVL8
 2907 00dd D9140000 		.4byte	0x14d9
 2908 00e1 08       		.uleb128 0x8
 2909 00e2 42000000 		.4byte	.LVL9
 2910 00e6 E4140000 		.4byte	0x14e4
 2911 00ea F5000000 		.4byte	0xf5
 2912 00ee 09       		.uleb128 0x9
 2913 00ef 01       		.uleb128 0x1
 2914 00f0 50       		.byte	0x50
 2915 00f1 02       		.uleb128 0x2
 2916 00f2 08       		.byte	0x8
 2917 00f3 32       		.byte	0x32
 2918 00f4 00       		.byte	0
 2919 00f5 06       		.uleb128 0x6
 2920 00f6 46000000 		.4byte	.LVL10
 2921 00fa EF140000 		.4byte	0x14ef
 2922 00fe 08       		.uleb128 0x8
 2923 00ff 4C000000 		.4byte	.LVL11
 2924 0103 FA140000 		.4byte	0x14fa
 2925 0107 11010000 		.4byte	0x111
 2926 010b 09       		.uleb128 0x9
 2927 010c 01       		.uleb128 0x1
 2928 010d 50       		.byte	0x50
ARM GAS  C:\Users\weiro\AppData\Local\Temp\cc9naSHk.s 			page 72


 2929 010e 01       		.uleb128 0x1
 2930 010f 31       		.byte	0x31
 2931 0110 00       		.byte	0
 2932 0111 08       		.uleb128 0x8
 2933 0112 52000000 		.4byte	.LVL12
 2934 0116 05150000 		.4byte	0x1505
 2935 011a 24010000 		.4byte	0x124
 2936 011e 09       		.uleb128 0x9
 2937 011f 01       		.uleb128 0x1
 2938 0120 50       		.byte	0x50
 2939 0121 01       		.uleb128 0x1
 2940 0122 3A       		.byte	0x3a
 2941 0123 00       		.byte	0
 2942 0124 0A       		.uleb128 0xa
 2943 0125 58000000 		.4byte	.LVL13
 2944 0129 FA140000 		.4byte	0x14fa
 2945 012d 09       		.uleb128 0x9
 2946 012e 01       		.uleb128 0x1
 2947 012f 50       		.byte	0x50
 2948 0130 01       		.uleb128 0x1
 2949 0131 30       		.byte	0x30
 2950 0132 00       		.byte	0
 2951 0133 00       		.byte	0
 2952 0134 05       		.uleb128 0x5
 2953 0135 DC040000 		.4byte	.LASF18
 2954 0139 01       		.byte	0x1
 2955 013a 78       		.byte	0x78
 2956 013b 00000000 		.4byte	.LFB66
 2957 013f B8000000 		.4byte	.LFE66-.LFB66
 2958 0143 01       		.uleb128 0x1
 2959 0144 9C       		.byte	0x9c
 2960 0145 78010000 		.4byte	0x178
 2961 0149 06       		.uleb128 0x6
 2962 014a 06000000 		.4byte	.LVL14
 2963 014e 10150000 		.4byte	0x1510
 2964 0152 06       		.uleb128 0x6
 2965 0153 0A000000 		.4byte	.LVL15
 2966 0157 1B150000 		.4byte	0x151b
 2967 015b 0A       		.uleb128 0xa
 2968 015c 36000000 		.4byte	.LVL17
 2969 0160 26150000 		.4byte	0x1526
 2970 0164 09       		.uleb128 0x9
 2971 0165 01       		.uleb128 0x1
 2972 0166 50       		.byte	0x50
 2973 0167 05       		.uleb128 0x5
 2974 0168 03       		.byte	0x3
 2975 0169 00000000 		.4byte	string_1
 2976 016d 09       		.uleb128 0x9
 2977 016e 01       		.uleb128 0x1
 2978 016f 51       		.byte	0x51
 2979 0170 05       		.uleb128 0x5
 2980 0171 03       		.byte	0x3
 2981 0172 00000000 		.4byte	.LC0
 2982 0176 00       		.byte	0
 2983 0177 00       		.byte	0
 2984 0178 07       		.uleb128 0x7
 2985 0179 F1040000 		.4byte	.LASF19
ARM GAS  C:\Users\weiro\AppData\Local\Temp\cc9naSHk.s 			page 73


 2986 017d 01       		.byte	0x1
 2987 017e 9E       		.byte	0x9e
 2988 017f 00000000 		.4byte	.LFB67
 2989 0183 14000000 		.4byte	.LFE67-.LFB67
 2990 0187 01       		.uleb128 0x1
 2991 0188 9C       		.byte	0x9c
 2992 0189 97010000 		.4byte	0x197
 2993 018d 06       		.uleb128 0x6
 2994 018e 06000000 		.4byte	.LVL19
 2995 0192 31150000 		.4byte	0x1531
 2996 0196 00       		.byte	0
 2997 0197 0B       		.uleb128 0xb
 2998 0198 DC010000 		.4byte	.LASF20
 2999 019c 01       		.byte	0x1
 3000 019d A5       		.byte	0xa5
 3001 019e 00000000 		.4byte	.LFB68
 3002 01a2 28000000 		.4byte	.LFE68-.LFB68
 3003 01a6 01       		.uleb128 0x1
 3004 01a7 9C       		.byte	0x9c
 3005 01a8 F9010000 		.4byte	0x1f9
 3006 01ac 08       		.uleb128 0x8
 3007 01ad 0E000000 		.4byte	.LVL20
 3008 01b1 3C150000 		.4byte	0x153c
 3009 01b5 C0010000 		.4byte	0x1c0
 3010 01b9 09       		.uleb128 0x9
 3011 01ba 01       		.uleb128 0x1
 3012 01bb 50       		.byte	0x50
 3013 01bc 02       		.uleb128 0x2
 3014 01bd 74       		.byte	0x74
 3015 01be 00       		.sleb128 0
 3016 01bf 00       		.byte	0
 3017 01c0 08       		.uleb128 0x8
 3018 01c1 14000000 		.4byte	.LVL21
 3019 01c5 47150000 		.4byte	0x1547
 3020 01c9 D4010000 		.4byte	0x1d4
 3021 01cd 09       		.uleb128 0x9
 3022 01ce 01       		.uleb128 0x1
 3023 01cf 50       		.byte	0x50
 3024 01d0 02       		.uleb128 0x2
 3025 01d1 74       		.byte	0x74
 3026 01d2 00       		.sleb128 0
 3027 01d3 00       		.byte	0
 3028 01d4 08       		.uleb128 0x8
 3029 01d5 1A000000 		.4byte	.LVL22
 3030 01d9 52150000 		.4byte	0x1552
 3031 01dd E8010000 		.4byte	0x1e8
 3032 01e1 09       		.uleb128 0x9
 3033 01e2 01       		.uleb128 0x1
 3034 01e3 50       		.byte	0x50
 3035 01e4 02       		.uleb128 0x2
 3036 01e5 74       		.byte	0x74
 3037 01e6 00       		.sleb128 0
 3038 01e7 00       		.byte	0
 3039 01e8 0A       		.uleb128 0xa
 3040 01e9 20000000 		.4byte	.LVL23
 3041 01ed 5D150000 		.4byte	0x155d
 3042 01f1 09       		.uleb128 0x9
ARM GAS  C:\Users\weiro\AppData\Local\Temp\cc9naSHk.s 			page 74


 3043 01f2 01       		.uleb128 0x1
 3044 01f3 50       		.byte	0x50
 3045 01f4 02       		.uleb128 0x2
 3046 01f5 74       		.byte	0x74
 3047 01f6 00       		.sleb128 0
 3048 01f7 00       		.byte	0
 3049 01f8 00       		.byte	0
 3050 01f9 0B       		.uleb128 0xb
 3051 01fa CF040000 		.4byte	.LASF21
 3052 01fe 01       		.byte	0x1
 3053 01ff AE       		.byte	0xae
 3054 0200 00000000 		.4byte	.LFB69
 3055 0204 28000000 		.4byte	.LFE69-.LFB69
 3056 0208 01       		.uleb128 0x1
 3057 0209 9C       		.byte	0x9c
 3058 020a 59020000 		.4byte	0x259
 3059 020e 08       		.uleb128 0x8
 3060 020f 0E000000 		.4byte	.LVL24
 3061 0213 3C150000 		.4byte	0x153c
 3062 0217 21020000 		.4byte	0x221
 3063 021b 09       		.uleb128 0x9
 3064 021c 01       		.uleb128 0x1
 3065 021d 50       		.byte	0x50
 3066 021e 01       		.uleb128 0x1
 3067 021f 30       		.byte	0x30
 3068 0220 00       		.byte	0
 3069 0221 08       		.uleb128 0x8
 3070 0222 14000000 		.4byte	.LVL25
 3071 0226 47150000 		.4byte	0x1547
 3072 022a 35020000 		.4byte	0x235
 3073 022e 09       		.uleb128 0x9
 3074 022f 01       		.uleb128 0x1
 3075 0230 50       		.byte	0x50
 3076 0231 02       		.uleb128 0x2
 3077 0232 74       		.byte	0x74
 3078 0233 00       		.sleb128 0
 3079 0234 00       		.byte	0
 3080 0235 08       		.uleb128 0x8
 3081 0236 1A000000 		.4byte	.LVL26
 3082 023a 52150000 		.4byte	0x1552
 3083 023e 48020000 		.4byte	0x248
 3084 0242 09       		.uleb128 0x9
 3085 0243 01       		.uleb128 0x1
 3086 0244 50       		.byte	0x50
 3087 0245 01       		.uleb128 0x1
 3088 0246 30       		.byte	0x30
 3089 0247 00       		.byte	0
 3090 0248 0A       		.uleb128 0xa
 3091 0249 20000000 		.4byte	.LVL27
 3092 024d 5D150000 		.4byte	0x155d
 3093 0251 09       		.uleb128 0x9
 3094 0252 01       		.uleb128 0x1
 3095 0253 50       		.byte	0x50
 3096 0254 02       		.uleb128 0x2
 3097 0255 74       		.byte	0x74
 3098 0256 00       		.sleb128 0
 3099 0257 00       		.byte	0
ARM GAS  C:\Users\weiro\AppData\Local\Temp\cc9naSHk.s 			page 75


 3100 0258 00       		.byte	0
 3101 0259 0B       		.uleb128 0xb
 3102 025a A3010000 		.4byte	.LASF22
 3103 025e 01       		.byte	0x1
 3104 025f B7       		.byte	0xb7
 3105 0260 00000000 		.4byte	.LFB70
 3106 0264 28000000 		.4byte	.LFE70-.LFB70
 3107 0268 01       		.uleb128 0x1
 3108 0269 9C       		.byte	0x9c
 3109 026a B9020000 		.4byte	0x2b9
 3110 026e 08       		.uleb128 0x8
 3111 026f 0E000000 		.4byte	.LVL28
 3112 0273 3C150000 		.4byte	0x153c
 3113 0277 82020000 		.4byte	0x282
 3114 027b 09       		.uleb128 0x9
 3115 027c 01       		.uleb128 0x1
 3116 027d 50       		.byte	0x50
 3117 027e 02       		.uleb128 0x2
 3118 027f 74       		.byte	0x74
 3119 0280 00       		.sleb128 0
 3120 0281 00       		.byte	0
 3121 0282 08       		.uleb128 0x8
 3122 0283 14000000 		.4byte	.LVL29
 3123 0287 47150000 		.4byte	0x1547
 3124 028b 95020000 		.4byte	0x295
 3125 028f 09       		.uleb128 0x9
 3126 0290 01       		.uleb128 0x1
 3127 0291 50       		.byte	0x50
 3128 0292 01       		.uleb128 0x1
 3129 0293 30       		.byte	0x30
 3130 0294 00       		.byte	0
 3131 0295 08       		.uleb128 0x8
 3132 0296 1A000000 		.4byte	.LVL30
 3133 029a 52150000 		.4byte	0x1552
 3134 029e A9020000 		.4byte	0x2a9
 3135 02a2 09       		.uleb128 0x9
 3136 02a3 01       		.uleb128 0x1
 3137 02a4 50       		.byte	0x50
 3138 02a5 02       		.uleb128 0x2
 3139 02a6 74       		.byte	0x74
 3140 02a7 00       		.sleb128 0
 3141 02a8 00       		.byte	0
 3142 02a9 0A       		.uleb128 0xa
 3143 02aa 20000000 		.4byte	.LVL31
 3144 02ae 5D150000 		.4byte	0x155d
 3145 02b2 09       		.uleb128 0x9
 3146 02b3 01       		.uleb128 0x1
 3147 02b4 50       		.byte	0x50
 3148 02b5 01       		.uleb128 0x1
 3149 02b6 30       		.byte	0x30
 3150 02b7 00       		.byte	0
 3151 02b8 00       		.byte	0
 3152 02b9 0B       		.uleb128 0xb
 3153 02ba DC070000 		.4byte	.LASF23
 3154 02be 01       		.byte	0x1
 3155 02bf C0       		.byte	0xc0
 3156 02c0 00000000 		.4byte	.LFB71
ARM GAS  C:\Users\weiro\AppData\Local\Temp\cc9naSHk.s 			page 76


 3157 02c4 28000000 		.4byte	.LFE71-.LFB71
 3158 02c8 01       		.uleb128 0x1
 3159 02c9 9C       		.byte	0x9c
 3160 02ca 19030000 		.4byte	0x319
 3161 02ce 08       		.uleb128 0x8
 3162 02cf 0E000000 		.4byte	.LVL32
 3163 02d3 3C150000 		.4byte	0x153c
 3164 02d7 E1020000 		.4byte	0x2e1
 3165 02db 09       		.uleb128 0x9
 3166 02dc 01       		.uleb128 0x1
 3167 02dd 50       		.byte	0x50
 3168 02de 01       		.uleb128 0x1
 3169 02df 30       		.byte	0x30
 3170 02e0 00       		.byte	0
 3171 02e1 08       		.uleb128 0x8
 3172 02e2 14000000 		.4byte	.LVL33
 3173 02e6 47150000 		.4byte	0x1547
 3174 02ea F5020000 		.4byte	0x2f5
 3175 02ee 09       		.uleb128 0x9
 3176 02ef 01       		.uleb128 0x1
 3177 02f0 50       		.byte	0x50
 3178 02f1 02       		.uleb128 0x2
 3179 02f2 74       		.byte	0x74
 3180 02f3 00       		.sleb128 0
 3181 02f4 00       		.byte	0
 3182 02f5 08       		.uleb128 0x8
 3183 02f6 1A000000 		.4byte	.LVL34
 3184 02fa 52150000 		.4byte	0x1552
 3185 02fe 09030000 		.4byte	0x309
 3186 0302 09       		.uleb128 0x9
 3187 0303 01       		.uleb128 0x1
 3188 0304 50       		.byte	0x50
 3189 0305 02       		.uleb128 0x2
 3190 0306 74       		.byte	0x74
 3191 0307 00       		.sleb128 0
 3192 0308 00       		.byte	0
 3193 0309 0A       		.uleb128 0xa
 3194 030a 20000000 		.4byte	.LVL35
 3195 030e 5D150000 		.4byte	0x155d
 3196 0312 09       		.uleb128 0x9
 3197 0313 01       		.uleb128 0x1
 3198 0314 50       		.byte	0x50
 3199 0315 01       		.uleb128 0x1
 3200 0316 30       		.byte	0x30
 3201 0317 00       		.byte	0
 3202 0318 00       		.byte	0
 3203 0319 0B       		.uleb128 0xb
 3204 031a 4B050000 		.4byte	.LASF24
 3205 031e 01       		.byte	0x1
 3206 031f C9       		.byte	0xc9
 3207 0320 00000000 		.4byte	.LFB72
 3208 0324 28000000 		.4byte	.LFE72-.LFB72
 3209 0328 01       		.uleb128 0x1
 3210 0329 9C       		.byte	0x9c
 3211 032a 79030000 		.4byte	0x379
 3212 032e 08       		.uleb128 0x8
 3213 032f 0E000000 		.4byte	.LVL36
ARM GAS  C:\Users\weiro\AppData\Local\Temp\cc9naSHk.s 			page 77


 3214 0333 3C150000 		.4byte	0x153c
 3215 0337 42030000 		.4byte	0x342
 3216 033b 09       		.uleb128 0x9
 3217 033c 01       		.uleb128 0x1
 3218 033d 50       		.byte	0x50
 3219 033e 02       		.uleb128 0x2
 3220 033f 74       		.byte	0x74
 3221 0340 00       		.sleb128 0
 3222 0341 00       		.byte	0
 3223 0342 08       		.uleb128 0x8
 3224 0343 14000000 		.4byte	.LVL37
 3225 0347 47150000 		.4byte	0x1547
 3226 034b 55030000 		.4byte	0x355
 3227 034f 09       		.uleb128 0x9
 3228 0350 01       		.uleb128 0x1
 3229 0351 50       		.byte	0x50
 3230 0352 01       		.uleb128 0x1
 3231 0353 30       		.byte	0x30
 3232 0354 00       		.byte	0
 3233 0355 08       		.uleb128 0x8
 3234 0356 1A000000 		.4byte	.LVL38
 3235 035a 52150000 		.4byte	0x1552
 3236 035e 68030000 		.4byte	0x368
 3237 0362 09       		.uleb128 0x9
 3238 0363 01       		.uleb128 0x1
 3239 0364 50       		.byte	0x50
 3240 0365 01       		.uleb128 0x1
 3241 0366 30       		.byte	0x30
 3242 0367 00       		.byte	0
 3243 0368 0A       		.uleb128 0xa
 3244 0369 20000000 		.4byte	.LVL39
 3245 036d 5D150000 		.4byte	0x155d
 3246 0371 09       		.uleb128 0x9
 3247 0372 01       		.uleb128 0x1
 3248 0373 50       		.byte	0x50
 3249 0374 02       		.uleb128 0x2
 3250 0375 74       		.byte	0x74
 3251 0376 00       		.sleb128 0
 3252 0377 00       		.byte	0
 3253 0378 00       		.byte	0
 3254 0379 0C       		.uleb128 0xc
 3255 037a 89010000 		.4byte	.LASF25
 3256 037e 01       		.byte	0x1
 3257 037f 1A01     		.2byte	0x11a
 3258 0381 00000000 		.4byte	.LFB73
 3259 0385 1C000000 		.4byte	.LFE73-.LFB73
 3260 0389 01       		.uleb128 0x1
 3261 038a 9C       		.byte	0x9c
 3262 038b B2030000 		.4byte	0x3b2
 3263 038f 08       		.uleb128 0x8
 3264 0390 08000000 		.4byte	.LVL40
 3265 0394 68150000 		.4byte	0x1568
 3266 0398 A2030000 		.4byte	0x3a2
 3267 039c 09       		.uleb128 0x9
 3268 039d 01       		.uleb128 0x1
 3269 039e 50       		.byte	0x50
 3270 039f 01       		.uleb128 0x1
ARM GAS  C:\Users\weiro\AppData\Local\Temp\cc9naSHk.s 			page 78


 3271 03a0 30       		.byte	0x30
 3272 03a1 00       		.byte	0
 3273 03a2 0A       		.uleb128 0xa
 3274 03a3 0E000000 		.4byte	.LVL41
 3275 03a7 73150000 		.4byte	0x1573
 3276 03ab 09       		.uleb128 0x9
 3277 03ac 01       		.uleb128 0x1
 3278 03ad 50       		.byte	0x50
 3279 03ae 01       		.uleb128 0x1
 3280 03af 30       		.byte	0x30
 3281 03b0 00       		.byte	0
 3282 03b1 00       		.byte	0
 3283 03b2 0D       		.uleb128 0xd
 3284 03b3 83040000 		.4byte	.LASF26
 3285 03b7 01       		.byte	0x1
 3286 03b8 2201     		.2byte	0x122
 3287 03ba 00000000 		.4byte	.LFB74
 3288 03be 10010000 		.4byte	.LFE74-.LFB74
 3289 03c2 01       		.uleb128 0x1
 3290 03c3 9C       		.byte	0x9c
 3291 03c4 61040000 		.4byte	0x461
 3292 03c8 0E       		.uleb128 0xe
 3293 03c9 EC040000 		.4byte	.LASF27
 3294 03cd 01       		.byte	0x1
 3295 03ce 2201     		.2byte	0x122
 3296 03d0 6F000000 		.4byte	0x6f
 3297 03d4 00000000 		.4byte	.LLST0
 3298 03d8 0E       		.uleb128 0xe
 3299 03d9 7F060000 		.4byte	.LASF28
 3300 03dd 01       		.byte	0x1
 3301 03de 2201     		.2byte	0x122
 3302 03e0 6F000000 		.4byte	0x6f
 3303 03e4 21000000 		.4byte	.LLST1
 3304 03e8 0F       		.uleb128 0xf
 3305 03e9 EF070000 		.4byte	.LASF29
 3306 03ed 01       		.byte	0x1
 3307 03ee 2401     		.2byte	0x124
 3308 03f0 25000000 		.4byte	0x25
 3309 03f4 4D000000 		.4byte	.LLST2
 3310 03f8 0F       		.uleb128 0xf
 3311 03f9 08060000 		.4byte	.LASF30
 3312 03fd 01       		.byte	0x1
 3313 03fe 2401     		.2byte	0x124
 3314 0400 25000000 		.4byte	0x25
 3315 0404 95000000 		.4byte	.LLST3
 3316 0408 0F       		.uleb128 0xf
 3317 0409 A7030000 		.4byte	.LASF31
 3318 040d 01       		.byte	0x1
 3319 040e 2501     		.2byte	0x125
 3320 0410 6F000000 		.4byte	0x6f
 3321 0414 DD000000 		.4byte	.LLST4
 3322 0418 06       		.uleb128 0x6
 3323 0419 1E000000 		.4byte	.LVL48
 3324 041d 7E150000 		.4byte	0x157e
 3325 0421 06       		.uleb128 0x6
 3326 0422 26000000 		.4byte	.LVL49
 3327 0426 89150000 		.4byte	0x1589
ARM GAS  C:\Users\weiro\AppData\Local\Temp\cc9naSHk.s 			page 79


 3328 042a 06       		.uleb128 0x6
 3329 042b 30000000 		.4byte	.LVL50
 3330 042f F9010000 		.4byte	0x1f9
 3331 0433 06       		.uleb128 0x6
 3332 0434 36000000 		.4byte	.LVL51
 3333 0438 59020000 		.4byte	0x259
 3334 043c 06       		.uleb128 0x6
 3335 043d 56000000 		.4byte	.LVL52
 3336 0441 97010000 		.4byte	0x197
 3337 0445 06       		.uleb128 0x6
 3338 0446 5A000000 		.4byte	.LVL53
 3339 044a 7E150000 		.4byte	0x157e
 3340 044e 06       		.uleb128 0x6
 3341 044f 60000000 		.4byte	.LVL54
 3342 0453 89150000 		.4byte	0x1589
 3343 0457 06       		.uleb128 0x6
 3344 0458 F2000000 		.4byte	.LVL73
 3345 045c 79030000 		.4byte	0x379
 3346 0460 00       		.byte	0
 3347 0461 10       		.uleb128 0x10
 3348 0462 6D010000 		.4byte	.LASF32
 3349 0466 01       		.byte	0x1
 3350 0467 4C01     		.2byte	0x14c
 3351 0469 00000000 		.4byte	.LFB75
 3352 046d F0000000 		.4byte	.LFE75-.LFB75
 3353 0471 01       		.uleb128 0x1
 3354 0472 9C       		.byte	0x9c
 3355 0473 37050000 		.4byte	0x537
 3356 0477 0F       		.uleb128 0xf
 3357 0478 EF070000 		.4byte	.LASF29
 3358 047c 01       		.byte	0x1
 3359 047d 4E01     		.2byte	0x14e
 3360 047f 25000000 		.4byte	0x25
 3361 0483 FB000000 		.4byte	.LLST5
 3362 0487 0F       		.uleb128 0xf
 3363 0488 08060000 		.4byte	.LASF30
 3364 048c 01       		.byte	0x1
 3365 048d 4E01     		.2byte	0x14e
 3366 048f 25000000 		.4byte	0x25
 3367 0493 43010000 		.4byte	.LLST6
 3368 0497 11       		.uleb128 0x11
 3369 0498 10000000 		.4byte	.LBB2
 3370 049c 12000000 		.4byte	.LBE2-.LBB2
 3371 04a0 EC040000 		.4byte	0x4ec
 3372 04a4 12       		.uleb128 0x12
 3373 04a5 71050000 		.4byte	.LASF34
 3374 04a9 01       		.byte	0x1
 3375 04aa 5501     		.2byte	0x155
 3376 04ac 6F000000 		.4byte	0x6f
 3377 04b0 B6040000 		.4byte	0x4b6
 3378 04b4 13       		.uleb128 0x13
 3379 04b5 00       		.byte	0
 3380 04b6 08       		.uleb128 0x8
 3381 04b7 16000000 		.4byte	.LVL77
 3382 04bb 94150000 		.4byte	0x1594
 3383 04bf C9040000 		.4byte	0x4c9
 3384 04c3 09       		.uleb128 0x9
ARM GAS  C:\Users\weiro\AppData\Local\Temp\cc9naSHk.s 			page 80


 3385 04c4 01       		.uleb128 0x1
 3386 04c5 50       		.byte	0x50
 3387 04c6 01       		.uleb128 0x1
 3388 04c7 31       		.byte	0x31
 3389 04c8 00       		.byte	0
 3390 04c9 08       		.uleb128 0x8
 3391 04ca 1C000000 		.4byte	.LVL78
 3392 04ce 05150000 		.4byte	0x1505
 3393 04d2 DC040000 		.4byte	0x4dc
 3394 04d6 09       		.uleb128 0x9
 3395 04d7 01       		.uleb128 0x1
 3396 04d8 50       		.byte	0x50
 3397 04d9 01       		.uleb128 0x1
 3398 04da 3A       		.byte	0x3a
 3399 04db 00       		.byte	0
 3400 04dc 0A       		.uleb128 0xa
 3401 04dd 22000000 		.4byte	.LVL79
 3402 04e1 94150000 		.4byte	0x1594
 3403 04e5 09       		.uleb128 0x9
 3404 04e6 01       		.uleb128 0x1
 3405 04e7 50       		.byte	0x50
 3406 04e8 01       		.uleb128 0x1
 3407 04e9 30       		.byte	0x30
 3408 04ea 00       		.byte	0
 3409 04eb 00       		.byte	0
 3410 04ec 06       		.uleb128 0x6
 3411 04ed 08000000 		.4byte	.LVL75
 3412 04f1 F9010000 		.4byte	0x1f9
 3413 04f5 08       		.uleb128 0x8
 3414 04f6 0E000000 		.4byte	.LVL76
 3415 04fa E4140000 		.4byte	0x14e4
 3416 04fe 09050000 		.4byte	0x509
 3417 0502 09       		.uleb128 0x9
 3418 0503 01       		.uleb128 0x1
 3419 0504 50       		.byte	0x50
 3420 0505 02       		.uleb128 0x2
 3421 0506 08       		.byte	0x8
 3422 0507 32       		.byte	0x32
 3423 0508 00       		.byte	0
 3424 0509 06       		.uleb128 0x6
 3425 050a 26000000 		.4byte	.LVL80
 3426 050e A0150000 		.4byte	0x15a0
 3427 0512 06       		.uleb128 0x6
 3428 0513 36000000 		.4byte	.LVL81
 3429 0517 97010000 		.4byte	0x197
 3430 051b 06       		.uleb128 0x6
 3431 051c 3A000000 		.4byte	.LVL82
 3432 0520 7E150000 		.4byte	0x157e
 3433 0524 06       		.uleb128 0x6
 3434 0525 40000000 		.4byte	.LVL83
 3435 0529 89150000 		.4byte	0x1589
 3436 052d 06       		.uleb128 0x6
 3437 052e D2000000 		.4byte	.LVL102
 3438 0532 79030000 		.4byte	0x379
 3439 0536 00       		.byte	0
 3440 0537 10       		.uleb128 0x10
 3441 0538 A9020000 		.4byte	.LASF33
ARM GAS  C:\Users\weiro\AppData\Local\Temp\cc9naSHk.s 			page 81


 3442 053c 01       		.byte	0x1
 3443 053d 7301     		.2byte	0x173
 3444 053f 00000000 		.4byte	.LFB76
 3445 0543 18010000 		.4byte	.LFE76-.LFB76
 3446 0547 01       		.uleb128 0x1
 3447 0548 9C       		.byte	0x9c
 3448 0549 36060000 		.4byte	0x636
 3449 054d 0F       		.uleb128 0xf
 3450 054e EF070000 		.4byte	.LASF29
 3451 0552 01       		.byte	0x1
 3452 0553 7501     		.2byte	0x175
 3453 0555 25000000 		.4byte	0x25
 3454 0559 8B010000 		.4byte	.LLST7
 3455 055d 0F       		.uleb128 0xf
 3456 055e 08060000 		.4byte	.LASF30
 3457 0562 01       		.byte	0x1
 3458 0563 7501     		.2byte	0x175
 3459 0565 25000000 		.4byte	0x25
 3460 0569 D3010000 		.4byte	.LLST8
 3461 056d 11       		.uleb128 0x11
 3462 056e 32000000 		.4byte	.LBB3
 3463 0572 12000000 		.4byte	.LBE3-.LBB3
 3464 0576 C2050000 		.4byte	0x5c2
 3465 057a 12       		.uleb128 0x12
 3466 057b C3080000 		.4byte	.LASF35
 3467 057f 01       		.byte	0x1
 3468 0580 7F01     		.2byte	0x17f
 3469 0582 6F000000 		.4byte	0x6f
 3470 0586 8C050000 		.4byte	0x58c
 3471 058a 13       		.uleb128 0x13
 3472 058b 00       		.byte	0
 3473 058c 08       		.uleb128 0x8
 3474 058d 38000000 		.4byte	.LVL107
 3475 0591 AB150000 		.4byte	0x15ab
 3476 0595 9F050000 		.4byte	0x59f
 3477 0599 09       		.uleb128 0x9
 3478 059a 01       		.uleb128 0x1
 3479 059b 50       		.byte	0x50
 3480 059c 01       		.uleb128 0x1
 3481 059d 31       		.byte	0x31
 3482 059e 00       		.byte	0
 3483 059f 08       		.uleb128 0x8
 3484 05a0 3E000000 		.4byte	.LVL108
 3485 05a4 05150000 		.4byte	0x1505
 3486 05a8 B2050000 		.4byte	0x5b2
 3487 05ac 09       		.uleb128 0x9
 3488 05ad 01       		.uleb128 0x1
 3489 05ae 50       		.byte	0x50
 3490 05af 01       		.uleb128 0x1
 3491 05b0 3A       		.byte	0x3a
 3492 05b1 00       		.byte	0
 3493 05b2 0A       		.uleb128 0xa
 3494 05b3 44000000 		.4byte	.LVL109
 3495 05b7 AB150000 		.4byte	0x15ab
 3496 05bb 09       		.uleb128 0x9
 3497 05bc 01       		.uleb128 0x1
 3498 05bd 50       		.byte	0x50
ARM GAS  C:\Users\weiro\AppData\Local\Temp\cc9naSHk.s 			page 82


 3499 05be 01       		.uleb128 0x1
 3500 05bf 30       		.byte	0x30
 3501 05c0 00       		.byte	0
 3502 05c1 00       		.byte	0
 3503 05c2 08       		.uleb128 0x8
 3504 05c3 0A000000 		.4byte	.LVL103
 3505 05c7 E4140000 		.4byte	0x14e4
 3506 05cb D7050000 		.4byte	0x5d7
 3507 05cf 09       		.uleb128 0x9
 3508 05d0 01       		.uleb128 0x1
 3509 05d1 50       		.byte	0x50
 3510 05d2 03       		.uleb128 0x3
 3511 05d3 0A       		.byte	0xa
 3512 05d4 F401     		.2byte	0x1f4
 3513 05d6 00       		.byte	0
 3514 05d7 06       		.uleb128 0x6
 3515 05d8 10000000 		.4byte	.LVL104
 3516 05dc F9010000 		.4byte	0x1f9
 3517 05e0 08       		.uleb128 0x8
 3518 05e1 2A000000 		.4byte	.LVL105
 3519 05e5 B7150000 		.4byte	0x15b7
 3520 05e9 F4050000 		.4byte	0x5f4
 3521 05ed 09       		.uleb128 0x9
 3522 05ee 01       		.uleb128 0x1
 3523 05ef 50       		.byte	0x50
 3524 05f0 02       		.uleb128 0x2
 3525 05f1 74       		.byte	0x74
 3526 05f2 00       		.sleb128 0
 3527 05f3 00       		.byte	0
 3528 05f4 08       		.uleb128 0x8
 3529 05f5 30000000 		.4byte	.LVL106
 3530 05f9 E4140000 		.4byte	0x14e4
 3531 05fd 08060000 		.4byte	0x608
 3532 0601 09       		.uleb128 0x9
 3533 0602 01       		.uleb128 0x1
 3534 0603 50       		.byte	0x50
 3535 0604 02       		.uleb128 0x2
 3536 0605 08       		.byte	0x8
 3537 0606 64       		.byte	0x64
 3538 0607 00       		.byte	0
 3539 0608 06       		.uleb128 0x6
 3540 0609 48000000 		.4byte	.LVL110
 3541 060d C2150000 		.4byte	0x15c2
 3542 0611 06       		.uleb128 0x6
 3543 0612 58000000 		.4byte	.LVL111
 3544 0616 97010000 		.4byte	0x197
 3545 061a 06       		.uleb128 0x6
 3546 061b 5C000000 		.4byte	.LVL112
 3547 061f 7E150000 		.4byte	0x157e
 3548 0623 06       		.uleb128 0x6
 3549 0624 62000000 		.4byte	.LVL113
 3550 0628 89150000 		.4byte	0x1589
 3551 062c 06       		.uleb128 0x6
 3552 062d F4000000 		.4byte	.LVL132
 3553 0631 79030000 		.4byte	0x379
 3554 0635 00       		.byte	0
 3555 0636 10       		.uleb128 0x10
ARM GAS  C:\Users\weiro\AppData\Local\Temp\cc9naSHk.s 			page 83


 3556 0637 75060000 		.4byte	.LASF36
 3557 063b 01       		.byte	0x1
 3558 063c 9D01     		.2byte	0x19d
 3559 063e 00000000 		.4byte	.LFB77
 3560 0642 D8000000 		.4byte	.LFE77-.LFB77
 3561 0646 01       		.uleb128 0x1
 3562 0647 9C       		.byte	0x9c
 3563 0648 B8060000 		.4byte	0x6b8
 3564 064c 0F       		.uleb128 0xf
 3565 064d EF070000 		.4byte	.LASF29
 3566 0651 01       		.byte	0x1
 3567 0652 9F01     		.2byte	0x19f
 3568 0654 25000000 		.4byte	0x25
 3569 0658 1B020000 		.4byte	.LLST9
 3570 065c 0F       		.uleb128 0xf
 3571 065d 08060000 		.4byte	.LASF30
 3572 0661 01       		.byte	0x1
 3573 0662 9F01     		.2byte	0x19f
 3574 0664 25000000 		.4byte	0x25
 3575 0668 63020000 		.4byte	.LLST10
 3576 066c 06       		.uleb128 0x6
 3577 066d 08000000 		.4byte	.LVL133
 3578 0671 F9010000 		.4byte	0x1f9
 3579 0675 06       		.uleb128 0x6
 3580 0676 0C000000 		.4byte	.LVL134
 3581 067a CD150000 		.4byte	0x15cd
 3582 067e 06       		.uleb128 0x6
 3583 067f 14000000 		.4byte	.LVL135
 3584 0683 97010000 		.4byte	0x197
 3585 0687 08       		.uleb128 0x8
 3586 0688 1C000000 		.4byte	.LVL136
 3587 068c E4140000 		.4byte	0x14e4
 3588 0690 9C060000 		.4byte	0x69c
 3589 0694 09       		.uleb128 0x9
 3590 0695 01       		.uleb128 0x1
 3591 0696 50       		.byte	0x50
 3592 0697 03       		.uleb128 0x3
 3593 0698 0A       		.byte	0xa
 3594 0699 F401     		.2byte	0x1f4
 3595 069b 00       		.byte	0
 3596 069c 06       		.uleb128 0x6
 3597 069d 20000000 		.4byte	.LVL137
 3598 06a1 7E150000 		.4byte	0x157e
 3599 06a5 06       		.uleb128 0x6
 3600 06a6 26000000 		.4byte	.LVL138
 3601 06aa 89150000 		.4byte	0x1589
 3602 06ae 06       		.uleb128 0x6
 3603 06af B8000000 		.4byte	.LVL157
 3604 06b3 79030000 		.4byte	0x379
 3605 06b7 00       		.byte	0
 3606 06b8 14       		.uleb128 0x14
 3607 06b9 435700   		.ascii	"CW\000"
 3608 06bc 01       		.byte	0x1
 3609 06bd 6202     		.2byte	0x262
 3610 06bf 00000000 		.4byte	.LFB78
 3611 06c3 80000000 		.4byte	.LFE78-.LFB78
 3612 06c7 01       		.uleb128 0x1
ARM GAS  C:\Users\weiro\AppData\Local\Temp\cc9naSHk.s 			page 84


 3613 06c8 9C       		.byte	0x9c
 3614 06c9 24070000 		.4byte	0x724
 3615 06cd 0E       		.uleb128 0xe
 3616 06ce 0A020000 		.4byte	.LASF37
 3617 06d2 01       		.byte	0x1
 3618 06d3 6202     		.2byte	0x262
 3619 06d5 6F000000 		.4byte	0x6f
 3620 06d9 AB020000 		.4byte	.LLST11
 3621 06dd 0E       		.uleb128 0xe
 3622 06de C7040000 		.4byte	.LASF38
 3623 06e2 01       		.byte	0x1
 3624 06e3 6202     		.2byte	0x262
 3625 06e5 6F000000 		.4byte	0x6f
 3626 06e9 D7020000 		.4byte	.LLST12
 3627 06ed 06       		.uleb128 0x6
 3628 06ee 0C000000 		.4byte	.LVL160
 3629 06f2 7E150000 		.4byte	0x157e
 3630 06f6 06       		.uleb128 0x6
 3631 06f7 14000000 		.4byte	.LVL161
 3632 06fb 89150000 		.4byte	0x1589
 3633 06ff 06       		.uleb128 0x6
 3634 0700 1E000000 		.4byte	.LVL162
 3635 0704 19030000 		.4byte	0x319
 3636 0708 06       		.uleb128 0x6
 3637 0709 24000000 		.4byte	.LVL163
 3638 070d B9020000 		.4byte	0x2b9
 3639 0711 06       		.uleb128 0x6
 3640 0712 44000000 		.4byte	.LVL164
 3641 0716 97010000 		.4byte	0x197
 3642 071a 06       		.uleb128 0x6
 3643 071b 78000000 		.4byte	.LVL165
 3644 071f 79030000 		.4byte	0x379
 3645 0723 00       		.byte	0
 3646 0724 0C       		.uleb128 0xc
 3647 0725 CA060000 		.4byte	.LASF39
 3648 0729 01       		.byte	0x1
 3649 072a 8B02     		.2byte	0x28b
 3650 072c 00000000 		.4byte	.LFB79
 3651 0730 B0010000 		.4byte	.LFE79-.LFB79
 3652 0734 01       		.uleb128 0x1
 3653 0735 9C       		.byte	0x9c
 3654 0736 B90A0000 		.4byte	0xab9
 3655 073a 0F       		.uleb128 0xf
 3656 073b 5A010000 		.4byte	.LASF40
 3657 073f 01       		.byte	0x1
 3658 0740 8D02     		.2byte	0x28d
 3659 0742 6F000000 		.4byte	0x6f
 3660 0746 03030000 		.4byte	.LLST13
 3661 074a 15       		.uleb128 0x15
 3662 074b F8010000 		.4byte	.LASF41
 3663 074f 01       		.byte	0x1
 3664 0750 8F02     		.2byte	0x28f
 3665 0752 6F000000 		.4byte	0x6f
 3666 0756 00       		.byte	0
 3667 0757 08       		.uleb128 0x8
 3668 0758 08000000 		.4byte	.LVL168
 3669 075c D8150000 		.4byte	0x15d8
ARM GAS  C:\Users\weiro\AppData\Local\Temp\cc9naSHk.s 			page 85


 3670 0760 6A070000 		.4byte	0x76a
 3671 0764 09       		.uleb128 0x9
 3672 0765 01       		.uleb128 0x1
 3673 0766 50       		.byte	0x50
 3674 0767 01       		.uleb128 0x1
 3675 0768 31       		.byte	0x31
 3676 0769 00       		.byte	0
 3677 076a 08       		.uleb128 0x8
 3678 076b 0E000000 		.4byte	.LVL169
 3679 076f E3150000 		.4byte	0x15e3
 3680 0773 7D070000 		.4byte	0x77d
 3681 0777 09       		.uleb128 0x9
 3682 0778 01       		.uleb128 0x1
 3683 0779 50       		.byte	0x50
 3684 077a 01       		.uleb128 0x1
 3685 077b 31       		.byte	0x31
 3686 077c 00       		.byte	0
 3687 077d 08       		.uleb128 0x8
 3688 077e 14000000 		.4byte	.LVL170
 3689 0782 EE150000 		.4byte	0x15ee
 3690 0786 90070000 		.4byte	0x790
 3691 078a 09       		.uleb128 0x9
 3692 078b 01       		.uleb128 0x1
 3693 078c 50       		.byte	0x50
 3694 078d 01       		.uleb128 0x1
 3695 078e 31       		.byte	0x31
 3696 078f 00       		.byte	0
 3697 0790 08       		.uleb128 0x8
 3698 0791 1A000000 		.4byte	.LVL171
 3699 0795 E4140000 		.4byte	0x14e4
 3700 0799 A3070000 		.4byte	0x7a3
 3701 079d 09       		.uleb128 0x9
 3702 079e 01       		.uleb128 0x1
 3703 079f 50       		.byte	0x50
 3704 07a0 01       		.uleb128 0x1
 3705 07a1 3A       		.byte	0x3a
 3706 07a2 00       		.byte	0
 3707 07a3 06       		.uleb128 0x6
 3708 07a4 1E000000 		.4byte	.LVL172
 3709 07a8 F9150000 		.4byte	0x15f9
 3710 07ac 08       		.uleb128 0x8
 3711 07ad 2A000000 		.4byte	.LVL173
 3712 07b1 04160000 		.4byte	0x1604
 3713 07b5 C0070000 		.4byte	0x7c0
 3714 07b9 09       		.uleb128 0x9
 3715 07ba 01       		.uleb128 0x1
 3716 07bb 50       		.byte	0x50
 3717 07bc 02       		.uleb128 0x2
 3718 07bd 74       		.byte	0x74
 3719 07be 00       		.sleb128 0
 3720 07bf 00       		.byte	0
 3721 07c0 08       		.uleb128 0x8
 3722 07c1 30000000 		.4byte	.LVL174
 3723 07c5 0F160000 		.4byte	0x160f
 3724 07c9 D4070000 		.4byte	0x7d4
 3725 07cd 09       		.uleb128 0x9
 3726 07ce 01       		.uleb128 0x1
ARM GAS  C:\Users\weiro\AppData\Local\Temp\cc9naSHk.s 			page 86


 3727 07cf 50       		.byte	0x50
 3728 07d0 02       		.uleb128 0x2
 3729 07d1 74       		.byte	0x74
 3730 07d2 00       		.sleb128 0
 3731 07d3 00       		.byte	0
 3732 07d4 08       		.uleb128 0x8
 3733 07d5 36000000 		.4byte	.LVL175
 3734 07d9 E4140000 		.4byte	0x14e4
 3735 07dd E7070000 		.4byte	0x7e7
 3736 07e1 09       		.uleb128 0x9
 3737 07e2 01       		.uleb128 0x1
 3738 07e3 50       		.byte	0x50
 3739 07e4 01       		.uleb128 0x1
 3740 07e5 44       		.byte	0x44
 3741 07e6 00       		.byte	0
 3742 07e7 08       		.uleb128 0x8
 3743 07e8 3C000000 		.4byte	.LVL176
 3744 07ec 1A160000 		.4byte	0x161a
 3745 07f0 FA070000 		.4byte	0x7fa
 3746 07f4 09       		.uleb128 0x9
 3747 07f5 01       		.uleb128 0x1
 3748 07f6 50       		.byte	0x50
 3749 07f7 01       		.uleb128 0x1
 3750 07f8 31       		.byte	0x31
 3751 07f9 00       		.byte	0
 3752 07fa 08       		.uleb128 0x8
 3753 07fb 42000000 		.4byte	.LVL177
 3754 07ff E4140000 		.4byte	0x14e4
 3755 0803 0D080000 		.4byte	0x80d
 3756 0807 09       		.uleb128 0x9
 3757 0808 01       		.uleb128 0x1
 3758 0809 50       		.byte	0x50
 3759 080a 01       		.uleb128 0x1
 3760 080b 31       		.byte	0x31
 3761 080c 00       		.byte	0
 3762 080d 08       		.uleb128 0x8
 3763 080e 48000000 		.4byte	.LVL178
 3764 0812 1A160000 		.4byte	0x161a
 3765 0816 21080000 		.4byte	0x821
 3766 081a 09       		.uleb128 0x9
 3767 081b 01       		.uleb128 0x1
 3768 081c 50       		.byte	0x50
 3769 081d 02       		.uleb128 0x2
 3770 081e 74       		.byte	0x74
 3771 081f 00       		.sleb128 0
 3772 0820 00       		.byte	0
 3773 0821 06       		.uleb128 0x6
 3774 0822 54000000 		.4byte	.LVL179
 3775 0826 25160000 		.4byte	0x1625
 3776 082a 08       		.uleb128 0x8
 3777 082b 64000000 		.4byte	.LVL180
 3778 082f 26150000 		.4byte	0x1526
 3779 0833 47080000 		.4byte	0x847
 3780 0837 09       		.uleb128 0x9
 3781 0838 01       		.uleb128 0x1
 3782 0839 50       		.byte	0x50
 3783 083a 02       		.uleb128 0x2
ARM GAS  C:\Users\weiro\AppData\Local\Temp\cc9naSHk.s 			page 87


 3784 083b 74       		.byte	0x74
 3785 083c 00       		.sleb128 0
 3786 083d 09       		.uleb128 0x9
 3787 083e 01       		.uleb128 0x1
 3788 083f 51       		.byte	0x51
 3789 0840 05       		.uleb128 0x5
 3790 0841 03       		.byte	0x3
 3791 0842 24000000 		.4byte	.LC2
 3792 0846 00       		.byte	0
 3793 0847 08       		.uleb128 0x8
 3794 0848 6A000000 		.4byte	.LVL181
 3795 084c B7150000 		.4byte	0x15b7
 3796 0850 5B080000 		.4byte	0x85b
 3797 0854 09       		.uleb128 0x9
 3798 0855 01       		.uleb128 0x1
 3799 0856 50       		.byte	0x50
 3800 0857 02       		.uleb128 0x2
 3801 0858 74       		.byte	0x74
 3802 0859 00       		.sleb128 0
 3803 085a 00       		.byte	0
 3804 085b 06       		.uleb128 0x6
 3805 085c 6E000000 		.4byte	.LVL182
 3806 0860 30160000 		.4byte	0x1630
 3807 0864 08       		.uleb128 0x8
 3808 0865 74000000 		.4byte	.LVL183
 3809 0869 E4140000 		.4byte	0x14e4
 3810 086d 78080000 		.4byte	0x878
 3811 0871 09       		.uleb128 0x9
 3812 0872 01       		.uleb128 0x1
 3813 0873 50       		.byte	0x50
 3814 0874 02       		.uleb128 0x2
 3815 0875 08       		.byte	0x8
 3816 0876 64       		.byte	0x64
 3817 0877 00       		.byte	0
 3818 0878 06       		.uleb128 0x6
 3819 0879 78000000 		.4byte	.LVL184
 3820 087d F9150000 		.4byte	0x15f9
 3821 0881 08       		.uleb128 0x8
 3822 0882 82000000 		.4byte	.LVL185
 3823 0886 04160000 		.4byte	0x1604
 3824 088a 94080000 		.4byte	0x894
 3825 088e 09       		.uleb128 0x9
 3826 088f 01       		.uleb128 0x1
 3827 0890 50       		.byte	0x50
 3828 0891 01       		.uleb128 0x1
 3829 0892 31       		.byte	0x31
 3830 0893 00       		.byte	0
 3831 0894 08       		.uleb128 0x8
 3832 0895 88000000 		.4byte	.LVL186
 3833 0899 0F160000 		.4byte	0x160f
 3834 089d A7080000 		.4byte	0x8a7
 3835 08a1 09       		.uleb128 0x9
 3836 08a2 01       		.uleb128 0x1
 3837 08a3 50       		.byte	0x50
 3838 08a4 01       		.uleb128 0x1
 3839 08a5 31       		.byte	0x31
 3840 08a6 00       		.byte	0
ARM GAS  C:\Users\weiro\AppData\Local\Temp\cc9naSHk.s 			page 88


 3841 08a7 08       		.uleb128 0x8
 3842 08a8 8E000000 		.4byte	.LVL187
 3843 08ac E4140000 		.4byte	0x14e4
 3844 08b0 BA080000 		.4byte	0x8ba
 3845 08b4 09       		.uleb128 0x9
 3846 08b5 01       		.uleb128 0x1
 3847 08b6 50       		.byte	0x50
 3848 08b7 01       		.uleb128 0x1
 3849 08b8 44       		.byte	0x44
 3850 08b9 00       		.byte	0
 3851 08ba 08       		.uleb128 0x8
 3852 08bb 94000000 		.4byte	.LVL188
 3853 08bf 1A160000 		.4byte	0x161a
 3854 08c3 CD080000 		.4byte	0x8cd
 3855 08c7 09       		.uleb128 0x9
 3856 08c8 01       		.uleb128 0x1
 3857 08c9 50       		.byte	0x50
 3858 08ca 01       		.uleb128 0x1
 3859 08cb 31       		.byte	0x31
 3860 08cc 00       		.byte	0
 3861 08cd 08       		.uleb128 0x8
 3862 08ce 9A000000 		.4byte	.LVL189
 3863 08d2 E4140000 		.4byte	0x14e4
 3864 08d6 E0080000 		.4byte	0x8e0
 3865 08da 09       		.uleb128 0x9
 3866 08db 01       		.uleb128 0x1
 3867 08dc 50       		.byte	0x50
 3868 08dd 01       		.uleb128 0x1
 3869 08de 31       		.byte	0x31
 3870 08df 00       		.byte	0
 3871 08e0 08       		.uleb128 0x8
 3872 08e1 A0000000 		.4byte	.LVL190
 3873 08e5 1A160000 		.4byte	0x161a
 3874 08e9 F4080000 		.4byte	0x8f4
 3875 08ed 09       		.uleb128 0x9
 3876 08ee 01       		.uleb128 0x1
 3877 08ef 50       		.byte	0x50
 3878 08f0 02       		.uleb128 0x2
 3879 08f1 74       		.byte	0x74
 3880 08f2 00       		.sleb128 0
 3881 08f3 00       		.byte	0
 3882 08f4 06       		.uleb128 0x6
 3883 08f5 AC000000 		.4byte	.LVL191
 3884 08f9 25160000 		.4byte	0x1625
 3885 08fd 08       		.uleb128 0x8
 3886 08fe BC000000 		.4byte	.LVL192
 3887 0902 26150000 		.4byte	0x1526
 3888 0906 1A090000 		.4byte	0x91a
 3889 090a 09       		.uleb128 0x9
 3890 090b 01       		.uleb128 0x1
 3891 090c 50       		.byte	0x50
 3892 090d 02       		.uleb128 0x2
 3893 090e 74       		.byte	0x74
 3894 090f 00       		.sleb128 0
 3895 0910 09       		.uleb128 0x9
 3896 0911 01       		.uleb128 0x1
 3897 0912 51       		.byte	0x51
ARM GAS  C:\Users\weiro\AppData\Local\Temp\cc9naSHk.s 			page 89


 3898 0913 05       		.uleb128 0x5
 3899 0914 03       		.byte	0x3
 3900 0915 30000000 		.4byte	.LC3
 3901 0919 00       		.byte	0
 3902 091a 08       		.uleb128 0x8
 3903 091b C2000000 		.4byte	.LVL193
 3904 091f B7150000 		.4byte	0x15b7
 3905 0923 2E090000 		.4byte	0x92e
 3906 0927 09       		.uleb128 0x9
 3907 0928 01       		.uleb128 0x1
 3908 0929 50       		.byte	0x50
 3909 092a 02       		.uleb128 0x2
 3910 092b 74       		.byte	0x74
 3911 092c 00       		.sleb128 0
 3912 092d 00       		.byte	0
 3913 092e 06       		.uleb128 0x6
 3914 092f C6000000 		.4byte	.LVL194
 3915 0933 30160000 		.4byte	0x1630
 3916 0937 08       		.uleb128 0x8
 3917 0938 CC000000 		.4byte	.LVL195
 3918 093c E4140000 		.4byte	0x14e4
 3919 0940 4B090000 		.4byte	0x94b
 3920 0944 09       		.uleb128 0x9
 3921 0945 01       		.uleb128 0x1
 3922 0946 50       		.byte	0x50
 3923 0947 02       		.uleb128 0x2
 3924 0948 08       		.byte	0x8
 3925 0949 64       		.byte	0x64
 3926 094a 00       		.byte	0
 3927 094b 06       		.uleb128 0x6
 3928 094c D0000000 		.4byte	.LVL196
 3929 0950 F9150000 		.4byte	0x15f9
 3930 0954 08       		.uleb128 0x8
 3931 0955 DA000000 		.4byte	.LVL197
 3932 0959 04160000 		.4byte	0x1604
 3933 095d 68090000 		.4byte	0x968
 3934 0961 09       		.uleb128 0x9
 3935 0962 01       		.uleb128 0x1
 3936 0963 50       		.byte	0x50
 3937 0964 02       		.uleb128 0x2
 3938 0965 74       		.byte	0x74
 3939 0966 00       		.sleb128 0
 3940 0967 00       		.byte	0
 3941 0968 08       		.uleb128 0x8
 3942 0969 E0000000 		.4byte	.LVL198
 3943 096d 0F160000 		.4byte	0x160f
 3944 0971 7B090000 		.4byte	0x97b
 3945 0975 09       		.uleb128 0x9
 3946 0976 01       		.uleb128 0x1
 3947 0977 50       		.byte	0x50
 3948 0978 01       		.uleb128 0x1
 3949 0979 31       		.byte	0x31
 3950 097a 00       		.byte	0
 3951 097b 08       		.uleb128 0x8
 3952 097c E6000000 		.4byte	.LVL199
 3953 0980 E4140000 		.4byte	0x14e4
 3954 0984 8E090000 		.4byte	0x98e
ARM GAS  C:\Users\weiro\AppData\Local\Temp\cc9naSHk.s 			page 90


 3955 0988 09       		.uleb128 0x9
 3956 0989 01       		.uleb128 0x1
 3957 098a 50       		.byte	0x50
 3958 098b 01       		.uleb128 0x1
 3959 098c 44       		.byte	0x44
 3960 098d 00       		.byte	0
 3961 098e 08       		.uleb128 0x8
 3962 098f EC000000 		.4byte	.LVL200
 3963 0993 1A160000 		.4byte	0x161a
 3964 0997 A1090000 		.4byte	0x9a1
 3965 099b 09       		.uleb128 0x9
 3966 099c 01       		.uleb128 0x1
 3967 099d 50       		.byte	0x50
 3968 099e 01       		.uleb128 0x1
 3969 099f 31       		.byte	0x31
 3970 09a0 00       		.byte	0
 3971 09a1 08       		.uleb128 0x8
 3972 09a2 F2000000 		.4byte	.LVL201
 3973 09a6 E4140000 		.4byte	0x14e4
 3974 09aa B4090000 		.4byte	0x9b4
 3975 09ae 09       		.uleb128 0x9
 3976 09af 01       		.uleb128 0x1
 3977 09b0 50       		.byte	0x50
 3978 09b1 01       		.uleb128 0x1
 3979 09b2 31       		.byte	0x31
 3980 09b3 00       		.byte	0
 3981 09b4 08       		.uleb128 0x8
 3982 09b5 F8000000 		.4byte	.LVL202
 3983 09b9 1A160000 		.4byte	0x161a
 3984 09bd C8090000 		.4byte	0x9c8
 3985 09c1 09       		.uleb128 0x9
 3986 09c2 01       		.uleb128 0x1
 3987 09c3 50       		.byte	0x50
 3988 09c4 02       		.uleb128 0x2
 3989 09c5 74       		.byte	0x74
 3990 09c6 00       		.sleb128 0
 3991 09c7 00       		.byte	0
 3992 09c8 06       		.uleb128 0x6
 3993 09c9 04010000 		.4byte	.LVL203
 3994 09cd 25160000 		.4byte	0x1625
 3995 09d1 08       		.uleb128 0x8
 3996 09d2 14010000 		.4byte	.LVL204
 3997 09d6 26150000 		.4byte	0x1526
 3998 09da EE090000 		.4byte	0x9ee
 3999 09de 09       		.uleb128 0x9
 4000 09df 01       		.uleb128 0x1
 4001 09e0 50       		.byte	0x50
 4002 09e1 02       		.uleb128 0x2
 4003 09e2 75       		.byte	0x75
 4004 09e3 00       		.sleb128 0
 4005 09e4 09       		.uleb128 0x9
 4006 09e5 01       		.uleb128 0x1
 4007 09e6 51       		.byte	0x51
 4008 09e7 05       		.uleb128 0x5
 4009 09e8 03       		.byte	0x3
 4010 09e9 3C000000 		.4byte	.LC4
 4011 09ed 00       		.byte	0
ARM GAS  C:\Users\weiro\AppData\Local\Temp\cc9naSHk.s 			page 91


 4012 09ee 08       		.uleb128 0x8
 4013 09ef 1A010000 		.4byte	.LVL205
 4014 09f3 B7150000 		.4byte	0x15b7
 4015 09f7 020A0000 		.4byte	0xa02
 4016 09fb 09       		.uleb128 0x9
 4017 09fc 01       		.uleb128 0x1
 4018 09fd 50       		.byte	0x50
 4019 09fe 02       		.uleb128 0x2
 4020 09ff 75       		.byte	0x75
 4021 0a00 00       		.sleb128 0
 4022 0a01 00       		.byte	0
 4023 0a02 06       		.uleb128 0x6
 4024 0a03 1E010000 		.4byte	.LVL206
 4025 0a07 30160000 		.4byte	0x1630
 4026 0a0b 08       		.uleb128 0x8
 4027 0a0c 34010000 		.4byte	.LVL207
 4028 0a10 3B160000 		.4byte	0x163b
 4029 0a14 1E0A0000 		.4byte	0xa1e
 4030 0a18 09       		.uleb128 0x9
 4031 0a19 01       		.uleb128 0x1
 4032 0a1a 50       		.byte	0x50
 4033 0a1b 01       		.uleb128 0x1
 4034 0a1c 31       		.byte	0x31
 4035 0a1d 00       		.byte	0
 4036 0a1e 08       		.uleb128 0x8
 4037 0a1f 3C010000 		.4byte	.LVL208
 4038 0a23 E4140000 		.4byte	0x14e4
 4039 0a27 330A0000 		.4byte	0xa33
 4040 0a2b 09       		.uleb128 0x9
 4041 0a2c 01       		.uleb128 0x1
 4042 0a2d 50       		.byte	0x50
 4043 0a2e 03       		.uleb128 0x3
 4044 0a2f 0A       		.byte	0xa
 4045 0a30 E803     		.2byte	0x3e8
 4046 0a32 00       		.byte	0
 4047 0a33 08       		.uleb128 0x8
 4048 0a34 42010000 		.4byte	.LVL209
 4049 0a38 3B160000 		.4byte	0x163b
 4050 0a3c 460A0000 		.4byte	0xa46
 4051 0a40 09       		.uleb128 0x9
 4052 0a41 01       		.uleb128 0x1
 4053 0a42 50       		.byte	0x50
 4054 0a43 01       		.uleb128 0x1
 4055 0a44 30       		.byte	0x30
 4056 0a45 00       		.byte	0
 4057 0a46 08       		.uleb128 0x8
 4058 0a47 60010000 		.4byte	.LVL210
 4059 0a4b 46160000 		.4byte	0x1646
 4060 0a4f 590A0000 		.4byte	0xa59
 4061 0a53 09       		.uleb128 0x9
 4062 0a54 01       		.uleb128 0x1
 4063 0a55 50       		.byte	0x50
 4064 0a56 01       		.uleb128 0x1
 4065 0a57 31       		.byte	0x31
 4066 0a58 00       		.byte	0
 4067 0a59 08       		.uleb128 0x8
 4068 0a5a 68010000 		.4byte	.LVL211
ARM GAS  C:\Users\weiro\AppData\Local\Temp\cc9naSHk.s 			page 92


 4069 0a5e E4140000 		.4byte	0x14e4
 4070 0a62 6E0A0000 		.4byte	0xa6e
 4071 0a66 09       		.uleb128 0x9
 4072 0a67 01       		.uleb128 0x1
 4073 0a68 50       		.byte	0x50
 4074 0a69 03       		.uleb128 0x3
 4075 0a6a 0A       		.byte	0xa
 4076 0a6b E803     		.2byte	0x3e8
 4077 0a6d 00       		.byte	0
 4078 0a6e 08       		.uleb128 0x8
 4079 0a6f 6E010000 		.4byte	.LVL212
 4080 0a73 46160000 		.4byte	0x1646
 4081 0a77 810A0000 		.4byte	0xa81
 4082 0a7b 09       		.uleb128 0x9
 4083 0a7c 01       		.uleb128 0x1
 4084 0a7d 50       		.byte	0x50
 4085 0a7e 01       		.uleb128 0x1
 4086 0a7f 30       		.byte	0x30
 4087 0a80 00       		.byte	0
 4088 0a81 08       		.uleb128 0x8
 4089 0a82 8C010000 		.4byte	.LVL213
 4090 0a86 51160000 		.4byte	0x1651
 4091 0a8a 940A0000 		.4byte	0xa94
 4092 0a8e 09       		.uleb128 0x9
 4093 0a8f 01       		.uleb128 0x1
 4094 0a90 50       		.byte	0x50
 4095 0a91 01       		.uleb128 0x1
 4096 0a92 31       		.byte	0x31
 4097 0a93 00       		.byte	0
 4098 0a94 08       		.uleb128 0x8
 4099 0a95 94010000 		.4byte	.LVL214
 4100 0a99 E4140000 		.4byte	0x14e4
 4101 0a9d A90A0000 		.4byte	0xaa9
 4102 0aa1 09       		.uleb128 0x9
 4103 0aa2 01       		.uleb128 0x1
 4104 0aa3 50       		.byte	0x50
 4105 0aa4 03       		.uleb128 0x3
 4106 0aa5 0A       		.byte	0xa
 4107 0aa6 E803     		.2byte	0x3e8
 4108 0aa8 00       		.byte	0
 4109 0aa9 0A       		.uleb128 0xa
 4110 0aaa 9A010000 		.4byte	.LVL215
 4111 0aae 51160000 		.4byte	0x1651
 4112 0ab2 09       		.uleb128 0x9
 4113 0ab3 01       		.uleb128 0x1
 4114 0ab4 50       		.byte	0x50
 4115 0ab5 01       		.uleb128 0x1
 4116 0ab6 30       		.byte	0x30
 4117 0ab7 00       		.byte	0
 4118 0ab8 00       		.byte	0
 4119 0ab9 16       		.uleb128 0x16
 4120 0aba 73080000 		.4byte	.LASF143
 4121 0abe 01       		.byte	0x1
 4122 0abf EF02     		.2byte	0x2ef
 4123 0ac1 6F000000 		.4byte	0x6f
 4124 0ac5 00000000 		.4byte	.LFB80
 4125 0ac9 58050000 		.4byte	.LFE80-.LFB80
ARM GAS  C:\Users\weiro\AppData\Local\Temp\cc9naSHk.s 			page 93


 4126 0acd 01       		.uleb128 0x1
 4127 0ace 9C       		.byte	0x9c
 4128 0acf 6C110000 		.4byte	0x116c
 4129 0ad3 0F       		.uleb128 0xf
 4130 0ad4 7F060000 		.4byte	.LASF28
 4131 0ad8 01       		.byte	0x1
 4132 0ad9 0A03     		.2byte	0x30a
 4133 0adb 6F000000 		.4byte	0x6f
 4134 0adf 3B030000 		.4byte	.LLST14
 4135 0ae3 0F       		.uleb128 0xf
 4136 0ae4 C7040000 		.4byte	.LASF38
 4137 0ae8 01       		.byte	0x1
 4138 0ae9 0B03     		.2byte	0x30b
 4139 0aeb 6F000000 		.4byte	0x6f
 4140 0aef 97030000 		.4byte	.LLST15
 4141 0af3 0F       		.uleb128 0xf
 4142 0af4 A5050000 		.4byte	.LASF42
 4143 0af8 01       		.byte	0x1
 4144 0af9 0E03     		.2byte	0x30e
 4145 0afb 25000000 		.4byte	0x25
 4146 0aff FC030000 		.4byte	.LLST16
 4147 0b03 0F       		.uleb128 0xf
 4148 0b04 A7030000 		.4byte	.LASF31
 4149 0b08 01       		.byte	0x1
 4150 0b09 0F03     		.2byte	0x30f
 4151 0b0b 25000000 		.4byte	0x25
 4152 0b0f CC040000 		.4byte	.LLST17
 4153 0b13 11       		.uleb128 0x11
 4154 0b14 12020000 		.4byte	.LBB4
 4155 0b18 46000000 		.4byte	.LBE4-.LBB4
 4156 0b1c AC0B0000 		.4byte	0xbac
 4157 0b20 0F       		.uleb128 0xf
 4158 0b21 7F060000 		.4byte	.LASF28
 4159 0b25 01       		.byte	0x1
 4160 0b26 5C03     		.2byte	0x35c
 4161 0b28 6F000000 		.4byte	0x6f
 4162 0b2c F3040000 		.4byte	.LLST18
 4163 0b30 0F       		.uleb128 0xf
 4164 0b31 A5050000 		.4byte	.LASF42
 4165 0b35 01       		.byte	0x1
 4166 0b36 5D03     		.2byte	0x35d
 4167 0b38 6F000000 		.4byte	0x6f
 4168 0b3c 07050000 		.4byte	.LLST19
 4169 0b40 08       		.uleb128 0x8
 4170 0b41 1A020000 		.4byte	.LVL272
 4171 0b45 B2030000 		.4byte	0x3b2
 4172 0b49 580B0000 		.4byte	0xb58
 4173 0b4d 09       		.uleb128 0x9
 4174 0b4e 01       		.uleb128 0x1
 4175 0b4f 50       		.byte	0x50
 4176 0b50 01       		.uleb128 0x1
 4177 0b51 32       		.byte	0x32
 4178 0b52 09       		.uleb128 0x9
 4179 0b53 01       		.uleb128 0x1
 4180 0b54 51       		.byte	0x51
 4181 0b55 01       		.uleb128 0x1
 4182 0b56 30       		.byte	0x30
ARM GAS  C:\Users\weiro\AppData\Local\Temp\cc9naSHk.s 			page 94


 4183 0b57 00       		.byte	0
 4184 0b58 08       		.uleb128 0x8
 4185 0b59 22020000 		.4byte	.LVL273
 4186 0b5d E4140000 		.4byte	0x14e4
 4187 0b61 6D0B0000 		.4byte	0xb6d
 4188 0b65 09       		.uleb128 0x9
 4189 0b66 01       		.uleb128 0x1
 4190 0b67 50       		.byte	0x50
 4191 0b68 03       		.uleb128 0x3
 4192 0b69 0A       		.byte	0xa
 4193 0b6a F401     		.2byte	0x1f4
 4194 0b6c 00       		.byte	0
 4195 0b6d 06       		.uleb128 0x6
 4196 0b6e 26020000 		.4byte	.LVL274
 4197 0b72 24070000 		.4byte	0x724
 4198 0b76 08       		.uleb128 0x8
 4199 0b77 34020000 		.4byte	.LVL275
 4200 0b7b 3B160000 		.4byte	0x163b
 4201 0b7f 890B0000 		.4byte	0xb89
 4202 0b83 09       		.uleb128 0x9
 4203 0b84 01       		.uleb128 0x1
 4204 0b85 50       		.byte	0x50
 4205 0b86 01       		.uleb128 0x1
 4206 0b87 31       		.byte	0x31
 4207 0b88 00       		.byte	0
 4208 0b89 08       		.uleb128 0x8
 4209 0b8a 40020000 		.4byte	.LVL276
 4210 0b8e 46160000 		.4byte	0x1646
 4211 0b92 9C0B0000 		.4byte	0xb9c
 4212 0b96 09       		.uleb128 0x9
 4213 0b97 01       		.uleb128 0x1
 4214 0b98 50       		.byte	0x50
 4215 0b99 01       		.uleb128 0x1
 4216 0b9a 31       		.byte	0x31
 4217 0b9b 00       		.byte	0
 4218 0b9c 0A       		.uleb128 0xa
 4219 0b9d 4C020000 		.4byte	.LVL277
 4220 0ba1 51160000 		.4byte	0x1651
 4221 0ba5 09       		.uleb128 0x9
 4222 0ba6 01       		.uleb128 0x1
 4223 0ba7 50       		.byte	0x50
 4224 0ba8 01       		.uleb128 0x1
 4225 0ba9 31       		.byte	0x31
 4226 0baa 00       		.byte	0
 4227 0bab 00       		.byte	0
 4228 0bac 08       		.uleb128 0x8
 4229 0bad 7C000000 		.4byte	.LVL223
 4230 0bb1 5C160000 		.4byte	0x165c
 4231 0bb5 C30B0000 		.4byte	0xbc3
 4232 0bb9 09       		.uleb128 0x9
 4233 0bba 01       		.uleb128 0x1
 4234 0bbb 50       		.byte	0x50
 4235 0bbc 05       		.uleb128 0x5
 4236 0bbd 03       		.byte	0x3
 4237 0bbe 00000000 		.4byte	Speed_Control
 4238 0bc2 00       		.byte	0
 4239 0bc3 08       		.uleb128 0x8
ARM GAS  C:\Users\weiro\AppData\Local\Temp\cc9naSHk.s 			page 95


 4240 0bc4 82000000 		.4byte	.LVL224
 4241 0bc8 67160000 		.4byte	0x1667
 4242 0bcc DA0B0000 		.4byte	0xbda
 4243 0bd0 09       		.uleb128 0x9
 4244 0bd1 01       		.uleb128 0x1
 4245 0bd2 50       		.byte	0x50
 4246 0bd3 05       		.uleb128 0x5
 4247 0bd4 03       		.byte	0x3
 4248 0bd5 00000000 		.4byte	Color_sensing
 4249 0bd9 00       		.byte	0
 4250 0bda 06       		.uleb128 0x6
 4251 0bdb 86000000 		.4byte	.LVL225
 4252 0bdf 72160000 		.4byte	0x1672
 4253 0be3 06       		.uleb128 0x6
 4254 0be4 8A000000 		.4byte	.LVL226
 4255 0be8 7D160000 		.4byte	0x167d
 4256 0bec 06       		.uleb128 0x6
 4257 0bed 8E000000 		.4byte	.LVL227
 4258 0bf1 88160000 		.4byte	0x1688
 4259 0bf5 08       		.uleb128 0x8
 4260 0bf6 94000000 		.4byte	.LVL228
 4261 0bfa 93160000 		.4byte	0x1693
 4262 0bfe 0C0C0000 		.4byte	0xc0c
 4263 0c02 09       		.uleb128 0x9
 4264 0c03 01       		.uleb128 0x1
 4265 0c04 50       		.byte	0x50
 4266 0c05 05       		.uleb128 0x5
 4267 0c06 03       		.byte	0x3
 4268 0c07 00000000 		.4byte	ultrasonic_trigger
 4269 0c0b 00       		.byte	0
 4270 0c0c 08       		.uleb128 0x8
 4271 0c0d 9A000000 		.4byte	.LVL229
 4272 0c11 9E160000 		.4byte	0x169e
 4273 0c15 230C0000 		.4byte	0xc23
 4274 0c19 09       		.uleb128 0x9
 4275 0c1a 01       		.uleb128 0x1
 4276 0c1b 50       		.byte	0x50
 4277 0c1c 05       		.uleb128 0x5
 4278 0c1d 03       		.byte	0x3
 4279 0c1e 00000000 		.4byte	ultrasonic_echo
 4280 0c22 00       		.byte	0
 4281 0c23 06       		.uleb128 0x6
 4282 0c24 9E000000 		.4byte	.LVL230
 4283 0c28 A9160000 		.4byte	0x16a9
 4284 0c2c 06       		.uleb128 0x6
 4285 0c2d A2000000 		.4byte	.LVL231
 4286 0c31 B4160000 		.4byte	0x16b4
 4287 0c35 06       		.uleb128 0x6
 4288 0c36 A6000000 		.4byte	.LVL232
 4289 0c3a BF160000 		.4byte	0x16bf
 4290 0c3e 06       		.uleb128 0x6
 4291 0c3f AA000000 		.4byte	.LVL233
 4292 0c43 CA160000 		.4byte	0x16ca
 4293 0c47 06       		.uleb128 0x6
 4294 0c48 AE000000 		.4byte	.LVL234
 4295 0c4c D5160000 		.4byte	0x16d5
 4296 0c50 08       		.uleb128 0x8
ARM GAS  C:\Users\weiro\AppData\Local\Temp\cc9naSHk.s 			page 96


 4297 0c51 B4000000 		.4byte	.LVL235
 4298 0c55 68150000 		.4byte	0x1568
 4299 0c59 630C0000 		.4byte	0xc63
 4300 0c5d 09       		.uleb128 0x9
 4301 0c5e 01       		.uleb128 0x1
 4302 0c5f 50       		.byte	0x50
 4303 0c60 01       		.uleb128 0x1
 4304 0c61 30       		.byte	0x30
 4305 0c62 00       		.byte	0
 4306 0c63 06       		.uleb128 0x6
 4307 0c64 B8000000 		.4byte	.LVL236
 4308 0c68 E0160000 		.4byte	0x16e0
 4309 0c6c 08       		.uleb128 0x8
 4310 0c6d BE000000 		.4byte	.LVL237
 4311 0c71 73150000 		.4byte	0x1573
 4312 0c75 7F0C0000 		.4byte	0xc7f
 4313 0c79 09       		.uleb128 0x9
 4314 0c7a 01       		.uleb128 0x1
 4315 0c7b 50       		.byte	0x50
 4316 0c7c 01       		.uleb128 0x1
 4317 0c7d 30       		.byte	0x30
 4318 0c7e 00       		.byte	0
 4319 0c7f 06       		.uleb128 0x6
 4320 0c80 C2000000 		.4byte	.LVL238
 4321 0c84 EB160000 		.4byte	0x16eb
 4322 0c88 08       		.uleb128 0x8
 4323 0c89 C8000000 		.4byte	.LVL239
 4324 0c8d EE150000 		.4byte	0x15ee
 4325 0c91 9B0C0000 		.4byte	0xc9b
 4326 0c95 09       		.uleb128 0x9
 4327 0c96 01       		.uleb128 0x1
 4328 0c97 50       		.byte	0x50
 4329 0c98 01       		.uleb128 0x1
 4330 0c99 30       		.byte	0x30
 4331 0c9a 00       		.byte	0
 4332 0c9b 06       		.uleb128 0x6
 4333 0c9c D6000000 		.4byte	.LVL241
 4334 0ca0 F6160000 		.4byte	0x16f6
 4335 0ca4 06       		.uleb128 0x6
 4336 0ca5 E4000000 		.4byte	.LVL243
 4337 0ca9 CE140000 		.4byte	0x14ce
 4338 0cad 08       		.uleb128 0x8
 4339 0cae EC000000 		.4byte	.LVL244
 4340 0cb2 E4140000 		.4byte	0x14e4
 4341 0cb6 C20C0000 		.4byte	0xcc2
 4342 0cba 09       		.uleb128 0x9
 4343 0cbb 01       		.uleb128 0x1
 4344 0cbc 50       		.byte	0x50
 4345 0cbd 03       		.uleb128 0x3
 4346 0cbe 0A       		.byte	0xa
 4347 0cbf D007     		.2byte	0x7d0
 4348 0cc1 00       		.byte	0
 4349 0cc2 08       		.uleb128 0x8
 4350 0cc3 F6000000 		.4byte	.LVL246
 4351 0cc7 B2030000 		.4byte	0x3b2
 4352 0ccb DB0C0000 		.4byte	0xcdb
 4353 0ccf 09       		.uleb128 0x9
ARM GAS  C:\Users\weiro\AppData\Local\Temp\cc9naSHk.s 			page 97


 4354 0cd0 01       		.uleb128 0x1
 4355 0cd1 50       		.byte	0x50
 4356 0cd2 02       		.uleb128 0x2
 4357 0cd3 08       		.byte	0x8
 4358 0cd4 32       		.byte	0x32
 4359 0cd5 09       		.uleb128 0x9
 4360 0cd6 01       		.uleb128 0x1
 4361 0cd7 51       		.byte	0x51
 4362 0cd8 01       		.uleb128 0x1
 4363 0cd9 31       		.byte	0x31
 4364 0cda 00       		.byte	0
 4365 0cdb 08       		.uleb128 0x8
 4366 0cdc 06010000 		.4byte	.LVL248
 4367 0ce0 B8060000 		.4byte	0x6b8
 4368 0ce4 EE0C0000 		.4byte	0xcee
 4369 0ce8 09       		.uleb128 0x9
 4370 0ce9 01       		.uleb128 0x1
 4371 0cea 51       		.byte	0x51
 4372 0ceb 01       		.uleb128 0x1
 4373 0cec 30       		.byte	0x30
 4374 0ced 00       		.byte	0
 4375 0cee 06       		.uleb128 0x6
 4376 0cef 0A010000 		.4byte	.LVL249
 4377 0cf3 61040000 		.4byte	0x461
 4378 0cf7 08       		.uleb128 0x8
 4379 0cf8 18010000 		.4byte	.LVL251
 4380 0cfc B8060000 		.4byte	0x6b8
 4381 0d00 0A0D0000 		.4byte	0xd0a
 4382 0d04 09       		.uleb128 0x9
 4383 0d05 01       		.uleb128 0x1
 4384 0d06 51       		.byte	0x51
 4385 0d07 01       		.uleb128 0x1
 4386 0d08 31       		.byte	0x31
 4387 0d09 00       		.byte	0
 4388 0d0a 08       		.uleb128 0x8
 4389 0d0b 3A010000 		.4byte	.LVL253
 4390 0d0f E4140000 		.4byte	0x14e4
 4391 0d13 1F0D0000 		.4byte	0xd1f
 4392 0d17 09       		.uleb128 0x9
 4393 0d18 01       		.uleb128 0x1
 4394 0d19 50       		.byte	0x50
 4395 0d1a 03       		.uleb128 0x3
 4396 0d1b 0A       		.byte	0xa
 4397 0d1c F401     		.2byte	0x1f4
 4398 0d1e 00       		.byte	0
 4399 0d1f 06       		.uleb128 0x6
 4400 0d20 40010000 		.4byte	.LVL254
 4401 0d24 61040000 		.4byte	0x461
 4402 0d28 08       		.uleb128 0x8
 4403 0d29 48010000 		.4byte	.LVL255
 4404 0d2d E4140000 		.4byte	0x14e4
 4405 0d31 3D0D0000 		.4byte	0xd3d
 4406 0d35 09       		.uleb128 0x9
 4407 0d36 01       		.uleb128 0x1
 4408 0d37 50       		.byte	0x50
 4409 0d38 03       		.uleb128 0x3
 4410 0d39 0A       		.byte	0xa
ARM GAS  C:\Users\weiro\AppData\Local\Temp\cc9naSHk.s 			page 98


 4411 0d3a F401     		.2byte	0x1f4
 4412 0d3c 00       		.byte	0
 4413 0d3d 08       		.uleb128 0x8
 4414 0d3e 58010000 		.4byte	.LVL257
 4415 0d42 B8060000 		.4byte	0x6b8
 4416 0d46 500D0000 		.4byte	0xd50
 4417 0d4a 09       		.uleb128 0x9
 4418 0d4b 01       		.uleb128 0x1
 4419 0d4c 51       		.byte	0x51
 4420 0d4d 01       		.uleb128 0x1
 4421 0d4e 31       		.byte	0x31
 4422 0d4f 00       		.byte	0
 4423 0d50 08       		.uleb128 0x8
 4424 0d51 74010000 		.4byte	.LVL258
 4425 0d55 E4140000 		.4byte	0x14e4
 4426 0d59 650D0000 		.4byte	0xd65
 4427 0d5d 09       		.uleb128 0x9
 4428 0d5e 01       		.uleb128 0x1
 4429 0d5f 50       		.byte	0x50
 4430 0d60 03       		.uleb128 0x3
 4431 0d61 0A       		.byte	0xa
 4432 0d62 E803     		.2byte	0x3e8
 4433 0d64 00       		.byte	0
 4434 0d65 06       		.uleb128 0x6
 4435 0d66 7A010000 		.4byte	.LVL259
 4436 0d6a 37050000 		.4byte	0x537
 4437 0d6e 08       		.uleb128 0x8
 4438 0d6f 90010000 		.4byte	.LVL260
 4439 0d73 B7150000 		.4byte	0x15b7
 4440 0d77 850D0000 		.4byte	0xd85
 4441 0d7b 09       		.uleb128 0x9
 4442 0d7c 01       		.uleb128 0x1
 4443 0d7d 50       		.byte	0x50
 4444 0d7e 05       		.uleb128 0x5
 4445 0d7f 03       		.byte	0x3
 4446 0d80 00000000 		.4byte	string_1
 4447 0d84 00       		.byte	0
 4448 0d85 08       		.uleb128 0x8
 4449 0d86 98010000 		.4byte	.LVL261
 4450 0d8a E4140000 		.4byte	0x14e4
 4451 0d8e 9A0D0000 		.4byte	0xd9a
 4452 0d92 09       		.uleb128 0x9
 4453 0d93 01       		.uleb128 0x1
 4454 0d94 50       		.byte	0x50
 4455 0d95 03       		.uleb128 0x3
 4456 0d96 0A       		.byte	0xa
 4457 0d97 F401     		.2byte	0x1f4
 4458 0d99 00       		.byte	0
 4459 0d9a 08       		.uleb128 0x8
 4460 0d9b B6010000 		.4byte	.LVL262
 4461 0d9f E4140000 		.4byte	0x14e4
 4462 0da3 AF0D0000 		.4byte	0xdaf
 4463 0da7 09       		.uleb128 0x9
 4464 0da8 01       		.uleb128 0x1
 4465 0da9 50       		.byte	0x50
 4466 0daa 03       		.uleb128 0x3
 4467 0dab 0A       		.byte	0xa
ARM GAS  C:\Users\weiro\AppData\Local\Temp\cc9naSHk.s 			page 99


 4468 0dac F401     		.2byte	0x1f4
 4469 0dae 00       		.byte	0
 4470 0daf 08       		.uleb128 0x8
 4471 0db0 C0010000 		.4byte	.LVL264
 4472 0db4 B2030000 		.4byte	0x3b2
 4473 0db8 C70D0000 		.4byte	0xdc7
 4474 0dbc 09       		.uleb128 0x9
 4475 0dbd 01       		.uleb128 0x1
 4476 0dbe 50       		.byte	0x50
 4477 0dbf 01       		.uleb128 0x1
 4478 0dc0 38       		.byte	0x38
 4479 0dc1 09       		.uleb128 0x9
 4480 0dc2 01       		.uleb128 0x1
 4481 0dc3 51       		.byte	0x51
 4482 0dc4 01       		.uleb128 0x1
 4483 0dc5 31       		.byte	0x31
 4484 0dc6 00       		.byte	0
 4485 0dc7 08       		.uleb128 0x8
 4486 0dc8 D0010000 		.4byte	.LVL266
 4487 0dcc B8060000 		.4byte	0x6b8
 4488 0dd0 DA0D0000 		.4byte	0xdda
 4489 0dd4 09       		.uleb128 0x9
 4490 0dd5 01       		.uleb128 0x1
 4491 0dd6 51       		.byte	0x51
 4492 0dd7 01       		.uleb128 0x1
 4493 0dd8 30       		.byte	0x30
 4494 0dd9 00       		.byte	0
 4495 0dda 08       		.uleb128 0x8
 4496 0ddb EC010000 		.4byte	.LVL268
 4497 0ddf E4140000 		.4byte	0x14e4
 4498 0de3 EF0D0000 		.4byte	0xdef
 4499 0de7 09       		.uleb128 0x9
 4500 0de8 01       		.uleb128 0x1
 4501 0de9 50       		.byte	0x50
 4502 0dea 03       		.uleb128 0x3
 4503 0deb 0A       		.byte	0xa
 4504 0dec F401     		.2byte	0x1f4
 4505 0dee 00       		.byte	0
 4506 0def 06       		.uleb128 0x6
 4507 0df0 F2010000 		.4byte	.LVL269
 4508 0df4 36060000 		.4byte	0x636
 4509 0df8 08       		.uleb128 0x8
 4510 0df9 10020000 		.4byte	.LVL270
 4511 0dfd E4140000 		.4byte	0x14e4
 4512 0e01 0D0E0000 		.4byte	0xe0d
 4513 0e05 09       		.uleb128 0x9
 4514 0e06 01       		.uleb128 0x1
 4515 0e07 50       		.byte	0x50
 4516 0e08 03       		.uleb128 0x3
 4517 0e09 0A       		.byte	0xa
 4518 0e0a F401     		.2byte	0x1f4
 4519 0e0c 00       		.byte	0
 4520 0e0d 08       		.uleb128 0x8
 4521 0e0e 6A020000 		.4byte	.LVL279
 4522 0e12 E4140000 		.4byte	0x14e4
 4523 0e16 220E0000 		.4byte	0xe22
 4524 0e1a 09       		.uleb128 0x9
ARM GAS  C:\Users\weiro\AppData\Local\Temp\cc9naSHk.s 			page 100


 4525 0e1b 01       		.uleb128 0x1
 4526 0e1c 50       		.byte	0x50
 4527 0e1d 03       		.uleb128 0x3
 4528 0e1e 0A       		.byte	0xa
 4529 0e1f F401     		.2byte	0x1f4
 4530 0e21 00       		.byte	0
 4531 0e22 08       		.uleb128 0x8
 4532 0e23 74020000 		.4byte	.LVL281
 4533 0e27 B2030000 		.4byte	0x3b2
 4534 0e2b 3A0E0000 		.4byte	0xe3a
 4535 0e2f 09       		.uleb128 0x9
 4536 0e30 01       		.uleb128 0x1
 4537 0e31 50       		.byte	0x50
 4538 0e32 01       		.uleb128 0x1
 4539 0e33 42       		.byte	0x42
 4540 0e34 09       		.uleb128 0x9
 4541 0e35 01       		.uleb128 0x1
 4542 0e36 51       		.byte	0x51
 4543 0e37 01       		.uleb128 0x1
 4544 0e38 31       		.byte	0x31
 4545 0e39 00       		.byte	0
 4546 0e3a 06       		.uleb128 0x6
 4547 0e3b 7C020000 		.4byte	.LVL282
 4548 0e3f 01170000 		.4byte	0x1701
 4549 0e43 08       		.uleb128 0x8
 4550 0e44 84020000 		.4byte	.LVL283
 4551 0e48 E4140000 		.4byte	0x14e4
 4552 0e4c 580E0000 		.4byte	0xe58
 4553 0e50 09       		.uleb128 0x9
 4554 0e51 01       		.uleb128 0x1
 4555 0e52 50       		.byte	0x50
 4556 0e53 03       		.uleb128 0x3
 4557 0e54 0A       		.byte	0xa
 4558 0e55 F401     		.2byte	0x1f4
 4559 0e57 00       		.byte	0
 4560 0e58 06       		.uleb128 0x6
 4561 0e59 8A020000 		.4byte	.LVL284
 4562 0e5d 0C170000 		.4byte	0x170c
 4563 0e61 08       		.uleb128 0x8
 4564 0e62 92020000 		.4byte	.LVL285
 4565 0e66 E4140000 		.4byte	0x14e4
 4566 0e6a 760E0000 		.4byte	0xe76
 4567 0e6e 09       		.uleb128 0x9
 4568 0e6f 01       		.uleb128 0x1
 4569 0e70 50       		.byte	0x50
 4570 0e71 03       		.uleb128 0x3
 4571 0e72 0A       		.byte	0xa
 4572 0e73 F401     		.2byte	0x1f4
 4573 0e75 00       		.byte	0
 4574 0e76 06       		.uleb128 0x6
 4575 0e77 98020000 		.4byte	.LVL286
 4576 0e7b 01170000 		.4byte	0x1701
 4577 0e7f 08       		.uleb128 0x8
 4578 0e80 B6020000 		.4byte	.LVL288
 4579 0e84 E4140000 		.4byte	0x14e4
 4580 0e88 940E0000 		.4byte	0xe94
 4581 0e8c 09       		.uleb128 0x9
ARM GAS  C:\Users\weiro\AppData\Local\Temp\cc9naSHk.s 			page 101


 4582 0e8d 01       		.uleb128 0x1
 4583 0e8e 50       		.byte	0x50
 4584 0e8f 03       		.uleb128 0x3
 4585 0e90 0A       		.byte	0xa
 4586 0e91 F401     		.2byte	0x1f4
 4587 0e93 00       		.byte	0
 4588 0e94 08       		.uleb128 0x8
 4589 0e95 C0020000 		.4byte	.LVL290
 4590 0e99 B2030000 		.4byte	0x3b2
 4591 0e9d AD0E0000 		.4byte	0xead
 4592 0ea1 09       		.uleb128 0x9
 4593 0ea2 01       		.uleb128 0x1
 4594 0ea3 50       		.byte	0x50
 4595 0ea4 02       		.uleb128 0x2
 4596 0ea5 08       		.byte	0x8
 4597 0ea6 32       		.byte	0x32
 4598 0ea7 09       		.uleb128 0x9
 4599 0ea8 01       		.uleb128 0x1
 4600 0ea9 51       		.byte	0x51
 4601 0eaa 01       		.uleb128 0x1
 4602 0eab 30       		.byte	0x30
 4603 0eac 00       		.byte	0
 4604 0ead 08       		.uleb128 0x8
 4605 0eae C8020000 		.4byte	.LVL291
 4606 0eb2 E4140000 		.4byte	0x14e4
 4607 0eb6 C20E0000 		.4byte	0xec2
 4608 0eba 09       		.uleb128 0x9
 4609 0ebb 01       		.uleb128 0x1
 4610 0ebc 50       		.byte	0x50
 4611 0ebd 03       		.uleb128 0x3
 4612 0ebe 0A       		.byte	0xa
 4613 0ebf F401     		.2byte	0x1f4
 4614 0ec1 00       		.byte	0
 4615 0ec2 08       		.uleb128 0x8
 4616 0ec3 E6020000 		.4byte	.LVL294
 4617 0ec7 B8060000 		.4byte	0x6b8
 4618 0ecb D60E0000 		.4byte	0xed6
 4619 0ecf 09       		.uleb128 0x9
 4620 0ed0 01       		.uleb128 0x1
 4621 0ed1 51       		.byte	0x51
 4622 0ed2 02       		.uleb128 0x2
 4623 0ed3 75       		.byte	0x75
 4624 0ed4 00       		.sleb128 0
 4625 0ed5 00       		.byte	0
 4626 0ed6 08       		.uleb128 0x8
 4627 0ed7 02030000 		.4byte	.LVL296
 4628 0edb E4140000 		.4byte	0x14e4
 4629 0edf EB0E0000 		.4byte	0xeeb
 4630 0ee3 09       		.uleb128 0x9
 4631 0ee4 01       		.uleb128 0x1
 4632 0ee5 50       		.byte	0x50
 4633 0ee6 03       		.uleb128 0x3
 4634 0ee7 0A       		.byte	0xa
 4635 0ee8 F401     		.2byte	0x1f4
 4636 0eea 00       		.byte	0
 4637 0eeb 06       		.uleb128 0x6
 4638 0eec 44030000 		.4byte	.LVL297
ARM GAS  C:\Users\weiro\AppData\Local\Temp\cc9naSHk.s 			page 102


 4639 0ef0 61040000 		.4byte	0x461
 4640 0ef4 08       		.uleb128 0x8
 4641 0ef5 54030000 		.4byte	.LVL299
 4642 0ef9 B8060000 		.4byte	0x6b8
 4643 0efd 070F0000 		.4byte	0xf07
 4644 0f01 09       		.uleb128 0x9
 4645 0f02 01       		.uleb128 0x1
 4646 0f03 51       		.byte	0x51
 4647 0f04 01       		.uleb128 0x1
 4648 0f05 31       		.byte	0x31
 4649 0f06 00       		.byte	0
 4650 0f07 08       		.uleb128 0x8
 4651 0f08 70030000 		.4byte	.LVL301
 4652 0f0c E4140000 		.4byte	0x14e4
 4653 0f10 1C0F0000 		.4byte	0xf1c
 4654 0f14 09       		.uleb128 0x9
 4655 0f15 01       		.uleb128 0x1
 4656 0f16 50       		.byte	0x50
 4657 0f17 03       		.uleb128 0x3
 4658 0f18 0A       		.byte	0xa
 4659 0f19 F401     		.2byte	0x1f4
 4660 0f1b 00       		.byte	0
 4661 0f1c 08       		.uleb128 0x8
 4662 0f1d 80030000 		.4byte	.LVL303
 4663 0f21 B2030000 		.4byte	0x3b2
 4664 0f25 350F0000 		.4byte	0xf35
 4665 0f29 09       		.uleb128 0x9
 4666 0f2a 01       		.uleb128 0x1
 4667 0f2b 50       		.byte	0x50
 4668 0f2c 02       		.uleb128 0x2
 4669 0f2d 08       		.byte	0x8
 4670 0f2e 46       		.byte	0x46
 4671 0f2f 09       		.uleb128 0x9
 4672 0f30 01       		.uleb128 0x1
 4673 0f31 51       		.byte	0x51
 4674 0f32 01       		.uleb128 0x1
 4675 0f33 30       		.byte	0x30
 4676 0f34 00       		.byte	0
 4677 0f35 08       		.uleb128 0x8
 4678 0f36 88030000 		.4byte	.LVL304
 4679 0f3a E4140000 		.4byte	0x14e4
 4680 0f3e 4A0F0000 		.4byte	0xf4a
 4681 0f42 09       		.uleb128 0x9
 4682 0f43 01       		.uleb128 0x1
 4683 0f44 50       		.byte	0x50
 4684 0f45 03       		.uleb128 0x3
 4685 0f46 0A       		.byte	0xa
 4686 0f47 F401     		.2byte	0x1f4
 4687 0f49 00       		.byte	0
 4688 0f4a 08       		.uleb128 0x8
 4689 0f4b BA030000 		.4byte	.LVL306
 4690 0f4f E4140000 		.4byte	0x14e4
 4691 0f53 5F0F0000 		.4byte	0xf5f
 4692 0f57 09       		.uleb128 0x9
 4693 0f58 01       		.uleb128 0x1
 4694 0f59 50       		.byte	0x50
 4695 0f5a 03       		.uleb128 0x3
ARM GAS  C:\Users\weiro\AppData\Local\Temp\cc9naSHk.s 			page 103


 4696 0f5b 0A       		.byte	0xa
 4697 0f5c F401     		.2byte	0x1f4
 4698 0f5e 00       		.byte	0
 4699 0f5f 08       		.uleb128 0x8
 4700 0f60 D6030000 		.4byte	.LVL307
 4701 0f64 E4140000 		.4byte	0x14e4
 4702 0f68 740F0000 		.4byte	0xf74
 4703 0f6c 09       		.uleb128 0x9
 4704 0f6d 01       		.uleb128 0x1
 4705 0f6e 50       		.byte	0x50
 4706 0f6f 03       		.uleb128 0x3
 4707 0f70 0A       		.byte	0xa
 4708 0f71 F401     		.2byte	0x1f4
 4709 0f73 00       		.byte	0
 4710 0f74 06       		.uleb128 0x6
 4711 0f75 E0030000 		.4byte	.LVL308
 4712 0f79 01170000 		.4byte	0x1701
 4713 0f7d 08       		.uleb128 0x8
 4714 0f7e E8030000 		.4byte	.LVL309
 4715 0f82 E4140000 		.4byte	0x14e4
 4716 0f86 920F0000 		.4byte	0xf92
 4717 0f8a 09       		.uleb128 0x9
 4718 0f8b 01       		.uleb128 0x1
 4719 0f8c 50       		.byte	0x50
 4720 0f8d 03       		.uleb128 0x3
 4721 0f8e 0A       		.byte	0xa
 4722 0f8f E803     		.2byte	0x3e8
 4723 0f91 00       		.byte	0
 4724 0f92 06       		.uleb128 0x6
 4725 0f93 EE030000 		.4byte	.LVL310
 4726 0f97 0C170000 		.4byte	0x170c
 4727 0f9b 08       		.uleb128 0x8
 4728 0f9c F6030000 		.4byte	.LVL311
 4729 0fa0 E4140000 		.4byte	0x14e4
 4730 0fa4 B00F0000 		.4byte	0xfb0
 4731 0fa8 09       		.uleb128 0x9
 4732 0fa9 01       		.uleb128 0x1
 4733 0faa 50       		.byte	0x50
 4734 0fab 03       		.uleb128 0x3
 4735 0fac 0A       		.byte	0xa
 4736 0fad F401     		.2byte	0x1f4
 4737 0faf 00       		.byte	0
 4738 0fb0 06       		.uleb128 0x6
 4739 0fb1 FC030000 		.4byte	.LVL312
 4740 0fb5 01170000 		.4byte	0x1701
 4741 0fb9 08       		.uleb128 0x8
 4742 0fba 04040000 		.4byte	.LVL313
 4743 0fbe E4140000 		.4byte	0x14e4
 4744 0fc2 CE0F0000 		.4byte	0xfce
 4745 0fc6 09       		.uleb128 0x9
 4746 0fc7 01       		.uleb128 0x1
 4747 0fc8 50       		.byte	0x50
 4748 0fc9 03       		.uleb128 0x3
 4749 0fca 0A       		.byte	0xa
 4750 0fcb F401     		.2byte	0x1f4
 4751 0fcd 00       		.byte	0
 4752 0fce 06       		.uleb128 0x6
ARM GAS  C:\Users\weiro\AppData\Local\Temp\cc9naSHk.s 			page 104


 4753 0fcf 0A040000 		.4byte	.LVL314
 4754 0fd3 0C170000 		.4byte	0x170c
 4755 0fd7 08       		.uleb128 0x8
 4756 0fd8 28040000 		.4byte	.LVL315
 4757 0fdc E4140000 		.4byte	0x14e4
 4758 0fe0 EC0F0000 		.4byte	0xfec
 4759 0fe4 09       		.uleb128 0x9
 4760 0fe5 01       		.uleb128 0x1
 4761 0fe6 50       		.byte	0x50
 4762 0fe7 03       		.uleb128 0x3
 4763 0fe8 0A       		.byte	0xa
 4764 0fe9 F401     		.2byte	0x1f4
 4765 0feb 00       		.byte	0
 4766 0fec 08       		.uleb128 0x8
 4767 0fed 32040000 		.4byte	.LVL317
 4768 0ff1 B2030000 		.4byte	0x3b2
 4769 0ff5 04100000 		.4byte	0x1004
 4770 0ff9 09       		.uleb128 0x9
 4771 0ffa 01       		.uleb128 0x1
 4772 0ffb 50       		.byte	0x50
 4773 0ffc 01       		.uleb128 0x1
 4774 0ffd 44       		.byte	0x44
 4775 0ffe 09       		.uleb128 0x9
 4776 0fff 01       		.uleb128 0x1
 4777 1000 51       		.byte	0x51
 4778 1001 01       		.uleb128 0x1
 4779 1002 31       		.byte	0x31
 4780 1003 00       		.byte	0
 4781 1004 08       		.uleb128 0x8
 4782 1005 3A040000 		.4byte	.LVL318
 4783 1009 E4140000 		.4byte	0x14e4
 4784 100d 19100000 		.4byte	0x1019
 4785 1011 09       		.uleb128 0x9
 4786 1012 01       		.uleb128 0x1
 4787 1013 50       		.byte	0x50
 4788 1014 03       		.uleb128 0x3
 4789 1015 0A       		.byte	0xa
 4790 1016 F401     		.2byte	0x1f4
 4791 1018 00       		.byte	0
 4792 1019 06       		.uleb128 0x6
 4793 101a 42040000 		.4byte	.LVL319
 4794 101e 01170000 		.4byte	0x1701
 4795 1022 08       		.uleb128 0x8
 4796 1023 4A040000 		.4byte	.LVL320
 4797 1027 E4140000 		.4byte	0x14e4
 4798 102b 37100000 		.4byte	0x1037
 4799 102f 09       		.uleb128 0x9
 4800 1030 01       		.uleb128 0x1
 4801 1031 50       		.byte	0x50
 4802 1032 03       		.uleb128 0x3
 4803 1033 0A       		.byte	0xa
 4804 1034 F401     		.2byte	0x1f4
 4805 1036 00       		.byte	0
 4806 1037 08       		.uleb128 0x8
 4807 1038 68040000 		.4byte	.LVL322
 4808 103c E4140000 		.4byte	0x14e4
 4809 1040 4C100000 		.4byte	0x104c
ARM GAS  C:\Users\weiro\AppData\Local\Temp\cc9naSHk.s 			page 105


 4810 1044 09       		.uleb128 0x9
 4811 1045 01       		.uleb128 0x1
 4812 1046 50       		.byte	0x50
 4813 1047 03       		.uleb128 0x3
 4814 1048 0A       		.byte	0xa
 4815 1049 F401     		.2byte	0x1f4
 4816 104b 00       		.byte	0
 4817 104c 08       		.uleb128 0x8
 4818 104d 72040000 		.4byte	.LVL324
 4819 1051 B2030000 		.4byte	0x3b2
 4820 1055 64100000 		.4byte	0x1064
 4821 1059 09       		.uleb128 0x9
 4822 105a 01       		.uleb128 0x1
 4823 105b 50       		.byte	0x50
 4824 105c 01       		.uleb128 0x1
 4825 105d 44       		.byte	0x44
 4826 105e 09       		.uleb128 0x9
 4827 105f 01       		.uleb128 0x1
 4828 1060 51       		.byte	0x51
 4829 1061 01       		.uleb128 0x1
 4830 1062 30       		.byte	0x30
 4831 1063 00       		.byte	0
 4832 1064 08       		.uleb128 0x8
 4833 1065 7A040000 		.4byte	.LVL325
 4834 1069 E4140000 		.4byte	0x14e4
 4835 106d 79100000 		.4byte	0x1079
 4836 1071 09       		.uleb128 0x9
 4837 1072 01       		.uleb128 0x1
 4838 1073 50       		.byte	0x50
 4839 1074 03       		.uleb128 0x3
 4840 1075 0A       		.byte	0xa
 4841 1076 F401     		.2byte	0x1f4
 4842 1078 00       		.byte	0
 4843 1079 06       		.uleb128 0x6
 4844 107a 82040000 		.4byte	.LVL326
 4845 107e 01170000 		.4byte	0x1701
 4846 1082 08       		.uleb128 0x8
 4847 1083 8A040000 		.4byte	.LVL327
 4848 1087 E4140000 		.4byte	0x14e4
 4849 108b 97100000 		.4byte	0x1097
 4850 108f 09       		.uleb128 0x9
 4851 1090 01       		.uleb128 0x1
 4852 1091 50       		.byte	0x50
 4853 1092 03       		.uleb128 0x3
 4854 1093 0A       		.byte	0xa
 4855 1094 F401     		.2byte	0x1f4
 4856 1096 00       		.byte	0
 4857 1097 08       		.uleb128 0x8
 4858 1098 A8040000 		.4byte	.LVL329
 4859 109c E4140000 		.4byte	0x14e4
 4860 10a0 AC100000 		.4byte	0x10ac
 4861 10a4 09       		.uleb128 0x9
 4862 10a5 01       		.uleb128 0x1
 4863 10a6 50       		.byte	0x50
 4864 10a7 03       		.uleb128 0x3
 4865 10a8 0A       		.byte	0xa
 4866 10a9 F401     		.2byte	0x1f4
ARM GAS  C:\Users\weiro\AppData\Local\Temp\cc9naSHk.s 			page 106


 4867 10ab 00       		.byte	0
 4868 10ac 08       		.uleb128 0x8
 4869 10ad C8040000 		.4byte	.LVL332
 4870 10b1 B8060000 		.4byte	0x6b8
 4871 10b5 C0100000 		.4byte	0x10c0
 4872 10b9 09       		.uleb128 0x9
 4873 10ba 01       		.uleb128 0x1
 4874 10bb 51       		.byte	0x51
 4875 10bc 02       		.uleb128 0x2
 4876 10bd 75       		.byte	0x75
 4877 10be 00       		.sleb128 0
 4878 10bf 00       		.byte	0
 4879 10c0 08       		.uleb128 0x8
 4880 10c1 D0040000 		.4byte	.LVL333
 4881 10c5 E4140000 		.4byte	0x14e4
 4882 10c9 D5100000 		.4byte	0x10d5
 4883 10cd 09       		.uleb128 0x9
 4884 10ce 01       		.uleb128 0x1
 4885 10cf 50       		.byte	0x50
 4886 10d0 03       		.uleb128 0x3
 4887 10d1 0A       		.byte	0xa
 4888 10d2 F401     		.2byte	0x1f4
 4889 10d4 00       		.byte	0
 4890 10d5 08       		.uleb128 0x8
 4891 10d6 D8040000 		.4byte	.LVL334
 4892 10da B2030000 		.4byte	0x3b2
 4893 10de EE100000 		.4byte	0x10ee
 4894 10e2 09       		.uleb128 0x9
 4895 10e3 01       		.uleb128 0x1
 4896 10e4 50       		.byte	0x50
 4897 10e5 02       		.uleb128 0x2
 4898 10e6 08       		.byte	0x8
 4899 10e7 32       		.byte	0x32
 4900 10e8 09       		.uleb128 0x9
 4901 10e9 01       		.uleb128 0x1
 4902 10ea 51       		.byte	0x51
 4903 10eb 01       		.uleb128 0x1
 4904 10ec 31       		.byte	0x31
 4905 10ed 00       		.byte	0
 4906 10ee 08       		.uleb128 0x8
 4907 10ef E0040000 		.4byte	.LVL335
 4908 10f3 E4140000 		.4byte	0x14e4
 4909 10f7 03110000 		.4byte	0x1103
 4910 10fb 09       		.uleb128 0x9
 4911 10fc 01       		.uleb128 0x1
 4912 10fd 50       		.byte	0x50
 4913 10fe 03       		.uleb128 0x3
 4914 10ff 0A       		.byte	0xa
 4915 1100 F401     		.2byte	0x1f4
 4916 1102 00       		.byte	0
 4917 1103 08       		.uleb128 0x8
 4918 1104 FC040000 		.4byte	.LVL337
 4919 1108 E4140000 		.4byte	0x14e4
 4920 110c 18110000 		.4byte	0x1118
 4921 1110 09       		.uleb128 0x9
 4922 1111 01       		.uleb128 0x1
 4923 1112 50       		.byte	0x50
ARM GAS  C:\Users\weiro\AppData\Local\Temp\cc9naSHk.s 			page 107


 4924 1113 03       		.uleb128 0x3
 4925 1114 0A       		.byte	0xa
 4926 1115 F401     		.2byte	0x1f4
 4927 1117 00       		.byte	0
 4928 1118 08       		.uleb128 0x8
 4929 1119 1C050000 		.4byte	.LVL340
 4930 111d B8060000 		.4byte	0x6b8
 4931 1121 2C110000 		.4byte	0x112c
 4932 1125 09       		.uleb128 0x9
 4933 1126 01       		.uleb128 0x1
 4934 1127 51       		.byte	0x51
 4935 1128 02       		.uleb128 0x2
 4936 1129 75       		.byte	0x75
 4937 112a 00       		.sleb128 0
 4938 112b 00       		.byte	0
 4939 112c 08       		.uleb128 0x8
 4940 112d 24050000 		.4byte	.LVL341
 4941 1131 E4140000 		.4byte	0x14e4
 4942 1135 41110000 		.4byte	0x1141
 4943 1139 09       		.uleb128 0x9
 4944 113a 01       		.uleb128 0x1
 4945 113b 50       		.byte	0x50
 4946 113c 03       		.uleb128 0x3
 4947 113d 0A       		.byte	0xa
 4948 113e F401     		.2byte	0x1f4
 4949 1140 00       		.byte	0
 4950 1141 08       		.uleb128 0x8
 4951 1142 2C050000 		.4byte	.LVL342
 4952 1146 B2030000 		.4byte	0x3b2
 4953 114a 5A110000 		.4byte	0x115a
 4954 114e 09       		.uleb128 0x9
 4955 114f 01       		.uleb128 0x1
 4956 1150 50       		.byte	0x50
 4957 1151 02       		.uleb128 0x2
 4958 1152 08       		.byte	0x8
 4959 1153 32       		.byte	0x32
 4960 1154 09       		.uleb128 0x9
 4961 1155 01       		.uleb128 0x1
 4962 1156 51       		.byte	0x51
 4963 1157 01       		.uleb128 0x1
 4964 1158 31       		.byte	0x31
 4965 1159 00       		.byte	0
 4966 115a 0A       		.uleb128 0xa
 4967 115b 34050000 		.4byte	.LVL343
 4968 115f E4140000 		.4byte	0x14e4
 4969 1163 09       		.uleb128 0x9
 4970 1164 01       		.uleb128 0x1
 4971 1165 50       		.byte	0x50
 4972 1166 03       		.uleb128 0x3
 4973 1167 0A       		.byte	0xa
 4974 1168 F401     		.2byte	0x1f4
 4975 116a 00       		.byte	0
 4976 116b 00       		.byte	0
 4977 116c 17       		.uleb128 0x17
 4978 116d D2050000 		.4byte	.LASF43
 4979 1171 04       		.byte	0x4
 4980 1172 1207     		.2byte	0x712
ARM GAS  C:\Users\weiro\AppData\Local\Temp\cc9naSHk.s 			page 108


 4981 1174 78110000 		.4byte	0x1178
 4982 1178 18       		.uleb128 0x18
 4983 1179 7D000000 		.4byte	0x7d
 4984 117d 19       		.uleb128 0x19
 4985 117e C2000000 		.4byte	.LASF44
 4986 1182 01       		.byte	0x1
 4987 1183 13       		.byte	0x13
 4988 1184 6F000000 		.4byte	0x6f
 4989 1188 05       		.uleb128 0x5
 4990 1189 03       		.byte	0x3
 4991 118a 00000000 		.4byte	initial
 4992 118e 19       		.uleb128 0x19
 4993 118f 62050000 		.4byte	.LASF45
 4994 1193 01       		.byte	0x1
 4995 1194 14       		.byte	0x14
 4996 1195 25000000 		.4byte	0x25
 4997 1199 05       		.uleb128 0x5
 4998 119a 03       		.byte	0x3
 4999 119b 00000000 		.4byte	WHEEL_DIAMETER
 5000 119f 19       		.uleb128 0x19
 5001 11a0 AB010000 		.4byte	.LASF46
 5002 11a4 01       		.byte	0x1
 5003 11a5 15       		.byte	0x15
 5004 11a6 25000000 		.4byte	0x25
 5005 11aa 05       		.uleb128 0x5
 5006 11ab 03       		.byte	0x3
 5007 11ac 00000000 		.4byte	WHEEL_CIRCUMFERENCE
 5008 11b0 19       		.uleb128 0x19
 5009 11b1 A7000000 		.4byte	.LASF47
 5010 11b5 01       		.byte	0x1
 5011 11b6 16       		.byte	0x16
 5012 11b7 6F000000 		.4byte	0x6f
 5013 11bb 05       		.uleb128 0x5
 5014 11bc 03       		.byte	0x3
 5015 11bd 00000000 		.4byte	CS_count_Red
 5016 11c1 19       		.uleb128 0x19
 5017 11c2 95010000 		.4byte	.LASF48
 5018 11c6 01       		.byte	0x1
 5019 11c7 17       		.byte	0x17
 5020 11c8 6F000000 		.4byte	0x6f
 5021 11cc 05       		.uleb128 0x5
 5022 11cd 03       		.byte	0x3
 5023 11ce 00000000 		.4byte	CS_count_Blue
 5024 11d2 19       		.uleb128 0x19
 5025 11d3 7A010000 		.4byte	.LASF49
 5026 11d7 01       		.byte	0x1
 5027 11d8 18       		.byte	0x18
 5028 11d9 6F000000 		.4byte	0x6f
 5029 11dd 05       		.uleb128 0x5
 5030 11de 03       		.byte	0x3
 5031 11df 00000000 		.4byte	CS_count_Green
 5032 11e3 19       		.uleb128 0x19
 5033 11e4 62030000 		.4byte	.LASF50
 5034 11e8 01       		.byte	0x1
 5035 11e9 19       		.byte	0x19
 5036 11ea 25000000 		.4byte	0x25
 5037 11ee 05       		.uleb128 0x5
ARM GAS  C:\Users\weiro\AppData\Local\Temp\cc9naSHk.s 			page 109


 5038 11ef 03       		.byte	0x3
 5039 11f0 00000000 		.4byte	COUNT_WHEEL
 5040 11f4 19       		.uleb128 0x19
 5041 11f5 3A000000 		.4byte	.LASF51
 5042 11f9 01       		.byte	0x1
 5043 11fa 1A       		.byte	0x1a
 5044 11fb 25000000 		.4byte	0x25
 5045 11ff 05       		.uleb128 0x5
 5046 1200 03       		.byte	0x3
 5047 1201 00000000 		.4byte	CM_COUNT_CONV
 5048 1205 19       		.uleb128 0x19
 5049 1206 93040000 		.4byte	.LASF52
 5050 120a 01       		.byte	0x1
 5051 120b 1B       		.byte	0x1b
 5052 120c 25000000 		.4byte	0x25
 5053 1210 05       		.uleb128 0x5
 5054 1211 03       		.byte	0x3
 5055 1212 00000000 		.4byte	DISTANCE_BETW_WHEEL
 5056 1216 19       		.uleb128 0x19
 5057 1217 E1010000 		.4byte	.LASF53
 5058 121b 01       		.byte	0x1
 5059 121c 1C       		.byte	0x1c
 5060 121d 25000000 		.4byte	0x25
 5061 1221 05       		.uleb128 0x5
 5062 1222 03       		.byte	0x3
 5063 1223 00000000 		.4byte	DISTANCE_PT_TURN
 5064 1227 19       		.uleb128 0x19
 5065 1228 0A020000 		.4byte	.LASF37
 5066 122c 01       		.byte	0x1
 5067 122d 1D       		.byte	0x1d
 5068 122e 25000000 		.4byte	0x25
 5069 1232 05       		.uleb128 0x5
 5070 1233 03       		.byte	0x3
 5071 1234 00000000 		.4byte	PT_TURN_COUNT
 5072 1238 19       		.uleb128 0x19
 5073 1239 68060000 		.4byte	.LASF54
 5074 123d 01       		.byte	0x1
 5075 123e 1E       		.byte	0x1e
 5076 123f 6F000000 		.4byte	0x6f
 5077 1243 05       		.uleb128 0x5
 5078 1244 03       		.byte	0x3
 5079 1245 00000000 		.4byte	Count_Master
 5080 1249 19       		.uleb128 0x19
 5081 124a 99050000 		.4byte	.LASF55
 5082 124e 01       		.byte	0x1
 5083 124f 1F       		.byte	0x1f
 5084 1250 6F000000 		.4byte	0x6f
 5085 1254 05       		.uleb128 0x5
 5086 1255 03       		.byte	0x3
 5087 1256 00000000 		.4byte	Count_Slave
 5088 125a 1A       		.uleb128 0x1a
 5089 125b 8F000000 		.4byte	0x8f
 5090 125f 6A120000 		.4byte	0x126a
 5091 1263 1B       		.uleb128 0x1b
 5092 1264 9D000000 		.4byte	0x9d
 5093 1268 C7       		.byte	0xc7
 5094 1269 00       		.byte	0
ARM GAS  C:\Users\weiro\AppData\Local\Temp\cc9naSHk.s 			page 110


 5095 126a 19       		.uleb128 0x19
 5096 126b 7F080000 		.4byte	.LASF56
 5097 126f 01       		.byte	0x1
 5098 1270 20       		.byte	0x20
 5099 1271 5A120000 		.4byte	0x125a
 5100 1275 05       		.uleb128 0x5
 5101 1276 03       		.byte	0x3
 5102 1277 00000000 		.4byte	string_1
 5103 127b 19       		.uleb128 0x19
 5104 127c 88080000 		.4byte	.LASF57
 5105 1280 01       		.byte	0x1
 5106 1281 21       		.byte	0x21
 5107 1282 5A120000 		.4byte	0x125a
 5108 1286 05       		.uleb128 0x5
 5109 1287 03       		.byte	0x3
 5110 1288 00000000 		.4byte	string_2
 5111 128c 19       		.uleb128 0x19
 5112 128d 91080000 		.4byte	.LASF58
 5113 1291 01       		.byte	0x1
 5114 1292 22       		.byte	0x22
 5115 1293 5A120000 		.4byte	0x125a
 5116 1297 05       		.uleb128 0x5
 5117 1298 03       		.byte	0x3
 5118 1299 00000000 		.4byte	string_3
 5119 129d 19       		.uleb128 0x19
 5120 129e 54010000 		.4byte	.LASF59
 5121 12a2 01       		.byte	0x1
 5122 12a3 23       		.byte	0x23
 5123 12a4 25000000 		.4byte	0x25
 5124 12a8 05       		.uleb128 0x5
 5125 12a9 03       		.byte	0x3
 5126 12aa 00000000 		.4byte	error
 5127 12ae 19       		.uleb128 0x19
 5128 12af 50030000 		.4byte	.LASF60
 5129 12b3 01       		.byte	0x1
 5130 12b4 24       		.byte	0x24
 5131 12b5 25000000 		.4byte	0x25
 5132 12b9 05       		.uleb128 0x5
 5133 12ba 03       		.byte	0x3
 5134 12bb 00000000 		.4byte	accumulated_error
 5135 12bf 19       		.uleb128 0x19
 5136 12c0 E1060000 		.4byte	.LASF61
 5137 12c4 01       		.byte	0x1
 5138 12c5 25       		.byte	0x25
 5139 12c6 25000000 		.4byte	0x25
 5140 12ca 05       		.uleb128 0x5
 5141 12cb 03       		.byte	0x3
 5142 12cc 00000000 		.4byte	last_error
 5143 12d0 19       		.uleb128 0x19
 5144 12d1 B9060000 		.4byte	.LASF62
 5145 12d5 01       		.byte	0x1
 5146 12d6 26       		.byte	0x26
 5147 12d7 25000000 		.4byte	0x25
 5148 12db 05       		.uleb128 0x5
 5149 12dc 03       		.byte	0x3
 5150 12dd 00000000 		.4byte	derivative_error
 5151 12e1 19       		.uleb128 0x19
ARM GAS  C:\Users\weiro\AppData\Local\Temp\cc9naSHk.s 			page 111


 5152 12e2 0C010000 		.4byte	.LASF63
 5153 12e6 01       		.byte	0x1
 5154 12e7 27       		.byte	0x27
 5155 12e8 25000000 		.4byte	0x25
 5156 12ec 05       		.uleb128 0x5
 5157 12ed 03       		.byte	0x3
 5158 12ee 00000000 		.4byte	timer_period
 5159 12f2 1C       		.uleb128 0x1c
 5160 12f3 4B5F7000 		.ascii	"K_p\000"
 5161 12f7 01       		.byte	0x1
 5162 12f8 28       		.byte	0x28
 5163 12f9 25000000 		.4byte	0x25
 5164 12fd 05       		.uleb128 0x5
 5165 12fe 03       		.byte	0x3
 5166 12ff 00000000 		.4byte	K_p
 5167 1303 1C       		.uleb128 0x1c
 5168 1304 4B5F6900 		.ascii	"K_i\000"
 5169 1308 01       		.byte	0x1
 5170 1309 29       		.byte	0x29
 5171 130a 25000000 		.4byte	0x25
 5172 130e 05       		.uleb128 0x5
 5173 130f 03       		.byte	0x3
 5174 1310 00000000 		.4byte	K_i
 5175 1314 1C       		.uleb128 0x1c
 5176 1315 4B5F6400 		.ascii	"K_d\000"
 5177 1319 01       		.byte	0x1
 5178 131a 2A       		.byte	0x2a
 5179 131b 25000000 		.4byte	0x25
 5180 131f 05       		.uleb128 0x5
 5181 1320 03       		.byte	0x3
 5182 1321 00000000 		.4byte	K_d
 5183 1325 19       		.uleb128 0x19
 5184 1326 1B000000 		.4byte	.LASF64
 5185 132a 01       		.byte	0x1
 5186 132b 2B       		.byte	0x2b
 5187 132c 88000000 		.4byte	0x88
 5188 1330 05       		.uleb128 0x5
 5189 1331 03       		.byte	0x3
 5190 1332 00000000 		.4byte	PWM_Master
 5191 1336 19       		.uleb128 0x19
 5192 1337 4F070000 		.4byte	.LASF65
 5193 133b 01       		.byte	0x1
 5194 133c 2C       		.byte	0x2c
 5195 133d 88000000 		.4byte	0x88
 5196 1341 05       		.uleb128 0x5
 5197 1342 03       		.byte	0x3
 5198 1343 00000000 		.4byte	PWM_Slave
 5199 1347 19       		.uleb128 0x19
 5200 1348 2B060000 		.4byte	.LASF66
 5201 134c 01       		.byte	0x1
 5202 134d 2D       		.byte	0x2d
 5203 134e 88000000 		.4byte	0x88
 5204 1352 05       		.uleb128 0x5
 5205 1353 03       		.byte	0x3
 5206 1354 00000000 		.4byte	PWM_Master_puck
 5207 1358 19       		.uleb128 0x19
 5208 1359 89070000 		.4byte	.LASF67
ARM GAS  C:\Users\weiro\AppData\Local\Temp\cc9naSHk.s 			page 112


 5209 135d 01       		.byte	0x1
 5210 135e 2E       		.byte	0x2e
 5211 135f 88000000 		.4byte	0x88
 5212 1363 05       		.uleb128 0x5
 5213 1364 03       		.byte	0x3
 5214 1365 00000000 		.4byte	PWM_Slave_puck
 5215 1369 19       		.uleb128 0x19
 5216 136a 88020000 		.4byte	.LASF68
 5217 136e 01       		.byte	0x1
 5218 136f 2F       		.byte	0x2f
 5219 1370 6F000000 		.4byte	0x6f
 5220 1374 05       		.uleb128 0x5
 5221 1375 03       		.byte	0x3
 5222 1376 00000000 		.4byte	is_moving
 5223 137a 19       		.uleb128 0x19
 5224 137b 9A080000 		.4byte	.LASF69
 5225 137f 01       		.byte	0x1
 5226 1380 30       		.byte	0x30
 5227 1381 6F000000 		.4byte	0x6f
 5228 1385 05       		.uleb128 0x5
 5229 1386 03       		.byte	0x3
 5230 1387 00000000 		.4byte	ultrasonic_count
 5231 138b 19       		.uleb128 0x19
 5232 138c 1E040000 		.4byte	.LASF70
 5233 1390 01       		.byte	0x1
 5234 1391 31       		.byte	0x31
 5235 1392 25000000 		.4byte	0x25
 5236 1396 05       		.uleb128 0x5
 5237 1397 03       		.byte	0x3
 5238 1398 00000000 		.4byte	ultrasonic_measure
 5239 139c 19       		.uleb128 0x19
 5240 139d 3B060000 		.4byte	.LASF71
 5241 13a1 01       		.byte	0x1
 5242 13a2 32       		.byte	0x32
 5243 13a3 25000000 		.4byte	0x25
 5244 13a7 05       		.uleb128 0x5
 5245 13a8 03       		.byte	0x3
 5246 13a9 00000000 		.4byte	front_measured_1
 5247 13ad 19       		.uleb128 0x19
 5248 13ae 4C060000 		.4byte	.LASF72
 5249 13b2 01       		.byte	0x1
 5250 13b3 32       		.byte	0x32
 5251 13b4 25000000 		.4byte	0x25
 5252 13b8 05       		.uleb128 0x5
 5253 13b9 03       		.byte	0x3
 5254 13ba 00000000 		.4byte	front_measured_2
 5255 13be 19       		.uleb128 0x19
 5256 13bf FD000000 		.4byte	.LASF73
 5257 13c3 01       		.byte	0x1
 5258 13c4 32       		.byte	0x32
 5259 13c5 25000000 		.4byte	0x25
 5260 13c9 05       		.uleb128 0x5
 5261 13ca 03       		.byte	0x3
 5262 13cb 00000000 		.4byte	right_measured
 5263 13cf 19       		.uleb128 0x19
 5264 13d0 64020000 		.4byte	.LASF74
 5265 13d4 01       		.byte	0x1
ARM GAS  C:\Users\weiro\AppData\Local\Temp\cc9naSHk.s 			page 113


 5266 13d5 32       		.byte	0x32
 5267 13d6 25000000 		.4byte	0x25
 5268 13da 05       		.uleb128 0x5
 5269 13db 03       		.byte	0x3
 5270 13dc 00000000 		.4byte	left_measured
 5271 13e0 19       		.uleb128 0x19
 5272 13e1 3D020000 		.4byte	.LASF75
 5273 13e5 01       		.byte	0x1
 5274 13e6 33       		.byte	0x33
 5275 13e7 6F000000 		.4byte	0x6f
 5276 13eb 05       		.uleb128 0x5
 5277 13ec 03       		.byte	0x3
 5278 13ed 00000000 		.4byte	ultrasonic_flag
 5279 13f1 19       		.uleb128 0x19
 5280 13f2 87060000 		.4byte	.LASF76
 5281 13f6 01       		.byte	0x1
 5282 13f7 34       		.byte	0x34
 5283 13f8 6F000000 		.4byte	0x6f
 5284 13fc 05       		.uleb128 0x5
 5285 13fd 03       		.byte	0x3
 5286 13fe 00000000 		.4byte	echo_select
 5287 1402 19       		.uleb128 0x19
 5288 1403 D4010000 		.4byte	.LASF77
 5289 1407 01       		.byte	0x1
 5290 1408 35       		.byte	0x35
 5291 1409 25000000 		.4byte	0x25
 5292 140d 05       		.uleb128 0x5
 5293 140e 03       		.byte	0x3
 5294 140f 00000000 		.4byte	x_coord
 5295 1413 19       		.uleb128 0x19
 5296 1414 5A050000 		.4byte	.LASF78
 5297 1418 01       		.byte	0x1
 5298 1419 36       		.byte	0x36
 5299 141a 25000000 		.4byte	0x25
 5300 141e 05       		.uleb128 0x5
 5301 141f 03       		.byte	0x3
 5302 1420 00000000 		.4byte	y_coord
 5303 1424 19       		.uleb128 0x19
 5304 1425 00000000 		.4byte	.LASF79
 5305 1429 01       		.byte	0x1
 5306 142a 37       		.byte	0x37
 5307 142b 6F000000 		.4byte	0x6f
 5308 142f 05       		.uleb128 0x5
 5309 1430 03       		.byte	0x3
 5310 1431 00000000 		.4byte	direction
 5311 1435 19       		.uleb128 0x19
 5312 1436 D7040000 		.4byte	.LASF80
 5313 143a 01       		.byte	0x1
 5314 143b 38       		.byte	0x38
 5315 143c 6F000000 		.4byte	0x6f
 5316 1440 05       		.uleb128 0x5
 5317 1441 03       		.byte	0x3
 5318 1442 00000000 		.4byte	step
 5319 1446 19       		.uleb128 0x19
 5320 1447 FF040000 		.4byte	.LASF81
 5321 144b 01       		.byte	0x1
 5322 144c 39       		.byte	0x39
ARM GAS  C:\Users\weiro\AppData\Local\Temp\cc9naSHk.s 			page 114


 5323 144d 6F000000 		.4byte	0x6f
 5324 1451 05       		.uleb128 0x5
 5325 1452 03       		.byte	0x3
 5326 1453 00000000 		.4byte	compare_ready
 5327 1457 19       		.uleb128 0x19
 5328 1458 59070000 		.4byte	.LASF82
 5329 145c 01       		.byte	0x1
 5330 145d 3A       		.byte	0x3a
 5331 145e 6F000000 		.4byte	0x6f
 5332 1462 05       		.uleb128 0x5
 5333 1463 03       		.byte	0x3
 5334 1464 00000000 		.4byte	color_detected
 5335 1468 19       		.uleb128 0x19
 5336 1469 B2080000 		.4byte	.LASF83
 5337 146d 01       		.byte	0x1
 5338 146e 3B       		.byte	0x3b
 5339 146f 6F000000 		.4byte	0x6f
 5340 1473 05       		.uleb128 0x5
 5341 1474 03       		.byte	0x3
 5342 1475 00000000 		.4byte	wall_detected_10
 5343 1479 19       		.uleb128 0x19
 5344 147a 5F010000 		.4byte	.LASF84
 5345 147e 01       		.byte	0x1
 5346 147f 3C       		.byte	0x3c
 5347 1480 6F000000 		.4byte	0x6f
 5348 1484 05       		.uleb128 0x5
 5349 1485 03       		.byte	0x3
 5350 1486 00000000 		.4byte	slit_detected
 5351 148a 19       		.uleb128 0x19
 5352 148b 0A000000 		.4byte	.LASF85
 5353 148f 01       		.byte	0x1
 5354 1490 3D       		.byte	0x3d
 5355 1491 6F000000 		.4byte	0x6f
 5356 1495 05       		.uleb128 0x5
 5357 1496 03       		.byte	0x3
 5358 1497 00000000 		.4byte	down_big
 5359 149b 19       		.uleb128 0x19
 5360 149c 78080000 		.4byte	.LASF86
 5361 14a0 01       		.byte	0x1
 5362 14a1 3E       		.byte	0x3e
 5363 14a2 6F000000 		.4byte	0x6f
 5364 14a6 05       		.uleb128 0x5
 5365 14a7 03       		.byte	0x3
 5366 14a8 00000000 		.4byte	up_big
 5367 14ac 19       		.uleb128 0x19
 5368 14ad 5D060000 		.4byte	.LASF87
 5369 14b1 01       		.byte	0x1
 5370 14b2 3F       		.byte	0x3f
 5371 14b3 6F000000 		.4byte	0x6f
 5372 14b7 05       		.uleb128 0x5
 5373 14b8 03       		.byte	0x3
 5374 14b9 00000000 		.4byte	open_small
 5375 14bd 19       		.uleb128 0x19
 5376 14be FE010000 		.4byte	.LASF88
 5377 14c2 01       		.byte	0x1
 5378 14c3 40       		.byte	0x40
 5379 14c4 6F000000 		.4byte	0x6f
ARM GAS  C:\Users\weiro\AppData\Local\Temp\cc9naSHk.s 			page 115


 5380 14c8 05       		.uleb128 0x5
 5381 14c9 03       		.byte	0x3
 5382 14ca 00000000 		.4byte	close_small
 5383 14ce 1D       		.uleb128 0x1d
 5384 14cf 20070000 		.4byte	.LASF89
 5385 14d3 20070000 		.4byte	.LASF89
 5386 14d7 05       		.byte	0x5
 5387 14d8 CA       		.byte	0xca
 5388 14d9 1D       		.uleb128 0x1d
 5389 14da 26000000 		.4byte	.LASF90
 5390 14de 26000000 		.4byte	.LASF90
 5391 14e2 06       		.byte	0x6
 5392 14e3 2F       		.byte	0x2f
 5393 14e4 1D       		.uleb128 0x1d
 5394 14e5 13000000 		.4byte	.LASF91
 5395 14e9 13000000 		.4byte	.LASF91
 5396 14ed 07       		.byte	0x7
 5397 14ee 76       		.byte	0x76
 5398 14ef 1D       		.uleb128 0x1d
 5399 14f0 22020000 		.4byte	.LASF92
 5400 14f4 22020000 		.4byte	.LASF92
 5401 14f8 08       		.byte	0x8
 5402 14f9 5E       		.byte	0x5e
 5403 14fa 1D       		.uleb128 0x1d
 5404 14fb 9B020000 		.4byte	.LASF93
 5405 14ff 9B020000 		.4byte	.LASF93
 5406 1503 09       		.byte	0x9
 5407 1504 26       		.byte	0x26
 5408 1505 1D       		.uleb128 0x1d
 5409 1506 18020000 		.4byte	.LASF94
 5410 150a 18020000 		.4byte	.LASF94
 5411 150e 07       		.byte	0x7
 5412 150f 77       		.byte	0x77
 5413 1510 1D       		.uleb128 0x1d
 5414 1511 19010000 		.4byte	.LASF95
 5415 1515 19010000 		.4byte	.LASF95
 5416 1519 0A       		.byte	0xa
 5417 151a 5E       		.byte	0x5e
 5418 151b 1D       		.uleb128 0x1d
 5419 151c 53040000 		.4byte	.LASF96
 5420 1520 53040000 		.4byte	.LASF96
 5421 1524 0A       		.byte	0xa
 5422 1525 69       		.byte	0x69
 5423 1526 1D       		.uleb128 0x1d
 5424 1527 35050000 		.4byte	.LASF97
 5425 152b 35050000 		.4byte	.LASF97
 5426 152f 0B       		.byte	0xb
 5427 1530 E7       		.byte	0xe7
 5428 1531 1D       		.uleb128 0x1d
 5429 1532 ED030000 		.4byte	.LASF98
 5430 1536 ED030000 		.4byte	.LASF98
 5431 153a 0C       		.byte	0xc
 5432 153b 97       		.byte	0x97
 5433 153c 1D       		.uleb128 0x1d
 5434 153d C7030000 		.4byte	.LASF99
 5435 1541 C7030000 		.4byte	.LASF99
 5436 1545 0D       		.byte	0xd
ARM GAS  C:\Users\weiro\AppData\Local\Temp\cc9naSHk.s 			page 116


 5437 1546 26       		.byte	0x26
 5438 1547 1D       		.uleb128 0x1d
 5439 1548 AB070000 		.4byte	.LASF100
 5440 154c AB070000 		.4byte	.LASF100
 5441 1550 0E       		.byte	0xe
 5442 1551 26       		.byte	0x26
 5443 1552 1D       		.uleb128 0x1d
 5444 1553 98070000 		.4byte	.LASF101
 5445 1557 98070000 		.4byte	.LASF101
 5446 155b 0F       		.byte	0xf
 5447 155c 26       		.byte	0x26
 5448 155d 1D       		.uleb128 0x1d
 5449 155e DA030000 		.4byte	.LASF102
 5450 1562 DA030000 		.4byte	.LASF102
 5451 1566 10       		.byte	0x10
 5452 1567 26       		.byte	0x26
 5453 1568 1D       		.uleb128 0x1d
 5454 1569 C7070000 		.4byte	.LASF103
 5455 156d C7070000 		.4byte	.LASF103
 5456 1571 11       		.byte	0x11
 5457 1572 4F       		.byte	0x4f
 5458 1573 1D       		.uleb128 0x1d
 5459 1574 BF010000 		.4byte	.LASF104
 5460 1578 BF010000 		.4byte	.LASF104
 5461 157c 12       		.byte	0x12
 5462 157d 4F       		.byte	0x4f
 5463 157e 1D       		.uleb128 0x1d
 5464 157f 92000000 		.4byte	.LASF105
 5465 1583 92000000 		.4byte	.LASF105
 5466 1587 11       		.byte	0x11
 5467 1588 4E       		.byte	0x4e
 5468 1589 1D       		.uleb128 0x1d
 5469 158a B2030000 		.4byte	.LASF106
 5470 158e B2030000 		.4byte	.LASF106
 5471 1592 12       		.byte	0x12
 5472 1593 4E       		.byte	0x4e
 5473 1594 1E       		.uleb128 0x1e
 5474 1595 71050000 		.4byte	.LASF34
 5475 1599 71050000 		.4byte	.LASF34
 5476 159d 01       		.byte	0x1
 5477 159e 5501     		.2byte	0x155
 5478 15a0 1D       		.uleb128 0x1d
 5479 15a1 87050000 		.4byte	.LASF107
 5480 15a5 87050000 		.4byte	.LASF107
 5481 15a9 13       		.byte	0x13
 5482 15aa 29       		.byte	0x29
 5483 15ab 1E       		.uleb128 0x1e
 5484 15ac C3080000 		.4byte	.LASF35
 5485 15b0 C3080000 		.4byte	.LASF35
 5486 15b4 01       		.byte	0x1
 5487 15b5 7F01     		.2byte	0x17f
 5488 15b7 1D       		.uleb128 0x1d
 5489 15b8 6E030000 		.4byte	.LASF108
 5490 15bc 6E030000 		.4byte	.LASF108
 5491 15c0 14       		.byte	0x14
 5492 15c1 8B       		.byte	0x8b
 5493 15c2 1D       		.uleb128 0x1d
ARM GAS  C:\Users\weiro\AppData\Local\Temp\cc9naSHk.s 			page 117


 5494 15c3 DF050000 		.4byte	.LASF109
 5495 15c7 DF050000 		.4byte	.LASF109
 5496 15cb 15       		.byte	0x15
 5497 15cc 29       		.byte	0x29
 5498 15cd 1D       		.uleb128 0x1d
 5499 15ce EF000000 		.4byte	.LASF110
 5500 15d2 EF000000 		.4byte	.LASF110
 5501 15d6 16       		.byte	0x16
 5502 15d7 29       		.byte	0x29
 5503 15d8 1D       		.uleb128 0x1d
 5504 15d9 22060000 		.4byte	.LASF111
 5505 15dd 22060000 		.4byte	.LASF111
 5506 15e1 17       		.byte	0x17
 5507 15e2 26       		.byte	0x26
 5508 15e3 1D       		.uleb128 0x1d
 5509 15e4 92020000 		.4byte	.LASF112
 5510 15e8 92020000 		.4byte	.LASF112
 5511 15ec 18       		.byte	0x18
 5512 15ed 26       		.byte	0x26
 5513 15ee 1D       		.uleb128 0x1d
 5514 15ef 62000000 		.4byte	.LASF113
 5515 15f3 62000000 		.4byte	.LASF113
 5516 15f7 19       		.byte	0x19
 5517 15f8 26       		.byte	0x26
 5518 15f9 1D       		.uleb128 0x1d
 5519 15fa EE050000 		.4byte	.LASF114
 5520 15fe EE050000 		.4byte	.LASF114
 5521 1602 1A       		.byte	0x1a
 5522 1603 4F       		.byte	0x4f
 5523 1604 1D       		.uleb128 0x1d
 5524 1605 BE070000 		.4byte	.LASF115
 5525 1609 BE070000 		.4byte	.LASF115
 5526 160d 1B       		.byte	0x1b
 5527 160e 26       		.byte	0x26
 5528 160f 1D       		.uleb128 0x1d
 5529 1610 10040000 		.4byte	.LASF116
 5530 1614 10040000 		.4byte	.LASF116
 5531 1618 1C       		.byte	0x1c
 5532 1619 26       		.byte	0x26
 5533 161a 1D       		.uleb128 0x1d
 5534 161b 31040000 		.4byte	.LASF117
 5535 161f 31040000 		.4byte	.LASF117
 5536 1623 1D       		.byte	0x1d
 5537 1624 2F       		.byte	0x2f
 5538 1625 1D       		.uleb128 0x1d
 5539 1626 A7040000 		.4byte	.LASF118
 5540 162a A7040000 		.4byte	.LASF118
 5541 162e 1A       		.byte	0x1a
 5542 162f 5E       		.byte	0x5e
 5543 1630 1D       		.uleb128 0x1d
 5544 1631 93060000 		.4byte	.LASF119
 5545 1635 93060000 		.4byte	.LASF119
 5546 1639 1A       		.byte	0x1a
 5547 163a 50       		.byte	0x50
 5548 163b 1D       		.uleb128 0x1d
 5549 163c 41070000 		.4byte	.LASF120
 5550 1640 41070000 		.4byte	.LASF120
ARM GAS  C:\Users\weiro\AppData\Local\Temp\cc9naSHk.s 			page 118


 5551 1644 1E       		.byte	0x1e
 5552 1645 26       		.byte	0x26
 5553 1646 1D       		.uleb128 0x1d
 5554 1647 44010000 		.4byte	.LASF121
 5555 164b 44010000 		.4byte	.LASF121
 5556 164f 1F       		.byte	0x1f
 5557 1650 26       		.byte	0x26
 5558 1651 1D       		.uleb128 0x1d
 5559 1652 B3020000 		.4byte	.LASF122
 5560 1656 B3020000 		.4byte	.LASF122
 5561 165a 20       		.byte	0x20
 5562 165b 26       		.byte	0x26
 5563 165c 1D       		.uleb128 0x1d
 5564 165d B4000000 		.4byte	.LASF123
 5565 1661 B4000000 		.4byte	.LASF123
 5566 1665 21       		.byte	0x21
 5567 1666 18       		.byte	0x18
 5568 1667 1D       		.uleb128 0x1d
 5569 1668 67040000 		.4byte	.LASF124
 5570 166c 67040000 		.4byte	.LASF124
 5571 1670 22       		.byte	0x22
 5572 1671 18       		.byte	0x18
 5573 1672 1D       		.uleb128 0x1d
 5574 1673 46080000 		.4byte	.LASF125
 5575 1677 46080000 		.4byte	.LASF125
 5576 167b 23       		.byte	0x23
 5577 167c 5A       		.byte	0x5a
 5578 167d 1D       		.uleb128 0x1d
 5579 167e 45040000 		.4byte	.LASF126
 5580 1682 45040000 		.4byte	.LASF126
 5581 1686 08       		.byte	0x8
 5582 1687 5A       		.byte	0x5a
 5583 1688 1D       		.uleb128 0x1d
 5584 1689 6F000000 		.4byte	.LASF127
 5585 168d 6F000000 		.4byte	.LASF127
 5586 1691 0A       		.byte	0xa
 5587 1692 5A       		.byte	0x5a
 5588 1693 1D       		.uleb128 0x1d
 5589 1694 7F030000 		.4byte	.LASF128
 5590 1698 7F030000 		.4byte	.LASF128
 5591 169c 24       		.byte	0x24
 5592 169d 18       		.byte	0x18
 5593 169e 1D       		.uleb128 0x1d
 5594 169f 3D050000 		.4byte	.LASF129
 5595 16a3 3D050000 		.4byte	.LASF129
 5596 16a7 25       		.byte	0x25
 5597 16a8 18       		.byte	0x18
 5598 16a9 1D       		.uleb128 0x1d
 5599 16aa 72020000 		.4byte	.LASF130
 5600 16ae 72020000 		.4byte	.LASF130
 5601 16b2 0C       		.byte	0xc
 5602 16b3 92       		.byte	0x92
 5603 16b4 1D       		.uleb128 0x1d
 5604 16b5 11060000 		.4byte	.LASF131
 5605 16b9 11060000 		.4byte	.LASF131
 5606 16bd 05       		.byte	0x5
 5607 16be 92       		.byte	0x92
ARM GAS  C:\Users\weiro\AppData\Local\Temp\cc9naSHk.s 			page 119


 5608 16bf 1D       		.uleb128 0x1d
 5609 16c0 7D000000 		.4byte	.LASF132
 5610 16c4 7D000000 		.4byte	.LASF132
 5611 16c8 26       		.byte	0x26
 5612 16c9 92       		.byte	0x92
 5613 16ca 1D       		.uleb128 0x1d
 5614 16cb 4F000000 		.4byte	.LASF133
 5615 16cf 4F000000 		.4byte	.LASF133
 5616 16d3 27       		.byte	0x27
 5617 16d4 92       		.byte	0x92
 5618 16d5 1D       		.uleb128 0x1d
 5619 16d6 34010000 		.4byte	.LASF134
 5620 16da 34010000 		.4byte	.LASF134
 5621 16de 11       		.byte	0x11
 5622 16df 48       		.byte	0x48
 5623 16e0 1D       		.uleb128 0x1d
 5624 16e1 AF050000 		.4byte	.LASF135
 5625 16e5 AF050000 		.4byte	.LASF135
 5626 16e9 12       		.byte	0x12
 5627 16ea 48       		.byte	0x48
 5628 16eb 1D       		.uleb128 0x1d
 5629 16ec AC060000 		.4byte	.LASF136
 5630 16f0 AC060000 		.4byte	.LASF136
 5631 16f4 14       		.byte	0x14
 5632 16f5 54       		.byte	0x54
 5633 16f6 1D       		.uleb128 0x1d
 5634 16f7 07070000 		.4byte	.LASF137
 5635 16fb 07070000 		.4byte	.LASF137
 5636 16ff 05       		.byte	0x5
 5637 1700 C7       		.byte	0xc7
 5638 1701 1D       		.uleb128 0x1d
 5639 1702 8D030000 		.4byte	.LASF138
 5640 1706 8D030000 		.4byte	.LASF138
 5641 170a 27       		.byte	0x27
 5642 170b C3       		.byte	0xc3
 5643 170c 1D       		.uleb128 0x1d
 5644 170d 0D050000 		.4byte	.LASF139
 5645 1711 0D050000 		.4byte	.LASF139
 5646 1715 26       		.byte	0x26
 5647 1716 C3       		.byte	0xc3
 5648 1717 00       		.byte	0
 5649              		.section	.debug_abbrev,"",%progbits
 5650              	.Ldebug_abbrev0:
 5651 0000 01       		.uleb128 0x1
 5652 0001 11       		.uleb128 0x11
 5653 0002 01       		.byte	0x1
 5654 0003 25       		.uleb128 0x25
 5655 0004 0E       		.uleb128 0xe
 5656 0005 13       		.uleb128 0x13
 5657 0006 0B       		.uleb128 0xb
 5658 0007 03       		.uleb128 0x3
 5659 0008 0E       		.uleb128 0xe
 5660 0009 1B       		.uleb128 0x1b
 5661 000a 0E       		.uleb128 0xe
 5662 000b 55       		.uleb128 0x55
 5663 000c 17       		.uleb128 0x17
 5664 000d 11       		.uleb128 0x11
ARM GAS  C:\Users\weiro\AppData\Local\Temp\cc9naSHk.s 			page 120


 5665 000e 01       		.uleb128 0x1
 5666 000f 10       		.uleb128 0x10
 5667 0010 17       		.uleb128 0x17
 5668 0011 00       		.byte	0
 5669 0012 00       		.byte	0
 5670 0013 02       		.uleb128 0x2
 5671 0014 24       		.uleb128 0x24
 5672 0015 00       		.byte	0
 5673 0016 0B       		.uleb128 0xb
 5674 0017 0B       		.uleb128 0xb
 5675 0018 3E       		.uleb128 0x3e
 5676 0019 0B       		.uleb128 0xb
 5677 001a 03       		.uleb128 0x3
 5678 001b 0E       		.uleb128 0xe
 5679 001c 00       		.byte	0
 5680 001d 00       		.byte	0
 5681 001e 03       		.uleb128 0x3
 5682 001f 16       		.uleb128 0x16
 5683 0020 00       		.byte	0
 5684 0021 03       		.uleb128 0x3
 5685 0022 0E       		.uleb128 0xe
 5686 0023 3A       		.uleb128 0x3a
 5687 0024 0B       		.uleb128 0xb
 5688 0025 3B       		.uleb128 0x3b
 5689 0026 0B       		.uleb128 0xb
 5690 0027 49       		.uleb128 0x49
 5691 0028 13       		.uleb128 0x13
 5692 0029 00       		.byte	0
 5693 002a 00       		.byte	0
 5694 002b 04       		.uleb128 0x4
 5695 002c 24       		.uleb128 0x24
 5696 002d 00       		.byte	0
 5697 002e 0B       		.uleb128 0xb
 5698 002f 0B       		.uleb128 0xb
 5699 0030 3E       		.uleb128 0x3e
 5700 0031 0B       		.uleb128 0xb
 5701 0032 03       		.uleb128 0x3
 5702 0033 08       		.uleb128 0x8
 5703 0034 00       		.byte	0
 5704 0035 00       		.byte	0
 5705 0036 05       		.uleb128 0x5
 5706 0037 2E       		.uleb128 0x2e
 5707 0038 01       		.byte	0x1
 5708 0039 3F       		.uleb128 0x3f
 5709 003a 19       		.uleb128 0x19
 5710 003b 03       		.uleb128 0x3
 5711 003c 0E       		.uleb128 0xe
 5712 003d 3A       		.uleb128 0x3a
 5713 003e 0B       		.uleb128 0xb
 5714 003f 3B       		.uleb128 0x3b
 5715 0040 0B       		.uleb128 0xb
 5716 0041 27       		.uleb128 0x27
 5717 0042 19       		.uleb128 0x19
 5718 0043 11       		.uleb128 0x11
 5719 0044 01       		.uleb128 0x1
 5720 0045 12       		.uleb128 0x12
 5721 0046 06       		.uleb128 0x6
ARM GAS  C:\Users\weiro\AppData\Local\Temp\cc9naSHk.s 			page 121


 5722 0047 40       		.uleb128 0x40
 5723 0048 18       		.uleb128 0x18
 5724 0049 9642     		.uleb128 0x2116
 5725 004b 19       		.uleb128 0x19
 5726 004c 01       		.uleb128 0x1
 5727 004d 13       		.uleb128 0x13
 5728 004e 00       		.byte	0
 5729 004f 00       		.byte	0
 5730 0050 06       		.uleb128 0x6
 5731 0051 898201   		.uleb128 0x4109
 5732 0054 00       		.byte	0
 5733 0055 11       		.uleb128 0x11
 5734 0056 01       		.uleb128 0x1
 5735 0057 31       		.uleb128 0x31
 5736 0058 13       		.uleb128 0x13
 5737 0059 00       		.byte	0
 5738 005a 00       		.byte	0
 5739 005b 07       		.uleb128 0x7
 5740 005c 2E       		.uleb128 0x2e
 5741 005d 01       		.byte	0x1
 5742 005e 3F       		.uleb128 0x3f
 5743 005f 19       		.uleb128 0x19
 5744 0060 03       		.uleb128 0x3
 5745 0061 0E       		.uleb128 0xe
 5746 0062 3A       		.uleb128 0x3a
 5747 0063 0B       		.uleb128 0xb
 5748 0064 3B       		.uleb128 0x3b
 5749 0065 0B       		.uleb128 0xb
 5750 0066 27       		.uleb128 0x27
 5751 0067 19       		.uleb128 0x19
 5752 0068 11       		.uleb128 0x11
 5753 0069 01       		.uleb128 0x1
 5754 006a 12       		.uleb128 0x12
 5755 006b 06       		.uleb128 0x6
 5756 006c 40       		.uleb128 0x40
 5757 006d 18       		.uleb128 0x18
 5758 006e 9742     		.uleb128 0x2117
 5759 0070 19       		.uleb128 0x19
 5760 0071 01       		.uleb128 0x1
 5761 0072 13       		.uleb128 0x13
 5762 0073 00       		.byte	0
 5763 0074 00       		.byte	0
 5764 0075 08       		.uleb128 0x8
 5765 0076 898201   		.uleb128 0x4109
 5766 0079 01       		.byte	0x1
 5767 007a 11       		.uleb128 0x11
 5768 007b 01       		.uleb128 0x1
 5769 007c 31       		.uleb128 0x31
 5770 007d 13       		.uleb128 0x13
 5771 007e 01       		.uleb128 0x1
 5772 007f 13       		.uleb128 0x13
 5773 0080 00       		.byte	0
 5774 0081 00       		.byte	0
 5775 0082 09       		.uleb128 0x9
 5776 0083 8A8201   		.uleb128 0x410a
 5777 0086 00       		.byte	0
 5778 0087 02       		.uleb128 0x2
ARM GAS  C:\Users\weiro\AppData\Local\Temp\cc9naSHk.s 			page 122


 5779 0088 18       		.uleb128 0x18
 5780 0089 9142     		.uleb128 0x2111
 5781 008b 18       		.uleb128 0x18
 5782 008c 00       		.byte	0
 5783 008d 00       		.byte	0
 5784 008e 0A       		.uleb128 0xa
 5785 008f 898201   		.uleb128 0x4109
 5786 0092 01       		.byte	0x1
 5787 0093 11       		.uleb128 0x11
 5788 0094 01       		.uleb128 0x1
 5789 0095 31       		.uleb128 0x31
 5790 0096 13       		.uleb128 0x13
 5791 0097 00       		.byte	0
 5792 0098 00       		.byte	0
 5793 0099 0B       		.uleb128 0xb
 5794 009a 2E       		.uleb128 0x2e
 5795 009b 01       		.byte	0x1
 5796 009c 3F       		.uleb128 0x3f
 5797 009d 19       		.uleb128 0x19
 5798 009e 03       		.uleb128 0x3
 5799 009f 0E       		.uleb128 0xe
 5800 00a0 3A       		.uleb128 0x3a
 5801 00a1 0B       		.uleb128 0xb
 5802 00a2 3B       		.uleb128 0x3b
 5803 00a3 0B       		.uleb128 0xb
 5804 00a4 11       		.uleb128 0x11
 5805 00a5 01       		.uleb128 0x1
 5806 00a6 12       		.uleb128 0x12
 5807 00a7 06       		.uleb128 0x6
 5808 00a8 40       		.uleb128 0x40
 5809 00a9 18       		.uleb128 0x18
 5810 00aa 9742     		.uleb128 0x2117
 5811 00ac 19       		.uleb128 0x19
 5812 00ad 01       		.uleb128 0x1
 5813 00ae 13       		.uleb128 0x13
 5814 00af 00       		.byte	0
 5815 00b0 00       		.byte	0
 5816 00b1 0C       		.uleb128 0xc
 5817 00b2 2E       		.uleb128 0x2e
 5818 00b3 01       		.byte	0x1
 5819 00b4 3F       		.uleb128 0x3f
 5820 00b5 19       		.uleb128 0x19
 5821 00b6 03       		.uleb128 0x3
 5822 00b7 0E       		.uleb128 0xe
 5823 00b8 3A       		.uleb128 0x3a
 5824 00b9 0B       		.uleb128 0xb
 5825 00ba 3B       		.uleb128 0x3b
 5826 00bb 05       		.uleb128 0x5
 5827 00bc 11       		.uleb128 0x11
 5828 00bd 01       		.uleb128 0x1
 5829 00be 12       		.uleb128 0x12
 5830 00bf 06       		.uleb128 0x6
 5831 00c0 40       		.uleb128 0x40
 5832 00c1 18       		.uleb128 0x18
 5833 00c2 9742     		.uleb128 0x2117
 5834 00c4 19       		.uleb128 0x19
 5835 00c5 01       		.uleb128 0x1
ARM GAS  C:\Users\weiro\AppData\Local\Temp\cc9naSHk.s 			page 123


 5836 00c6 13       		.uleb128 0x13
 5837 00c7 00       		.byte	0
 5838 00c8 00       		.byte	0
 5839 00c9 0D       		.uleb128 0xd
 5840 00ca 2E       		.uleb128 0x2e
 5841 00cb 01       		.byte	0x1
 5842 00cc 3F       		.uleb128 0x3f
 5843 00cd 19       		.uleb128 0x19
 5844 00ce 03       		.uleb128 0x3
 5845 00cf 0E       		.uleb128 0xe
 5846 00d0 3A       		.uleb128 0x3a
 5847 00d1 0B       		.uleb128 0xb
 5848 00d2 3B       		.uleb128 0x3b
 5849 00d3 05       		.uleb128 0x5
 5850 00d4 27       		.uleb128 0x27
 5851 00d5 19       		.uleb128 0x19
 5852 00d6 11       		.uleb128 0x11
 5853 00d7 01       		.uleb128 0x1
 5854 00d8 12       		.uleb128 0x12
 5855 00d9 06       		.uleb128 0x6
 5856 00da 40       		.uleb128 0x40
 5857 00db 18       		.uleb128 0x18
 5858 00dc 9642     		.uleb128 0x2116
 5859 00de 19       		.uleb128 0x19
 5860 00df 01       		.uleb128 0x1
 5861 00e0 13       		.uleb128 0x13
 5862 00e1 00       		.byte	0
 5863 00e2 00       		.byte	0
 5864 00e3 0E       		.uleb128 0xe
 5865 00e4 05       		.uleb128 0x5
 5866 00e5 00       		.byte	0
 5867 00e6 03       		.uleb128 0x3
 5868 00e7 0E       		.uleb128 0xe
 5869 00e8 3A       		.uleb128 0x3a
 5870 00e9 0B       		.uleb128 0xb
 5871 00ea 3B       		.uleb128 0x3b
 5872 00eb 05       		.uleb128 0x5
 5873 00ec 49       		.uleb128 0x49
 5874 00ed 13       		.uleb128 0x13
 5875 00ee 02       		.uleb128 0x2
 5876 00ef 17       		.uleb128 0x17
 5877 00f0 00       		.byte	0
 5878 00f1 00       		.byte	0
 5879 00f2 0F       		.uleb128 0xf
 5880 00f3 34       		.uleb128 0x34
 5881 00f4 00       		.byte	0
 5882 00f5 03       		.uleb128 0x3
 5883 00f6 0E       		.uleb128 0xe
 5884 00f7 3A       		.uleb128 0x3a
 5885 00f8 0B       		.uleb128 0xb
 5886 00f9 3B       		.uleb128 0x3b
 5887 00fa 05       		.uleb128 0x5
 5888 00fb 49       		.uleb128 0x49
 5889 00fc 13       		.uleb128 0x13
 5890 00fd 02       		.uleb128 0x2
 5891 00fe 17       		.uleb128 0x17
 5892 00ff 00       		.byte	0
ARM GAS  C:\Users\weiro\AppData\Local\Temp\cc9naSHk.s 			page 124


 5893 0100 00       		.byte	0
 5894 0101 10       		.uleb128 0x10
 5895 0102 2E       		.uleb128 0x2e
 5896 0103 01       		.byte	0x1
 5897 0104 3F       		.uleb128 0x3f
 5898 0105 19       		.uleb128 0x19
 5899 0106 03       		.uleb128 0x3
 5900 0107 0E       		.uleb128 0xe
 5901 0108 3A       		.uleb128 0x3a
 5902 0109 0B       		.uleb128 0xb
 5903 010a 3B       		.uleb128 0x3b
 5904 010b 05       		.uleb128 0x5
 5905 010c 11       		.uleb128 0x11
 5906 010d 01       		.uleb128 0x1
 5907 010e 12       		.uleb128 0x12
 5908 010f 06       		.uleb128 0x6
 5909 0110 40       		.uleb128 0x40
 5910 0111 18       		.uleb128 0x18
 5911 0112 9642     		.uleb128 0x2116
 5912 0114 19       		.uleb128 0x19
 5913 0115 01       		.uleb128 0x1
 5914 0116 13       		.uleb128 0x13
 5915 0117 00       		.byte	0
 5916 0118 00       		.byte	0
 5917 0119 11       		.uleb128 0x11
 5918 011a 0B       		.uleb128 0xb
 5919 011b 01       		.byte	0x1
 5920 011c 11       		.uleb128 0x11
 5921 011d 01       		.uleb128 0x1
 5922 011e 12       		.uleb128 0x12
 5923 011f 06       		.uleb128 0x6
 5924 0120 01       		.uleb128 0x1
 5925 0121 13       		.uleb128 0x13
 5926 0122 00       		.byte	0
 5927 0123 00       		.byte	0
 5928 0124 12       		.uleb128 0x12
 5929 0125 2E       		.uleb128 0x2e
 5930 0126 01       		.byte	0x1
 5931 0127 3F       		.uleb128 0x3f
 5932 0128 19       		.uleb128 0x19
 5933 0129 03       		.uleb128 0x3
 5934 012a 0E       		.uleb128 0xe
 5935 012b 3A       		.uleb128 0x3a
 5936 012c 0B       		.uleb128 0xb
 5937 012d 3B       		.uleb128 0x3b
 5938 012e 05       		.uleb128 0x5
 5939 012f 49       		.uleb128 0x49
 5940 0130 13       		.uleb128 0x13
 5941 0131 3C       		.uleb128 0x3c
 5942 0132 19       		.uleb128 0x19
 5943 0133 01       		.uleb128 0x1
 5944 0134 13       		.uleb128 0x13
 5945 0135 00       		.byte	0
 5946 0136 00       		.byte	0
 5947 0137 13       		.uleb128 0x13
 5948 0138 18       		.uleb128 0x18
 5949 0139 00       		.byte	0
ARM GAS  C:\Users\weiro\AppData\Local\Temp\cc9naSHk.s 			page 125


 5950 013a 00       		.byte	0
 5951 013b 00       		.byte	0
 5952 013c 14       		.uleb128 0x14
 5953 013d 2E       		.uleb128 0x2e
 5954 013e 01       		.byte	0x1
 5955 013f 3F       		.uleb128 0x3f
 5956 0140 19       		.uleb128 0x19
 5957 0141 03       		.uleb128 0x3
 5958 0142 08       		.uleb128 0x8
 5959 0143 3A       		.uleb128 0x3a
 5960 0144 0B       		.uleb128 0xb
 5961 0145 3B       		.uleb128 0x3b
 5962 0146 05       		.uleb128 0x5
 5963 0147 27       		.uleb128 0x27
 5964 0148 19       		.uleb128 0x19
 5965 0149 11       		.uleb128 0x11
 5966 014a 01       		.uleb128 0x1
 5967 014b 12       		.uleb128 0x12
 5968 014c 06       		.uleb128 0x6
 5969 014d 40       		.uleb128 0x40
 5970 014e 18       		.uleb128 0x18
 5971 014f 9742     		.uleb128 0x2117
 5972 0151 19       		.uleb128 0x19
 5973 0152 01       		.uleb128 0x1
 5974 0153 13       		.uleb128 0x13
 5975 0154 00       		.byte	0
 5976 0155 00       		.byte	0
 5977 0156 15       		.uleb128 0x15
 5978 0157 34       		.uleb128 0x34
 5979 0158 00       		.byte	0
 5980 0159 03       		.uleb128 0x3
 5981 015a 0E       		.uleb128 0xe
 5982 015b 3A       		.uleb128 0x3a
 5983 015c 0B       		.uleb128 0xb
 5984 015d 3B       		.uleb128 0x3b
 5985 015e 05       		.uleb128 0x5
 5986 015f 49       		.uleb128 0x49
 5987 0160 13       		.uleb128 0x13
 5988 0161 1C       		.uleb128 0x1c
 5989 0162 0B       		.uleb128 0xb
 5990 0163 00       		.byte	0
 5991 0164 00       		.byte	0
 5992 0165 16       		.uleb128 0x16
 5993 0166 2E       		.uleb128 0x2e
 5994 0167 01       		.byte	0x1
 5995 0168 3F       		.uleb128 0x3f
 5996 0169 19       		.uleb128 0x19
 5997 016a 03       		.uleb128 0x3
 5998 016b 0E       		.uleb128 0xe
 5999 016c 3A       		.uleb128 0x3a
 6000 016d 0B       		.uleb128 0xb
 6001 016e 3B       		.uleb128 0x3b
 6002 016f 05       		.uleb128 0x5
 6003 0170 27       		.uleb128 0x27
 6004 0171 19       		.uleb128 0x19
 6005 0172 49       		.uleb128 0x49
 6006 0173 13       		.uleb128 0x13
ARM GAS  C:\Users\weiro\AppData\Local\Temp\cc9naSHk.s 			page 126


 6007 0174 11       		.uleb128 0x11
 6008 0175 01       		.uleb128 0x1
 6009 0176 12       		.uleb128 0x12
 6010 0177 06       		.uleb128 0x6
 6011 0178 40       		.uleb128 0x40
 6012 0179 18       		.uleb128 0x18
 6013 017a 9642     		.uleb128 0x2116
 6014 017c 19       		.uleb128 0x19
 6015 017d 01       		.uleb128 0x1
 6016 017e 13       		.uleb128 0x13
 6017 017f 00       		.byte	0
 6018 0180 00       		.byte	0
 6019 0181 17       		.uleb128 0x17
 6020 0182 34       		.uleb128 0x34
 6021 0183 00       		.byte	0
 6022 0184 03       		.uleb128 0x3
 6023 0185 0E       		.uleb128 0xe
 6024 0186 3A       		.uleb128 0x3a
 6025 0187 0B       		.uleb128 0xb
 6026 0188 3B       		.uleb128 0x3b
 6027 0189 05       		.uleb128 0x5
 6028 018a 49       		.uleb128 0x49
 6029 018b 13       		.uleb128 0x13
 6030 018c 3F       		.uleb128 0x3f
 6031 018d 19       		.uleb128 0x19
 6032 018e 3C       		.uleb128 0x3c
 6033 018f 19       		.uleb128 0x19
 6034 0190 00       		.byte	0
 6035 0191 00       		.byte	0
 6036 0192 18       		.uleb128 0x18
 6037 0193 35       		.uleb128 0x35
 6038 0194 00       		.byte	0
 6039 0195 49       		.uleb128 0x49
 6040 0196 13       		.uleb128 0x13
 6041 0197 00       		.byte	0
 6042 0198 00       		.byte	0
 6043 0199 19       		.uleb128 0x19
 6044 019a 34       		.uleb128 0x34
 6045 019b 00       		.byte	0
 6046 019c 03       		.uleb128 0x3
 6047 019d 0E       		.uleb128 0xe
 6048 019e 3A       		.uleb128 0x3a
 6049 019f 0B       		.uleb128 0xb
 6050 01a0 3B       		.uleb128 0x3b
 6051 01a1 0B       		.uleb128 0xb
 6052 01a2 49       		.uleb128 0x49
 6053 01a3 13       		.uleb128 0x13
 6054 01a4 3F       		.uleb128 0x3f
 6055 01a5 19       		.uleb128 0x19
 6056 01a6 02       		.uleb128 0x2
 6057 01a7 18       		.uleb128 0x18
 6058 01a8 00       		.byte	0
 6059 01a9 00       		.byte	0
 6060 01aa 1A       		.uleb128 0x1a
 6061 01ab 01       		.uleb128 0x1
 6062 01ac 01       		.byte	0x1
 6063 01ad 49       		.uleb128 0x49
ARM GAS  C:\Users\weiro\AppData\Local\Temp\cc9naSHk.s 			page 127


 6064 01ae 13       		.uleb128 0x13
 6065 01af 01       		.uleb128 0x1
 6066 01b0 13       		.uleb128 0x13
 6067 01b1 00       		.byte	0
 6068 01b2 00       		.byte	0
 6069 01b3 1B       		.uleb128 0x1b
 6070 01b4 21       		.uleb128 0x21
 6071 01b5 00       		.byte	0
 6072 01b6 49       		.uleb128 0x49
 6073 01b7 13       		.uleb128 0x13
 6074 01b8 2F       		.uleb128 0x2f
 6075 01b9 0B       		.uleb128 0xb
 6076 01ba 00       		.byte	0
 6077 01bb 00       		.byte	0
 6078 01bc 1C       		.uleb128 0x1c
 6079 01bd 34       		.uleb128 0x34
 6080 01be 00       		.byte	0
 6081 01bf 03       		.uleb128 0x3
 6082 01c0 08       		.uleb128 0x8
 6083 01c1 3A       		.uleb128 0x3a
 6084 01c2 0B       		.uleb128 0xb
 6085 01c3 3B       		.uleb128 0x3b
 6086 01c4 0B       		.uleb128 0xb
 6087 01c5 49       		.uleb128 0x49
 6088 01c6 13       		.uleb128 0x13
 6089 01c7 3F       		.uleb128 0x3f
 6090 01c8 19       		.uleb128 0x19
 6091 01c9 02       		.uleb128 0x2
 6092 01ca 18       		.uleb128 0x18
 6093 01cb 00       		.byte	0
 6094 01cc 00       		.byte	0
 6095 01cd 1D       		.uleb128 0x1d
 6096 01ce 2E       		.uleb128 0x2e
 6097 01cf 00       		.byte	0
 6098 01d0 3F       		.uleb128 0x3f
 6099 01d1 19       		.uleb128 0x19
 6100 01d2 3C       		.uleb128 0x3c
 6101 01d3 19       		.uleb128 0x19
 6102 01d4 6E       		.uleb128 0x6e
 6103 01d5 0E       		.uleb128 0xe
 6104 01d6 03       		.uleb128 0x3
 6105 01d7 0E       		.uleb128 0xe
 6106 01d8 3A       		.uleb128 0x3a
 6107 01d9 0B       		.uleb128 0xb
 6108 01da 3B       		.uleb128 0x3b
 6109 01db 0B       		.uleb128 0xb
 6110 01dc 00       		.byte	0
 6111 01dd 00       		.byte	0
 6112 01de 1E       		.uleb128 0x1e
 6113 01df 2E       		.uleb128 0x2e
 6114 01e0 00       		.byte	0
 6115 01e1 3F       		.uleb128 0x3f
 6116 01e2 19       		.uleb128 0x19
 6117 01e3 3C       		.uleb128 0x3c
 6118 01e4 19       		.uleb128 0x19
 6119 01e5 6E       		.uleb128 0x6e
 6120 01e6 0E       		.uleb128 0xe
ARM GAS  C:\Users\weiro\AppData\Local\Temp\cc9naSHk.s 			page 128


 6121 01e7 03       		.uleb128 0x3
 6122 01e8 0E       		.uleb128 0xe
 6123 01e9 3A       		.uleb128 0x3a
 6124 01ea 0B       		.uleb128 0xb
 6125 01eb 3B       		.uleb128 0x3b
 6126 01ec 05       		.uleb128 0x5
 6127 01ed 00       		.byte	0
 6128 01ee 00       		.byte	0
 6129 01ef 00       		.byte	0
 6130              		.section	.debug_loc,"",%progbits
 6131              	.Ldebug_loc0:
 6132              	.LLST0:
 6133 0000 00000000 		.4byte	.LVL42
 6134 0004 07000000 		.4byte	.LVL43-1
 6135 0008 0100     		.2byte	0x1
 6136 000a 50       		.byte	0x50
 6137 000b 07000000 		.4byte	.LVL43-1
 6138 000f 10010000 		.4byte	.LFE74
 6139 0013 0400     		.2byte	0x4
 6140 0015 F3       		.byte	0xf3
 6141 0016 01       		.uleb128 0x1
 6142 0017 50       		.byte	0x50
 6143 0018 9F       		.byte	0x9f
 6144 0019 00000000 		.4byte	0
 6145 001d 00000000 		.4byte	0
 6146              	.LLST1:
 6147 0021 00000000 		.4byte	.LVL42
 6148 0025 07000000 		.4byte	.LVL43-1
 6149 0029 0100     		.2byte	0x1
 6150 002b 51       		.byte	0x51
 6151 002c 07000000 		.4byte	.LVL43-1
 6152 0030 F4000000 		.4byte	.LVL74
 6153 0034 0100     		.2byte	0x1
 6154 0036 56       		.byte	0x56
 6155 0037 F4000000 		.4byte	.LVL74
 6156 003b 10010000 		.4byte	.LFE74
 6157 003f 0400     		.2byte	0x4
 6158 0041 F3       		.byte	0xf3
 6159 0042 01       		.uleb128 0x1
 6160 0043 51       		.byte	0x51
 6161 0044 9F       		.byte	0x9f
 6162 0045 00000000 		.4byte	0
 6163 0049 00000000 		.4byte	0
 6164              	.LLST2:
 6165 004d 70000000 		.4byte	.LVL56
 6166 0051 9E000000 		.4byte	.LVL60
 6167 0055 0600     		.2byte	0x6
 6168 0057 54       		.byte	0x54
 6169 0058 93       		.byte	0x93
 6170 0059 04       		.uleb128 0x4
 6171 005a 55       		.byte	0x55
 6172 005b 93       		.byte	0x93
 6173 005c 04       		.uleb128 0x4
 6174 005d AC000000 		.4byte	.LVL62
 6175 0061 B2000000 		.4byte	.LVL63
 6176 0065 0600     		.2byte	0x6
 6177 0067 54       		.byte	0x54
ARM GAS  C:\Users\weiro\AppData\Local\Temp\cc9naSHk.s 			page 129


 6178 0068 93       		.byte	0x93
 6179 0069 04       		.uleb128 0x4
 6180 006a 55       		.byte	0x55
 6181 006b 93       		.byte	0x93
 6182 006c 04       		.uleb128 0x4
 6183 006d C0000000 		.4byte	.LVL65
 6184 0071 C6000000 		.4byte	.LVL66
 6185 0075 0600     		.2byte	0x6
 6186 0077 54       		.byte	0x54
 6187 0078 93       		.byte	0x93
 6188 0079 04       		.uleb128 0x4
 6189 007a 55       		.byte	0x55
 6190 007b 93       		.byte	0x93
 6191 007c 04       		.uleb128 0x4
 6192 007d D8000000 		.4byte	.LVL69
 6193 0081 DE000000 		.4byte	.LVL70
 6194 0085 0600     		.2byte	0x6
 6195 0087 54       		.byte	0x54
 6196 0088 93       		.byte	0x93
 6197 0089 04       		.uleb128 0x4
 6198 008a 55       		.byte	0x55
 6199 008b 93       		.byte	0x93
 6200 008c 04       		.uleb128 0x4
 6201 008d 00000000 		.4byte	0
 6202 0091 00000000 		.4byte	0
 6203              	.LLST3:
 6204 0095 96000000 		.4byte	.LVL59
 6205 0099 A5000000 		.4byte	.LVL61-1
 6206 009d 0600     		.2byte	0x6
 6207 009f 50       		.byte	0x50
 6208 00a0 93       		.byte	0x93
 6209 00a1 04       		.uleb128 0x4
 6210 00a2 51       		.byte	0x51
 6211 00a3 93       		.byte	0x93
 6212 00a4 04       		.uleb128 0x4
 6213 00a5 AC000000 		.4byte	.LVL62
 6214 00a9 B9000000 		.4byte	.LVL64-1
 6215 00ad 0600     		.2byte	0x6
 6216 00af 50       		.byte	0x50
 6217 00b0 93       		.byte	0x93
 6218 00b1 04       		.uleb128 0x4
 6219 00b2 51       		.byte	0x51
 6220 00b3 93       		.byte	0x93
 6221 00b4 04       		.uleb128 0x4
 6222 00b5 C0000000 		.4byte	.LVL65
 6223 00b9 CE000000 		.4byte	.LVL67
 6224 00bd 0600     		.2byte	0x6
 6225 00bf 50       		.byte	0x50
 6226 00c0 93       		.byte	0x93
 6227 00c1 04       		.uleb128 0x4
 6228 00c2 51       		.byte	0x51
 6229 00c3 93       		.byte	0x93
 6230 00c4 04       		.uleb128 0x4
 6231 00c5 D8000000 		.4byte	.LVL69
 6232 00c9 E6000000 		.4byte	.LVL71
 6233 00cd 0600     		.2byte	0x6
 6234 00cf 50       		.byte	0x50
ARM GAS  C:\Users\weiro\AppData\Local\Temp\cc9naSHk.s 			page 130


 6235 00d0 93       		.byte	0x93
 6236 00d1 04       		.uleb128 0x4
 6237 00d2 51       		.byte	0x51
 6238 00d3 93       		.byte	0x93
 6239 00d4 04       		.uleb128 0x4
 6240 00d5 00000000 		.4byte	0
 6241 00d9 00000000 		.4byte	0
 6242              	.LLST4:
 6243 00dd 18000000 		.4byte	.LVL46
 6244 00e1 1A000000 		.4byte	.LVL47
 6245 00e5 0100     		.2byte	0x1
 6246 00e7 50       		.byte	0x50
 6247 00e8 1A000000 		.4byte	.LVL47
 6248 00ec 70000000 		.4byte	.LVL56
 6249 00f0 0100     		.2byte	0x1
 6250 00f2 55       		.byte	0x55
 6251 00f3 00000000 		.4byte	0
 6252 00f7 00000000 		.4byte	0
 6253              	.LLST5:
 6254 00fb 50000000 		.4byte	.LVL85
 6255 00ff 7E000000 		.4byte	.LVL89
 6256 0103 0600     		.2byte	0x6
 6257 0105 54       		.byte	0x54
 6258 0106 93       		.byte	0x93
 6259 0107 04       		.uleb128 0x4
 6260 0108 55       		.byte	0x55
 6261 0109 93       		.byte	0x93
 6262 010a 04       		.uleb128 0x4
 6263 010b 8C000000 		.4byte	.LVL91
 6264 010f 92000000 		.4byte	.LVL92
 6265 0113 0600     		.2byte	0x6
 6266 0115 54       		.byte	0x54
 6267 0116 93       		.byte	0x93
 6268 0117 04       		.uleb128 0x4
 6269 0118 55       		.byte	0x55
 6270 0119 93       		.byte	0x93
 6271 011a 04       		.uleb128 0x4
 6272 011b A0000000 		.4byte	.LVL94
 6273 011f A6000000 		.4byte	.LVL95
 6274 0123 0600     		.2byte	0x6
 6275 0125 54       		.byte	0x54
 6276 0126 93       		.byte	0x93
 6277 0127 04       		.uleb128 0x4
 6278 0128 55       		.byte	0x55
 6279 0129 93       		.byte	0x93
 6280 012a 04       		.uleb128 0x4
 6281 012b B8000000 		.4byte	.LVL98
 6282 012f BE000000 		.4byte	.LVL99
 6283 0133 0600     		.2byte	0x6
 6284 0135 54       		.byte	0x54
 6285 0136 93       		.byte	0x93
 6286 0137 04       		.uleb128 0x4
 6287 0138 55       		.byte	0x55
 6288 0139 93       		.byte	0x93
 6289 013a 04       		.uleb128 0x4
 6290 013b 00000000 		.4byte	0
 6291 013f 00000000 		.4byte	0
ARM GAS  C:\Users\weiro\AppData\Local\Temp\cc9naSHk.s 			page 131


 6292              	.LLST6:
 6293 0143 76000000 		.4byte	.LVL88
 6294 0147 85000000 		.4byte	.LVL90-1
 6295 014b 0600     		.2byte	0x6
 6296 014d 50       		.byte	0x50
 6297 014e 93       		.byte	0x93
 6298 014f 04       		.uleb128 0x4
 6299 0150 51       		.byte	0x51
 6300 0151 93       		.byte	0x93
 6301 0152 04       		.uleb128 0x4
 6302 0153 8C000000 		.4byte	.LVL91
 6303 0157 99000000 		.4byte	.LVL93-1
 6304 015b 0600     		.2byte	0x6
 6305 015d 50       		.byte	0x50
 6306 015e 93       		.byte	0x93
 6307 015f 04       		.uleb128 0x4
 6308 0160 51       		.byte	0x51
 6309 0161 93       		.byte	0x93
 6310 0162 04       		.uleb128 0x4
 6311 0163 A0000000 		.4byte	.LVL94
 6312 0167 AE000000 		.4byte	.LVL96
 6313 016b 0600     		.2byte	0x6
 6314 016d 50       		.byte	0x50
 6315 016e 93       		.byte	0x93
 6316 016f 04       		.uleb128 0x4
 6317 0170 51       		.byte	0x51
 6318 0171 93       		.byte	0x93
 6319 0172 04       		.uleb128 0x4
 6320 0173 B8000000 		.4byte	.LVL98
 6321 0177 C6000000 		.4byte	.LVL100
 6322 017b 0600     		.2byte	0x6
 6323 017d 50       		.byte	0x50
 6324 017e 93       		.byte	0x93
 6325 017f 04       		.uleb128 0x4
 6326 0180 51       		.byte	0x51
 6327 0181 93       		.byte	0x93
 6328 0182 04       		.uleb128 0x4
 6329 0183 00000000 		.4byte	0
 6330 0187 00000000 		.4byte	0
 6331              	.LLST7:
 6332 018b 72000000 		.4byte	.LVL115
 6333 018f A0000000 		.4byte	.LVL119
 6334 0193 0600     		.2byte	0x6
 6335 0195 54       		.byte	0x54
 6336 0196 93       		.byte	0x93
 6337 0197 04       		.uleb128 0x4
 6338 0198 55       		.byte	0x55
 6339 0199 93       		.byte	0x93
 6340 019a 04       		.uleb128 0x4
 6341 019b AE000000 		.4byte	.LVL121
 6342 019f B4000000 		.4byte	.LVL122
 6343 01a3 0600     		.2byte	0x6
 6344 01a5 54       		.byte	0x54
 6345 01a6 93       		.byte	0x93
 6346 01a7 04       		.uleb128 0x4
 6347 01a8 55       		.byte	0x55
 6348 01a9 93       		.byte	0x93
ARM GAS  C:\Users\weiro\AppData\Local\Temp\cc9naSHk.s 			page 132


 6349 01aa 04       		.uleb128 0x4
 6350 01ab C2000000 		.4byte	.LVL124
 6351 01af C8000000 		.4byte	.LVL125
 6352 01b3 0600     		.2byte	0x6
 6353 01b5 54       		.byte	0x54
 6354 01b6 93       		.byte	0x93
 6355 01b7 04       		.uleb128 0x4
 6356 01b8 55       		.byte	0x55
 6357 01b9 93       		.byte	0x93
 6358 01ba 04       		.uleb128 0x4
 6359 01bb DA000000 		.4byte	.LVL128
 6360 01bf E0000000 		.4byte	.LVL129
 6361 01c3 0600     		.2byte	0x6
 6362 01c5 54       		.byte	0x54
 6363 01c6 93       		.byte	0x93
 6364 01c7 04       		.uleb128 0x4
 6365 01c8 55       		.byte	0x55
 6366 01c9 93       		.byte	0x93
 6367 01ca 04       		.uleb128 0x4
 6368 01cb 00000000 		.4byte	0
 6369 01cf 00000000 		.4byte	0
 6370              	.LLST8:
 6371 01d3 98000000 		.4byte	.LVL118
 6372 01d7 A7000000 		.4byte	.LVL120-1
 6373 01db 0600     		.2byte	0x6
 6374 01dd 50       		.byte	0x50
 6375 01de 93       		.byte	0x93
 6376 01df 04       		.uleb128 0x4
 6377 01e0 51       		.byte	0x51
 6378 01e1 93       		.byte	0x93
 6379 01e2 04       		.uleb128 0x4
 6380 01e3 AE000000 		.4byte	.LVL121
 6381 01e7 BB000000 		.4byte	.LVL123-1
 6382 01eb 0600     		.2byte	0x6
 6383 01ed 50       		.byte	0x50
 6384 01ee 93       		.byte	0x93
 6385 01ef 04       		.uleb128 0x4
 6386 01f0 51       		.byte	0x51
 6387 01f1 93       		.byte	0x93
 6388 01f2 04       		.uleb128 0x4
 6389 01f3 C2000000 		.4byte	.LVL124
 6390 01f7 D0000000 		.4byte	.LVL126
 6391 01fb 0600     		.2byte	0x6
 6392 01fd 50       		.byte	0x50
 6393 01fe 93       		.byte	0x93
 6394 01ff 04       		.uleb128 0x4
 6395 0200 51       		.byte	0x51
 6396 0201 93       		.byte	0x93
 6397 0202 04       		.uleb128 0x4
 6398 0203 DA000000 		.4byte	.LVL128
 6399 0207 E8000000 		.4byte	.LVL130
 6400 020b 0600     		.2byte	0x6
 6401 020d 50       		.byte	0x50
 6402 020e 93       		.byte	0x93
 6403 020f 04       		.uleb128 0x4
 6404 0210 51       		.byte	0x51
 6405 0211 93       		.byte	0x93
ARM GAS  C:\Users\weiro\AppData\Local\Temp\cc9naSHk.s 			page 133


 6406 0212 04       		.uleb128 0x4
 6407 0213 00000000 		.4byte	0
 6408 0217 00000000 		.4byte	0
 6409              	.LLST9:
 6410 021b 36000000 		.4byte	.LVL140
 6411 021f 64000000 		.4byte	.LVL144
 6412 0223 0600     		.2byte	0x6
 6413 0225 54       		.byte	0x54
 6414 0226 93       		.byte	0x93
 6415 0227 04       		.uleb128 0x4
 6416 0228 55       		.byte	0x55
 6417 0229 93       		.byte	0x93
 6418 022a 04       		.uleb128 0x4
 6419 022b 72000000 		.4byte	.LVL146
 6420 022f 78000000 		.4byte	.LVL147
 6421 0233 0600     		.2byte	0x6
 6422 0235 54       		.byte	0x54
 6423 0236 93       		.byte	0x93
 6424 0237 04       		.uleb128 0x4
 6425 0238 55       		.byte	0x55
 6426 0239 93       		.byte	0x93
 6427 023a 04       		.uleb128 0x4
 6428 023b 86000000 		.4byte	.LVL149
 6429 023f 8C000000 		.4byte	.LVL150
 6430 0243 0600     		.2byte	0x6
 6431 0245 54       		.byte	0x54
 6432 0246 93       		.byte	0x93
 6433 0247 04       		.uleb128 0x4
 6434 0248 55       		.byte	0x55
 6435 0249 93       		.byte	0x93
 6436 024a 04       		.uleb128 0x4
 6437 024b 9E000000 		.4byte	.LVL153
 6438 024f A4000000 		.4byte	.LVL154
 6439 0253 0600     		.2byte	0x6
 6440 0255 54       		.byte	0x54
 6441 0256 93       		.byte	0x93
 6442 0257 04       		.uleb128 0x4
 6443 0258 55       		.byte	0x55
 6444 0259 93       		.byte	0x93
 6445 025a 04       		.uleb128 0x4
 6446 025b 00000000 		.4byte	0
 6447 025f 00000000 		.4byte	0
 6448              	.LLST10:
 6449 0263 5C000000 		.4byte	.LVL143
 6450 0267 6B000000 		.4byte	.LVL145-1
 6451 026b 0600     		.2byte	0x6
 6452 026d 50       		.byte	0x50
 6453 026e 93       		.byte	0x93
 6454 026f 04       		.uleb128 0x4
 6455 0270 51       		.byte	0x51
 6456 0271 93       		.byte	0x93
 6457 0272 04       		.uleb128 0x4
 6458 0273 72000000 		.4byte	.LVL146
 6459 0277 7F000000 		.4byte	.LVL148-1
 6460 027b 0600     		.2byte	0x6
 6461 027d 50       		.byte	0x50
 6462 027e 93       		.byte	0x93
ARM GAS  C:\Users\weiro\AppData\Local\Temp\cc9naSHk.s 			page 134


 6463 027f 04       		.uleb128 0x4
 6464 0280 51       		.byte	0x51
 6465 0281 93       		.byte	0x93
 6466 0282 04       		.uleb128 0x4
 6467 0283 86000000 		.4byte	.LVL149
 6468 0287 94000000 		.4byte	.LVL151
 6469 028b 0600     		.2byte	0x6
 6470 028d 50       		.byte	0x50
 6471 028e 93       		.byte	0x93
 6472 028f 04       		.uleb128 0x4
 6473 0290 51       		.byte	0x51
 6474 0291 93       		.byte	0x93
 6475 0292 04       		.uleb128 0x4
 6476 0293 9E000000 		.4byte	.LVL153
 6477 0297 AC000000 		.4byte	.LVL155
 6478 029b 0600     		.2byte	0x6
 6479 029d 50       		.byte	0x50
 6480 029e 93       		.byte	0x93
 6481 029f 04       		.uleb128 0x4
 6482 02a0 51       		.byte	0x51
 6483 02a1 93       		.byte	0x93
 6484 02a2 04       		.uleb128 0x4
 6485 02a3 00000000 		.4byte	0
 6486 02a7 00000000 		.4byte	0
 6487              	.LLST11:
 6488 02ab 00000000 		.4byte	.LVL158
 6489 02af 08000000 		.4byte	.LVL159
 6490 02b3 0100     		.2byte	0x1
 6491 02b5 50       		.byte	0x50
 6492 02b6 08000000 		.4byte	.LVL159
 6493 02ba 7A000000 		.4byte	.LVL166
 6494 02be 0100     		.2byte	0x1
 6495 02c0 55       		.byte	0x55
 6496 02c1 7A000000 		.4byte	.LVL166
 6497 02c5 80000000 		.4byte	.LFE78
 6498 02c9 0400     		.2byte	0x4
 6499 02cb F3       		.byte	0xf3
 6500 02cc 01       		.uleb128 0x1
 6501 02cd 50       		.byte	0x50
 6502 02ce 9F       		.byte	0x9f
 6503 02cf 00000000 		.4byte	0
 6504 02d3 00000000 		.4byte	0
 6505              	.LLST12:
 6506 02d7 00000000 		.4byte	.LVL158
 6507 02db 08000000 		.4byte	.LVL159
 6508 02df 0100     		.2byte	0x1
 6509 02e1 51       		.byte	0x51
 6510 02e2 08000000 		.4byte	.LVL159
 6511 02e6 7A000000 		.4byte	.LVL166
 6512 02ea 0100     		.2byte	0x1
 6513 02ec 56       		.byte	0x56
 6514 02ed 7A000000 		.4byte	.LVL166
 6515 02f1 80000000 		.4byte	.LFE78
 6516 02f5 0400     		.2byte	0x4
 6517 02f7 F3       		.byte	0xf3
 6518 02f8 01       		.uleb128 0x1
 6519 02f9 51       		.byte	0x51
ARM GAS  C:\Users\weiro\AppData\Local\Temp\cc9naSHk.s 			page 135


 6520 02fa 9F       		.byte	0x9f
 6521 02fb 00000000 		.4byte	0
 6522 02ff 00000000 		.4byte	0
 6523              	.LLST13:
 6524 0303 02000000 		.4byte	.LVL167
 6525 0307 6A000000 		.4byte	.LVL181
 6526 030b 0200     		.2byte	0x2
 6527 030d 31       		.byte	0x31
 6528 030e 9F       		.byte	0x9f
 6529 030f 6A000000 		.4byte	.LVL181
 6530 0313 C2000000 		.4byte	.LVL193
 6531 0317 0200     		.2byte	0x2
 6532 0319 32       		.byte	0x32
 6533 031a 9F       		.byte	0x9f
 6534 031b C2000000 		.4byte	.LVL193
 6535 031f 1A010000 		.4byte	.LVL205
 6536 0323 0200     		.2byte	0x2
 6537 0325 33       		.byte	0x33
 6538 0326 9F       		.byte	0x9f
 6539 0327 1A010000 		.4byte	.LVL205
 6540 032b B0010000 		.4byte	.LFE79
 6541 032f 0200     		.2byte	0x2
 6542 0331 30       		.byte	0x30
 6543 0332 9F       		.byte	0x9f
 6544 0333 00000000 		.4byte	0
 6545 0337 00000000 		.4byte	0
 6546              	.LLST14:
 6547 033b C8000000 		.4byte	.LVL239
 6548 033f B8020000 		.4byte	.LVL289
 6549 0343 0200     		.2byte	0x2
 6550 0345 31       		.byte	0x31
 6551 0346 9F       		.byte	0x9f
 6552 0347 B8020000 		.4byte	.LVL289
 6553 034b F0020000 		.4byte	.LVL295
 6554 034f 0200     		.2byte	0x2
 6555 0351 30       		.byte	0x30
 6556 0352 9F       		.byte	0x9f
 6557 0353 78030000 		.4byte	.LVL302
 6558 0357 94030000 		.4byte	.LVL305
 6559 035b 0200     		.2byte	0x2
 6560 035d 30       		.byte	0x30
 6561 035e 9F       		.byte	0x9f
 6562 035f 2A040000 		.4byte	.LVL316
 6563 0363 56040000 		.4byte	.LVL321
 6564 0367 0200     		.2byte	0x2
 6565 0369 31       		.byte	0x31
 6566 036a 9F       		.byte	0x9f
 6567 036b 6A040000 		.4byte	.LVL323
 6568 036f 96040000 		.4byte	.LVL328
 6569 0373 0200     		.2byte	0x2
 6570 0375 30       		.byte	0x30
 6571 0376 9F       		.byte	0x9f
 6572 0377 D0040000 		.4byte	.LVL333
 6573 037b EA040000 		.4byte	.LVL336
 6574 037f 0200     		.2byte	0x2
 6575 0381 31       		.byte	0x31
 6576 0382 9F       		.byte	0x9f
ARM GAS  C:\Users\weiro\AppData\Local\Temp\cc9naSHk.s 			page 136


 6577 0383 24050000 		.4byte	.LVL341
 6578 0387 3E050000 		.4byte	.LVL344
 6579 038b 0200     		.2byte	0x2
 6580 038d 31       		.byte	0x31
 6581 038e 9F       		.byte	0x9f
 6582 038f 00000000 		.4byte	0
 6583 0393 00000000 		.4byte	0
 6584              	.LLST15:
 6585 0397 C8000000 		.4byte	.LVL239
 6586 039b F6000000 		.4byte	.LVL246
 6587 039f 0200     		.2byte	0x2
 6588 03a1 31       		.byte	0x31
 6589 03a2 9F       		.byte	0x9f
 6590 03a3 F6000000 		.4byte	.LVL246
 6591 03a7 0A010000 		.4byte	.LVL249
 6592 03ab 0200     		.2byte	0x2
 6593 03ad 30       		.byte	0x30
 6594 03ae 9F       		.byte	0x9f
 6595 03af 0A010000 		.4byte	.LVL249
 6596 03b3 B8010000 		.4byte	.LVL263
 6597 03b7 0200     		.2byte	0x2
 6598 03b9 31       		.byte	0x31
 6599 03ba 9F       		.byte	0x9f
 6600 03bb C0010000 		.4byte	.LVL264
 6601 03bf DA010000 		.4byte	.LVL267
 6602 03c3 0200     		.2byte	0x2
 6603 03c5 30       		.byte	0x30
 6604 03c6 9F       		.byte	0x9f
 6605 03c7 D6020000 		.4byte	.LVL292
 6606 03cb F0020000 		.4byte	.LVL295
 6607 03cf 0100     		.2byte	0x1
 6608 03d1 55       		.byte	0x55
 6609 03d2 44030000 		.4byte	.LVL297
 6610 03d6 5E030000 		.4byte	.LVL300
 6611 03da 0200     		.2byte	0x2
 6612 03dc 31       		.byte	0x31
 6613 03dd 9F       		.byte	0x9f
 6614 03de B8040000 		.4byte	.LVL330
 6615 03e2 EA040000 		.4byte	.LVL336
 6616 03e6 0100     		.2byte	0x1
 6617 03e8 55       		.byte	0x55
 6618 03e9 0C050000 		.4byte	.LVL338
 6619 03ed 3E050000 		.4byte	.LVL344
 6620 03f1 0100     		.2byte	0x1
 6621 03f3 55       		.byte	0x55
 6622 03f4 00000000 		.4byte	0
 6623 03f8 00000000 		.4byte	0
 6624              	.LLST16:
 6625 03fc E4000000 		.4byte	.LVL243
 6626 0400 EE000000 		.4byte	.LVL245
 6627 0404 0A00     		.2byte	0xa
 6628 0406 9E       		.byte	0x9e
 6629 0407 08       		.uleb128 0x8
 6630 0408 00000000 		.4byte	0
 6631 040c 00000000 		.4byte	0
 6632 0410 EE000000 		.4byte	.LVL245
 6633 0414 22010000 		.4byte	.LVL252
ARM GAS  C:\Users\weiro\AppData\Local\Temp\cc9naSHk.s 			page 137


 6634 0418 0A00     		.2byte	0xa
 6635 041a 9E       		.byte	0x9e
 6636 041b 08       		.uleb128 0x8
 6637 041c 00000000 		.4byte	0
 6638 0420 00004940 		.4byte	0x40490000
 6639 0424 B8010000 		.4byte	.LVL263
 6640 0428 DA010000 		.4byte	.LVL267
 6641 042c 0A00     		.2byte	0xa
 6642 042e 9E       		.byte	0x9e
 6643 042f 08       		.uleb128 0x8
 6644 0430 00000000 		.4byte	0
 6645 0434 00002140 		.4byte	0x40210000
 6646 0438 6C020000 		.4byte	.LVL280
 6647 043c A4020000 		.4byte	.LVL287
 6648 0440 0A00     		.2byte	0xa
 6649 0442 9E       		.byte	0x9e
 6650 0443 08       		.uleb128 0x8
 6651 0444 00000000 		.4byte	0
 6652 0448 00003240 		.4byte	0x40320000
 6653 044c B8020000 		.4byte	.LVL289
 6654 0450 F0020000 		.4byte	.LVL295
 6655 0454 0A00     		.2byte	0xa
 6656 0456 9E       		.byte	0x9e
 6657 0457 08       		.uleb128 0x8
 6658 0458 00000000 		.4byte	0
 6659 045c 00004940 		.4byte	0x40490000
 6660 0460 78030000 		.4byte	.LVL302
 6661 0464 94030000 		.4byte	.LVL305
 6662 0468 0A00     		.2byte	0xa
 6663 046a 9E       		.byte	0x9e
 6664 046b 08       		.uleb128 0x8
 6665 046c 00000000 		.4byte	0
 6666 0470 00805140 		.4byte	0x40518000
 6667 0474 2A040000 		.4byte	.LVL316
 6668 0478 56040000 		.4byte	.LVL321
 6669 047c 0A00     		.2byte	0xa
 6670 047e 9E       		.byte	0x9e
 6671 047f 08       		.uleb128 0x8
 6672 0480 00000000 		.4byte	0
 6673 0484 00003440 		.4byte	0x40340000
 6674 0488 6A040000 		.4byte	.LVL323
 6675 048c 96040000 		.4byte	.LVL328
 6676 0490 0A00     		.2byte	0xa
 6677 0492 9E       		.byte	0x9e
 6678 0493 08       		.uleb128 0x8
 6679 0494 00000000 		.4byte	0
 6680 0498 00003440 		.4byte	0x40340000
 6681 049c D0040000 		.4byte	.LVL333
 6682 04a0 EA040000 		.4byte	.LVL336
 6683 04a4 0A00     		.2byte	0xa
 6684 04a6 9E       		.byte	0x9e
 6685 04a7 08       		.uleb128 0x8
 6686 04a8 00000000 		.4byte	0
 6687 04ac 00004940 		.4byte	0x40490000
 6688 04b0 24050000 		.4byte	.LVL341
 6689 04b4 3E050000 		.4byte	.LVL344
 6690 04b8 0A00     		.2byte	0xa
ARM GAS  C:\Users\weiro\AppData\Local\Temp\cc9naSHk.s 			page 138


 6691 04ba 9E       		.byte	0x9e
 6692 04bb 08       		.uleb128 0x8
 6693 04bc 00000000 		.4byte	0
 6694 04c0 00004940 		.4byte	0x40490000
 6695 04c4 00000000 		.4byte	0
 6696 04c8 00000000 		.4byte	0
 6697              	.LLST17:
 6698 04cc E4000000 		.4byte	.LVL243
 6699 04d0 EB000000 		.4byte	.LVL244-1
 6700 04d4 1500     		.2byte	0x15
 6701 04d6 03       		.byte	0x3
 6702 04d7 00000000 		.4byte	CM_COUNT_CONV
 6703 04db F6       		.byte	0xf6
 6704 04dc 08       		.byte	0x8
 6705 04dd 25       		.uleb128 0x25
 6706 04de F4       		.byte	0xf4
 6707 04df 25       		.uleb128 0x25
 6708 04e0 08       		.byte	0x8
 6709 04e1 00000000 		.4byte	0
 6710 04e5 00000000 		.4byte	0
 6711 04e9 1E       		.byte	0x1e
 6712 04ea 9F       		.byte	0x9f
 6713 04eb 00000000 		.4byte	0
 6714 04ef 00000000 		.4byte	0
 6715              	.LLST18:
 6716 04f3 12020000 		.4byte	.LVL271
 6717 04f7 58020000 		.4byte	.LVL278
 6718 04fb 0200     		.2byte	0x2
 6719 04fd 30       		.byte	0x30
 6720 04fe 9F       		.byte	0x9f
 6721 04ff 00000000 		.4byte	0
 6722 0503 00000000 		.4byte	0
 6723              	.LLST19:
 6724 0507 12020000 		.4byte	.LVL271
 6725 050b 58020000 		.4byte	.LVL278
 6726 050f 0200     		.2byte	0x2
 6727 0511 32       		.byte	0x32
 6728 0512 9F       		.byte	0x9f
 6729 0513 00000000 		.4byte	0
 6730 0517 00000000 		.4byte	0
 6731              		.section	.debug_aranges,"",%progbits
 6732 0000 9C000000 		.4byte	0x9c
 6733 0004 0200     		.2byte	0x2
 6734 0006 00000000 		.4byte	.Ldebug_info0
 6735 000a 04       		.byte	0x4
 6736 000b 00       		.byte	0
 6737 000c 0000     		.2byte	0
 6738 000e 0000     		.2byte	0
 6739 0010 00000000 		.4byte	.LFB64
 6740 0014 78000000 		.4byte	.LFE64-.LFB64
 6741 0018 00000000 		.4byte	.LFB65
 6742 001c 60000000 		.4byte	.LFE65-.LFB65
 6743 0020 00000000 		.4byte	.LFB66
 6744 0024 B8000000 		.4byte	.LFE66-.LFB66
 6745 0028 00000000 		.4byte	.LFB67
 6746 002c 14000000 		.4byte	.LFE67-.LFB67
 6747 0030 00000000 		.4byte	.LFB68
ARM GAS  C:\Users\weiro\AppData\Local\Temp\cc9naSHk.s 			page 139


 6748 0034 28000000 		.4byte	.LFE68-.LFB68
 6749 0038 00000000 		.4byte	.LFB69
 6750 003c 28000000 		.4byte	.LFE69-.LFB69
 6751 0040 00000000 		.4byte	.LFB70
 6752 0044 28000000 		.4byte	.LFE70-.LFB70
 6753 0048 00000000 		.4byte	.LFB71
 6754 004c 28000000 		.4byte	.LFE71-.LFB71
 6755 0050 00000000 		.4byte	.LFB72
 6756 0054 28000000 		.4byte	.LFE72-.LFB72
 6757 0058 00000000 		.4byte	.LFB73
 6758 005c 1C000000 		.4byte	.LFE73-.LFB73
 6759 0060 00000000 		.4byte	.LFB74
 6760 0064 10010000 		.4byte	.LFE74-.LFB74
 6761 0068 00000000 		.4byte	.LFB75
 6762 006c F0000000 		.4byte	.LFE75-.LFB75
 6763 0070 00000000 		.4byte	.LFB76
 6764 0074 18010000 		.4byte	.LFE76-.LFB76
 6765 0078 00000000 		.4byte	.LFB77
 6766 007c D8000000 		.4byte	.LFE77-.LFB77
 6767 0080 00000000 		.4byte	.LFB78
 6768 0084 80000000 		.4byte	.LFE78-.LFB78
 6769 0088 00000000 		.4byte	.LFB79
 6770 008c B0010000 		.4byte	.LFE79-.LFB79
 6771 0090 00000000 		.4byte	.LFB80
 6772 0094 58050000 		.4byte	.LFE80-.LFB80
 6773 0098 00000000 		.4byte	0
 6774 009c 00000000 		.4byte	0
 6775              		.section	.debug_ranges,"",%progbits
 6776              	.Ldebug_ranges0:
 6777 0000 00000000 		.4byte	.LFB64
 6778 0004 78000000 		.4byte	.LFE64
 6779 0008 00000000 		.4byte	.LFB65
 6780 000c 60000000 		.4byte	.LFE65
 6781 0010 00000000 		.4byte	.LFB66
 6782 0014 B8000000 		.4byte	.LFE66
 6783 0018 00000000 		.4byte	.LFB67
 6784 001c 14000000 		.4byte	.LFE67
 6785 0020 00000000 		.4byte	.LFB68
 6786 0024 28000000 		.4byte	.LFE68
 6787 0028 00000000 		.4byte	.LFB69
 6788 002c 28000000 		.4byte	.LFE69
 6789 0030 00000000 		.4byte	.LFB70
 6790 0034 28000000 		.4byte	.LFE70
 6791 0038 00000000 		.4byte	.LFB71
 6792 003c 28000000 		.4byte	.LFE71
 6793 0040 00000000 		.4byte	.LFB72
 6794 0044 28000000 		.4byte	.LFE72
 6795 0048 00000000 		.4byte	.LFB73
 6796 004c 1C000000 		.4byte	.LFE73
 6797 0050 00000000 		.4byte	.LFB74
 6798 0054 10010000 		.4byte	.LFE74
 6799 0058 00000000 		.4byte	.LFB75
 6800 005c F0000000 		.4byte	.LFE75
 6801 0060 00000000 		.4byte	.LFB76
 6802 0064 18010000 		.4byte	.LFE76
 6803 0068 00000000 		.4byte	.LFB77
 6804 006c D8000000 		.4byte	.LFE77
ARM GAS  C:\Users\weiro\AppData\Local\Temp\cc9naSHk.s 			page 140


 6805 0070 00000000 		.4byte	.LFB78
 6806 0074 80000000 		.4byte	.LFE78
 6807 0078 00000000 		.4byte	.LFB79
 6808 007c B0010000 		.4byte	.LFE79
 6809 0080 00000000 		.4byte	.LFB80
 6810 0084 58050000 		.4byte	.LFE80
 6811 0088 00000000 		.4byte	0
 6812 008c 00000000 		.4byte	0
 6813              		.section	.debug_line,"",%progbits
 6814              	.Ldebug_line0:
 6815 0000 BB060000 		.section	.debug_str,"MS",%progbits,1
 6815      02009E03 
 6815      00000201 
 6815      FB0E0D00 
 6815      01010101 
 6816              	.LASF79:
 6817 0000 64697265 		.ascii	"direction\000"
 6817      6374696F 
 6817      6E00
 6818              	.LASF85:
 6819 000a 646F776E 		.ascii	"down_big\000"
 6819      5F626967 
 6819      00
 6820              	.LASF91:
 6821 0013 43794465 		.ascii	"CyDelay\000"
 6821      6C617900 
 6822              	.LASF64:
 6823 001b 50574D5F 		.ascii	"PWM_Master\000"
 6823      4D617374 
 6823      657200
 6824              	.LASF90:
 6825 0026 436F6E74 		.ascii	"Control_Reg_2_Write\000"
 6825      726F6C5F 
 6825      5265675F 
 6825      325F5772 
 6825      69746500 
 6826              	.LASF51:
 6827 003a 434D5F43 		.ascii	"CM_COUNT_CONV\000"
 6827      4F554E54 
 6827      5F434F4E 
 6827      5600
 6828              	.LASF141:
 6829 0048 6D61696E 		.ascii	"main.c\000"
 6829      2E6300
 6830              	.LASF133:
 6831 004f 50574D5F 		.ascii	"PWM_BigServo_Start\000"
 6831      42696753 
 6831      6572766F 
 6831      5F537461 
 6831      727400
 6832              	.LASF113:
 6833 0062 43535F4C 		.ascii	"CS_LED_Write\000"
 6833      45445F57 
 6833      72697465 
 6833      00
 6834              	.LASF127:
 6835 006f 54696D65 		.ascii	"Timer_3_Start\000"
ARM GAS  C:\Users\weiro\AppData\Local\Temp\cc9naSHk.s 			page 141


 6835      725F335F 
 6835      53746172 
 6835      7400
 6836              	.LASF132:
 6837 007d 50574D5F 		.ascii	"PWM_SmallServo_Start\000"
 6837      536D616C 
 6837      6C536572 
 6837      766F5F53 
 6837      74617274 
 6838              	.LASF105:
 6839 0092 51756164 		.ascii	"QuadDec_1_GetCounter\000"
 6839      4465635F 
 6839      315F4765 
 6839      74436F75 
 6839      6E746572 
 6840              	.LASF47:
 6841 00a7 43535F63 		.ascii	"CS_count_Red\000"
 6841      6F756E74 
 6841      5F526564 
 6841      00
 6842              	.LASF123:
 6843 00b4 6973725F 		.ascii	"isr_1_StartEx\000"
 6843      315F5374 
 6843      61727445 
 6843      7800
 6844              	.LASF44:
 6845 00c2 696E6974 		.ascii	"initial\000"
 6845      69616C00 
 6846              	.LASF9:
 6847 00ca 756E7369 		.ascii	"unsigned int\000"
 6847      676E6564 
 6847      20696E74 
 6847      00
 6848              	.LASF16:
 6849 00d7 53706565 		.ascii	"Speed_Control\000"
 6849      645F436F 
 6849      6E74726F 
 6849      6C00
 6850              	.LASF10:
 6851 00e5 5F5F696E 		.ascii	"__int32_t\000"
 6851      7433325F 
 6851      7400
 6852              	.LASF110:
 6853 00ef 49525F69 		.ascii	"IR_input_Read\000"
 6853      6E707574 
 6853      5F526561 
 6853      6400
 6854              	.LASF73:
 6855 00fd 72696768 		.ascii	"right_measured\000"
 6855      745F6D65 
 6855      61737572 
 6855      656400
 6856              	.LASF63:
 6857 010c 74696D65 		.ascii	"timer_period\000"
 6857      725F7065 
 6857      72696F64 
 6857      00
ARM GAS  C:\Users\weiro\AppData\Local\Temp\cc9naSHk.s 			page 142


 6858              	.LASF95:
 6859 0119 54696D65 		.ascii	"Timer_3_ReadStatusRegister\000"
 6859      725F335F 
 6859      52656164 
 6859      53746174 
 6859      75735265 
 6860              	.LASF134:
 6861 0134 51756164 		.ascii	"QuadDec_1_Start\000"
 6861      4465635F 
 6861      315F5374 
 6861      61727400 
 6862              	.LASF121:
 6863 0144 6C65645F 		.ascii	"led_green_Write\000"
 6863      67726565 
 6863      6E5F5772 
 6863      69746500 
 6864              	.LASF59:
 6865 0154 6572726F 		.ascii	"error\000"
 6865      7200
 6866              	.LASF40:
 6867 015a 6D6F6465 		.ascii	"mode\000"
 6867      00
 6868              	.LASF84:
 6869 015f 736C6974 		.ascii	"slit_detected\000"
 6869      5F646574 
 6869      65637465 
 6869      6400
 6870              	.LASF32:
 6871 016d 666F7277 		.ascii	"forward2wall\000"
 6871      61726432 
 6871      77616C6C 
 6871      00
 6872              	.LASF49:
 6873 017a 43535F63 		.ascii	"CS_count_Green\000"
 6873      6F756E74 
 6873      5F477265 
 6873      656E00
 6874              	.LASF25:
 6875 0189 72657365 		.ascii	"reset_count\000"
 6875      745F636F 
 6875      756E7400 
 6876              	.LASF48:
 6877 0195 43535F63 		.ascii	"CS_count_Blue\000"
 6877      6F756E74 
 6877      5F426C75 
 6877      6500
 6878              	.LASF22:
 6879 01a3 72657665 		.ascii	"reverse\000"
 6879      72736500 
 6880              	.LASF46:
 6881 01ab 57484545 		.ascii	"WHEEL_CIRCUMFERENCE\000"
 6881      4C5F4349 
 6881      5243554D 
 6881      46455245 
 6881      4E434500 
 6882              	.LASF104:
 6883 01bf 51756164 		.ascii	"QuadDec_2_SetCounter\000"
ARM GAS  C:\Users\weiro\AppData\Local\Temp\cc9naSHk.s 			page 143


 6883      4465635F 
 6883      325F5365 
 6883      74436F75 
 6883      6E746572 
 6884              	.LASF77:
 6885 01d4 785F636F 		.ascii	"x_coord\000"
 6885      6F726400 
 6886              	.LASF20:
 6887 01dc 73746F70 		.ascii	"stop\000"
 6887      00
 6888              	.LASF53:
 6889 01e1 44495354 		.ascii	"DISTANCE_PT_TURN\000"
 6889      414E4345 
 6889      5F50545F 
 6889      5455524E 
 6889      00
 6890              	.LASF12:
 6891 01f2 666C6F61 		.ascii	"float\000"
 6891      7400
 6892              	.LASF41:
 6893 01f8 636F756E 		.ascii	"count\000"
 6893      7400
 6894              	.LASF88:
 6895 01fe 636C6F73 		.ascii	"close_small\000"
 6895      655F736D 
 6895      616C6C00 
 6896              	.LASF37:
 6897 020a 50545F54 		.ascii	"PT_TURN_COUNT\000"
 6897      55524E5F 
 6897      434F554E 
 6897      5400
 6898              	.LASF94:
 6899 0218 43794465 		.ascii	"CyDelayUs\000"
 6899      6C617955 
 6899      7300
 6900              	.LASF92:
 6901 0222 54696D65 		.ascii	"Timer_2_ReadStatusRegister\000"
 6901      725F325F 
 6901      52656164 
 6901      53746174 
 6901      75735265 
 6902              	.LASF75:
 6903 023d 756C7472 		.ascii	"ultrasonic_flag\000"
 6903      61736F6E 
 6903      69635F66 
 6903      6C616700 
 6904              	.LASF8:
 6905 024d 6C6F6E67 		.ascii	"long long unsigned int\000"
 6905      206C6F6E 
 6905      6720756E 
 6905      7369676E 
 6905      65642069 
 6906              	.LASF74:
 6907 0264 6C656674 		.ascii	"left_measured\000"
 6907      5F6D6561 
 6907      73757265 
 6907      6400
ARM GAS  C:\Users\weiro\AppData\Local\Temp\cc9naSHk.s 			page 144


 6908              	.LASF130:
 6909 0272 50574D5F 		.ascii	"PWM_ColorSensor_Start\000"
 6909      436F6C6F 
 6909      7253656E 
 6909      736F725F 
 6909      53746172 
 6910              	.LASF68:
 6911 0288 69735F6D 		.ascii	"is_moving\000"
 6911      6F76696E 
 6911      6700
 6912              	.LASF112:
 6913 0292 53315F57 		.ascii	"S1_Write\000"
 6913      72697465 
 6913      00
 6914              	.LASF93:
 6915 029b 54726967 		.ascii	"Trigger_Write\000"
 6915      6765725F 
 6915      57726974 
 6915      6500
 6916              	.LASF33:
 6917 02a9 6D6F7665 		.ascii	"move2slit\000"
 6917      32736C69 
 6917      7400
 6918              	.LASF122:
 6919 02b3 6C65645F 		.ascii	"led_blue_Write\000"
 6919      626C7565 
 6919      5F577269 
 6919      746500
 6920              	.LASF140:
 6921 02c2 474E5520 		.ascii	"GNU C11 5.4.1 20160609 (release) [ARM/embedded-5-br"
 6921      43313120 
 6921      352E342E 
 6921      31203230 
 6921      31363036 
 6922 02f5 616E6368 		.ascii	"anch revision 237715] -mcpu=cortex-m3 -mthumb -g -O"
 6922      20726576 
 6922      6973696F 
 6922      6E203233 
 6922      37373135 
 6923 0328 67202D66 		.ascii	"g -ffunction-sections -ffat-lto-objects\000"
 6923      66756E63 
 6923      74696F6E 
 6923      2D736563 
 6923      74696F6E 
 6924              	.LASF60:
 6925 0350 61636375 		.ascii	"accumulated_error\000"
 6925      6D756C61 
 6925      7465645F 
 6925      6572726F 
 6925      7200
 6926              	.LASF50:
 6927 0362 434F554E 		.ascii	"COUNT_WHEEL\000"
 6927      545F5748 
 6927      45454C00 
 6928              	.LASF108:
 6929 036e 55415254 		.ascii	"UART_1_PutString\000"
 6929      5F315F50 
ARM GAS  C:\Users\weiro\AppData\Local\Temp\cc9naSHk.s 			page 145


 6929      75745374 
 6929      72696E67 
 6929      00
 6930              	.LASF128:
 6931 037f 6973725F 		.ascii	"isr_2_StartEx\000"
 6931      325F5374 
 6931      61727445 
 6931      7800
 6932              	.LASF138:
 6933 038d 50574D5F 		.ascii	"PWM_BigServo_WriteCompare\000"
 6933      42696753 
 6933      6572766F 
 6933      5F577269 
 6933      7465436F 
 6934              	.LASF31:
 6935 03a7 64697374 		.ascii	"dist_count\000"
 6935      5F636F75 
 6935      6E7400
 6936              	.LASF106:
 6937 03b2 51756164 		.ascii	"QuadDec_2_GetCounter\000"
 6937      4465635F 
 6937      325F4765 
 6937      74436F75 
 6937      6E746572 
 6938              	.LASF99:
 6939 03c7 4D6F746F 		.ascii	"Motor_1_IN_1_Write\000"
 6939      725F315F 
 6939      494E5F31 
 6939      5F577269 
 6939      746500
 6940              	.LASF102:
 6941 03da 4D6F746F 		.ascii	"Motor_2_IN_4_Write\000"
 6941      725F325F 
 6941      494E5F34 
 6941      5F577269 
 6941      746500
 6942              	.LASF98:
 6943 03ed 50574D5F 		.ascii	"PWM_ColorSensor_ReadStatusRegister\000"
 6943      436F6C6F 
 6943      7253656E 
 6943      736F725F 
 6943      52656164 
 6944              	.LASF116:
 6945 0410 53335F57 		.ascii	"S3_Write\000"
 6945      72697465 
 6945      00
 6946              	.LASF13:
 6947 0419 63686172 		.ascii	"char\000"
 6947      00
 6948              	.LASF70:
 6949 041e 756C7472 		.ascii	"ultrasonic_measure\000"
 6949      61736F6E 
 6949      69635F6D 
 6949      65617375 
 6949      726500
 6950              	.LASF117:
 6951 0431 436F6E74 		.ascii	"Control_Reg_1_Write\000"
ARM GAS  C:\Users\weiro\AppData\Local\Temp\cc9naSHk.s 			page 146


 6951      726F6C5F 
 6951      5265675F 
 6951      315F5772 
 6951      69746500 
 6952              	.LASF126:
 6953 0445 54696D65 		.ascii	"Timer_2_Start\000"
 6953      725F325F 
 6953      53746172 
 6953      7400
 6954              	.LASF96:
 6955 0453 54696D65 		.ascii	"Timer_3_ReadCounter\000"
 6955      725F335F 
 6955      52656164 
 6955      436F756E 
 6955      74657200 
 6956              	.LASF124:
 6957 0467 6973725F 		.ascii	"isr_6_StartEx\000"
 6957      365F5374 
 6957      61727445 
 6957      7800
 6958              	.LASF7:
 6959 0475 6C6F6E67 		.ascii	"long long int\000"
 6959      206C6F6E 
 6959      6720696E 
 6959      7400
 6960              	.LASF26:
 6961 0483 6D6F7665 		.ascii	"move_fixed_dist\000"
 6961      5F666978 
 6961      65645F64 
 6961      69737400 
 6962              	.LASF52:
 6963 0493 44495354 		.ascii	"DISTANCE_BETW_WHEEL\000"
 6963      414E4345 
 6963      5F424554 
 6963      575F5748 
 6963      45454C00 
 6964              	.LASF118:
 6965 04a7 436F756E 		.ascii	"Counter_ColorSensor_ReadCapture\000"
 6965      7465725F 
 6965      436F6C6F 
 6965      7253656E 
 6965      736F725F 
 6966              	.LASF38:
 6967 04c7 666C6167 		.ascii	"flag_CW\000"
 6967      5F435700 
 6968              	.LASF21:
 6969 04cf 666F7277 		.ascii	"forward\000"
 6969      61726400 
 6970              	.LASF80:
 6971 04d7 73746570 		.ascii	"step\000"
 6971      00
 6972              	.LASF18:
 6973 04dc 756C7472 		.ascii	"ultrasonic_echo\000"
 6973      61736F6E 
 6973      69635F65 
 6973      63686F00 
 6974              	.LASF27:
ARM GAS  C:\Users\weiro\AppData\Local\Temp\cc9naSHk.s 			page 147


 6975 04ec 64697374 		.ascii	"dist\000"
 6975      00
 6976              	.LASF19:
 6977 04f1 436F6C6F 		.ascii	"Color_sensing\000"
 6977      725F7365 
 6977      6E73696E 
 6977      6700
 6978              	.LASF81:
 6979 04ff 636F6D70 		.ascii	"compare_ready\000"
 6979      6172655F 
 6979      72656164 
 6979      7900
 6980              	.LASF139:
 6981 050d 50574D5F 		.ascii	"PWM_SmallServo_WriteCompare\000"
 6981      536D616C 
 6981      6C536572 
 6981      766F5F57 
 6981      72697465 
 6982              	.LASF14:
 6983 0529 6C6F6E67 		.ascii	"long double\000"
 6983      20646F75 
 6983      626C6500 
 6984              	.LASF97:
 6985 0535 73707269 		.ascii	"sprintf\000"
 6985      6E746600 
 6986              	.LASF129:
 6987 053d 6973725F 		.ascii	"isr_3_StartEx\000"
 6987      335F5374 
 6987      61727445 
 6987      7800
 6988              	.LASF24:
 6989 054b 7475726E 		.ascii	"turn_clockwise\000"
 6989      5F636C6F 
 6989      636B7769 
 6989      736500
 6990              	.LASF78:
 6991 055a 795F636F 		.ascii	"y_coord\000"
 6991      6F726400 
 6992              	.LASF45:
 6993 0562 57484545 		.ascii	"WHEEL_DIAMETER\000"
 6993      4C5F4449 
 6993      414D4554 
 6993      455200
 6994              	.LASF34:
 6995 0571 46726F6E 		.ascii	"Front_Trigger_1_Write\000"
 6995      745F5472 
 6995      69676765 
 6995      725F315F 
 6995      57726974 
 6996              	.LASF107:
 6997 0587 46726F6E 		.ascii	"Front_Echo_1_Read\000"
 6997      745F4563 
 6997      686F5F31 
 6997      5F526561 
 6997      6400
 6998              	.LASF55:
 6999 0599 436F756E 		.ascii	"Count_Slave\000"
ARM GAS  C:\Users\weiro\AppData\Local\Temp\cc9naSHk.s 			page 148


 6999      745F536C 
 6999      61766500 
 7000              	.LASF42:
 7001 05a5 64697374 		.ascii	"dist_trav\000"
 7001      5F747261 
 7001      7600
 7002              	.LASF135:
 7003 05af 51756164 		.ascii	"QuadDec_2_Start\000"
 7003      4465635F 
 7003      325F5374 
 7003      61727400 
 7004              	.LASF3:
 7005 05bf 73686F72 		.ascii	"short int\000"
 7005      7420696E 
 7005      7400
 7006              	.LASF5:
 7007 05c9 6C6F6E67 		.ascii	"long int\000"
 7007      20696E74 
 7007      00
 7008              	.LASF43:
 7009 05d2 49544D5F 		.ascii	"ITM_RxBuffer\000"
 7009      52784275 
 7009      66666572 
 7009      00
 7010              	.LASF109:
 7011 05df 4C656674 		.ascii	"Left_Echo_Read\000"
 7011      5F456368 
 7011      6F5F5265 
 7011      616400
 7012              	.LASF114:
 7013 05ee 436F756E 		.ascii	"Counter_ColorSensor_Start\000"
 7013      7465725F 
 7013      436F6C6F 
 7013      7253656E 
 7013      736F725F 
 7014              	.LASF30:
 7015 0608 6176675F 		.ascii	"avg_dist\000"
 7015      64697374 
 7015      00
 7016              	.LASF131:
 7017 0611 50574D5F 		.ascii	"PWM_Wheels_Start\000"
 7017      57686565 
 7017      6C735F53 
 7017      74617274 
 7017      00
 7018              	.LASF111:
 7019 0622 53305F57 		.ascii	"S0_Write\000"
 7019      72697465 
 7019      00
 7020              	.LASF66:
 7021 062b 50574D5F 		.ascii	"PWM_Master_puck\000"
 7021      4D617374 
 7021      65725F70 
 7021      75636B00 
 7022              	.LASF71:
 7023 063b 66726F6E 		.ascii	"front_measured_1\000"
 7023      745F6D65 
ARM GAS  C:\Users\weiro\AppData\Local\Temp\cc9naSHk.s 			page 149


 7023      61737572 
 7023      65645F31 
 7023      00
 7024              	.LASF72:
 7025 064c 66726F6E 		.ascii	"front_measured_2\000"
 7025      745F6D65 
 7025      61737572 
 7025      65645F32 
 7025      00
 7026              	.LASF87:
 7027 065d 6F70656E 		.ascii	"open_small\000"
 7027      5F736D61 
 7027      6C6C00
 7028              	.LASF54:
 7029 0668 436F756E 		.ascii	"Count_Master\000"
 7029      745F4D61 
 7029      73746572 
 7029      00
 7030              	.LASF36:
 7031 0675 6D6F7665 		.ascii	"move2puck\000"
 7031      32707563 
 7031      6B00
 7032              	.LASF28:
 7033 067f 666C6167 		.ascii	"flag_FR\000"
 7033      5F465200 
 7034              	.LASF76:
 7035 0687 6563686F 		.ascii	"echo_select\000"
 7035      5F73656C 
 7035      65637400 
 7036              	.LASF119:
 7037 0693 436F756E 		.ascii	"Counter_ColorSensor_Stop\000"
 7037      7465725F 
 7037      436F6C6F 
 7037      7253656E 
 7037      736F725F 
 7038              	.LASF136:
 7039 06ac 55415254 		.ascii	"UART_1_Start\000"
 7039      5F315F53 
 7039      74617274 
 7039      00
 7040              	.LASF62:
 7041 06b9 64657269 		.ascii	"derivative_error\000"
 7041      76617469 
 7041      76655F65 
 7041      72726F72 
 7041      00
 7042              	.LASF39:
 7043 06ca 436F6C6F 		.ascii	"Color_Sensing_Function\000"
 7043      725F5365 
 7043      6E73696E 
 7043      675F4675 
 7043      6E637469 
 7044              	.LASF61:
 7045 06e1 6C617374 		.ascii	"last_error\000"
 7045      5F657272 
 7045      6F7200
 7046              	.LASF15:
ARM GAS  C:\Users\weiro\AppData\Local\Temp\cc9naSHk.s 			page 150


 7047 06ec 73697A65 		.ascii	"sizetype\000"
 7047      74797065 
 7047      00
 7048              	.LASF6:
 7049 06f5 6C6F6E67 		.ascii	"long unsigned int\000"
 7049      20756E73 
 7049      69676E65 
 7049      6420696E 
 7049      7400
 7050              	.LASF137:
 7051 0707 50574D5F 		.ascii	"PWM_Wheels_WriteCompare1\000"
 7051      57686565 
 7051      6C735F57 
 7051      72697465 
 7051      436F6D70 
 7052              	.LASF89:
 7053 0720 50574D5F 		.ascii	"PWM_Wheels_WriteCompare2\000"
 7053      57686565 
 7053      6C735F57 
 7053      72697465 
 7053      436F6D70 
 7054              	.LASF11:
 7055 0739 696E7433 		.ascii	"int32_t\000"
 7055      325F7400 
 7056              	.LASF120:
 7057 0741 6C65645F 		.ascii	"led_red_Write\000"
 7057      7265645F 
 7057      57726974 
 7057      6500
 7058              	.LASF65:
 7059 074f 50574D5F 		.ascii	"PWM_Slave\000"
 7059      536C6176 
 7059      6500
 7060              	.LASF82:
 7061 0759 636F6C6F 		.ascii	"color_detected\000"
 7061      725F6465 
 7061      74656374 
 7061      656400
 7062              	.LASF17:
 7063 0768 756C7472 		.ascii	"ultrasonic_trigger\000"
 7063      61736F6E 
 7063      69635F74 
 7063      72696767 
 7063      657200
 7064              	.LASF2:
 7065 077b 756E7369 		.ascii	"unsigned char\000"
 7065      676E6564 
 7065      20636861 
 7065      7200
 7066              	.LASF67:
 7067 0789 50574D5F 		.ascii	"PWM_Slave_puck\000"
 7067      536C6176 
 7067      655F7075 
 7067      636B00
 7068              	.LASF101:
 7069 0798 4D6F746F 		.ascii	"Motor_2_IN_3_Write\000"
 7069      725F325F 
ARM GAS  C:\Users\weiro\AppData\Local\Temp\cc9naSHk.s 			page 151


 7069      494E5F33 
 7069      5F577269 
 7069      746500
 7070              	.LASF100:
 7071 07ab 4D6F746F 		.ascii	"Motor_1_IN_2_Write\000"
 7071      725F315F 
 7071      494E5F32 
 7071      5F577269 
 7071      746500
 7072              	.LASF115:
 7073 07be 53325F57 		.ascii	"S2_Write\000"
 7073      72697465 
 7073      00
 7074              	.LASF103:
 7075 07c7 51756164 		.ascii	"QuadDec_1_SetCounter\000"
 7075      4465635F 
 7075      315F5365 
 7075      74436F75 
 7075      6E746572 
 7076              	.LASF23:
 7077 07dc 7475726E 		.ascii	"turn_anticlockwise\000"
 7077      5F616E74 
 7077      69636C6F 
 7077      636B7769 
 7077      736500
 7078              	.LASF29:
 7079 07ef 6176675F 		.ascii	"avg_count\000"
 7079      636F756E 
 7079      7400
 7080              	.LASF142:
 7081 07f9 433A5C55 		.ascii	"C:\\Users\\weiro\\code repository for ece4191\\ece4"
 7081      73657273 
 7081      5C776569 
 7081      726F5C63 
 7081      6F646520 
 7082 0828 3139315C 		.ascii	"191\\DC_Motor_1\\Design01.cydsn\000"
 7082      44435F4D 
 7082      6F746F72 
 7082      5F315C44 
 7082      65736967 
 7083              	.LASF125:
 7084 0846 54696D65 		.ascii	"Timer_1_Start\000"
 7084      725F315F 
 7084      53746172 
 7084      7400
 7085              	.LASF1:
 7086 0854 7369676E 		.ascii	"signed char\000"
 7086      65642063 
 7086      68617200 
 7087              	.LASF4:
 7088 0860 73686F72 		.ascii	"short unsigned int\000"
 7088      7420756E 
 7088      7369676E 
 7088      65642069 
 7088      6E7400
 7089              	.LASF143:
 7090 0873 6D61696E 		.ascii	"main\000"
ARM GAS  C:\Users\weiro\AppData\Local\Temp\cc9naSHk.s 			page 152


 7090      00
 7091              	.LASF86:
 7092 0878 75705F62 		.ascii	"up_big\000"
 7092      696700
 7093              	.LASF56:
 7094 087f 73747269 		.ascii	"string_1\000"
 7094      6E675F31 
 7094      00
 7095              	.LASF57:
 7096 0888 73747269 		.ascii	"string_2\000"
 7096      6E675F32 
 7096      00
 7097              	.LASF58:
 7098 0891 73747269 		.ascii	"string_3\000"
 7098      6E675F33 
 7098      00
 7099              	.LASF69:
 7100 089a 756C7472 		.ascii	"ultrasonic_count\000"
 7100      61736F6E 
 7100      69635F63 
 7100      6F756E74 
 7100      00
 7101              	.LASF0:
 7102 08ab 646F7562 		.ascii	"double\000"
 7102      6C6500
 7103              	.LASF83:
 7104 08b2 77616C6C 		.ascii	"wall_detected_10\000"
 7104      5F646574 
 7104      65637465 
 7104      645F3130 
 7104      00
 7105              	.LASF35:
 7106 08c3 4C656674 		.ascii	"Left_Trigger_Write\000"
 7106      5F547269 
 7106      67676572 
 7106      5F577269 
 7106      746500
 7107              		.ident	"GCC: (GNU Tools for ARM Embedded Processors) 5.4.1 20160609 (release) [ARM/embedded-5-bran
