ARM GAS  C:\Users\weiro\AppData\Local\Temp\ccSkAWeC.s 			page 1


   1              		.syntax unified
   2              		.cpu cortex-m3
   3              		.fpu softvfp
   4              		.eabi_attribute 20, 1
   5              		.eabi_attribute 21, 1
   6              		.eabi_attribute 23, 3
   7              		.eabi_attribute 24, 1
   8              		.eabi_attribute 25, 1
   9              		.eabi_attribute 26, 1
  10              		.eabi_attribute 30, 1
  11              		.eabi_attribute 34, 1
  12              		.eabi_attribute 18, 4
  13              		.thumb
  14              		.syntax unified
  15              		.file	"main.c"
  16              		.text
  17              	.Ltext0:
  18              		.cfi_sections	.debug_frame
  19              		.global	__aeabi_i2d
  20              		.global	__aeabi_dmul
  21              		.global	__aeabi_f2d
  22              		.global	__aeabi_dadd
  23              		.global	__aeabi_d2f
  24              		.global	__aeabi_f2uiz
  25              		.section	.text.Speed_Control,"ax",%progbits
  26              		.align	2
  27              		.global	Speed_Control
  28              		.thumb
  29              		.thumb_func
  30              		.type	Speed_Control, %function
  31              	Speed_Control:
  32              	.LFB64:
  33              		.file 1 "main.c"
   1:main.c        **** /* ========================================
   2:main.c        ****  *
   3:main.c        ****  * Copyright YOUR COMPANY, THE YEAR
   4:main.c        ****  * All Rights Reserved
   5:main.c        ****  * UNPUBLISHED, LICENSED SOFTWARE.
   6:main.c        ****  *
   7:main.c        ****  * CONFIDENTIAL AND PROPRIETARY INFORMATION
   8:main.c        ****  * WHICH IS THE PROPERTY OF your company.
   9:main.c        ****  *
  10:main.c        ****  * ========================================
  11:main.c        **** */
  12:main.c        **** // ECE4191 Group 3
  13:main.c        **** 
  14:main.c        **** #include "project.h"
  15:main.c        **** #include <stdio.h>
  16:main.c        **** #include <stdlib.h>
  17:main.c        **** #include <math.h> 
  18:main.c        **** #include <string.h>
  19:main.c        **** #define MPU6050 0x68
  20:main.c        **** 
  21:main.c        **** int initial = 0; /// 0 --> initial position at left side, 1 --> inital position at right side
  22:main.c        **** double WHEEL_DIAMETER = 5.4; //cm
  23:main.c        **** double WHEEL_CIRCUMFERENCE = 0;
  24:main.c        **** int CS_count_Red = 0;
ARM GAS  C:\Users\weiro\AppData\Local\Temp\ccSkAWeC.s 			page 2


  25:main.c        **** int CS_count_Blue = 0;
  26:main.c        **** int CS_count_Green = 0;
  27:main.c        **** double COUNT_WHEEL = 3667; // Count per rotation
  28:main.c        **** double CM_COUNT_CONV = 0;
  29:main.c        **** double DISTANCE_BETW_WHEEL = 22.30;
  30:main.c        **** double DISTANCE_PT_TURN = 0;
  31:main.c        **** double PT_TURN_COUNT = 0;
  32:main.c        **** int Count_Master = 0;
  33:main.c        **** int Count_Slave = 0;
  34:main.c        **** char string_1[200];
  35:main.c        **** char string_2[200];
  36:main.c        **** char string_3[200];
  37:main.c        **** double error = 0;
  38:main.c        **** double accumulated_error = 0;
  39:main.c        **** double last_error = 0;
  40:main.c        **** double derivative_error = 0;
  41:main.c        **** double timer_period = 5;
  42:main.c        **** double K_p = 5;
  43:main.c        **** double K_i = 0;
  44:main.c        **** double K_d = 0;
  45:main.c        **** float PWM_Master = 20000;
  46:main.c        **** float PWM_Cal = 10000;
  47:main.c        **** 
  48:main.c        **** float PWM_Slave = 20000;
  49:main.c        **** float PWM_Master_puck = 5000;
  50:main.c        **** float PWM_Slave_puck = 5000;
  51:main.c        **** int is_moving = 0;
  52:main.c        **** int ultrasonic_count = 0;
  53:main.c        **** double ultrasonic_measure = 0;
  54:main.c        **** double front_measured_1, front_measured_2, right_measured, left_measured = 0;
  55:main.c        **** int echo_select = 0;
  56:main.c        **** double x_coord = 0;
  57:main.c        **** double y_coord = 0;
  58:main.c        **** int direction = 0; // 0(front[0]), 1(right[90]),  2(back[180]),  3(left[270])
  59:main.c        **** int step = -1;
  60:main.c        **** int compare_ready = 0;
  61:main.c        **** int color_detected = 0; // 1-red, 2-green, 3-blue
  62:main.c        **** int wall_detected_10 = 0;
  63:main.c        **** int slit_detected = 0;
  64:main.c        **** int down_big = 615;
  65:main.c        **** int up_big = 525;
  66:main.c        **** int open_small = 980;
  67:main.c        **** int close_small  = 940;
  68:main.c        **** // bluetooth
  69:main.c        **** char Rx;
  70:main.c        **** int i = 0;
  71:main.c        **** char string_bt[200];
  72:main.c        **** int stop_bt = 0;
  73:main.c        **** char* tokenPtr;
  74:main.c        **** char task_info[3][20];
  75:main.c        **** int j = 0;
  76:main.c        **** // gyroscope
  77:main.c        **** uint8 array_1[6] = {0};
  78:main.c        **** int16 temp = 0;
  79:main.c        **** double yaw_rate = 0;
  80:main.c        **** double yaw_angle = 0;
  81:main.c        **** double previous_reading = 0;
ARM GAS  C:\Users\weiro\AppData\Local\Temp\ccSkAWeC.s 			page 3


  82:main.c        **** double current_reading = 0;
  83:main.c        **** double heading = 0;
  84:main.c        **** int cycles = 0;
  85:main.c        **** char string_gyro[200] = "\0";
  86:main.c        **** int cal = 1;
  87:main.c        **** int count = 0;
  88:main.c        **** int16 error_gyro = 0; //to find the error in gyroscope readings when stationary
  89:main.c        **** int16 error_gyro_avg = 0; //average error in gyroscope readings when stationary
  90:main.c        **** double threshold = 0.1; //to prevent accumulation of error due to integration
  91:main.c        **** 
  92:main.c        **** CY_ISR (Speed_Control)
  93:main.c        **** {
  34              		.loc 1 93 0
  35              		.cfi_startproc
  36              		@ args = 0, pretend = 0, frame = 0
  37              		@ frame_needed = 0, uses_anonymous_args = 0
  38 0000 F8B5     		push	{r3, r4, r5, r6, r7, lr}
  39              		.cfi_def_cfa_offset 24
  40              		.cfi_offset 3, -24
  41              		.cfi_offset 4, -20
  42              		.cfi_offset 5, -16
  43              		.cfi_offset 6, -12
  44              		.cfi_offset 7, -8
  45              		.cfi_offset 14, -4
  94:main.c        ****     if(is_moving == 1)
  46              		.loc 1 94 0
  47 0002 1B4B     		ldr	r3, .L4+8
  48 0004 1B68     		ldr	r3, [r3]
  49 0006 012B     		cmp	r3, #1
  50 0008 2CD1     		bne	.L1
  95:main.c        ****     {
  96:main.c        ****         error = abs(Count_Master) - abs(Count_Slave);
  51              		.loc 1 96 0
  52 000a 194C     		ldr	r4, .L4+8
  53 000c 6068     		ldr	r0, [r4, #4]
  54 000e 0028     		cmp	r0, #0
  55 0010 B8BF     		it	lt
  56 0012 4042     		rsblt	r0, r0, #0
  57 0014 A368     		ldr	r3, [r4, #8]
  58 0016 002B     		cmp	r3, #0
  59 0018 B8BF     		it	lt
  60 001a 5B42     		rsblt	r3, r3, #0
  61 001c C01A     		subs	r0, r0, r3
  62 001e FFF7FEFF 		bl	__aeabi_i2d
  63              	.LVL0:
  64 0022 C4E90401 		strd	r0, [r4, #16]
  97:main.c        ****     	//accumulated_error = accumulated_error + (error*timer_period);
  98:main.c        ****         //derivative_error = (error - last_error)/timer_period;
  99:main.c        ****         //K_i = 1.2 * K_p / timer_period;
 100:main.c        ****         //K_d = 0.075 * K_p * timer_period;
 101:main.c        ****         //PWM_Slave = 25000 - (K_p*error + K_i*accumulated_error + K_d*derivative_error);
 102:main.c        ****         PWM_Slave = 0.8 * (PWM_Master + K_p*error);
  65              		.loc 1 102 0
  66 0026 134D     		ldr	r5, .L4+12
  67 0028 D5E90023 		ldrd	r2, [r5]
  68 002c FFF7FEFF 		bl	__aeabi_dmul
  69              	.LVL1:
ARM GAS  C:\Users\weiro\AppData\Local\Temp\ccSkAWeC.s 			page 4


  70 0030 0646     		mov	r6, r0
  71 0032 0F46     		mov	r7, r1
  72 0034 A868     		ldr	r0, [r5, #8]	@ float
  73 0036 FFF7FEFF 		bl	__aeabi_f2d
  74              	.LVL2:
  75 003a 3246     		mov	r2, r6
  76 003c 3B46     		mov	r3, r7
  77 003e FFF7FEFF 		bl	__aeabi_dadd
  78              	.LVL3:
  79 0042 09A3     		adr	r3, .L4
  80 0044 D3E90023 		ldrd	r2, [r3]
  81 0048 FFF7FEFF 		bl	__aeabi_dmul
  82              	.LVL4:
  83 004c FFF7FEFF 		bl	__aeabi_d2f
  84              	.LVL5:
  85 0050 E860     		str	r0, [r5, #12]	@ float
 103:main.c        ****         //if (PWM_Slave>25000)
 104:main.c        ****         //{
 105:main.c        ****         //    PWM_Slave = 23000;
 106:main.c        ****         //}
 107:main.c        ****     
 108:main.c        ****         PWM_Wheels_WriteCompare2(PWM_Slave);
  86              		.loc 1 108 0
  87 0052 FFF7FEFF 		bl	__aeabi_f2uiz
  88              	.LVL6:
  89 0056 80B2     		uxth	r0, r0
  90 0058 FFF7FEFF 		bl	PWM_Wheels_WriteCompare2
  91              	.LVL7:
 109:main.c        ****         last_error = error;
  92              		.loc 1 109 0
  93 005c D4E90423 		ldrd	r2, [r4, #16]
  94 0060 C4E90623 		strd	r2, [r4, #24]
  95              	.L1:
  96 0064 F8BD     		pop	{r3, r4, r5, r6, r7, pc}
  97              	.L5:
  98 0066 00BF     		.align	3
  99              	.L4:
 100 0068 9A999999 		.word	-1717986918
 101 006c 9999E93F 		.word	1072273817
 102 0070 00000000 		.word	.LANCHOR0
 103 0074 00000000 		.word	.LANCHOR1
 104              		.cfi_endproc
 105              	.LFE64:
 106              		.size	Speed_Control, .-Speed_Control
 107              		.global	__aeabi_dcmple
 108              		.section	.text.ultrasonic_echo,"ax",%progbits
 109              		.align	2
 110              		.global	ultrasonic_echo
 111              		.thumb
 112              		.thumb_func
 113              		.type	ultrasonic_echo, %function
 114              	ultrasonic_echo:
 115              	.LFB65:
 110:main.c        ****     }
 111:main.c        **** 
 112:main.c        ****     //sprintf(string_3, "PWM_Slave: %f\n", PWM_Slave);
 113:main.c        ****     //UART_1_PutString(string_3);
ARM GAS  C:\Users\weiro\AppData\Local\Temp\ccSkAWeC.s 			page 5


 114:main.c        **** }
 115:main.c        **** 
 116:main.c        **** CY_ISR(ultrasonic_echo)
 117:main.c        **** {
 116              		.loc 1 117 0
 117              		.cfi_startproc
 118              		@ args = 0, pretend = 0, frame = 0
 119              		@ frame_needed = 0, uses_anonymous_args = 0
 120 0000 38B5     		push	{r3, r4, r5, lr}
 121              		.cfi_def_cfa_offset 16
 122              		.cfi_offset 3, -16
 123              		.cfi_offset 4, -12
 124              		.cfi_offset 5, -8
 125              		.cfi_offset 14, -4
 118:main.c        ****     Timer_3_ReadStatusRegister();
 126              		.loc 1 118 0
 127 0002 FFF7FEFF 		bl	Timer_3_ReadStatusRegister
 128              	.LVL8:
 119:main.c        ****     ultrasonic_count = Timer_3_ReadCounter();
 129              		.loc 1 119 0
 130 0006 FFF7FEFF 		bl	Timer_3_ReadCounter
 131              	.LVL9:
 132 000a 254C     		ldr	r4, .L17
 133 000c 2062     		str	r0, [r4, #32]
 120:main.c        ****     ultrasonic_measure = (65535-ultrasonic_count)/58;
 134              		.loc 1 120 0
 135 000e C0F57F43 		rsb	r3, r0, #65280
 136 0012 FF33     		adds	r3, r3, #255
 137 0014 2348     		ldr	r0, .L17+4
 138 0016 80FB0320 		smull	r2, r0, r0, r3
 139 001a 1844     		add	r0, r0, r3
 140 001c DB17     		asrs	r3, r3, #31
 141 001e C3EB6010 		rsb	r0, r3, r0, asr #5
 142 0022 FFF7FEFF 		bl	__aeabi_i2d
 143              	.LVL10:
 144 0026 0246     		mov	r2, r0
 145 0028 0B46     		mov	r3, r1
 146 002a C4E90A23 		strd	r2, [r4, #40]
 121:main.c        ****     sprintf(string_1, "Front dist 1: %lf  \n", ultrasonic_measure);
 147              		.loc 1 121 0
 148 002e 1E4D     		ldr	r5, .L17+8
 149 0030 1E49     		ldr	r1, .L17+12
 150 0032 2846     		mov	r0, r5
 151 0034 FFF7FEFF 		bl	sprintf
 152              	.LVL11:
 122:main.c        ****     UART_1_PutString(string_1);
 153              		.loc 1 122 0
 154 0038 2846     		mov	r0, r5
 155 003a FFF7FEFF 		bl	UART_1_PutString
 156              	.LVL12:
 123:main.c        ****     
 124:main.c        ****     if (echo_select == 0)
 157              		.loc 1 124 0
 158 003e 236B     		ldr	r3, [r4, #48]
 159 0040 2BB9     		cbnz	r3, .L7
 125:main.c        ****     {
 126:main.c        ****         // front 1
ARM GAS  C:\Users\weiro\AppData\Local\Temp\ccSkAWeC.s 			page 6


 127:main.c        ****         front_measured_1 = ultrasonic_measure;
 160              		.loc 1 127 0
 161 0042 D4E90A01 		ldrd	r0, [r4, #40]
 162 0046 1A4B     		ldr	r3, .L17+16
 163 0048 C3E90001 		strd	r0, [r3]
 164 004c 18E0     		b	.L8
 165              	.L7:
 128:main.c        ****     }
 129:main.c        ****     else if (echo_select == 1)
 166              		.loc 1 129 0
 167 004e 012B     		cmp	r3, #1
 168 0050 06D1     		bne	.L9
 130:main.c        ****     {
 131:main.c        ****         // front 2
 132:main.c        ****         front_measured_2 = ultrasonic_measure;
 169              		.loc 1 132 0
 170 0052 134B     		ldr	r3, .L17
 171 0054 D3E90A01 		ldrd	r0, [r3, #40]
 172 0058 164B     		ldr	r3, .L17+20
 173 005a C3E90001 		strd	r0, [r3]
 174 005e 0FE0     		b	.L8
 175              	.L9:
 133:main.c        ****     }
 134:main.c        ****     else if (echo_select == 2)
 176              		.loc 1 134 0
 177 0060 022B     		cmp	r3, #2
 178 0062 05D1     		bne	.L10
 135:main.c        ****     {
 136:main.c        ****         // left
 137:main.c        ****         left_measured = ultrasonic_measure;
 179              		.loc 1 137 0
 180 0064 0E4B     		ldr	r3, .L17
 181 0066 D3E90A01 		ldrd	r0, [r3, #40]
 182 006a C3E90E01 		strd	r0, [r3, #56]
 183 006e 07E0     		b	.L8
 184              	.L10:
 138:main.c        ****     }
 139:main.c        ****     else if (echo_select == 3)
 185              		.loc 1 139 0
 186 0070 032B     		cmp	r3, #3
 187 0072 05D1     		bne	.L8
 140:main.c        ****     {
 141:main.c        ****         // right
 142:main.c        ****         right_measured = ultrasonic_measure;
 188              		.loc 1 142 0
 189 0074 0A4B     		ldr	r3, .L17
 190 0076 D3E90A01 		ldrd	r0, [r3, #40]
 191 007a 0F4B     		ldr	r3, .L17+24
 192 007c C3E90001 		strd	r0, [r3]
 193              	.L8:
 143:main.c        ****     }
 144:main.c        ****     
 145:main.c        ****     if(front_measured_1 <= 10)
 194              		.loc 1 145 0
 195 0080 0022     		movs	r2, #0
 196 0082 0E4B     		ldr	r3, .L17+28
 197 0084 0A49     		ldr	r1, .L17+16
ARM GAS  C:\Users\weiro\AppData\Local\Temp\ccSkAWeC.s 			page 7


 198 0086 D1E90001 		ldrd	r0, [r1]
 199 008a FFF7FEFF 		bl	__aeabi_dcmple
 200              	.LVL13:
 201 008e 18B1     		cbz	r0, .L15
 146:main.c        ****     {
 147:main.c        ****         wall_detected_10 = 1;
 202              		.loc 1 147 0
 203 0090 0122     		movs	r2, #1
 204 0092 034B     		ldr	r3, .L17
 205 0094 1A64     		str	r2, [r3, #64]
 206 0096 38BD     		pop	{r3, r4, r5, pc}
 207              	.L15:
 148:main.c        ****     }
 149:main.c        ****     else
 150:main.c        ****     {
 151:main.c        ****         wall_detected_10 = 0;
 208              		.loc 1 151 0
 209 0098 0022     		movs	r2, #0
 210 009a 014B     		ldr	r3, .L17
 211 009c 1A64     		str	r2, [r3, #64]
 212 009e 38BD     		pop	{r3, r4, r5, pc}
 213              	.L18:
 214              		.align	2
 215              	.L17:
 216 00a0 00000000 		.word	.LANCHOR0
 217 00a4 09CB3D8D 		.word	-1925330167
 218 00a8 00000000 		.word	string_1
 219 00ac 00000000 		.word	.LC0
 220 00b0 00000000 		.word	front_measured_1
 221 00b4 00000000 		.word	front_measured_2
 222 00b8 00000000 		.word	right_measured
 223 00bc 00002440 		.word	1076101120
 224              		.cfi_endproc
 225              	.LFE65:
 226              		.size	ultrasonic_echo, .-ultrasonic_echo
 227              		.section	.text.Color_sensing,"ax",%progbits
 228              		.align	2
 229              		.global	Color_sensing
 230              		.thumb
 231              		.thumb_func
 232              		.type	Color_sensing, %function
 233              	Color_sensing:
 234              	.LFB66:
 152:main.c        ****     }
 153:main.c        **** }
 154:main.c        **** 
 155:main.c        **** CY_ISR(Color_sensing)
 156:main.c        **** {
 235              		.loc 1 156 0
 236              		.cfi_startproc
 237              		@ args = 0, pretend = 0, frame = 0
 238              		@ frame_needed = 0, uses_anonymous_args = 0
 239 0000 08B5     		push	{r3, lr}
 240              		.cfi_def_cfa_offset 8
 241              		.cfi_offset 3, -8
 242              		.cfi_offset 14, -4
 157:main.c        ****     // Ready to do the capture --> to count the pulse
ARM GAS  C:\Users\weiro\AppData\Local\Temp\ccSkAWeC.s 			page 8


 158:main.c        ****     PWM_ColorSensor_ReadStatusRegister();
 243              		.loc 1 158 0
 244 0002 FFF7FEFF 		bl	PWM_ColorSensor_ReadStatusRegister
 245              	.LVL14:
 159:main.c        ****     compare_ready = 1;
 246              		.loc 1 159 0
 247 0006 0122     		movs	r2, #1
 248 0008 014B     		ldr	r3, .L21
 249 000a 5A64     		str	r2, [r3, #68]
 250 000c 08BD     		pop	{r3, pc}
 251              	.L22:
 252 000e 00BF     		.align	2
 253              	.L21:
 254 0010 00000000 		.word	.LANCHOR0
 255              		.cfi_endproc
 256              	.LFE66:
 257              		.size	Color_sensing, .-Color_sensing
 258              		.section	.text.Bluetooth,"ax",%progbits
 259              		.align	2
 260              		.global	Bluetooth
 261              		.thumb
 262              		.thumb_func
 263              		.type	Bluetooth, %function
 264              	Bluetooth:
 265              	.LFB67:
 160:main.c        **** }
 161:main.c        **** 
 162:main.c        **** CY_ISR(Bluetooth)
 163:main.c        **** {
 266              		.loc 1 163 0
 267              		.cfi_startproc
 268              		@ args = 0, pretend = 0, frame = 0
 269              		@ frame_needed = 0, uses_anonymous_args = 0
 270 0000 08B5     		push	{r3, lr}
 271              		.cfi_def_cfa_offset 8
 272              		.cfi_offset 3, -8
 273              		.cfi_offset 14, -4
 164:main.c        ****     Rx = UART_1_GetChar();
 274              		.loc 1 164 0
 275 0002 FFF7FEFF 		bl	UART_1_GetChar
 276              	.LVL15:
 277 0006 094B     		ldr	r3, .L27
 278 0008 1870     		strb	r0, [r3]
 165:main.c        ****     if (Rx != '!')
 279              		.loc 1 165 0
 280 000a 2128     		cmp	r0, #33
 281 000c 06D0     		beq	.L24
 166:main.c        ****     {
 167:main.c        ****         string_bt[i] = Rx;
 282              		.loc 1 167 0
 283 000e 084A     		ldr	r2, .L27+4
 284 0010 936C     		ldr	r3, [r2, #72]
 285 0012 0849     		ldr	r1, .L27+8
 286 0014 C854     		strb	r0, [r1, r3]
 168:main.c        ****         i++;
 287              		.loc 1 168 0
 288 0016 0133     		adds	r3, r3, #1
ARM GAS  C:\Users\weiro\AppData\Local\Temp\ccSkAWeC.s 			page 9


 289 0018 9364     		str	r3, [r2, #72]
 290 001a 08BD     		pop	{r3, pc}
 291              	.L24:
 169:main.c        ****     }
 170:main.c        ****     else
 171:main.c        ****     {
 172:main.c        ****         string_bt[i] = '\0'; // terminate
 292              		.loc 1 172 0
 293 001c 044B     		ldr	r3, .L27+4
 294 001e 9A6C     		ldr	r2, [r3, #72]
 295 0020 0020     		movs	r0, #0
 296 0022 0449     		ldr	r1, .L27+8
 297 0024 8854     		strb	r0, [r1, r2]
 173:main.c        ****         stop_bt = 1;
 298              		.loc 1 173 0
 299 0026 0122     		movs	r2, #1
 300 0028 DA64     		str	r2, [r3, #76]
 301 002a 08BD     		pop	{r3, pc}
 302              	.L28:
 303              		.align	2
 304              	.L27:
 305 002c 00000000 		.word	Rx
 306 0030 00000000 		.word	.LANCHOR0
 307 0034 00000000 		.word	string_bt
 308              		.cfi_endproc
 309              	.LFE67:
 310              		.size	Bluetooth, .-Bluetooth
 311              		.global	__aeabi_ddiv
 312              		.global	__aeabi_dsub
 313              		.global	__aeabi_dcmpgt
 314              		.global	__aeabi_d2iz
 315              		.global	__aeabi_dcmplt
 316              		.section	.text.Gyroscope,"ax",%progbits
 317              		.align	2
 318              		.global	Gyroscope
 319              		.thumb
 320              		.thumb_func
 321              		.type	Gyroscope, %function
 322              	Gyroscope:
 323              	.LFB68:
 174:main.c        ****     }
 175:main.c        **** }
 176:main.c        **** 
 177:main.c        **** CY_ISR(Gyroscope)
 178:main.c        **** {
 324              		.loc 1 178 0
 325              		.cfi_startproc
 326              		@ args = 0, pretend = 0, frame = 0
 327              		@ frame_needed = 0, uses_anonymous_args = 0
 328 0000 2DE9F041 		push	{r4, r5, r6, r7, r8, lr}
 329              		.cfi_def_cfa_offset 24
 330              		.cfi_offset 4, -24
 331              		.cfi_offset 5, -20
 332              		.cfi_offset 6, -16
 333              		.cfi_offset 7, -12
 334              		.cfi_offset 8, -8
 335              		.cfi_offset 14, -4
ARM GAS  C:\Users\weiro\AppData\Local\Temp\ccSkAWeC.s 			page 10


 179:main.c        ****     Timer_2_ReadStatusRegister();
 336              		.loc 1 179 0
 337 0004 FFF7FEFF 		bl	Timer_2_ReadStatusRegister
 338              	.LVL16:
 180:main.c        ****     //Timer_2_ReadStatusRegister();
 181:main.c        ****     
 182:main.c        ****     //Writing the register number from where the read operation starts
 183:main.c        ****     I2C_1_MasterSendStart(MPU6050,0); //Steps 1-2
 339              		.loc 1 183 0
 340 0008 0021     		movs	r1, #0
 341 000a 6820     		movs	r0, #104
 342 000c FFF7FEFF 		bl	I2C_1_MasterSendStart
 343              	.LVL17:
 184:main.c        ****     I2C_1_MasterWriteByte(0x43); //Step 3
 344              		.loc 1 184 0
 345 0010 4320     		movs	r0, #67
 346 0012 FFF7FEFF 		bl	I2C_1_MasterWriteByte
 347              	.LVL18:
 185:main.c        ****     I2C_1_MasterSendStop(); //Step 4
 348              		.loc 1 185 0
 349 0016 FFF7FEFF 		bl	I2C_1_MasterSendStop
 350              	.LVL19:
 186:main.c        ****     CyDelay(1);
 351              		.loc 1 186 0
 352 001a 0120     		movs	r0, #1
 353 001c FFF7FEFF 		bl	CyDelay
 354              	.LVL20:
 187:main.c        ****     
 188:main.c        ****     //Read data starting from register 0x43
 189:main.c        ****     I2C_1_MasterSendStart(MPU6050,1); //Steps 5-6
 355              		.loc 1 189 0
 356 0020 0121     		movs	r1, #1
 357 0022 6820     		movs	r0, #104
 358 0024 FFF7FEFF 		bl	I2C_1_MasterSendStart
 359              	.LVL21:
 190:main.c        ****     
 191:main.c        ****     //Step 7
 192:main.c        ****     array_1[0] = I2C_1_MasterReadByte(I2C_1_ACK_DATA); //GYRO_XOUT_H
 360              		.loc 1 192 0
 361 0028 0120     		movs	r0, #1
 362 002a FFF7FEFF 		bl	I2C_1_MasterReadByte
 363              	.LVL22:
 364 002e 844C     		ldr	r4, .L47+16
 365 0030 84F85000 		strb	r0, [r4, #80]
 193:main.c        ****     array_1[1] = I2C_1_MasterReadByte(I2C_1_ACK_DATA); //GYRO_XOUT_L
 366              		.loc 1 193 0
 367 0034 0120     		movs	r0, #1
 368 0036 FFF7FEFF 		bl	I2C_1_MasterReadByte
 369              	.LVL23:
 370 003a 84F85100 		strb	r0, [r4, #81]
 194:main.c        ****     array_1[2] = I2C_1_MasterReadByte(I2C_1_ACK_DATA); //GYRO_YOUT_H
 371              		.loc 1 194 0
 372 003e 0120     		movs	r0, #1
 373 0040 FFF7FEFF 		bl	I2C_1_MasterReadByte
 374              	.LVL24:
 375 0044 84F85200 		strb	r0, [r4, #82]
 195:main.c        ****     array_1[3] = I2C_1_MasterReadByte(I2C_1_ACK_DATA); //GYRO_YOUT_L
ARM GAS  C:\Users\weiro\AppData\Local\Temp\ccSkAWeC.s 			page 11


 376              		.loc 1 195 0
 377 0048 0120     		movs	r0, #1
 378 004a FFF7FEFF 		bl	I2C_1_MasterReadByte
 379              	.LVL25:
 380 004e 84F85300 		strb	r0, [r4, #83]
 196:main.c        ****     array_1[4] = I2C_1_MasterReadByte(I2C_1_ACK_DATA); //GYRO_ZOUT_H
 381              		.loc 1 196 0
 382 0052 0120     		movs	r0, #1
 383 0054 FFF7FEFF 		bl	I2C_1_MasterReadByte
 384              	.LVL26:
 385 0058 84F85400 		strb	r0, [r4, #84]
 197:main.c        ****     array_1[5] = I2C_1_MasterReadByte(I2C_1_NAK_DATA); //GYRO_ZOUT_L
 386              		.loc 1 197 0
 387 005c 0020     		movs	r0, #0
 388 005e FFF7FEFF 		bl	I2C_1_MasterReadByte
 389              	.LVL27:
 390 0062 84F85500 		strb	r0, [r4, #85]
 198:main.c        ****     
 199:main.c        ****     I2C_1_MasterSendStop(); //Step 8
 391              		.loc 1 199 0
 392 0066 FFF7FEFF 		bl	I2C_1_MasterSendStop
 393              	.LVL28:
 200:main.c        ****     CyDelay(1);
 394              		.loc 1 200 0
 395 006a 0120     		movs	r0, #1
 396 006c FFF7FEFF 		bl	CyDelay
 397              	.LVL29:
 201:main.c        ****     
 202:main.c        ****     temp = array_1[4] << 8 | array_1[5];
 398              		.loc 1 202 0
 399 0070 94F85400 		ldrb	r0, [r4, #84]	@ zero_extendqisi2
 400 0074 94F85530 		ldrb	r3, [r4, #85]	@ zero_extendqisi2
 401 0078 43EA0023 		orr	r3, r3, r0, lsl #8
 402 007c 1BB2     		sxth	r3, r3
 403 007e A4F85630 		strh	r3, [r4, #86]	@ movhi
 203:main.c        ****         
 204:main.c        ****     if (cal == 1 && count < 20) //while calibrating
 404              		.loc 1 204 0
 405 0082 704A     		ldr	r2, .L47+20
 406 0084 1269     		ldr	r2, [r2, #16]
 407 0086 012A     		cmp	r2, #1
 408 0088 11D1     		bne	.L30
 409              		.loc 1 204 0 is_stmt 0 discriminator 1
 410 008a A16D     		ldr	r1, [r4, #88]
 411 008c 1329     		cmp	r1, #19
 412 008e 0EDC     		bgt	.L30
 205:main.c        ****     {
 206:main.c        ****         UART_1_PutString("Calibrating\n");
 413              		.loc 1 206 0 is_stmt 1
 414 0090 6D48     		ldr	r0, .L47+24
 415 0092 FFF7FEFF 		bl	UART_1_PutString
 416              	.LVL30:
 207:main.c        ****         error_gyro += temp;
 417              		.loc 1 207 0
 418 0096 B4F85C10 		ldrh	r1, [r4, #92]
 419 009a B4F85620 		ldrh	r2, [r4, #86]
 420 009e 0A44     		add	r2, r2, r1
ARM GAS  C:\Users\weiro\AppData\Local\Temp\ccSkAWeC.s 			page 12


 421 00a0 A4F85C20 		strh	r2, [r4, #92]	@ movhi
 208:main.c        ****         count++;
 422              		.loc 1 208 0
 423 00a4 A26D     		ldr	r2, [r4, #88]
 424 00a6 0132     		adds	r2, r2, #1
 425 00a8 A265     		str	r2, [r4, #88]
 426 00aa BDE8F081 		pop	{r4, r5, r6, r7, r8, pc}
 427              	.L30:
 209:main.c        ****     }
 210:main.c        ****     else if (cal == 1 && count == 20) //end of calibration and computation of average error
 428              		.loc 1 210 0
 429 00ae 012A     		cmp	r2, #1
 430 00b0 13D1     		bne	.L32
 431              		.loc 1 210 0 is_stmt 0 discriminator 1
 432 00b2 634A     		ldr	r2, .L47+16
 433 00b4 926D     		ldr	r2, [r2, #88]
 434 00b6 142A     		cmp	r2, #20
 435 00b8 0FD1     		bne	.L32
 211:main.c        ****     {
 212:main.c        ****         error_gyro_avg = error_gyro/20;
 436              		.loc 1 212 0 is_stmt 1
 437 00ba 6149     		ldr	r1, .L47+16
 438 00bc B1F95C30 		ldrsh	r3, [r1, #92]
 439 00c0 624A     		ldr	r2, .L47+28
 440 00c2 82FB0302 		smull	r0, r2, r2, r3
 441 00c6 DB17     		asrs	r3, r3, #31
 442 00c8 C3EBE203 		rsb	r3, r3, r2, asr #3
 443 00cc A1F85E30 		strh	r3, [r1, #94]	@ movhi
 213:main.c        ****         cal = 0;
 444              		.loc 1 213 0
 445 00d0 0022     		movs	r2, #0
 446 00d2 5C4B     		ldr	r3, .L47+20
 447 00d4 1A61     		str	r2, [r3, #16]
 448 00d6 BDE8F081 		pop	{r4, r5, r6, r7, r8, pc}
 449              	.L32:
 214:main.c        ****     }
 215:main.c        ****     else //after calibration and with average error computed
 216:main.c        ****     {
 217:main.c        ****         temp = temp - error_gyro_avg;
 450              		.loc 1 217 0
 451 00da 594C     		ldr	r4, .L47+16
 452 00dc B4F85E00 		ldrh	r0, [r4, #94]
 453 00e0 181A     		subs	r0, r3, r0
 454 00e2 00B2     		sxth	r0, r0
 455 00e4 A4F85600 		strh	r0, [r4, #86]	@ movhi
 218:main.c        ****         yaw_rate = temp/65.535;
 456              		.loc 1 218 0
 457 00e8 FFF7FEFF 		bl	__aeabi_i2d
 458              	.LVL31:
 459 00ec 50A3     		adr	r3, .L47
 460 00ee D3E90023 		ldrd	r2, [r3]
 461 00f2 FFF7FEFF 		bl	__aeabi_ddiv
 462              	.LVL32:
 463 00f6 0646     		mov	r6, r0
 464 00f8 0F46     		mov	r7, r1
 465 00fa C4E91867 		strd	r6, [r4, #96]
 219:main.c        **** 
ARM GAS  C:\Users\weiro\AppData\Local\Temp\ccSkAWeC.s 			page 13


 220:main.c        ****         current_reading = yaw_rate;   
 466              		.loc 1 220 0
 467 00fe C4E91A67 		strd	r6, [r4, #104]
 221:main.c        ****        
 222:main.c        ****         if (fabs(current_reading - previous_reading) > threshold)
 468              		.loc 1 222 0
 469 0102 04F17005 		add	r5, r4, #112
 470 0106 D5E90045 		ldrd	r4, [r5]
 471 010a 2246     		mov	r2, r4
 472 010c 2B46     		mov	r3, r5
 473 010e FFF7FEFF 		bl	__aeabi_dsub
 474              	.LVL33:
 475 0112 8446     		mov	ip, r0
 476 0114 8E46     		mov	lr, r1
 477 0116 4B4B     		ldr	r3, .L47+20
 478 0118 D3E90623 		ldrd	r2, [r3, #24]
 479 011c 6046     		mov	r0, ip
 480 011e 2EF00041 		bic	r1, lr, #-2147483648
 481 0122 FFF7FEFF 		bl	__aeabi_dcmpgt
 482              	.LVL34:
 483 0126 0028     		cmp	r0, #0
 484 0128 70D0     		beq	.L44
 223:main.c        ****         {
 224:main.c        ****             //integration of yaw_rate
 225:main.c        ****             yaw_angle = yaw_angle + 0.5*0.1*(previous_reading + current_reading);
 485              		.loc 1 225 0
 486 012a 2246     		mov	r2, r4
 487 012c 2B46     		mov	r3, r5
 488 012e 3046     		mov	r0, r6
 489 0130 3946     		mov	r1, r7
 490 0132 FFF7FEFF 		bl	__aeabi_dadd
 491              	.LVL35:
 492 0136 40A3     		adr	r3, .L47+8
 493 0138 D3E90023 		ldrd	r2, [r3]
 494 013c FFF7FEFF 		bl	__aeabi_dmul
 495              	.LVL36:
 496 0140 DFF8FC80 		ldr	r8, .L47+16
 497 0144 D8E91E23 		ldrd	r2, [r8, #120]
 498 0148 FFF7FEFF 		bl	__aeabi_dadd
 499              	.LVL37:
 500 014c 0546     		mov	r5, r0
 501 014e 0C46     		mov	r4, r1
 502 0150 0246     		mov	r2, r0
 503 0152 0B46     		mov	r3, r1
 504 0154 C8E91E23 		strd	r2, [r8, #120]
 226:main.c        ****             previous_reading = current_reading;
 505              		.loc 1 226 0
 506 0158 C8E91C67 		strd	r6, [r8, #112]
 227:main.c        ****             
 228:main.c        ****             //counting cycles beyond +360 or -360
 229:main.c        ****             cycles = fabs(yaw_angle)/360;
 507              		.loc 1 229 0
 508 015c 0022     		movs	r2, #0
 509 015e 3C4B     		ldr	r3, .L47+32
 510 0160 2846     		mov	r0, r5
 511 0162 24F00041 		bic	r1, r4, #-2147483648
 512 0166 FFF7FEFF 		bl	__aeabi_ddiv
ARM GAS  C:\Users\weiro\AppData\Local\Temp\ccSkAWeC.s 			page 14


 513              	.LVL38:
 514 016a FFF7FEFF 		bl	__aeabi_d2iz
 515              	.LVL39:
 516 016e 0646     		mov	r6, r0
 517 0170 C8F88000 		str	r0, [r8, #128]
 230:main.c        ****             
 231:main.c        ****             if (cycles > 0)
 518              		.loc 1 231 0
 519 0174 0028     		cmp	r0, #0
 520 0176 23DD     		ble	.L35
 232:main.c        ****             {
 233:main.c        ****                 if (yaw_angle < 0)
 521              		.loc 1 233 0
 522 0178 0022     		movs	r2, #0
 523 017a 0023     		movs	r3, #0
 524 017c 2846     		mov	r0, r5
 525 017e 2146     		mov	r1, r4
 526 0180 FFF7FEFF 		bl	__aeabi_dcmplt
 527              	.LVL40:
 528 0184 60B1     		cbz	r0, .L45
 234:main.c        ****                 {
 235:main.c        ****                     heading = yaw_angle + cycles*360;
 529              		.loc 1 235 0
 530 0186 4FF4B470 		mov	r0, #360
 531 018a 00FB06F0 		mul	r0, r0, r6
 532 018e FFF7FEFF 		bl	__aeabi_i2d
 533              	.LVL41:
 534 0192 2A46     		mov	r2, r5
 535 0194 2346     		mov	r3, r4
 536 0196 FFF7FEFF 		bl	__aeabi_dadd
 537              	.LVL42:
 538 019a C8E92201 		strd	r0, [r8, #136]
 539 019e 14E0     		b	.L38
 540              	.L45:
 236:main.c        ****                 }
 237:main.c        ****                 else
 238:main.c        ****                 {
 239:main.c        ****                     heading = yaw_angle - cycles*360;
 541              		.loc 1 239 0
 542 01a0 4FF4B470 		mov	r0, #360
 543 01a4 00FB06F0 		mul	r0, r0, r6
 544 01a8 FFF7FEFF 		bl	__aeabi_i2d
 545              	.LVL43:
 546 01ac 0246     		mov	r2, r0
 547 01ae 0B46     		mov	r3, r1
 548 01b0 2846     		mov	r0, r5
 549 01b2 2146     		mov	r1, r4
 550 01b4 FFF7FEFF 		bl	__aeabi_dsub
 551              	.LVL44:
 552 01b8 214B     		ldr	r3, .L47+16
 553 01ba C3E92201 		strd	r0, [r3, #136]
 554 01be 04E0     		b	.L38
 555              	.L35:
 240:main.c        ****                 }
 241:main.c        ****             }
 242:main.c        ****             else
 243:main.c        ****             {
ARM GAS  C:\Users\weiro\AppData\Local\Temp\ccSkAWeC.s 			page 15


 244:main.c        ****                 heading = yaw_angle;
 556              		.loc 1 244 0
 557 01c0 2A46     		mov	r2, r5
 558 01c2 2346     		mov	r3, r4
 559 01c4 1E49     		ldr	r1, .L47+16
 560 01c6 C1E92223 		strd	r2, [r1, #136]
 561              	.L38:
 245:main.c        ****             }
 246:main.c        ****             
 247:main.c        ****             //wrapping the heading within 0 - 360 degrees
 248:main.c        ****             if (heading < 0)
 562              		.loc 1 248 0
 563 01ca 1D4B     		ldr	r3, .L47+16
 564 01cc D3E92245 		ldrd	r4, [r3, #136]
 565 01d0 0022     		movs	r2, #0
 566 01d2 0023     		movs	r3, #0
 567 01d4 2046     		mov	r0, r4
 568 01d6 2946     		mov	r1, r5
 569 01d8 FFF7FEFF 		bl	__aeabi_dcmplt
 570              	.LVL45:
 571 01dc 40B1     		cbz	r0, .L39
 249:main.c        ****             {
 250:main.c        ****                 heading = heading + 360;
 572              		.loc 1 250 0
 573 01de 0022     		movs	r2, #0
 574 01e0 1B4B     		ldr	r3, .L47+32
 575 01e2 2046     		mov	r0, r4
 576 01e4 2946     		mov	r1, r5
 577 01e6 FFF7FEFF 		bl	__aeabi_dadd
 578              	.LVL46:
 579 01ea 154B     		ldr	r3, .L47+16
 580 01ec C3E92201 		strd	r0, [r3, #136]
 581              	.L39:
 251:main.c        ****             }
 252:main.c        ****             
 253:main.c        ****             sprintf(string_gyro,"Heading: %lf\n",heading);
 582              		.loc 1 253 0
 583 01f0 134B     		ldr	r3, .L47+16
 584 01f2 03F19004 		add	r4, r3, #144
 585 01f6 D3E92223 		ldrd	r2, [r3, #136]
 586 01fa 1649     		ldr	r1, .L47+36
 587 01fc 2046     		mov	r0, r4
 588 01fe FFF7FEFF 		bl	sprintf
 589              	.LVL47:
 254:main.c        ****             UART_1_PutString(string_gyro);
 590              		.loc 1 254 0
 591 0202 2046     		mov	r0, r4
 592 0204 FFF7FEFF 		bl	UART_1_PutString
 593              	.LVL48:
 594 0208 BDE8F081 		pop	{r4, r5, r6, r7, r8, pc}
 595              	.L44:
 255:main.c        ****         }
 256:main.c        ****         else
 257:main.c        ****         {
 258:main.c        ****             previous_reading = current_reading;
 596              		.loc 1 258 0
 597 020c 0C4B     		ldr	r3, .L47+16
ARM GAS  C:\Users\weiro\AppData\Local\Temp\ccSkAWeC.s 			page 16


 598 020e C3E91C67 		strd	r6, [r3, #112]
 259:main.c        ****             sprintf(string_gyro,"Heading: %lf\n",heading);
 599              		.loc 1 259 0
 600 0212 03F19004 		add	r4, r3, #144
 601 0216 D3E92223 		ldrd	r2, [r3, #136]
 602 021a 0E49     		ldr	r1, .L47+36
 603 021c 2046     		mov	r0, r4
 604 021e FFF7FEFF 		bl	sprintf
 605              	.LVL49:
 260:main.c        ****             UART_1_PutString(string_gyro);
 606              		.loc 1 260 0
 607 0222 2046     		mov	r0, r4
 608 0224 FFF7FEFF 		bl	UART_1_PutString
 609              	.LVL50:
 610 0228 BDE8F081 		pop	{r4, r5, r6, r7, r8, pc}
 611              	.L48:
 612 022c AFF30080 		.align	3
 613              	.L47:
 614 0230 0AD7A370 		.word	1889785610
 615 0234 3D625040 		.word	1079009853
 616 0238 9A999999 		.word	-1717986918
 617 023c 9999A93F 		.word	1068079513
 618 0240 00000000 		.word	.LANCHOR0
 619 0244 00000000 		.word	.LANCHOR1
 620 0248 18000000 		.word	.LC1
 621 024c 67666666 		.word	1717986919
 622 0250 00807640 		.word	1081507840
 623 0254 28000000 		.word	.LC2
 624              		.cfi_endproc
 625              	.LFE68:
 626              		.size	Gyroscope, .-Gyroscope
 627              		.section	.text.stop,"ax",%progbits
 628              		.align	2
 629              		.global	stop
 630              		.thumb
 631              		.thumb_func
 632              		.type	stop, %function
 633              	stop:
 634              	.LFB69:
 261:main.c        ****         }
 262:main.c        ****             
 263:main.c        ****     }
 264:main.c        **** }
 265:main.c        **** 
 266:main.c        **** void stop()
 267:main.c        **** {
 635              		.loc 1 267 0
 636              		.cfi_startproc
 637              		@ args = 0, pretend = 0, frame = 0
 638              		@ frame_needed = 0, uses_anonymous_args = 0
 639 0000 10B5     		push	{r4, lr}
 640              		.cfi_def_cfa_offset 8
 641              		.cfi_offset 4, -8
 642              		.cfi_offset 14, -4
 268:main.c        ****     is_moving = 0;
 643              		.loc 1 268 0
 644 0002 0024     		movs	r4, #0
ARM GAS  C:\Users\weiro\AppData\Local\Temp\ccSkAWeC.s 			page 17


 645 0004 074B     		ldr	r3, .L51
 646 0006 1C60     		str	r4, [r3]
 269:main.c        ****     Motor_1_IN_1_Write(0);
 647              		.loc 1 269 0
 648 0008 2046     		mov	r0, r4
 649 000a FFF7FEFF 		bl	Motor_1_IN_1_Write
 650              	.LVL51:
 270:main.c        ****     Motor_1_IN_2_Write(0);
 651              		.loc 1 270 0
 652 000e 2046     		mov	r0, r4
 653 0010 FFF7FEFF 		bl	Motor_1_IN_2_Write
 654              	.LVL52:
 271:main.c        ****     Motor_2_IN_3_Write(0);
 655              		.loc 1 271 0
 656 0014 2046     		mov	r0, r4
 657 0016 FFF7FEFF 		bl	Motor_2_IN_3_Write
 658              	.LVL53:
 272:main.c        ****     Motor_2_IN_4_Write(0);
 659              		.loc 1 272 0
 660 001a 2046     		mov	r0, r4
 661 001c FFF7FEFF 		bl	Motor_2_IN_4_Write
 662              	.LVL54:
 663 0020 10BD     		pop	{r4, pc}
 664              	.L52:
 665 0022 00BF     		.align	2
 666              	.L51:
 667 0024 00000000 		.word	.LANCHOR0
 668              		.cfi_endproc
 669              	.LFE69:
 670              		.size	stop, .-stop
 671              		.section	.text.forward,"ax",%progbits
 672              		.align	2
 673              		.global	forward
 674              		.thumb
 675              		.thumb_func
 676              		.type	forward, %function
 677              	forward:
 678              	.LFB70:
 273:main.c        **** }
 274:main.c        **** 
 275:main.c        **** void forward()
 276:main.c        **** {
 679              		.loc 1 276 0
 680              		.cfi_startproc
 681              		@ args = 0, pretend = 0, frame = 0
 682              		@ frame_needed = 0, uses_anonymous_args = 0
 683 0000 10B5     		push	{r4, lr}
 684              		.cfi_def_cfa_offset 8
 685              		.cfi_offset 4, -8
 686              		.cfi_offset 14, -4
 277:main.c        ****     is_moving = 1;
 687              		.loc 1 277 0
 688 0002 0124     		movs	r4, #1
 689 0004 074B     		ldr	r3, .L55
 690 0006 1C60     		str	r4, [r3]
 278:main.c        ****     Motor_1_IN_1_Write(0);
 691              		.loc 1 278 0
ARM GAS  C:\Users\weiro\AppData\Local\Temp\ccSkAWeC.s 			page 18


 692 0008 0020     		movs	r0, #0
 693 000a FFF7FEFF 		bl	Motor_1_IN_1_Write
 694              	.LVL55:
 279:main.c        ****     Motor_1_IN_2_Write(1);
 695              		.loc 1 279 0
 696 000e 2046     		mov	r0, r4
 697 0010 FFF7FEFF 		bl	Motor_1_IN_2_Write
 698              	.LVL56:
 280:main.c        ****     Motor_2_IN_3_Write(0);
 699              		.loc 1 280 0
 700 0014 0020     		movs	r0, #0
 701 0016 FFF7FEFF 		bl	Motor_2_IN_3_Write
 702              	.LVL57:
 281:main.c        ****     Motor_2_IN_4_Write(1);
 703              		.loc 1 281 0
 704 001a 2046     		mov	r0, r4
 705 001c FFF7FEFF 		bl	Motor_2_IN_4_Write
 706              	.LVL58:
 707 0020 10BD     		pop	{r4, pc}
 708              	.L56:
 709 0022 00BF     		.align	2
 710              	.L55:
 711 0024 00000000 		.word	.LANCHOR0
 712              		.cfi_endproc
 713              	.LFE70:
 714              		.size	forward, .-forward
 715              		.section	.text.reverse,"ax",%progbits
 716              		.align	2
 717              		.global	reverse
 718              		.thumb
 719              		.thumb_func
 720              		.type	reverse, %function
 721              	reverse:
 722              	.LFB71:
 282:main.c        **** }
 283:main.c        **** 
 284:main.c        **** void reverse()
 285:main.c        **** {
 723              		.loc 1 285 0
 724              		.cfi_startproc
 725              		@ args = 0, pretend = 0, frame = 0
 726              		@ frame_needed = 0, uses_anonymous_args = 0
 727 0000 10B5     		push	{r4, lr}
 728              		.cfi_def_cfa_offset 8
 729              		.cfi_offset 4, -8
 730              		.cfi_offset 14, -4
 286:main.c        ****     is_moving = 1;
 731              		.loc 1 286 0
 732 0002 0124     		movs	r4, #1
 733 0004 074B     		ldr	r3, .L59
 734 0006 1C60     		str	r4, [r3]
 287:main.c        ****     Motor_1_IN_1_Write(1);
 735              		.loc 1 287 0
 736 0008 2046     		mov	r0, r4
 737 000a FFF7FEFF 		bl	Motor_1_IN_1_Write
 738              	.LVL59:
 288:main.c        ****     Motor_1_IN_2_Write(0);
ARM GAS  C:\Users\weiro\AppData\Local\Temp\ccSkAWeC.s 			page 19


 739              		.loc 1 288 0
 740 000e 0020     		movs	r0, #0
 741 0010 FFF7FEFF 		bl	Motor_1_IN_2_Write
 742              	.LVL60:
 289:main.c        ****     Motor_2_IN_3_Write(1);
 743              		.loc 1 289 0
 744 0014 2046     		mov	r0, r4
 745 0016 FFF7FEFF 		bl	Motor_2_IN_3_Write
 746              	.LVL61:
 290:main.c        ****     Motor_2_IN_4_Write(0);
 747              		.loc 1 290 0
 748 001a 0020     		movs	r0, #0
 749 001c FFF7FEFF 		bl	Motor_2_IN_4_Write
 750              	.LVL62:
 751 0020 10BD     		pop	{r4, pc}
 752              	.L60:
 753 0022 00BF     		.align	2
 754              	.L59:
 755 0024 00000000 		.word	.LANCHOR0
 756              		.cfi_endproc
 757              	.LFE71:
 758              		.size	reverse, .-reverse
 759              		.section	.text.turn_anticlockwise,"ax",%progbits
 760              		.align	2
 761              		.global	turn_anticlockwise
 762              		.thumb
 763              		.thumb_func
 764              		.type	turn_anticlockwise, %function
 765              	turn_anticlockwise:
 766              	.LFB72:
 291:main.c        **** }
 292:main.c        **** 
 293:main.c        **** void turn_anticlockwise()
 294:main.c        **** {
 767              		.loc 1 294 0
 768              		.cfi_startproc
 769              		@ args = 0, pretend = 0, frame = 0
 770              		@ frame_needed = 0, uses_anonymous_args = 0
 771 0000 10B5     		push	{r4, lr}
 772              		.cfi_def_cfa_offset 8
 773              		.cfi_offset 4, -8
 774              		.cfi_offset 14, -4
 295:main.c        ****     is_moving = 1;
 775              		.loc 1 295 0
 776 0002 0124     		movs	r4, #1
 777 0004 074B     		ldr	r3, .L63
 778 0006 1C60     		str	r4, [r3]
 296:main.c        ****     Motor_1_IN_1_Write(0);
 779              		.loc 1 296 0
 780 0008 0020     		movs	r0, #0
 781 000a FFF7FEFF 		bl	Motor_1_IN_1_Write
 782              	.LVL63:
 297:main.c        ****     Motor_1_IN_2_Write(1);
 783              		.loc 1 297 0
 784 000e 2046     		mov	r0, r4
 785 0010 FFF7FEFF 		bl	Motor_1_IN_2_Write
 786              	.LVL64:
ARM GAS  C:\Users\weiro\AppData\Local\Temp\ccSkAWeC.s 			page 20


 298:main.c        ****     Motor_2_IN_3_Write(1);
 787              		.loc 1 298 0
 788 0014 2046     		mov	r0, r4
 789 0016 FFF7FEFF 		bl	Motor_2_IN_3_Write
 790              	.LVL65:
 299:main.c        ****     Motor_2_IN_4_Write(0);
 791              		.loc 1 299 0
 792 001a 0020     		movs	r0, #0
 793 001c FFF7FEFF 		bl	Motor_2_IN_4_Write
 794              	.LVL66:
 795 0020 10BD     		pop	{r4, pc}
 796              	.L64:
 797 0022 00BF     		.align	2
 798              	.L63:
 799 0024 00000000 		.word	.LANCHOR0
 800              		.cfi_endproc
 801              	.LFE72:
 802              		.size	turn_anticlockwise, .-turn_anticlockwise
 803              		.section	.text.turn_clockwise,"ax",%progbits
 804              		.align	2
 805              		.global	turn_clockwise
 806              		.thumb
 807              		.thumb_func
 808              		.type	turn_clockwise, %function
 809              	turn_clockwise:
 810              	.LFB73:
 300:main.c        **** }
 301:main.c        **** 
 302:main.c        **** void turn_clockwise()
 303:main.c        **** {
 811              		.loc 1 303 0
 812              		.cfi_startproc
 813              		@ args = 0, pretend = 0, frame = 0
 814              		@ frame_needed = 0, uses_anonymous_args = 0
 815 0000 10B5     		push	{r4, lr}
 816              		.cfi_def_cfa_offset 8
 817              		.cfi_offset 4, -8
 818              		.cfi_offset 14, -4
 304:main.c        ****     is_moving = 1;
 819              		.loc 1 304 0
 820 0002 0124     		movs	r4, #1
 821 0004 074B     		ldr	r3, .L67
 822 0006 1C60     		str	r4, [r3]
 305:main.c        ****     Motor_1_IN_1_Write(1);
 823              		.loc 1 305 0
 824 0008 2046     		mov	r0, r4
 825 000a FFF7FEFF 		bl	Motor_1_IN_1_Write
 826              	.LVL67:
 306:main.c        ****     Motor_1_IN_2_Write(0);
 827              		.loc 1 306 0
 828 000e 0020     		movs	r0, #0
 829 0010 FFF7FEFF 		bl	Motor_1_IN_2_Write
 830              	.LVL68:
 307:main.c        ****     Motor_2_IN_3_Write(0);
 831              		.loc 1 307 0
 832 0014 0020     		movs	r0, #0
 833 0016 FFF7FEFF 		bl	Motor_2_IN_3_Write
ARM GAS  C:\Users\weiro\AppData\Local\Temp\ccSkAWeC.s 			page 21


 834              	.LVL69:
 308:main.c        ****     Motor_2_IN_4_Write(1);
 835              		.loc 1 308 0
 836 001a 2046     		mov	r0, r4
 837 001c FFF7FEFF 		bl	Motor_2_IN_4_Write
 838              	.LVL70:
 839 0020 10BD     		pop	{r4, pc}
 840              	.L68:
 841 0022 00BF     		.align	2
 842              	.L67:
 843 0024 00000000 		.word	.LANCHOR0
 844              		.cfi_endproc
 845              	.LFE73:
 846              		.size	turn_clockwise, .-turn_clockwise
 847              		.section	.text.reset_count,"ax",%progbits
 848              		.align	2
 849              		.global	reset_count
 850              		.thumb
 851              		.thumb_func
 852              		.type	reset_count, %function
 853              	reset_count:
 854              	.LFB74:
 309:main.c        **** }
 310:main.c        **** 
 311:main.c        **** void reset_count()
 312:main.c        **** {
 855              		.loc 1 312 0
 856              		.cfi_startproc
 857              		@ args = 0, pretend = 0, frame = 0
 858              		@ frame_needed = 0, uses_anonymous_args = 0
 859 0000 08B5     		push	{r3, lr}
 860              		.cfi_def_cfa_offset 8
 861              		.cfi_offset 3, -8
 862              		.cfi_offset 14, -4
 313:main.c        ****     QuadDec_1_SetCounter(0);
 863              		.loc 1 313 0
 864 0002 0020     		movs	r0, #0
 865 0004 FFF7FEFF 		bl	QuadDec_1_SetCounter
 866              	.LVL71:
 314:main.c        ****     QuadDec_2_SetCounter(0);
 867              		.loc 1 314 0
 868 0008 0020     		movs	r0, #0
 869 000a FFF7FEFF 		bl	QuadDec_2_SetCounter
 870              	.LVL72:
 315:main.c        ****     Count_Master = 0;
 871              		.loc 1 315 0
 872 000e 024B     		ldr	r3, .L71
 873 0010 0022     		movs	r2, #0
 874 0012 5A60     		str	r2, [r3, #4]
 316:main.c        ****     Count_Slave = 0;
 875              		.loc 1 316 0
 876 0014 9A60     		str	r2, [r3, #8]
 877 0016 08BD     		pop	{r3, pc}
 878              	.L72:
 879              		.align	2
 880              	.L71:
 881 0018 00000000 		.word	.LANCHOR0
ARM GAS  C:\Users\weiro\AppData\Local\Temp\ccSkAWeC.s 			page 22


 882              		.cfi_endproc
 883              	.LFE74:
 884              		.size	reset_count, .-reset_count
 885              		.section	.text.move_fixed_dist,"ax",%progbits
 886              		.align	2
 887              		.global	move_fixed_dist
 888              		.thumb
 889              		.thumb_func
 890              		.type	move_fixed_dist, %function
 891              	move_fixed_dist:
 892              	.LFB75:
 317:main.c        **** }
 318:main.c        **** 
 319:main.c        **** void move_fixed_dist(int dist, int flag_FR)
 320:main.c        **** {
 893              		.loc 1 320 0
 894              		.cfi_startproc
 895              		@ args = 0, pretend = 0, frame = 0
 896              		@ frame_needed = 0, uses_anonymous_args = 0
 897              	.LVL73:
 898 0000 70B5     		push	{r4, r5, r6, lr}
 899              		.cfi_def_cfa_offset 16
 900              		.cfi_offset 4, -16
 901              		.cfi_offset 5, -12
 902              		.cfi_offset 6, -8
 903              		.cfi_offset 14, -4
 904 0002 0E46     		mov	r6, r1
 321:main.c        ****     double avg_count, avg_dist;
 322:main.c        ****     int dist_count = dist * CM_COUNT_CONV; // convert dist to count
 905              		.loc 1 322 0
 906 0004 FFF7FEFF 		bl	__aeabi_i2d
 907              	.LVL74:
 908 0008 3F4B     		ldr	r3, .L84+16
 909 000a D3E90023 		ldrd	r2, [r3]
 910 000e FFF7FEFF 		bl	__aeabi_dmul
 911              	.LVL75:
 912 0012 FFF7FEFF 		bl	__aeabi_d2iz
 913              	.LVL76:
 914 0016 0546     		mov	r5, r0
 915              	.LVL77:
 323:main.c        ****     while(abs(Count_Master) <= dist_count && abs(Count_Slave) <= dist_count)
 916              		.loc 1 323 0
 917 0018 0DE0     		b	.L74
 918              	.LVL78:
 919              	.L78:
 324:main.c        ****     {
 325:main.c        ****         Count_Master = QuadDec_1_GetCounter();
 920              		.loc 1 325 0
 921 001a FFF7FEFF 		bl	QuadDec_1_GetCounter
 922              	.LVL79:
 923 001e 3B4C     		ldr	r4, .L84+20
 924 0020 6060     		str	r0, [r4, #4]
 326:main.c        ****         Count_Slave = QuadDec_2_GetCounter();
 925              		.loc 1 326 0
 926 0022 FFF7FEFF 		bl	QuadDec_2_GetCounter
 927              	.LVL80:
 928 0026 A060     		str	r0, [r4, #8]
ARM GAS  C:\Users\weiro\AppData\Local\Temp\ccSkAWeC.s 			page 23


 327:main.c        ****         if (flag_FR==1)
 929              		.loc 1 327 0
 930 0028 012E     		cmp	r6, #1
 931 002a 02D1     		bne	.L75
 328:main.c        ****         {
 329:main.c        ****             forward();
 932              		.loc 1 329 0
 933 002c FFF7FEFF 		bl	forward
 934              	.LVL81:
 935 0030 01E0     		b	.L74
 936              	.L75:
 330:main.c        ****         }
 331:main.c        ****         else
 332:main.c        ****         {
 333:main.c        ****             reverse();
 937              		.loc 1 333 0
 938 0032 FFF7FEFF 		bl	reverse
 939              	.LVL82:
 940              	.L74:
 323:main.c        ****     {
 941              		.loc 1 323 0
 942 0036 354B     		ldr	r3, .L84+20
 943 0038 5B68     		ldr	r3, [r3, #4]
 944 003a 002B     		cmp	r3, #0
 945 003c B8BF     		it	lt
 946 003e 5B42     		rsblt	r3, r3, #0
 947 0040 9D42     		cmp	r5, r3
 948 0042 06DB     		blt	.L77
 323:main.c        ****     {
 949              		.loc 1 323 0 is_stmt 0 discriminator 1
 950 0044 314B     		ldr	r3, .L84+20
 951 0046 9B68     		ldr	r3, [r3, #8]
 952 0048 002B     		cmp	r3, #0
 953 004a B8BF     		it	lt
 954 004c 5B42     		rsblt	r3, r3, #0
 955 004e 9D42     		cmp	r5, r3
 956 0050 E3DA     		bge	.L78
 957              	.L77:
 334:main.c        ****         }
 335:main.c        ****     }
 336:main.c        ****     stop();
 958              		.loc 1 336 0 is_stmt 1
 959 0052 FFF7FEFF 		bl	stop
 960              	.LVL83:
 337:main.c        ****     avg_count = (QuadDec_1_GetCounter()+QuadDec_2_GetCounter())/2;
 961              		.loc 1 337 0
 962 0056 FFF7FEFF 		bl	QuadDec_1_GetCounter
 963              	.LVL84:
 964 005a 0446     		mov	r4, r0
 965 005c FFF7FEFF 		bl	QuadDec_2_GetCounter
 966              	.LVL85:
 967 0060 2044     		add	r0, r0, r4
 968 0062 00EBD070 		add	r0, r0, r0, lsr #31
 969 0066 4010     		asrs	r0, r0, #1
 970 0068 FFF7FEFF 		bl	__aeabi_i2d
 971              	.LVL86:
 972 006c 0446     		mov	r4, r0
ARM GAS  C:\Users\weiro\AppData\Local\Temp\ccSkAWeC.s 			page 24


 973 006e 0D46     		mov	r5, r1
 974              	.LVL87:
 338:main.c        ****     avg_dist = avg_count*(M_PI*WHEEL_DIAMETER/3667);
 975              		.loc 1 338 0
 976 0070 21A3     		adr	r3, .L84
 977 0072 D3E90023 		ldrd	r2, [r3]
 978 0076 2649     		ldr	r1, .L84+24
 979 0078 D1E90801 		ldrd	r0, [r1, #32]
 980 007c FFF7FEFF 		bl	__aeabi_dmul
 981              	.LVL88:
 982 0080 1FA3     		adr	r3, .L84+8
 983 0082 D3E90023 		ldrd	r2, [r3]
 984 0086 FFF7FEFF 		bl	__aeabi_ddiv
 985              	.LVL89:
 986 008a 0246     		mov	r2, r0
 987 008c 0B46     		mov	r3, r1
 988 008e 2046     		mov	r0, r4
 989 0090 2946     		mov	r1, r5
 990 0092 FFF7FEFF 		bl	__aeabi_dmul
 991              	.LVL90:
 339:main.c        ****     if (direction ==0)
 992              		.loc 1 339 0
 993 0096 1D4B     		ldr	r3, .L84+20
 994 0098 D3F86031 		ldr	r3, [r3, #352]
 995 009c 3BB9     		cbnz	r3, .L79
 340:main.c        ****     {
 341:main.c        ****         y_coord = y_coord + avg_dist;
 996              		.loc 1 341 0
 997 009e 1B4C     		ldr	r4, .L84+20
 998              	.LVL91:
 999 00a0 F4E95A23 		ldrd	r2, [r4, #360]!
 1000 00a4 FFF7FEFF 		bl	__aeabi_dadd
 1001              	.LVL92:
 1002 00a8 C4E90001 		strd	r0, [r4]
 1003 00ac 20E0     		b	.L80
 1004              	.LVL93:
 1005              	.L79:
 342:main.c        ****     }
 343:main.c        ****     else if (direction ==1)
 1006              		.loc 1 343 0
 1007 00ae 012B     		cmp	r3, #1
 1008 00b0 07D1     		bne	.L81
 344:main.c        ****     {
 345:main.c        ****         
 346:main.c        ****         x_coord = x_coord + avg_dist;
 1009              		.loc 1 346 0
 1010 00b2 164C     		ldr	r4, .L84+20
 1011              	.LVL94:
 1012 00b4 F4E95C23 		ldrd	r2, [r4, #368]!
 1013 00b8 FFF7FEFF 		bl	__aeabi_dadd
 1014              	.LVL95:
 1015 00bc C4E90001 		strd	r0, [r4]
 1016 00c0 16E0     		b	.L80
 1017              	.LVL96:
 1018              	.L81:
 347:main.c        ****     }
 348:main.c        ****     else if (direction ==2)
ARM GAS  C:\Users\weiro\AppData\Local\Temp\ccSkAWeC.s 			page 25


 1019              		.loc 1 348 0
 1020 00c2 022B     		cmp	r3, #2
 1021 00c4 09D1     		bne	.L82
 349:main.c        ****     {
 350:main.c        ****         
 351:main.c        ****         y_coord = y_coord - avg_dist;
 1022              		.loc 1 351 0
 1023 00c6 114C     		ldr	r4, .L84+20
 1024              	.LVL97:
 1025 00c8 0246     		mov	r2, r0
 1026 00ca 0B46     		mov	r3, r1
 1027 00cc F4E95A01 		ldrd	r0, [r4, #360]!
 1028              	.LVL98:
 1029 00d0 FFF7FEFF 		bl	__aeabi_dsub
 1030              	.LVL99:
 1031 00d4 C4E90001 		strd	r0, [r4]
 1032 00d8 0AE0     		b	.L80
 1033              	.LVL100:
 1034              	.L82:
 352:main.c        ****     }
 353:main.c        ****     else if (direction ==3)
 1035              		.loc 1 353 0
 1036 00da 032B     		cmp	r3, #3
 1037 00dc 08D1     		bne	.L80
 354:main.c        ****     {
 355:main.c        ****         
 356:main.c        ****         x_coord = x_coord - avg_dist;
 1038              		.loc 1 356 0
 1039 00de 0B4C     		ldr	r4, .L84+20
 1040              	.LVL101:
 1041 00e0 0246     		mov	r2, r0
 1042 00e2 0B46     		mov	r3, r1
 1043 00e4 F4E95C01 		ldrd	r0, [r4, #368]!
 1044              	.LVL102:
 1045 00e8 FFF7FEFF 		bl	__aeabi_dsub
 1046              	.LVL103:
 1047 00ec C4E90001 		strd	r0, [r4]
 1048              	.L80:
 357:main.c        ****     }
 358:main.c        ****     reset_count();
 1049              		.loc 1 358 0
 1050 00f0 FFF7FEFF 		bl	reset_count
 1051              	.LVL104:
 1052 00f4 70BD     		pop	{r4, r5, r6, pc}
 1053              	.LVL105:
 1054              	.L85:
 1055 00f6 00BF     		.align	3
 1056              	.L84:
 1057 00f8 182D4454 		.word	1413754136
 1058 00fc FB210940 		.word	1074340347
 1059 0100 00000000 		.word	0
 1060 0104 00A6AC40 		.word	1085056512
 1061 0108 58010000 		.word	.LANCHOR0+344
 1062 010c 00000000 		.word	.LANCHOR0
 1063 0110 00000000 		.word	.LANCHOR1
 1064              		.cfi_endproc
 1065              	.LFE75:
ARM GAS  C:\Users\weiro\AppData\Local\Temp\ccSkAWeC.s 			page 26


 1066              		.size	move_fixed_dist, .-move_fixed_dist
 1067              		.section	.text.move2wall,"ax",%progbits
 1068              		.align	2
 1069              		.global	move2wall
 1070              		.thumb
 1071              		.thumb_func
 1072              		.type	move2wall, %function
 1073              	move2wall:
 1074              	.LFB76:
 359:main.c        **** }
 360:main.c        **** 
 361:main.c        **** void move2wall()
 362:main.c        **** {
 1075              		.loc 1 362 0
 1076              		.cfi_startproc
 1077              		@ args = 0, pretend = 0, frame = 0
 1078              		@ frame_needed = 0, uses_anonymous_args = 0
 1079 0000 38B5     		push	{r3, r4, r5, lr}
 1080              		.cfi_def_cfa_offset 16
 1081              		.cfi_offset 3, -16
 1082              		.cfi_offset 4, -12
 1083              		.cfi_offset 5, -8
 1084              		.cfi_offset 14, -4
 363:main.c        ****     double avg_count, avg_dist;
 364:main.c        ****     while (wall_detected_10 == 0)
 1085              		.loc 1 364 0
 1086 0002 1BE0     		b	.L87
 1087              	.L90:
 365:main.c        ****     {
 366:main.c        ****         forward();
 1088              		.loc 1 366 0
 1089 0004 FFF7FEFF 		bl	forward
 1090              	.LVL106:
 367:main.c        ****         CyDelay(50);
 1091              		.loc 1 367 0
 1092 0008 3220     		movs	r0, #50
 1093 000a FFF7FEFF 		bl	CyDelay
 1094              	.LVL107:
 368:main.c        ****         while(Front_Echo_1_Read()==0)
 1095              		.loc 1 368 0
 1096 000e 11E0     		b	.L88
 1097              	.L89:
 369:main.c        ****         {
 370:main.c        ****             echo_select = 0;
 1098              		.loc 1 370 0
 1099 0010 0024     		movs	r4, #0
 1100 0012 394B     		ldr	r3, .L96+16
 1101 0014 1C63     		str	r4, [r3, #48]
 371:main.c        ****             Control_Reg_2_Write(echo_select);
 1102              		.loc 1 371 0
 1103 0016 2046     		mov	r0, r4
 1104 0018 FFF7FEFF 		bl	Control_Reg_2_Write
 1105              	.LVL108:
 372:main.c        ****             CyDelay(50);
 1106              		.loc 1 372 0
 1107 001c 3220     		movs	r0, #50
 1108 001e FFF7FEFF 		bl	CyDelay
ARM GAS  C:\Users\weiro\AppData\Local\Temp\ccSkAWeC.s 			page 27


 1109              	.LVL109:
 373:main.c        ****             Trigger_Write(1);
 1110              		.loc 1 373 0
 1111 0022 0120     		movs	r0, #1
 1112 0024 FFF7FEFF 		bl	Trigger_Write
 1113              	.LVL110:
 374:main.c        ****             CyDelayUs(10);
 1114              		.loc 1 374 0
 1115 0028 0A20     		movs	r0, #10
 1116 002a FFF7FEFF 		bl	CyDelayUs
 1117              	.LVL111:
 375:main.c        ****             Trigger_Write(0);
 1118              		.loc 1 375 0
 1119 002e 2046     		mov	r0, r4
 1120 0030 FFF7FEFF 		bl	Trigger_Write
 1121              	.LVL112:
 1122              	.L88:
 368:main.c        ****         {
 1123              		.loc 1 368 0
 1124 0034 FFF7FEFF 		bl	Front_Echo_1_Read
 1125              	.LVL113:
 1126 0038 0028     		cmp	r0, #0
 1127 003a E9D0     		beq	.L89
 1128              	.L87:
 364:main.c        ****     {
 1129              		.loc 1 364 0
 1130 003c 2E4B     		ldr	r3, .L96+16
 1131 003e 1B6C     		ldr	r3, [r3, #64]
 1132 0040 002B     		cmp	r3, #0
 1133 0042 DFD0     		beq	.L90
 376:main.c        ****         }
 377:main.c        ****     }
 378:main.c        ****     stop();
 1134              		.loc 1 378 0
 1135 0044 FFF7FEFF 		bl	stop
 1136              	.LVL114:
 379:main.c        ****     avg_count = (QuadDec_1_GetCounter()+QuadDec_2_GetCounter())/2;
 1137              		.loc 1 379 0
 1138 0048 FFF7FEFF 		bl	QuadDec_1_GetCounter
 1139              	.LVL115:
 1140 004c 0446     		mov	r4, r0
 1141 004e FFF7FEFF 		bl	QuadDec_2_GetCounter
 1142              	.LVL116:
 1143 0052 2044     		add	r0, r0, r4
 1144 0054 00EBD070 		add	r0, r0, r0, lsr #31
 1145 0058 4010     		asrs	r0, r0, #1
 1146 005a FFF7FEFF 		bl	__aeabi_i2d
 1147              	.LVL117:
 1148 005e 0446     		mov	r4, r0
 1149 0060 0D46     		mov	r5, r1
 1150              	.LVL118:
 380:main.c        ****     avg_dist = avg_count*(M_PI*WHEEL_DIAMETER/3667);
 1151              		.loc 1 380 0
 1152 0062 21A3     		adr	r3, .L96
 1153 0064 D3E90023 		ldrd	r2, [r3]
 1154 0068 2449     		ldr	r1, .L96+20
 1155 006a D1E90801 		ldrd	r0, [r1, #32]
ARM GAS  C:\Users\weiro\AppData\Local\Temp\ccSkAWeC.s 			page 28


 1156 006e FFF7FEFF 		bl	__aeabi_dmul
 1157              	.LVL119:
 1158 0072 1FA3     		adr	r3, .L96+8
 1159 0074 D3E90023 		ldrd	r2, [r3]
 1160 0078 FFF7FEFF 		bl	__aeabi_ddiv
 1161              	.LVL120:
 1162 007c 0246     		mov	r2, r0
 1163 007e 0B46     		mov	r3, r1
 1164 0080 2046     		mov	r0, r4
 1165 0082 2946     		mov	r1, r5
 1166 0084 FFF7FEFF 		bl	__aeabi_dmul
 1167              	.LVL121:
 381:main.c        ****     if (direction ==0)
 1168              		.loc 1 381 0
 1169 0088 1B4B     		ldr	r3, .L96+16
 1170 008a D3F86031 		ldr	r3, [r3, #352]
 1171 008e 3BB9     		cbnz	r3, .L91
 382:main.c        ****     {
 383:main.c        ****         y_coord = y_coord + avg_dist;
 1172              		.loc 1 383 0
 1173 0090 194C     		ldr	r4, .L96+16
 1174              	.LVL122:
 1175 0092 F4E95A23 		ldrd	r2, [r4, #360]!
 1176 0096 FFF7FEFF 		bl	__aeabi_dadd
 1177              	.LVL123:
 1178 009a C4E90001 		strd	r0, [r4]
 1179 009e 20E0     		b	.L92
 1180              	.LVL124:
 1181              	.L91:
 384:main.c        ****     }
 385:main.c        ****     else if (direction ==1)
 1182              		.loc 1 385 0
 1183 00a0 012B     		cmp	r3, #1
 1184 00a2 07D1     		bne	.L93
 386:main.c        ****     {
 387:main.c        ****         
 388:main.c        ****         x_coord = x_coord + avg_dist;
 1185              		.loc 1 388 0
 1186 00a4 144C     		ldr	r4, .L96+16
 1187              	.LVL125:
 1188 00a6 F4E95C23 		ldrd	r2, [r4, #368]!
 1189 00aa FFF7FEFF 		bl	__aeabi_dadd
 1190              	.LVL126:
 1191 00ae C4E90001 		strd	r0, [r4]
 1192 00b2 16E0     		b	.L92
 1193              	.LVL127:
 1194              	.L93:
 389:main.c        ****     }
 390:main.c        ****     else if (direction ==2)
 1195              		.loc 1 390 0
 1196 00b4 022B     		cmp	r3, #2
 1197 00b6 09D1     		bne	.L94
 391:main.c        ****     {
 392:main.c        ****         
 393:main.c        ****         y_coord = y_coord - avg_dist;
 1198              		.loc 1 393 0
 1199 00b8 0F4C     		ldr	r4, .L96+16
ARM GAS  C:\Users\weiro\AppData\Local\Temp\ccSkAWeC.s 			page 29


 1200              	.LVL128:
 1201 00ba 0246     		mov	r2, r0
 1202 00bc 0B46     		mov	r3, r1
 1203 00be F4E95A01 		ldrd	r0, [r4, #360]!
 1204              	.LVL129:
 1205 00c2 FFF7FEFF 		bl	__aeabi_dsub
 1206              	.LVL130:
 1207 00c6 C4E90001 		strd	r0, [r4]
 1208 00ca 0AE0     		b	.L92
 1209              	.LVL131:
 1210              	.L94:
 394:main.c        ****     }
 395:main.c        ****     else if (direction ==3)
 1211              		.loc 1 395 0
 1212 00cc 032B     		cmp	r3, #3
 1213 00ce 08D1     		bne	.L92
 396:main.c        ****     {
 397:main.c        ****         
 398:main.c        ****         x_coord = x_coord - avg_dist;
 1214              		.loc 1 398 0
 1215 00d0 094C     		ldr	r4, .L96+16
 1216              	.LVL132:
 1217 00d2 0246     		mov	r2, r0
 1218 00d4 0B46     		mov	r3, r1
 1219 00d6 F4E95C01 		ldrd	r0, [r4, #368]!
 1220              	.LVL133:
 1221 00da FFF7FEFF 		bl	__aeabi_dsub
 1222              	.LVL134:
 1223 00de C4E90001 		strd	r0, [r4]
 1224              	.L92:
 399:main.c        ****     }
 400:main.c        ****     reset_count();
 1225              		.loc 1 400 0
 1226 00e2 FFF7FEFF 		bl	reset_count
 1227              	.LVL135:
 1228 00e6 38BD     		pop	{r3, r4, r5, pc}
 1229              	.L97:
 1230              		.align	3
 1231              	.L96:
 1232 00e8 182D4454 		.word	1413754136
 1233 00ec FB210940 		.word	1074340347
 1234 00f0 00000000 		.word	0
 1235 00f4 00A6AC40 		.word	1085056512
 1236 00f8 00000000 		.word	.LANCHOR0
 1237 00fc 00000000 		.word	.LANCHOR1
 1238              		.cfi_endproc
 1239              	.LFE76:
 1240              		.size	move2wall, .-move2wall
 1241              		.section	.text.move2slit,"ax",%progbits
 1242              		.align	2
 1243              		.global	move2slit
 1244              		.thumb
 1245              		.thumb_func
 1246              		.type	move2slit, %function
 1247              	move2slit:
 1248              	.LFB77:
 401:main.c        **** }
ARM GAS  C:\Users\weiro\AppData\Local\Temp\ccSkAWeC.s 			page 30


 402:main.c        **** 
 403:main.c        **** void move2slit()
 404:main.c        **** {
 1249              		.loc 1 404 0
 1250              		.cfi_startproc
 1251              		@ args = 0, pretend = 0, frame = 0
 1252              		@ frame_needed = 0, uses_anonymous_args = 0
 1253 0000 38B5     		push	{r3, r4, r5, lr}
 1254              		.cfi_def_cfa_offset 16
 1255              		.cfi_offset 3, -16
 1256              		.cfi_offset 4, -12
 1257              		.cfi_offset 5, -8
 1258              		.cfi_offset 14, -4
 405:main.c        ****     double avg_count, avg_dist;
 406:main.c        ****     CyDelay(500);
 1259              		.loc 1 406 0
 1260 0002 4FF4FA70 		mov	r0, #500
 1261 0006 FFF7FEFF 		bl	CyDelay
 1262              	.LVL136:
 407:main.c        ****     while (slit_detected == 0)
 1263              		.loc 1 407 0
 1264 000a 27E0     		b	.L99
 1265              	.L102:
 408:main.c        ****     {
 409:main.c        ****         forward();
 1266              		.loc 1 409 0
 1267 000c FFF7FEFF 		bl	forward
 1268              	.LVL137:
 410:main.c        ****         sprintf(string_1, "moving to slit");
 1269              		.loc 1 410 0
 1270 0010 434C     		ldr	r4, .L108+16
 1271 0012 444B     		ldr	r3, .L108+20
 1272 0014 07CB     		ldmia	r3!, {r0, r1, r2}
 1273 0016 2060     		str	r0, [r4]	@ unaligned
 1274 0018 6160     		str	r1, [r4, #4]	@ unaligned
 1275 001a A260     		str	r2, [r4, #8]	@ unaligned
 1276 001c 1A88     		ldrh	r2, [r3]	@ unaligned
 1277 001e 9B78     		ldrb	r3, [r3, #2]	@ zero_extendqisi2
 1278 0020 A281     		strh	r2, [r4, #12]	@ unaligned
 1279 0022 A373     		strb	r3, [r4, #14]
 411:main.c        ****         UART_1_PutString(string_1);
 1280              		.loc 1 411 0
 1281 0024 2046     		mov	r0, r4
 1282 0026 FFF7FEFF 		bl	UART_1_PutString
 1283              	.LVL138:
 412:main.c        ****         CyDelay(100);
 1284              		.loc 1 412 0
 1285 002a 6420     		movs	r0, #100
 1286 002c FFF7FEFF 		bl	CyDelay
 1287              	.LVL139:
 413:main.c        ****         while(Left_Echo_Read()==0)
 1288              		.loc 1 413 0
 1289 0030 10E0     		b	.L100
 1290              	.L101:
 414:main.c        ****         {
 415:main.c        ****             echo_select = 2;
 1291              		.loc 1 415 0
ARM GAS  C:\Users\weiro\AppData\Local\Temp\ccSkAWeC.s 			page 31


 1292 0032 0220     		movs	r0, #2
 1293 0034 3C4B     		ldr	r3, .L108+24
 1294 0036 1863     		str	r0, [r3, #48]
 416:main.c        ****             Control_Reg_2_Write(echo_select);
 1295              		.loc 1 416 0
 1296 0038 FFF7FEFF 		bl	Control_Reg_2_Write
 1297              	.LVL140:
 417:main.c        ****             CyDelay(50);
 1298              		.loc 1 417 0
 1299 003c 3220     		movs	r0, #50
 1300 003e FFF7FEFF 		bl	CyDelay
 1301              	.LVL141:
 418:main.c        ****             Trigger_Write(1);
 1302              		.loc 1 418 0
 1303 0042 0120     		movs	r0, #1
 1304 0044 FFF7FEFF 		bl	Trigger_Write
 1305              	.LVL142:
 419:main.c        ****             CyDelayUs(10);
 1306              		.loc 1 419 0
 1307 0048 0A20     		movs	r0, #10
 1308 004a FFF7FEFF 		bl	CyDelayUs
 1309              	.LVL143:
 420:main.c        ****             Trigger_Write(0);
 1310              		.loc 1 420 0
 1311 004e 0020     		movs	r0, #0
 1312 0050 FFF7FEFF 		bl	Trigger_Write
 1313              	.LVL144:
 1314              	.L100:
 413:main.c        ****         {
 1315              		.loc 1 413 0
 1316 0054 FFF7FEFF 		bl	Left_Echo_Read
 1317              	.LVL145:
 1318 0058 0028     		cmp	r0, #0
 1319 005a EAD0     		beq	.L101
 1320              	.L99:
 407:main.c        ****     {
 1321              		.loc 1 407 0
 1322 005c 324B     		ldr	r3, .L108+24
 1323 005e D3F87831 		ldr	r3, [r3, #376]
 1324 0062 002B     		cmp	r3, #0
 1325 0064 D2D0     		beq	.L102
 421:main.c        ****         }
 422:main.c        ****     }
 423:main.c        ****     stop();
 1326              		.loc 1 423 0
 1327 0066 FFF7FEFF 		bl	stop
 1328              	.LVL146:
 424:main.c        ****     avg_count = (QuadDec_1_GetCounter()+QuadDec_2_GetCounter())/2;
 1329              		.loc 1 424 0
 1330 006a FFF7FEFF 		bl	QuadDec_1_GetCounter
 1331              	.LVL147:
 1332 006e 0446     		mov	r4, r0
 1333 0070 FFF7FEFF 		bl	QuadDec_2_GetCounter
 1334              	.LVL148:
 1335 0074 2044     		add	r0, r0, r4
 1336 0076 00EBD070 		add	r0, r0, r0, lsr #31
 1337 007a 4010     		asrs	r0, r0, #1
ARM GAS  C:\Users\weiro\AppData\Local\Temp\ccSkAWeC.s 			page 32


 1338 007c FFF7FEFF 		bl	__aeabi_i2d
 1339              	.LVL149:
 1340 0080 0446     		mov	r4, r0
 1341 0082 0D46     		mov	r5, r1
 1342              	.LVL150:
 425:main.c        ****     avg_dist = avg_count*(M_PI*WHEEL_DIAMETER/3667);
 1343              		.loc 1 425 0
 1344 0084 22A3     		adr	r3, .L108
 1345 0086 D3E90023 		ldrd	r2, [r3]
 1346 008a 2849     		ldr	r1, .L108+28
 1347 008c D1E90801 		ldrd	r0, [r1, #32]
 1348 0090 FFF7FEFF 		bl	__aeabi_dmul
 1349              	.LVL151:
 1350 0094 20A3     		adr	r3, .L108+8
 1351 0096 D3E90023 		ldrd	r2, [r3]
 1352 009a FFF7FEFF 		bl	__aeabi_ddiv
 1353              	.LVL152:
 1354 009e 0246     		mov	r2, r0
 1355 00a0 0B46     		mov	r3, r1
 1356 00a2 2046     		mov	r0, r4
 1357 00a4 2946     		mov	r1, r5
 1358 00a6 FFF7FEFF 		bl	__aeabi_dmul
 1359              	.LVL153:
 426:main.c        ****     if (direction ==0)
 1360              		.loc 1 426 0
 1361 00aa 1F4B     		ldr	r3, .L108+24
 1362 00ac D3F86031 		ldr	r3, [r3, #352]
 1363 00b0 3BB9     		cbnz	r3, .L103
 427:main.c        ****     {
 428:main.c        ****         y_coord = y_coord + avg_dist;
 1364              		.loc 1 428 0
 1365 00b2 1D4C     		ldr	r4, .L108+24
 1366              	.LVL154:
 1367 00b4 F4E95A23 		ldrd	r2, [r4, #360]!
 1368 00b8 FFF7FEFF 		bl	__aeabi_dadd
 1369              	.LVL155:
 1370 00bc C4E90001 		strd	r0, [r4]
 1371 00c0 20E0     		b	.L104
 1372              	.LVL156:
 1373              	.L103:
 429:main.c        ****     }
 430:main.c        ****     else if (direction ==1)
 1374              		.loc 1 430 0
 1375 00c2 012B     		cmp	r3, #1
 1376 00c4 07D1     		bne	.L105
 431:main.c        ****     {
 432:main.c        ****         
 433:main.c        ****         x_coord = x_coord + avg_dist;
 1377              		.loc 1 433 0
 1378 00c6 184C     		ldr	r4, .L108+24
 1379              	.LVL157:
 1380 00c8 F4E95C23 		ldrd	r2, [r4, #368]!
 1381 00cc FFF7FEFF 		bl	__aeabi_dadd
 1382              	.LVL158:
 1383 00d0 C4E90001 		strd	r0, [r4]
 1384 00d4 16E0     		b	.L104
 1385              	.LVL159:
ARM GAS  C:\Users\weiro\AppData\Local\Temp\ccSkAWeC.s 			page 33


 1386              	.L105:
 434:main.c        ****     }
 435:main.c        ****     else if (direction ==2)
 1387              		.loc 1 435 0
 1388 00d6 022B     		cmp	r3, #2
 1389 00d8 09D1     		bne	.L106
 436:main.c        ****     {
 437:main.c        ****         
 438:main.c        ****         y_coord = y_coord - avg_dist;
 1390              		.loc 1 438 0
 1391 00da 134C     		ldr	r4, .L108+24
 1392              	.LVL160:
 1393 00dc 0246     		mov	r2, r0
 1394 00de 0B46     		mov	r3, r1
 1395 00e0 F4E95A01 		ldrd	r0, [r4, #360]!
 1396              	.LVL161:
 1397 00e4 FFF7FEFF 		bl	__aeabi_dsub
 1398              	.LVL162:
 1399 00e8 C4E90001 		strd	r0, [r4]
 1400 00ec 0AE0     		b	.L104
 1401              	.LVL163:
 1402              	.L106:
 439:main.c        ****     }
 440:main.c        ****     else if (direction ==3)
 1403              		.loc 1 440 0
 1404 00ee 032B     		cmp	r3, #3
 1405 00f0 08D1     		bne	.L104
 441:main.c        ****     {
 442:main.c        ****         
 443:main.c        ****         x_coord = x_coord - avg_dist;
 1406              		.loc 1 443 0
 1407 00f2 0D4C     		ldr	r4, .L108+24
 1408              	.LVL164:
 1409 00f4 0246     		mov	r2, r0
 1410 00f6 0B46     		mov	r3, r1
 1411 00f8 F4E95C01 		ldrd	r0, [r4, #368]!
 1412              	.LVL165:
 1413 00fc FFF7FEFF 		bl	__aeabi_dsub
 1414              	.LVL166:
 1415 0100 C4E90001 		strd	r0, [r4]
 1416              	.L104:
 444:main.c        ****     }
 445:main.c        ****     reset_count();
 1417              		.loc 1 445 0
 1418 0104 FFF7FEFF 		bl	reset_count
 1419              	.LVL167:
 1420 0108 38BD     		pop	{r3, r4, r5, pc}
 1421              	.L109:
 1422 010a 00BFAFF3 		.align	3
 1422      0080
 1423              	.L108:
 1424 0110 182D4454 		.word	1413754136
 1425 0114 FB210940 		.word	1074340347
 1426 0118 00000000 		.word	0
 1427 011c 00A6AC40 		.word	1085056512
 1428 0120 00000000 		.word	string_1
 1429 0124 38000000 		.word	.LC3
ARM GAS  C:\Users\weiro\AppData\Local\Temp\ccSkAWeC.s 			page 34


 1430 0128 00000000 		.word	.LANCHOR0
 1431 012c 00000000 		.word	.LANCHOR1
 1432              		.cfi_endproc
 1433              	.LFE77:
 1434              		.size	move2slit, .-move2slit
 1435              		.section	.text.move2puck,"ax",%progbits
 1436              		.align	2
 1437              		.global	move2puck
 1438              		.thumb
 1439              		.thumb_func
 1440              		.type	move2puck, %function
 1441              	move2puck:
 1442              	.LFB78:
 446:main.c        **** }
 447:main.c        **** 
 448:main.c        **** void move2puck()
 449:main.c        **** {
 1443              		.loc 1 449 0
 1444              		.cfi_startproc
 1445              		@ args = 0, pretend = 0, frame = 0
 1446              		@ frame_needed = 0, uses_anonymous_args = 0
 1447 0000 38B5     		push	{r3, r4, r5, lr}
 1448              		.cfi_def_cfa_offset 16
 1449              		.cfi_offset 3, -16
 1450              		.cfi_offset 4, -12
 1451              		.cfi_offset 5, -8
 1452              		.cfi_offset 14, -4
 450:main.c        ****     double avg_count, avg_dist;
 451:main.c        ****     while (IR_input_Read() == 1)
 1453              		.loc 1 451 0
 1454 0002 01E0     		b	.L111
 1455              	.L112:
 452:main.c        ****     {
 453:main.c        ****         forward();
 1456              		.loc 1 453 0
 1457 0004 FFF7FEFF 		bl	forward
 1458              	.LVL168:
 1459              	.L111:
 451:main.c        ****     {
 1460              		.loc 1 451 0
 1461 0008 FFF7FEFF 		bl	IR_input_Read
 1462              	.LVL169:
 1463 000c 0128     		cmp	r0, #1
 1464 000e F9D0     		beq	.L112
 454:main.c        ****     }
 455:main.c        ****     stop();
 1465              		.loc 1 455 0
 1466 0010 FFF7FEFF 		bl	stop
 1467              	.LVL170:
 456:main.c        ****     CyDelay(500);
 1468              		.loc 1 456 0
 1469 0014 4FF4FA70 		mov	r0, #500
 1470 0018 FFF7FEFF 		bl	CyDelay
 1471              	.LVL171:
 457:main.c        ****     
 458:main.c        ****     avg_count = (QuadDec_1_GetCounter()+QuadDec_2_GetCounter())/2;
 1472              		.loc 1 458 0
ARM GAS  C:\Users\weiro\AppData\Local\Temp\ccSkAWeC.s 			page 35


 1473 001c FFF7FEFF 		bl	QuadDec_1_GetCounter
 1474              	.LVL172:
 1475 0020 0446     		mov	r4, r0
 1476 0022 FFF7FEFF 		bl	QuadDec_2_GetCounter
 1477              	.LVL173:
 1478 0026 2044     		add	r0, r0, r4
 1479 0028 00EBD070 		add	r0, r0, r0, lsr #31
 1480 002c 4010     		asrs	r0, r0, #1
 1481 002e FFF7FEFF 		bl	__aeabi_i2d
 1482              	.LVL174:
 1483 0032 0446     		mov	r4, r0
 1484 0034 0D46     		mov	r5, r1
 1485              	.LVL175:
 459:main.c        ****     avg_dist = avg_count*(M_PI*WHEEL_DIAMETER/3667);
 1486              		.loc 1 459 0
 1487 0036 22A3     		adr	r3, .L118
 1488 0038 D3E90023 		ldrd	r2, [r3]
 1489 003c 2449     		ldr	r1, .L118+16
 1490 003e D1E90801 		ldrd	r0, [r1, #32]
 1491 0042 FFF7FEFF 		bl	__aeabi_dmul
 1492              	.LVL176:
 1493 0046 20A3     		adr	r3, .L118+8
 1494 0048 D3E90023 		ldrd	r2, [r3]
 1495 004c FFF7FEFF 		bl	__aeabi_ddiv
 1496              	.LVL177:
 1497 0050 0246     		mov	r2, r0
 1498 0052 0B46     		mov	r3, r1
 1499 0054 2046     		mov	r0, r4
 1500 0056 2946     		mov	r1, r5
 1501 0058 FFF7FEFF 		bl	__aeabi_dmul
 1502              	.LVL178:
 460:main.c        ****     if (direction ==0)
 1503              		.loc 1 460 0
 1504 005c 1D4B     		ldr	r3, .L118+20
 1505 005e D3F86031 		ldr	r3, [r3, #352]
 1506 0062 3BB9     		cbnz	r3, .L113
 461:main.c        ****     {
 462:main.c        ****         y_coord = y_coord + avg_dist;
 1507              		.loc 1 462 0
 1508 0064 1B4C     		ldr	r4, .L118+20
 1509              	.LVL179:
 1510 0066 F4E95A23 		ldrd	r2, [r4, #360]!
 1511 006a FFF7FEFF 		bl	__aeabi_dadd
 1512              	.LVL180:
 1513 006e C4E90001 		strd	r0, [r4]
 1514 0072 20E0     		b	.L114
 1515              	.LVL181:
 1516              	.L113:
 463:main.c        ****     }
 464:main.c        ****     else if (direction ==1)
 1517              		.loc 1 464 0
 1518 0074 012B     		cmp	r3, #1
 1519 0076 07D1     		bne	.L115
 465:main.c        ****     {
 466:main.c        ****         
 467:main.c        ****         x_coord = x_coord + avg_dist;
 1520              		.loc 1 467 0
ARM GAS  C:\Users\weiro\AppData\Local\Temp\ccSkAWeC.s 			page 36


 1521 0078 164C     		ldr	r4, .L118+20
 1522              	.LVL182:
 1523 007a F4E95C23 		ldrd	r2, [r4, #368]!
 1524 007e FFF7FEFF 		bl	__aeabi_dadd
 1525              	.LVL183:
 1526 0082 C4E90001 		strd	r0, [r4]
 1527 0086 16E0     		b	.L114
 1528              	.LVL184:
 1529              	.L115:
 468:main.c        ****     }
 469:main.c        ****     else if (direction ==2)
 1530              		.loc 1 469 0
 1531 0088 022B     		cmp	r3, #2
 1532 008a 09D1     		bne	.L116
 470:main.c        ****     {
 471:main.c        ****         
 472:main.c        ****         y_coord = y_coord - avg_dist;
 1533              		.loc 1 472 0
 1534 008c 114C     		ldr	r4, .L118+20
 1535              	.LVL185:
 1536 008e 0246     		mov	r2, r0
 1537 0090 0B46     		mov	r3, r1
 1538 0092 F4E95A01 		ldrd	r0, [r4, #360]!
 1539              	.LVL186:
 1540 0096 FFF7FEFF 		bl	__aeabi_dsub
 1541              	.LVL187:
 1542 009a C4E90001 		strd	r0, [r4]
 1543 009e 0AE0     		b	.L114
 1544              	.LVL188:
 1545              	.L116:
 473:main.c        ****     }
 474:main.c        ****     else if (direction ==3)
 1546              		.loc 1 474 0
 1547 00a0 032B     		cmp	r3, #3
 1548 00a2 08D1     		bne	.L114
 475:main.c        ****     {
 476:main.c        ****         
 477:main.c        ****         x_coord = x_coord - avg_dist;
 1549              		.loc 1 477 0
 1550 00a4 0B4C     		ldr	r4, .L118+20
 1551              	.LVL189:
 1552 00a6 0246     		mov	r2, r0
 1553 00a8 0B46     		mov	r3, r1
 1554 00aa F4E95C01 		ldrd	r0, [r4, #368]!
 1555              	.LVL190:
 1556 00ae FFF7FEFF 		bl	__aeabi_dsub
 1557              	.LVL191:
 1558 00b2 C4E90001 		strd	r0, [r4]
 1559              	.L114:
 478:main.c        ****     }
 479:main.c        ****     reset_count();
 1560              		.loc 1 479 0
 1561 00b6 FFF7FEFF 		bl	reset_count
 1562              	.LVL192:
 1563 00ba 38BD     		pop	{r3, r4, r5, pc}
 1564              	.L119:
 1565 00bc AFF30080 		.align	3
ARM GAS  C:\Users\weiro\AppData\Local\Temp\ccSkAWeC.s 			page 37


 1566              	.L118:
 1567 00c0 182D4454 		.word	1413754136
 1568 00c4 FB210940 		.word	1074340347
 1569 00c8 00000000 		.word	0
 1570 00cc 00A6AC40 		.word	1085056512
 1571 00d0 00000000 		.word	.LANCHOR1
 1572 00d4 00000000 		.word	.LANCHOR0
 1573              		.cfi_endproc
 1574              	.LFE78:
 1575              		.size	move2puck, .-move2puck
 1576              		.section	.text.gyro_cal_1,"ax",%progbits
 1577              		.align	2
 1578              		.global	gyro_cal_1
 1579              		.thumb
 1580              		.thumb_func
 1581              		.type	gyro_cal_1, %function
 1582              	gyro_cal_1:
 1583              	.LFB79:
 480:main.c        **** }
 481:main.c        **** 
 482:main.c        **** void gyro_cal_1()
 483:main.c        **** {
 1584              		.loc 1 483 0
 1585              		.cfi_startproc
 1586              		@ args = 0, pretend = 0, frame = 0
 1587              		@ frame_needed = 0, uses_anonymous_args = 0
 1588 0000 10B5     		push	{r4, lr}
 1589              		.cfi_def_cfa_offset 8
 1590              		.cfi_offset 4, -8
 1591              		.cfi_offset 14, -4
 1592              	.LVL193:
 484:main.c        ****     // Determine the target angle based on the 'direction' variable
 485:main.c        ****     int ANGLE_TOLERANCE = 5;
 486:main.c        ****     int targetAngle = 0;
 487:main.c        ****     PWM_Wheels_WriteCompare1(PWM_Cal);
 1593              		.loc 1 487 0
 1594 0002 274C     		ldr	r4, .L133
 1595 0004 A06A     		ldr	r0, [r4, #40]	@ float
 1596 0006 FFF7FEFF 		bl	__aeabi_f2uiz
 1597              	.LVL194:
 1598 000a 80B2     		uxth	r0, r0
 1599 000c FFF7FEFF 		bl	PWM_Wheels_WriteCompare1
 1600              	.LVL195:
 488:main.c        ****     PWM_Wheels_WriteCompare2(PWM_Cal);
 1601              		.loc 1 488 0
 1602 0010 A06A     		ldr	r0, [r4, #40]	@ float
 1603 0012 FFF7FEFF 		bl	__aeabi_f2uiz
 1604              	.LVL196:
 1605 0016 80B2     		uxth	r0, r0
 1606 0018 FFF7FEFF 		bl	PWM_Wheels_WriteCompare2
 1607              	.LVL197:
 489:main.c        ****     switch (direction) {
 1608              		.loc 1 489 0
 1609 001c 214B     		ldr	r3, .L133+4
 1610 001e D3F86031 		ldr	r3, [r3, #352]
 1611 0022 032B     		cmp	r3, #3
 1612 0024 3AD8     		bhi	.L120
ARM GAS  C:\Users\weiro\AppData\Local\Temp\ccSkAWeC.s 			page 38


 1613 0026 DFE803F0 		tbb	[pc, r3]
 1614              	.L123:
 1615 002a 02       		.byte	(.L122-.L123)/2
 1616 002b 09       		.byte	(.L131-.L123)/2
 1617 002c 04       		.byte	(.L125-.L123)/2
 1618 002d 06       		.byte	(.L126-.L123)/2
 1619              		.p2align 1
 1620              	.L122:
 490:main.c        ****         case 0:
 491:main.c        ****             targetAngle = 0;
 1621              		.loc 1 491 0
 1622 002e 0024     		movs	r4, #0
 1623 0030 05E0     		b	.L130
 1624              	.L125:
 1625              	.LVL198:
 492:main.c        ****             break;
 493:main.c        ****         case 1:
 494:main.c        ****             targetAngle = 90;
 495:main.c        ****             break;
 496:main.c        ****         case 2:
 497:main.c        ****             targetAngle = 180;
 1626              		.loc 1 497 0
 1627 0032 B424     		movs	r4, #180
 498:main.c        ****             break;
 1628              		.loc 1 498 0
 1629 0034 03E0     		b	.L130
 1630              	.LVL199:
 1631              	.L126:
 499:main.c        ****         case 3:
 500:main.c        ****             targetAngle = 270;
 1632              		.loc 1 500 0
 1633 0036 4FF48774 		mov	r4, #270
 501:main.c        ****             break;
 1634              		.loc 1 501 0
 1635 003a 00E0     		b	.L130
 1636              	.LVL200:
 1637              	.L131:
 494:main.c        ****             break;
 1638              		.loc 1 494 0
 1639 003c 5A24     		movs	r4, #90
 1640              	.LVL201:
 1641              	.L130:
 1642              	.LBB2:
 502:main.c        ****         default:
 503:main.c        ****             // Handle invalid direction
 504:main.c        ****             return;
 505:main.c        ****     }
 506:main.c        **** 
 507:main.c        ****     // Perform calibration by continuously checking heading
 508:main.c        ****     while (1) {
 509:main.c        ****         // Calculate the difference between the current heading and the target angle
 510:main.c        ****         int angleDifference = heading - targetAngle;
 1643              		.loc 1 510 0
 1644 003e 2046     		mov	r0, r4
 1645 0040 FFF7FEFF 		bl	__aeabi_i2d
 1646              	.LVL202:
 1647 0044 0246     		mov	r2, r0
ARM GAS  C:\Users\weiro\AppData\Local\Temp\ccSkAWeC.s 			page 39


 1648 0046 0B46     		mov	r3, r1
 1649 0048 1649     		ldr	r1, .L133+4
 1650 004a D1E92201 		ldrd	r0, [r1, #136]
 1651 004e FFF7FEFF 		bl	__aeabi_dsub
 1652              	.LVL203:
 1653 0052 FFF7FEFF 		bl	__aeabi_d2iz
 1654              	.LVL204:
 511:main.c        **** 
 512:main.c        ****         // Check if we are within the tolerance range
 513:main.c        ****         if (angleDifference >= -ANGLE_TOLERANCE && angleDifference <= ANGLE_TOLERANCE) {
 1655              		.loc 1 513 0
 1656 0056 10F1050F 		cmn	r0, #5
 1657 005a 14DB     		blt	.L127
 1658              		.loc 1 513 0 is_stmt 0 discriminator 1
 1659 005c 0528     		cmp	r0, #5
 1660 005e 12DC     		bgt	.L127
 514:main.c        ****             // Calibration complete, within tolerance
 515:main.c        ****             stop();
 1661              		.loc 1 515 0 is_stmt 1
 1662 0060 FFF7FEFF 		bl	stop
 1663              	.LVL205:
 1664              	.LBE2:
 516:main.c        ****             break;
 517:main.c        ****             CyDelay(500);
 518:main.c        ****         } else if (angleDifference > 0) {
 519:main.c        ****             // Turn counterclockwise
 520:main.c        ****             turn_anticlockwise();
 521:main.c        ****         } else {
 522:main.c        ****             // Turn clockwise
 523:main.c        ****             turn_clockwise();
 524:main.c        ****         }
 525:main.c        ****         
 526:main.c        ****         CyDelay(50);
 527:main.c        ****     }
 528:main.c        ****     CyDelay(200);
 1665              		.loc 1 528 0
 1666 0064 C820     		movs	r0, #200
 1667 0066 FFF7FEFF 		bl	CyDelay
 1668              	.LVL206:
 529:main.c        ****     PWM_Wheels_WriteCompare1(PWM_Master);
 1669              		.loc 1 529 0
 1670 006a 0D4C     		ldr	r4, .L133
 1671              	.LVL207:
 1672 006c A068     		ldr	r0, [r4, #8]	@ float
 1673 006e FFF7FEFF 		bl	__aeabi_f2uiz
 1674              	.LVL208:
 1675 0072 80B2     		uxth	r0, r0
 1676 0074 FFF7FEFF 		bl	PWM_Wheels_WriteCompare1
 1677              	.LVL209:
 530:main.c        ****     PWM_Wheels_WriteCompare2(PWM_Master);
 1678              		.loc 1 530 0
 1679 0078 A068     		ldr	r0, [r4, #8]	@ float
 1680 007a FFF7FEFF 		bl	__aeabi_f2uiz
 1681              	.LVL210:
 1682 007e 80B2     		uxth	r0, r0
 1683 0080 FFF7FEFF 		bl	PWM_Wheels_WriteCompare2
 1684              	.LVL211:
ARM GAS  C:\Users\weiro\AppData\Local\Temp\ccSkAWeC.s 			page 40


 1685 0084 10BD     		pop	{r4, pc}
 1686              	.LVL212:
 1687              	.L127:
 1688              	.LBB3:
 518:main.c        ****             // Turn counterclockwise
 1689              		.loc 1 518 0
 1690 0086 0028     		cmp	r0, #0
 1691 0088 02DD     		ble	.L128
 520:main.c        ****         } else {
 1692              		.loc 1 520 0
 1693 008a FFF7FEFF 		bl	turn_anticlockwise
 1694              	.LVL213:
 1695 008e 01E0     		b	.L129
 1696              	.LVL214:
 1697              	.L128:
 523:main.c        ****         }
 1698              		.loc 1 523 0
 1699 0090 FFF7FEFF 		bl	turn_clockwise
 1700              	.LVL215:
 1701              	.L129:
 526:main.c        ****     }
 1702              		.loc 1 526 0
 1703 0094 3220     		movs	r0, #50
 1704 0096 FFF7FEFF 		bl	CyDelay
 1705              	.LVL216:
 1706              	.LBE3:
 527:main.c        ****     CyDelay(200);
 1707              		.loc 1 527 0
 1708 009a D0E7     		b	.L130
 1709              	.LVL217:
 1710              	.L120:
 1711 009c 10BD     		pop	{r4, pc}
 1712              	.L134:
 1713 009e 00BF     		.align	2
 1714              	.L133:
 1715 00a0 00000000 		.word	.LANCHOR1
 1716 00a4 00000000 		.word	.LANCHOR0
 1717              		.cfi_endproc
 1718              	.LFE79:
 1719              		.size	gyro_cal_1, .-gyro_cal_1
 1720              		.section	.text.gyro_cal_2,"ax",%progbits
 1721              		.align	2
 1722              		.global	gyro_cal_2
 1723              		.thumb
 1724              		.thumb_func
 1725              		.type	gyro_cal_2, %function
 1726              	gyro_cal_2:
 1727              	.LFB80:
 531:main.c        **** }
 532:main.c        **** void gyro_cal_2()
 533:main.c        **** {
 1728              		.loc 1 533 0
 1729              		.cfi_startproc
 1730              		@ args = 0, pretend = 0, frame = 0
 1731              		@ frame_needed = 0, uses_anonymous_args = 0
 1732 0000 10B5     		push	{r4, lr}
 1733              		.cfi_def_cfa_offset 8
ARM GAS  C:\Users\weiro\AppData\Local\Temp\ccSkAWeC.s 			page 41


 1734              		.cfi_offset 4, -8
 1735              		.cfi_offset 14, -4
 1736              	.LVL218:
 534:main.c        ****     // Determine the target angle based on the 'direction' variable
 535:main.c        ****     int ANGLE_TOLERANCE = 1;
 536:main.c        ****     int targetAngle = 0;
 537:main.c        ****     PWM_Wheels_WriteCompare1(PWM_Cal);
 1737              		.loc 1 537 0
 1738 0002 274C     		ldr	r4, .L148
 1739 0004 A06A     		ldr	r0, [r4, #40]	@ float
 1740 0006 FFF7FEFF 		bl	__aeabi_f2uiz
 1741              	.LVL219:
 1742 000a 80B2     		uxth	r0, r0
 1743 000c FFF7FEFF 		bl	PWM_Wheels_WriteCompare1
 1744              	.LVL220:
 538:main.c        ****     PWM_Wheels_WriteCompare2(PWM_Cal);
 1745              		.loc 1 538 0
 1746 0010 A06A     		ldr	r0, [r4, #40]	@ float
 1747 0012 FFF7FEFF 		bl	__aeabi_f2uiz
 1748              	.LVL221:
 1749 0016 80B2     		uxth	r0, r0
 1750 0018 FFF7FEFF 		bl	PWM_Wheels_WriteCompare2
 1751              	.LVL222:
 539:main.c        ****     switch (direction) {
 1752              		.loc 1 539 0
 1753 001c 214B     		ldr	r3, .L148+4
 1754 001e D3F86031 		ldr	r3, [r3, #352]
 1755 0022 032B     		cmp	r3, #3
 1756 0024 3AD8     		bhi	.L135
 1757 0026 DFE803F0 		tbb	[pc, r3]
 1758              	.L138:
 1759 002a 02       		.byte	(.L137-.L138)/2
 1760 002b 09       		.byte	(.L146-.L138)/2
 1761 002c 04       		.byte	(.L140-.L138)/2
 1762 002d 06       		.byte	(.L141-.L138)/2
 1763              		.p2align 1
 1764              	.L137:
 540:main.c        ****         case 0:
 541:main.c        ****             targetAngle = 0;
 1765              		.loc 1 541 0
 1766 002e 0024     		movs	r4, #0
 1767 0030 05E0     		b	.L145
 1768              	.L140:
 1769              	.LVL223:
 542:main.c        ****             break;
 543:main.c        ****         case 1:
 544:main.c        ****             targetAngle = 90;
 545:main.c        ****             break;
 546:main.c        ****         case 2:
 547:main.c        ****             targetAngle = 180;
 1770              		.loc 1 547 0
 1771 0032 B424     		movs	r4, #180
 548:main.c        ****             break;
 1772              		.loc 1 548 0
 1773 0034 03E0     		b	.L145
 1774              	.LVL224:
 1775              	.L141:
ARM GAS  C:\Users\weiro\AppData\Local\Temp\ccSkAWeC.s 			page 42


 549:main.c        ****         case 3:
 550:main.c        ****             targetAngle = 270;
 1776              		.loc 1 550 0
 1777 0036 4FF48774 		mov	r4, #270
 551:main.c        ****             break;
 1778              		.loc 1 551 0
 1779 003a 00E0     		b	.L145
 1780              	.LVL225:
 1781              	.L146:
 544:main.c        ****             break;
 1782              		.loc 1 544 0
 1783 003c 5A24     		movs	r4, #90
 1784              	.LVL226:
 1785              	.L145:
 1786              	.LBB4:
 552:main.c        ****         default:
 553:main.c        ****             // Handle invalid direction
 554:main.c        ****             return;
 555:main.c        ****     }
 556:main.c        **** 
 557:main.c        ****     // Perform calibration by continuously checking heading
 558:main.c        ****     while (1) {
 559:main.c        ****         // Calculate the difference between the current heading and the target angle
 560:main.c        ****         int angleDifference = heading - targetAngle;
 1787              		.loc 1 560 0
 1788 003e 2046     		mov	r0, r4
 1789 0040 FFF7FEFF 		bl	__aeabi_i2d
 1790              	.LVL227:
 1791 0044 0246     		mov	r2, r0
 1792 0046 0B46     		mov	r3, r1
 1793 0048 1649     		ldr	r1, .L148+4
 1794 004a D1E92201 		ldrd	r0, [r1, #136]
 1795 004e FFF7FEFF 		bl	__aeabi_dsub
 1796              	.LVL228:
 1797 0052 FFF7FEFF 		bl	__aeabi_d2iz
 1798              	.LVL229:
 561:main.c        **** 
 562:main.c        ****         // Check if we are within the tolerance range
 563:main.c        ****         if (angleDifference >= -ANGLE_TOLERANCE && angleDifference <= ANGLE_TOLERANCE) {
 1799              		.loc 1 563 0
 1800 0056 B0F1FF3F 		cmp	r0, #-1
 1801 005a 14DB     		blt	.L142
 1802              		.loc 1 563 0 is_stmt 0 discriminator 1
 1803 005c 0128     		cmp	r0, #1
 1804 005e 12DC     		bgt	.L142
 564:main.c        ****             // Calibration complete, within tolerance
 565:main.c        ****             stop();
 1805              		.loc 1 565 0 is_stmt 1
 1806 0060 FFF7FEFF 		bl	stop
 1807              	.LVL230:
 1808              	.LBE4:
 566:main.c        ****             break;
 567:main.c        ****             CyDelay(500);
 568:main.c        ****         } else if (angleDifference > 0) {
 569:main.c        ****             // Turn counterclockwise
 570:main.c        ****             turn_anticlockwise();
 571:main.c        ****         } else {
ARM GAS  C:\Users\weiro\AppData\Local\Temp\ccSkAWeC.s 			page 43


 572:main.c        ****             // Turn clockwise
 573:main.c        ****             turn_clockwise();
 574:main.c        ****         }
 575:main.c        ****         
 576:main.c        ****         CyDelay(50);
 577:main.c        ****     }
 578:main.c        ****     CyDelay(200);
 1809              		.loc 1 578 0
 1810 0064 C820     		movs	r0, #200
 1811 0066 FFF7FEFF 		bl	CyDelay
 1812              	.LVL231:
 579:main.c        ****     PWM_Wheels_WriteCompare1(PWM_Master);
 1813              		.loc 1 579 0
 1814 006a 0D4C     		ldr	r4, .L148
 1815              	.LVL232:
 1816 006c A068     		ldr	r0, [r4, #8]	@ float
 1817 006e FFF7FEFF 		bl	__aeabi_f2uiz
 1818              	.LVL233:
 1819 0072 80B2     		uxth	r0, r0
 1820 0074 FFF7FEFF 		bl	PWM_Wheels_WriteCompare1
 1821              	.LVL234:
 580:main.c        ****     PWM_Wheels_WriteCompare2(PWM_Master);
 1822              		.loc 1 580 0
 1823 0078 A068     		ldr	r0, [r4, #8]	@ float
 1824 007a FFF7FEFF 		bl	__aeabi_f2uiz
 1825              	.LVL235:
 1826 007e 80B2     		uxth	r0, r0
 1827 0080 FFF7FEFF 		bl	PWM_Wheels_WriteCompare2
 1828              	.LVL236:
 1829 0084 10BD     		pop	{r4, pc}
 1830              	.LVL237:
 1831              	.L142:
 1832              	.LBB5:
 568:main.c        ****             // Turn counterclockwise
 1833              		.loc 1 568 0
 1834 0086 0028     		cmp	r0, #0
 1835 0088 02DD     		ble	.L143
 570:main.c        ****         } else {
 1836              		.loc 1 570 0
 1837 008a FFF7FEFF 		bl	turn_anticlockwise
 1838              	.LVL238:
 1839 008e 01E0     		b	.L144
 1840              	.LVL239:
 1841              	.L143:
 573:main.c        ****         }
 1842              		.loc 1 573 0
 1843 0090 FFF7FEFF 		bl	turn_clockwise
 1844              	.LVL240:
 1845              	.L144:
 576:main.c        ****     }
 1846              		.loc 1 576 0
 1847 0094 3220     		movs	r0, #50
 1848 0096 FFF7FEFF 		bl	CyDelay
 1849              	.LVL241:
 1850              	.LBE5:
 577:main.c        ****     CyDelay(200);
 1851              		.loc 1 577 0
ARM GAS  C:\Users\weiro\AppData\Local\Temp\ccSkAWeC.s 			page 44


 1852 009a D0E7     		b	.L145
 1853              	.LVL242:
 1854              	.L135:
 1855 009c 10BD     		pop	{r4, pc}
 1856              	.L149:
 1857 009e 00BF     		.align	2
 1858              	.L148:
 1859 00a0 00000000 		.word	.LANCHOR1
 1860 00a4 00000000 		.word	.LANCHOR0
 1861              		.cfi_endproc
 1862              	.LFE80:
 1863              		.size	gyro_cal_2, .-gyro_cal_2
 1864              		.section	.text.CW,"ax",%progbits
 1865              		.align	2
 1866              		.global	CW
 1867              		.thumb
 1868              		.thumb_func
 1869              		.type	CW, %function
 1870              	CW:
 1871              	.LFB81:
 581:main.c        **** }
 582:main.c        **** 
 583:main.c        **** void CW(int PT_TURN_COUNT, int flag_CW)
 584:main.c        **** {
 1872              		.loc 1 584 0
 1873              		.cfi_startproc
 1874              		@ args = 0, pretend = 0, frame = 0
 1875              		@ frame_needed = 0, uses_anonymous_args = 0
 1876              	.LVL243:
 1877 0000 70B5     		push	{r4, r5, r6, lr}
 1878              		.cfi_def_cfa_offset 16
 1879              		.cfi_offset 4, -16
 1880              		.cfi_offset 5, -12
 1881              		.cfi_offset 6, -8
 1882              		.cfi_offset 14, -4
 1883 0002 0546     		mov	r5, r0
 1884 0004 0E46     		mov	r6, r1
 585:main.c        ****     while(abs(Count_Master) <= PT_TURN_COUNT && abs(Count_Slave) <= PT_TURN_COUNT)
 1885              		.loc 1 585 0
 1886 0006 0DE0     		b	.L151
 1887              	.LVL244:
 1888              	.L155:
 586:main.c        ****     {
 587:main.c        ****         Count_Master = QuadDec_1_GetCounter();
 1889              		.loc 1 587 0
 1890 0008 FFF7FEFF 		bl	QuadDec_1_GetCounter
 1891              	.LVL245:
 1892 000c 234C     		ldr	r4, .L161
 1893 000e 6060     		str	r0, [r4, #4]
 588:main.c        ****         Count_Slave = QuadDec_2_GetCounter();
 1894              		.loc 1 588 0
 1895 0010 FFF7FEFF 		bl	QuadDec_2_GetCounter
 1896              	.LVL246:
 1897 0014 A060     		str	r0, [r4, #8]
 589:main.c        ****         if (flag_CW == 1)
 1898              		.loc 1 589 0
 1899 0016 012E     		cmp	r6, #1
ARM GAS  C:\Users\weiro\AppData\Local\Temp\ccSkAWeC.s 			page 45


 1900 0018 02D1     		bne	.L152
 590:main.c        ****         {
 591:main.c        ****             turn_clockwise();
 1901              		.loc 1 591 0
 1902 001a FFF7FEFF 		bl	turn_clockwise
 1903              	.LVL247:
 1904 001e 01E0     		b	.L151
 1905              	.L152:
 592:main.c        ****         }
 593:main.c        ****         else 
 594:main.c        ****         {
 595:main.c        ****             turn_anticlockwise();
 1906              		.loc 1 595 0
 1907 0020 FFF7FEFF 		bl	turn_anticlockwise
 1908              	.LVL248:
 1909              	.L151:
 585:main.c        ****     {
 1910              		.loc 1 585 0
 1911 0024 1D4B     		ldr	r3, .L161
 1912 0026 5B68     		ldr	r3, [r3, #4]
 1913 0028 002B     		cmp	r3, #0
 1914 002a B8BF     		it	lt
 1915 002c 5B42     		rsblt	r3, r3, #0
 1916 002e AB42     		cmp	r3, r5
 1917 0030 06DC     		bgt	.L154
 585:main.c        ****     {
 1918              		.loc 1 585 0 is_stmt 0 discriminator 1
 1919 0032 1A4B     		ldr	r3, .L161
 1920 0034 9B68     		ldr	r3, [r3, #8]
 1921 0036 002B     		cmp	r3, #0
 1922 0038 B8BF     		it	lt
 1923 003a 5B42     		rsblt	r3, r3, #0
 1924 003c 9D42     		cmp	r5, r3
 1925 003e E3DA     		bge	.L155
 1926              	.L154:
 596:main.c        ****         }
 597:main.c        ****     }
 598:main.c        ****     stop();    
 1927              		.loc 1 598 0 is_stmt 1
 1928 0040 FFF7FEFF 		bl	stop
 1929              	.LVL249:
 599:main.c        ****     if (flag_CW == 1)
 1930              		.loc 1 599 0
 1931 0044 012E     		cmp	r6, #1
 1932 0046 0ED1     		bne	.L156
 600:main.c        ****     {
 601:main.c        ****         if (direction == 3)
 1933              		.loc 1 601 0
 1934 0048 144B     		ldr	r3, .L161
 1935 004a D3F86031 		ldr	r3, [r3, #352]
 1936 004e 032B     		cmp	r3, #3
 1937 0050 04D1     		bne	.L157
 602:main.c        ****         {
 603:main.c        ****             direction = 0;
 1938              		.loc 1 603 0
 1939 0052 0022     		movs	r2, #0
 1940 0054 114B     		ldr	r3, .L161
ARM GAS  C:\Users\weiro\AppData\Local\Temp\ccSkAWeC.s 			page 46


 1941 0056 C3F86021 		str	r2, [r3, #352]
 1942 005a 11E0     		b	.L158
 1943              	.L157:
 604:main.c        ****         }
 605:main.c        ****         else
 606:main.c        ****         {
 607:main.c        ****             direction = direction +1;
 1944              		.loc 1 607 0
 1945 005c 0133     		adds	r3, r3, #1
 1946 005e 0F4A     		ldr	r2, .L161
 1947 0060 C2F86031 		str	r3, [r2, #352]
 1948 0064 0CE0     		b	.L158
 1949              	.L156:
 608:main.c        ****         }
 609:main.c        ****     }
 610:main.c        ****     else
 611:main.c        ****     {
 612:main.c        ****         if (direction ==0)
 1950              		.loc 1 612 0
 1951 0066 0D4B     		ldr	r3, .L161
 1952 0068 D3F86031 		ldr	r3, [r3, #352]
 1953 006c 23B9     		cbnz	r3, .L159
 613:main.c        ****         {
 614:main.c        ****             direction = 3;
 1954              		.loc 1 614 0
 1955 006e 0322     		movs	r2, #3
 1956 0070 0A4B     		ldr	r3, .L161
 1957 0072 C3F86021 		str	r2, [r3, #352]
 1958 0076 03E0     		b	.L158
 1959              	.L159:
 615:main.c        ****         }
 616:main.c        ****         else
 617:main.c        ****         {
 618:main.c        ****             direction = direction -1;
 1960              		.loc 1 618 0
 1961 0078 013B     		subs	r3, r3, #1
 1962 007a 084A     		ldr	r2, .L161
 1963 007c C2F86031 		str	r3, [r2, #352]
 1964              	.L158:
 619:main.c        ****         }
 620:main.c        ****     }
 621:main.c        ****     CyDelay(50);
 1965              		.loc 1 621 0
 1966 0080 3220     		movs	r0, #50
 1967 0082 FFF7FEFF 		bl	CyDelay
 1968              	.LVL250:
 622:main.c        ****     gyro_cal_1();
 1969              		.loc 1 622 0
 1970 0086 FFF7FEFF 		bl	gyro_cal_1
 1971              	.LVL251:
 623:main.c        ****     CyDelay(500);
 1972              		.loc 1 623 0
 1973 008a 4FF4FA70 		mov	r0, #500
 1974 008e FFF7FEFF 		bl	CyDelay
 1975              	.LVL252:
 624:main.c        ****     gyro_cal_2();
 1976              		.loc 1 624 0
ARM GAS  C:\Users\weiro\AppData\Local\Temp\ccSkAWeC.s 			page 47


 1977 0092 FFF7FEFF 		bl	gyro_cal_2
 1978              	.LVL253:
 625:main.c        ****     reset_count();
 1979              		.loc 1 625 0
 1980 0096 FFF7FEFF 		bl	reset_count
 1981              	.LVL254:
 1982 009a 70BD     		pop	{r4, r5, r6, pc}
 1983              	.LVL255:
 1984              	.L162:
 1985              		.align	2
 1986              	.L161:
 1987 009c 00000000 		.word	.LANCHOR0
 1988              		.cfi_endproc
 1989              	.LFE81:
 1990              		.size	CW, .-CW
 1991              		.section	.text.Color_Sensing_Function,"ax",%progbits
 1992              		.align	2
 1993              		.global	Color_Sensing_Function
 1994              		.thumb
 1995              		.thumb_func
 1996              		.type	Color_Sensing_Function, %function
 1997              	Color_Sensing_Function:
 1998              	.LFB82:
 626:main.c        **** }
 627:main.c        **** 
 628:main.c        **** void Color_Sensing_Function()
 629:main.c        **** {
 1999              		.loc 1 629 0
 2000              		.cfi_startproc
 2001              		@ args = 0, pretend = 0, frame = 0
 2002              		@ frame_needed = 0, uses_anonymous_args = 0
 2003 0000 38B5     		push	{r3, r4, r5, lr}
 2004              		.cfi_def_cfa_offset 16
 2005              		.cfi_offset 3, -16
 2006              		.cfi_offset 4, -12
 2007              		.cfi_offset 5, -8
 2008              		.cfi_offset 14, -4
 2009              	.LVL256:
 630:main.c        ****     int mode = 1;
 631:main.c        **** 
 632:main.c        ****     //int count = 0;
 633:main.c        ****     
 634:main.c        ****     S0_Write(1);
 2010              		.loc 1 634 0
 2011 0002 0120     		movs	r0, #1
 2012 0004 FFF7FEFF 		bl	S0_Write
 2013              	.LVL257:
 635:main.c        ****     S1_Write(1);
 2014              		.loc 1 635 0
 2015 0008 0120     		movs	r0, #1
 2016 000a FFF7FEFF 		bl	S1_Write
 2017              	.LVL258:
 636:main.c        ****     CS_LED_Write(1);
 2018              		.loc 1 636 0
 2019 000e 0120     		movs	r0, #1
 2020 0010 FFF7FEFF 		bl	CS_LED_Write
 2021              	.LVL259:
ARM GAS  C:\Users\weiro\AppData\Local\Temp\ccSkAWeC.s 			page 48


 637:main.c        ****     CyDelay(10);
 2022              		.loc 1 637 0
 2023 0014 0A20     		movs	r0, #10
 2024 0016 FFF7FEFF 		bl	CyDelay
 2025              	.LVL260:
 638:main.c        ****     Counter_ColorSensor_Start();
 2026              		.loc 1 638 0
 2027 001a FFF7FEFF 		bl	Counter_ColorSensor_Start
 2028              	.LVL261:
 639:main.c        ****     
 640:main.c        ****     if (mode == 1) // red mode --> red filter
 641:main.c        ****     {
 642:main.c        ****         compare_ready = 0;
 2029              		.loc 1 642 0
 2030 001e 0024     		movs	r4, #0
 2031 0020 664B     		ldr	r3, .L171
 2032 0022 5C64     		str	r4, [r3, #68]
 643:main.c        ****         S2_Write(0);
 2033              		.loc 1 643 0
 2034 0024 2046     		mov	r0, r4
 2035 0026 FFF7FEFF 		bl	S2_Write
 2036              	.LVL262:
 644:main.c        ****         S3_Write(0);
 2037              		.loc 1 644 0
 2038 002a 2046     		mov	r0, r4
 2039 002c FFF7FEFF 		bl	S3_Write
 2040              	.LVL263:
 645:main.c        ****         CyDelay(20);
 2041              		.loc 1 645 0
 2042 0030 1420     		movs	r0, #20
 2043 0032 FFF7FEFF 		bl	CyDelay
 2044              	.LVL264:
 646:main.c        ****         Control_Reg_1_Write(1);
 2045              		.loc 1 646 0
 2046 0036 0120     		movs	r0, #1
 2047 0038 FFF7FEFF 		bl	Control_Reg_1_Write
 2048              	.LVL265:
 647:main.c        ****         CyDelay(1);
 2049              		.loc 1 647 0
 2050 003c 0120     		movs	r0, #1
 2051 003e FFF7FEFF 		bl	CyDelay
 2052              	.LVL266:
 648:main.c        ****         Control_Reg_1_Write(0);
 2053              		.loc 1 648 0
 2054 0042 2046     		mov	r0, r4
 2055 0044 FFF7FEFF 		bl	Control_Reg_1_Write
 2056              	.LVL267:
 2057              	.L164:
 649:main.c        ****         while(compare_ready==0)
 2058              		.loc 1 649 0 discriminator 1
 2059 0048 5C4B     		ldr	r3, .L171
 2060 004a 5B6C     		ldr	r3, [r3, #68]
 2061 004c 002B     		cmp	r3, #0
 2062 004e FBD0     		beq	.L164
 650:main.c        ****         {
 651:main.c        ****             // waiting period (until compare ready = 1
 652:main.c        ****             //sprintf(string_1,"waiting\n");
ARM GAS  C:\Users\weiro\AppData\Local\Temp\ccSkAWeC.s 			page 49


 653:main.c        ****             //UART_1_PutString(string_1);
 654:main.c        ****         }
 655:main.c        ****         CS_count_Red = Counter_ColorSensor_ReadCapture();
 2063              		.loc 1 655 0
 2064 0050 FFF7FEFF 		bl	Counter_ColorSensor_ReadCapture
 2065              	.LVL268:
 2066 0054 0246     		mov	r2, r0
 2067 0056 594D     		ldr	r5, .L171
 2068 0058 C5F87C01 		str	r0, [r5, #380]
 656:main.c        ****         sprintf(string_1,"red: %d\n", CS_count_Red);
 2069              		.loc 1 656 0
 2070 005c 584C     		ldr	r4, .L171+4
 2071 005e 5949     		ldr	r1, .L171+8
 2072 0060 2046     		mov	r0, r4
 2073 0062 FFF7FEFF 		bl	sprintf
 2074              	.LVL269:
 657:main.c        ****         UART_1_PutString(string_1);
 2075              		.loc 1 657 0
 2076 0066 2046     		mov	r0, r4
 2077 0068 FFF7FEFF 		bl	UART_1_PutString
 2078              	.LVL270:
 658:main.c        ****         mode = 2;
 659:main.c        ****     }
 660:main.c        ****     Counter_ColorSensor_Stop();
 2079              		.loc 1 660 0
 2080 006c FFF7FEFF 		bl	Counter_ColorSensor_Stop
 2081              	.LVL271:
 661:main.c        ****     CyDelay(100);
 2082              		.loc 1 661 0
 2083 0070 6420     		movs	r0, #100
 2084 0072 FFF7FEFF 		bl	CyDelay
 2085              	.LVL272:
 662:main.c        ****     Counter_ColorSensor_Start();
 2086              		.loc 1 662 0
 2087 0076 FFF7FEFF 		bl	Counter_ColorSensor_Start
 2088              	.LVL273:
 663:main.c        ****     if (mode == 2) // green mode --> green filter
 664:main.c        ****     {
 665:main.c        ****         compare_ready = 0;
 2089              		.loc 1 665 0
 2090 007a 0024     		movs	r4, #0
 2091 007c 6C64     		str	r4, [r5, #68]
 666:main.c        ****         S2_Write(1);
 2092              		.loc 1 666 0
 2093 007e 0120     		movs	r0, #1
 2094 0080 FFF7FEFF 		bl	S2_Write
 2095              	.LVL274:
 667:main.c        ****         S3_Write(1);
 2096              		.loc 1 667 0
 2097 0084 0120     		movs	r0, #1
 2098 0086 FFF7FEFF 		bl	S3_Write
 2099              	.LVL275:
 668:main.c        ****         CyDelay(20);
 2100              		.loc 1 668 0
 2101 008a 1420     		movs	r0, #20
 2102 008c FFF7FEFF 		bl	CyDelay
 2103              	.LVL276:
ARM GAS  C:\Users\weiro\AppData\Local\Temp\ccSkAWeC.s 			page 50


 669:main.c        ****         Control_Reg_1_Write(1);
 2104              		.loc 1 669 0
 2105 0090 0120     		movs	r0, #1
 2106 0092 FFF7FEFF 		bl	Control_Reg_1_Write
 2107              	.LVL277:
 670:main.c        ****         CyDelay(1);
 2108              		.loc 1 670 0
 2109 0096 0120     		movs	r0, #1
 2110 0098 FFF7FEFF 		bl	CyDelay
 2111              	.LVL278:
 671:main.c        ****         Control_Reg_1_Write(0);
 2112              		.loc 1 671 0
 2113 009c 2046     		mov	r0, r4
 2114 009e FFF7FEFF 		bl	Control_Reg_1_Write
 2115              	.LVL279:
 2116              	.L165:
 672:main.c        ****         while(compare_ready==0)
 2117              		.loc 1 672 0 discriminator 1
 2118 00a2 464B     		ldr	r3, .L171
 2119 00a4 5B6C     		ldr	r3, [r3, #68]
 2120 00a6 002B     		cmp	r3, #0
 2121 00a8 FBD0     		beq	.L165
 673:main.c        ****         {
 674:main.c        ****             // waiting period (until compare ready = 1
 675:main.c        ****         }
 676:main.c        ****         CS_count_Green = Counter_ColorSensor_ReadCapture();
 2122              		.loc 1 676 0
 2123 00aa FFF7FEFF 		bl	Counter_ColorSensor_ReadCapture
 2124              	.LVL280:
 2125 00ae 0246     		mov	r2, r0
 2126 00b0 424D     		ldr	r5, .L171
 2127 00b2 C5F88001 		str	r0, [r5, #384]
 677:main.c        ****         sprintf(string_1,"green: %d\n", CS_count_Green);
 2128              		.loc 1 677 0
 2129 00b6 424C     		ldr	r4, .L171+4
 2130 00b8 4349     		ldr	r1, .L171+12
 2131 00ba 2046     		mov	r0, r4
 2132 00bc FFF7FEFF 		bl	sprintf
 2133              	.LVL281:
 678:main.c        ****         UART_1_PutString(string_1);
 2134              		.loc 1 678 0
 2135 00c0 2046     		mov	r0, r4
 2136 00c2 FFF7FEFF 		bl	UART_1_PutString
 2137              	.LVL282:
 679:main.c        ****         mode = 3;
 680:main.c        ****     }
 681:main.c        ****     Counter_ColorSensor_Stop();
 2138              		.loc 1 681 0
 2139 00c6 FFF7FEFF 		bl	Counter_ColorSensor_Stop
 2140              	.LVL283:
 682:main.c        ****     CyDelay(100);
 2141              		.loc 1 682 0
 2142 00ca 6420     		movs	r0, #100
 2143 00cc FFF7FEFF 		bl	CyDelay
 2144              	.LVL284:
 683:main.c        ****     Counter_ColorSensor_Start();
 2145              		.loc 1 683 0
ARM GAS  C:\Users\weiro\AppData\Local\Temp\ccSkAWeC.s 			page 51


 2146 00d0 FFF7FEFF 		bl	Counter_ColorSensor_Start
 2147              	.LVL285:
 684:main.c        ****     if (mode == 3) // blue mode --> blue filter
 685:main.c        ****     {
 686:main.c        ****         compare_ready = 0;
 2148              		.loc 1 686 0
 2149 00d4 0024     		movs	r4, #0
 2150 00d6 6C64     		str	r4, [r5, #68]
 687:main.c        ****         S2_Write(0);
 2151              		.loc 1 687 0
 2152 00d8 2046     		mov	r0, r4
 2153 00da FFF7FEFF 		bl	S2_Write
 2154              	.LVL286:
 688:main.c        ****         S3_Write(1);
 2155              		.loc 1 688 0
 2156 00de 0120     		movs	r0, #1
 2157 00e0 FFF7FEFF 		bl	S3_Write
 2158              	.LVL287:
 689:main.c        ****         CyDelay(20);
 2159              		.loc 1 689 0
 2160 00e4 1420     		movs	r0, #20
 2161 00e6 FFF7FEFF 		bl	CyDelay
 2162              	.LVL288:
 690:main.c        ****         Control_Reg_1_Write(1);
 2163              		.loc 1 690 0
 2164 00ea 0120     		movs	r0, #1
 2165 00ec FFF7FEFF 		bl	Control_Reg_1_Write
 2166              	.LVL289:
 691:main.c        ****         CyDelay(1);
 2167              		.loc 1 691 0
 2168 00f0 0120     		movs	r0, #1
 2169 00f2 FFF7FEFF 		bl	CyDelay
 2170              	.LVL290:
 692:main.c        ****         Control_Reg_1_Write(0);
 2171              		.loc 1 692 0
 2172 00f6 2046     		mov	r0, r4
 2173 00f8 FFF7FEFF 		bl	Control_Reg_1_Write
 2174              	.LVL291:
 2175              	.L166:
 693:main.c        ****         while(compare_ready==0)
 2176              		.loc 1 693 0 discriminator 1
 2177 00fc 2F4B     		ldr	r3, .L171
 2178 00fe 5B6C     		ldr	r3, [r3, #68]
 2179 0100 002B     		cmp	r3, #0
 2180 0102 FBD0     		beq	.L166
 694:main.c        ****         {
 695:main.c        ****             // waiting period (until compare ready = 1
 696:main.c        ****         }
 697:main.c        ****         CS_count_Blue = Counter_ColorSensor_ReadCapture();
 2181              		.loc 1 697 0
 2182 0104 FFF7FEFF 		bl	Counter_ColorSensor_ReadCapture
 2183              	.LVL292:
 2184 0108 0246     		mov	r2, r0
 2185 010a 2C4C     		ldr	r4, .L171
 2186 010c C4F88401 		str	r0, [r4, #388]
 698:main.c        ****         sprintf(string_1,"blue: %d\n", CS_count_Blue);
 2187              		.loc 1 698 0
ARM GAS  C:\Users\weiro\AppData\Local\Temp\ccSkAWeC.s 			page 52


 2188 0110 2B4D     		ldr	r5, .L171+4
 2189 0112 2E49     		ldr	r1, .L171+16
 2190 0114 2846     		mov	r0, r5
 2191 0116 FFF7FEFF 		bl	sprintf
 2192              	.LVL293:
 699:main.c        ****         UART_1_PutString(string_1);
 2193              		.loc 1 699 0
 2194 011a 2846     		mov	r0, r5
 2195 011c FFF7FEFF 		bl	UART_1_PutString
 2196              	.LVL294:
 700:main.c        ****         mode = 0;
 701:main.c        ****     }
 702:main.c        ****     Counter_ColorSensor_Stop();
 2197              		.loc 1 702 0
 2198 0120 FFF7FEFF 		bl	Counter_ColorSensor_Stop
 2199              	.LVL295:
 703:main.c        ****     if (CS_count_Red > CS_count_Green && CS_count_Red > CS_count_Blue)
 2200              		.loc 1 703 0
 2201 0124 D4F87C31 		ldr	r3, [r4, #380]
 2202 0128 D4F88021 		ldr	r2, [r4, #384]
 2203 012c 9342     		cmp	r3, r2
 2204 012e 0FDD     		ble	.L167
 2205              		.loc 1 703 0 is_stmt 0 discriminator 1
 2206 0130 D4F88421 		ldr	r2, [r4, #388]
 2207 0134 9342     		cmp	r3, r2
 2208 0136 0BDD     		ble	.L167
 704:main.c        ****     {
 705:main.c        ****         color_detected = 1; //red
 2209              		.loc 1 705 0 is_stmt 1
 2210 0138 0120     		movs	r0, #1
 2211 013a C4F88801 		str	r0, [r4, #392]
 706:main.c        ****         led_red_Write(1);
 2212              		.loc 1 706 0
 2213 013e FFF7FEFF 		bl	led_red_Write
 2214              	.LVL296:
 707:main.c        ****         CyDelay(1000);
 2215              		.loc 1 707 0
 2216 0142 4FF47A70 		mov	r0, #1000
 2217 0146 FFF7FEFF 		bl	CyDelay
 2218              	.LVL297:
 708:main.c        ****         led_red_Write(0);
 2219              		.loc 1 708 0
 2220 014a 0020     		movs	r0, #0
 2221 014c FFF7FEFF 		bl	led_red_Write
 2222              	.LVL298:
 2223              	.L167:
 709:main.c        ****     }
 710:main.c        ****     if (CS_count_Green > CS_count_Red && CS_count_Green > CS_count_Blue)
 2224              		.loc 1 710 0
 2225 0150 1A4B     		ldr	r3, .L171
 2226 0152 D3F88021 		ldr	r2, [r3, #384]
 2227 0156 D3F87C31 		ldr	r3, [r3, #380]
 2228 015a 9A42     		cmp	r2, r3
 2229 015c 12DD     		ble	.L168
 2230              		.loc 1 710 0 is_stmt 0 discriminator 1
 2231 015e 174B     		ldr	r3, .L171
 2232 0160 D3F88431 		ldr	r3, [r3, #388]
ARM GAS  C:\Users\weiro\AppData\Local\Temp\ccSkAWeC.s 			page 53


 2233 0164 9A42     		cmp	r2, r3
 2234 0166 0DDD     		ble	.L168
 711:main.c        ****     {
 712:main.c        ****         color_detected = 2; //green
 2235              		.loc 1 712 0 is_stmt 1
 2236 0168 0222     		movs	r2, #2
 2237 016a 144B     		ldr	r3, .L171
 2238 016c C3F88821 		str	r2, [r3, #392]
 713:main.c        ****         led_green_Write(1);
 2239              		.loc 1 713 0
 2240 0170 0120     		movs	r0, #1
 2241 0172 FFF7FEFF 		bl	led_green_Write
 2242              	.LVL299:
 714:main.c        ****         CyDelay(1000);
 2243              		.loc 1 714 0
 2244 0176 4FF47A70 		mov	r0, #1000
 2245 017a FFF7FEFF 		bl	CyDelay
 2246              	.LVL300:
 715:main.c        ****         led_green_Write(0);
 2247              		.loc 1 715 0
 2248 017e 0020     		movs	r0, #0
 2249 0180 FFF7FEFF 		bl	led_green_Write
 2250              	.LVL301:
 2251              	.L168:
 716:main.c        ****     }
 717:main.c        ****     if (CS_count_Blue > CS_count_Red && CS_count_Blue > CS_count_Green)
 2252              		.loc 1 717 0
 2253 0184 0D4B     		ldr	r3, .L171
 2254 0186 D3F88421 		ldr	r2, [r3, #388]
 2255 018a D3F87C31 		ldr	r3, [r3, #380]
 2256 018e 9A42     		cmp	r2, r3
 2257 0190 12DD     		ble	.L163
 2258              		.loc 1 717 0 is_stmt 0 discriminator 1
 2259 0192 0A4B     		ldr	r3, .L171
 2260 0194 D3F88031 		ldr	r3, [r3, #384]
 2261 0198 9A42     		cmp	r2, r3
 2262 019a 0DDD     		ble	.L163
 718:main.c        ****     {
 719:main.c        ****         color_detected = 3; //blue
 2263              		.loc 1 719 0 is_stmt 1
 2264 019c 0322     		movs	r2, #3
 2265 019e 074B     		ldr	r3, .L171
 2266 01a0 C3F88821 		str	r2, [r3, #392]
 720:main.c        ****         led_blue_Write(1);
 2267              		.loc 1 720 0
 2268 01a4 0120     		movs	r0, #1
 2269 01a6 FFF7FEFF 		bl	led_blue_Write
 2270              	.LVL302:
 721:main.c        ****         CyDelay(1000);
 2271              		.loc 1 721 0
 2272 01aa 4FF47A70 		mov	r0, #1000
 2273 01ae FFF7FEFF 		bl	CyDelay
 2274              	.LVL303:
 722:main.c        ****         led_blue_Write(0);
 2275              		.loc 1 722 0
 2276 01b2 0020     		movs	r0, #0
 2277 01b4 FFF7FEFF 		bl	led_blue_Write
ARM GAS  C:\Users\weiro\AppData\Local\Temp\ccSkAWeC.s 			page 54


 2278              	.LVL304:
 2279              	.L163:
 2280 01b8 38BD     		pop	{r3, r4, r5, pc}
 2281              	.L172:
 2282 01ba 00BF     		.align	2
 2283              	.L171:
 2284 01bc 00000000 		.word	.LANCHOR0
 2285 01c0 00000000 		.word	string_1
 2286 01c4 48000000 		.word	.LC4
 2287 01c8 54000000 		.word	.LC5
 2288 01cc 60000000 		.word	.LC6
 2289              		.cfi_endproc
 2290              	.LFE82:
 2291              		.size	Color_Sensing_Function, .-Color_Sensing_Function
 2292              		.section	.text.Gyroscope_Function,"ax",%progbits
 2293              		.align	2
 2294              		.global	Gyroscope_Function
 2295              		.thumb
 2296              		.thumb_func
 2297              		.type	Gyroscope_Function, %function
 2298              	Gyroscope_Function:
 2299              	.LFB83:
 723:main.c        ****     }
 724:main.c        ****     
 725:main.c        ****     //step = step +1;
 726:main.c        **** }
 727:main.c        **** 
 728:main.c        **** void Gyroscope_Function()
 729:main.c        **** {
 2300              		.loc 1 729 0
 2301              		.cfi_startproc
 2302              		@ args = 0, pretend = 0, frame = 0
 2303              		@ frame_needed = 0, uses_anonymous_args = 0
 2304 0000 08B5     		push	{r3, lr}
 2305              		.cfi_def_cfa_offset 8
 2306              		.cfi_offset 3, -8
 2307              		.cfi_offset 14, -4
 730:main.c        ****     //Bring the sensor out of sleep mode
 731:main.c        ****     I2C_1_MasterSendStart(MPU6050,0); //Steps 1-2
 2308              		.loc 1 731 0
 2309 0002 0021     		movs	r1, #0
 2310 0004 6820     		movs	r0, #104
 2311 0006 FFF7FEFF 		bl	I2C_1_MasterSendStart
 2312              	.LVL305:
 732:main.c        ****     I2C_1_MasterWriteByte(0x6B); //Step 3
 2313              		.loc 1 732 0
 2314 000a 6B20     		movs	r0, #107
 2315 000c FFF7FEFF 		bl	I2C_1_MasterWriteByte
 2316              	.LVL306:
 733:main.c        ****     I2C_1_MasterWriteByte(0x00); //Step 4
 2317              		.loc 1 733 0
 2318 0010 0020     		movs	r0, #0
 2319 0012 FFF7FEFF 		bl	I2C_1_MasterWriteByte
 2320              	.LVL307:
 734:main.c        ****     I2C_1_MasterSendStop(); //Step 5
 2321              		.loc 1 734 0
 2322 0016 FFF7FEFF 		bl	I2C_1_MasterSendStop
ARM GAS  C:\Users\weiro\AppData\Local\Temp\ccSkAWeC.s 			page 55


 2323              	.LVL308:
 735:main.c        ****     CyDelay(1);
 2324              		.loc 1 735 0
 2325 001a 0120     		movs	r0, #1
 2326 001c FFF7FEFF 		bl	CyDelay
 2327              	.LVL309:
 736:main.c        ****     
 737:main.c        ****     
 738:main.c        ****     //Set the scaling factor of the sensor
 739:main.c        ****     I2C_1_MasterSendStart(MPU6050,0); //Steps 1-2
 2328              		.loc 1 739 0
 2329 0020 0021     		movs	r1, #0
 2330 0022 6820     		movs	r0, #104
 2331 0024 FFF7FEFF 		bl	I2C_1_MasterSendStart
 2332              	.LVL310:
 740:main.c        ****     I2C_1_MasterWriteByte(0x1B); //Step 3
 2333              		.loc 1 740 0
 2334 0028 1B20     		movs	r0, #27
 2335 002a FFF7FEFF 		bl	I2C_1_MasterWriteByte
 2336              	.LVL311:
 741:main.c        ****     I2C_1_MasterWriteByte(0x08); //Step 4
 2337              		.loc 1 741 0
 2338 002e 0820     		movs	r0, #8
 2339 0030 FFF7FEFF 		bl	I2C_1_MasterWriteByte
 2340              	.LVL312:
 742:main.c        ****     I2C_1_MasterSendStop(); //Step 5
 2341              		.loc 1 742 0
 2342 0034 FFF7FEFF 		bl	I2C_1_MasterSendStop
 2343              	.LVL313:
 743:main.c        ****     CyDelay(1);
 2344              		.loc 1 743 0
 2345 0038 0120     		movs	r0, #1
 2346 003a FFF7FEFF 		bl	CyDelay
 2347              	.LVL314:
 744:main.c        ****     
 745:main.c        ****     
 746:main.c        ****     //Activating the low-pass filter
 747:main.c        ****     I2C_1_MasterSendStart(MPU6050,0); //Steps 1-2
 2348              		.loc 1 747 0
 2349 003e 0021     		movs	r1, #0
 2350 0040 6820     		movs	r0, #104
 2351 0042 FFF7FEFF 		bl	I2C_1_MasterSendStart
 2352              	.LVL315:
 748:main.c        ****     I2C_1_MasterWriteByte(0x1A); //Step 3
 2353              		.loc 1 748 0
 2354 0046 1A20     		movs	r0, #26
 2355 0048 FFF7FEFF 		bl	I2C_1_MasterWriteByte
 2356              	.LVL316:
 749:main.c        ****     I2C_1_MasterWriteByte(0x05); //Step 4
 2357              		.loc 1 749 0
 2358 004c 0520     		movs	r0, #5
 2359 004e FFF7FEFF 		bl	I2C_1_MasterWriteByte
 2360              	.LVL317:
 750:main.c        ****     I2C_1_MasterSendStop(); //Step 5    
 2361              		.loc 1 750 0
 2362 0052 FFF7FEFF 		bl	I2C_1_MasterSendStop
 2363              	.LVL318:
ARM GAS  C:\Users\weiro\AppData\Local\Temp\ccSkAWeC.s 			page 56


 751:main.c        ****     CyDelay(1);
 2364              		.loc 1 751 0
 2365 0056 0120     		movs	r0, #1
 2366 0058 FFF7FEFF 		bl	CyDelay
 2367              	.LVL319:
 2368 005c 08BD     		pop	{r3, pc}
 2369              		.cfi_endproc
 2370              	.LFE83:
 2371              		.size	Gyroscope_Function, .-Gyroscope_Function
 2372 005e 00BF     		.section	.text.Flicker_Function,"ax",%progbits
 2373              		.align	2
 2374              		.global	Flicker_Function
 2375              		.thumb
 2376              		.thumb_func
 2377              		.type	Flicker_Function, %function
 2378              	Flicker_Function:
 2379              	.LFB84:
 752:main.c        **** }
 753:main.c        **** 
 754:main.c        **** void Flicker_Function()
 755:main.c        **** {
 2380              		.loc 1 755 0
 2381              		.cfi_startproc
 2382              		@ args = 0, pretend = 0, frame = 0
 2383              		@ frame_needed = 0, uses_anonymous_args = 0
 2384 0000 08B5     		push	{r3, lr}
 2385              		.cfi_def_cfa_offset 8
 2386              		.cfi_offset 3, -8
 2387              		.cfi_offset 14, -4
 2388              	.LVL320:
 756:main.c        ****     int flag_FR = 0;
 757:main.c        ****     double dist_trav = 5;
 758:main.c        ****     Flicker_Write(1);
 2389              		.loc 1 758 0
 2390 0002 0120     		movs	r0, #1
 2391 0004 FFF7FEFF 		bl	Flicker_Write
 2392              	.LVL321:
 759:main.c        ****     CyDelay(1000);
 2393              		.loc 1 759 0
 2394 0008 4FF47A70 		mov	r0, #1000
 2395 000c FFF7FEFF 		bl	CyDelay
 2396              	.LVL322:
 760:main.c        ****     move_fixed_dist(dist_trav, flag_FR); // move forward
 2397              		.loc 1 760 0
 2398 0010 0021     		movs	r1, #0
 2399 0012 0520     		movs	r0, #5
 2400 0014 FFF7FEFF 		bl	move_fixed_dist
 2401              	.LVL323:
 761:main.c        ****     CyDelay(500);
 2402              		.loc 1 761 0
 2403 0018 4FF4FA70 		mov	r0, #500
 2404 001c FFF7FEFF 		bl	CyDelay
 2405              	.LVL324:
 762:main.c        ****     Flicker_Write(0);
 2406              		.loc 1 762 0
 2407 0020 0020     		movs	r0, #0
 2408 0022 FFF7FEFF 		bl	Flicker_Write
ARM GAS  C:\Users\weiro\AppData\Local\Temp\ccSkAWeC.s 			page 57


 2409              	.LVL325:
 2410 0026 08BD     		pop	{r3, pc}
 2411              		.cfi_endproc
 2412              	.LFE84:
 2413              		.size	Flicker_Function, .-Flicker_Function
 2414              		.global	__aeabi_i2f
 2415              		.global	__aeabi_fadd
 2416              		.global	__aeabi_fdiv
 2417              		.section	.text.Sharp_IR,"ax",%progbits
 2418              		.align	2
 2419              		.global	Sharp_IR
 2420              		.thumb
 2421              		.thumb_func
 2422              		.type	Sharp_IR, %function
 2423              	Sharp_IR:
 2424              	.LFB85:
 763:main.c        ****     
 764:main.c        **** }
 765:main.c        **** 
 766:main.c        **** float Sharp_IR()
 767:main.c        **** {
 2425              		.loc 1 767 0
 2426              		.cfi_startproc
 2427              		@ args = 0, pretend = 0, frame = 0
 2428              		@ frame_needed = 0, uses_anonymous_args = 0
 2429 0000 F8B5     		push	{r3, r4, r5, r6, r7, lr}
 2430              		.cfi_def_cfa_offset 24
 2431              		.cfi_offset 3, -24
 2432              		.cfi_offset 4, -20
 2433              		.cfi_offset 5, -16
 2434              		.cfi_offset 6, -12
 2435              		.cfi_offset 7, -8
 2436              		.cfi_offset 14, -4
 2437              	.LVL326:
 768:main.c        ****     int Sharp_IR_analogue = 0;
 769:main.c        ****     float Sharp_IR_avg_a = 0;
 770:main.c        ****     float Sharp_IR_sum_a = 0;
 771:main.c        ****     int Sharp_IR_iter = 0;
 2438              		.loc 1 771 0
 2439 0002 0024     		movs	r4, #0
 770:main.c        ****     int Sharp_IR_iter = 0;
 2440              		.loc 1 770 0
 2441 0004 0025     		movs	r5, #0
 772:main.c        ****     float Sharp_IR_volt = 0;
 773:main.c        ****     float Sharp_IR_dist = 0;
 774:main.c        ****     while (Sharp_IR_iter < 21)
 2442              		.loc 1 774 0
 2443 0006 15E0     		b	.L178
 2444              	.LVL327:
 2445              	.L181:
 775:main.c        ****     {
 776:main.c        ****         ADC_SAR_1_StartConvert();
 2446              		.loc 1 776 0
 2447 0008 FFF7FEFF 		bl	ADC_SAR_1_StartConvert
 2448              	.LVL328:
 2449              	.L179:
 777:main.c        ****         do
ARM GAS  C:\Users\weiro\AppData\Local\Temp\ccSkAWeC.s 			page 58


 778:main.c        ****         {
 779:main.c        ****             Sharp_IR_analogue = ADC_SAR_1_IsEndConversion(ADC_SAR_1_RETURN_STATUS);
 2450              		.loc 1 779 0 discriminator 1
 2451 000c 0120     		movs	r0, #1
 2452 000e FFF7FEFF 		bl	ADC_SAR_1_IsEndConversion
 2453              	.LVL329:
 780:main.c        ****         }
 781:main.c        ****         while(Sharp_IR_analogue==0);
 2454              		.loc 1 781 0 discriminator 1
 2455 0012 0028     		cmp	r0, #0
 2456 0014 FAD0     		beq	.L179
 782:main.c        ****         Sharp_IR_analogue = ADC_SAR_1_GetResult8();
 2457              		.loc 1 782 0
 2458 0016 FFF7FEFF 		bl	ADC_SAR_1_GetResult8
 2459              	.LVL330:
 783:main.c        ****         if (Sharp_IR_analogue > 0)
 2460              		.loc 1 783 0
 2461 001a 0028     		cmp	r0, #0
 2462 001c 07DD     		ble	.L180
 784:main.c        ****         {
 785:main.c        ****             Sharp_IR_sum_a = Sharp_IR_sum_a + Sharp_IR_analogue;
 2463              		.loc 1 785 0
 2464 001e FFF7FEFF 		bl	__aeabi_i2f
 2465              	.LVL331:
 2466 0022 0146     		mov	r1, r0
 2467 0024 2846     		mov	r0, r5
 2468 0026 FFF7FEFF 		bl	__aeabi_fadd
 2469              	.LVL332:
 2470 002a 0546     		mov	r5, r0
 2471              	.LVL333:
 786:main.c        ****             Sharp_IR_iter++;
 2472              		.loc 1 786 0
 2473 002c 0134     		adds	r4, r4, #1
 2474              	.LVL334:
 2475              	.L180:
 787:main.c        ****         }
 788:main.c        ****         CyDelay(20);
 2476              		.loc 1 788 0
 2477 002e 1420     		movs	r0, #20
 2478 0030 FFF7FEFF 		bl	CyDelay
 2479              	.LVL335:
 2480              	.L178:
 774:main.c        ****     {
 2481              		.loc 1 774 0
 2482 0034 142C     		cmp	r4, #20
 2483 0036 E7DD     		ble	.L181
 789:main.c        ****     }
 790:main.c        ****     Sharp_IR_avg_a = Sharp_IR_sum_a/20;
 2484              		.loc 1 790 0
 2485 0038 2149     		ldr	r1, .L183+24
 2486 003a 2846     		mov	r0, r5
 2487 003c FFF7FEFF 		bl	__aeabi_fdiv
 2488              	.LVL336:
 791:main.c        ****     Sharp_IR_volt = Sharp_IR_avg_a/51;
 2489              		.loc 1 791 0
 2490 0040 2049     		ldr	r1, .L183+28
 2491 0042 FFF7FEFF 		bl	__aeabi_fdiv
ARM GAS  C:\Users\weiro\AppData\Local\Temp\ccSkAWeC.s 			page 59


 2492              	.LVL337:
 792:main.c        ****     Sharp_IR_dist = pow((Sharp_IR_volt-0.2)/(27.728*1.3),-1/1.205);
 2493              		.loc 1 792 0
 2494 0046 FFF7FEFF 		bl	__aeabi_f2d
 2495              	.LVL338:
 2496 004a 0646     		mov	r6, r0
 2497 004c 0F46     		mov	r7, r1
 2498 004e 16A3     		adr	r3, .L183
 2499 0050 D3E90023 		ldrd	r2, [r3]
 2500 0054 FFF7FEFF 		bl	__aeabi_dsub
 2501              	.LVL339:
 2502 0058 15A3     		adr	r3, .L183+8
 2503 005a D3E90023 		ldrd	r2, [r3]
 2504 005e FFF7FEFF 		bl	__aeabi_ddiv
 2505              	.LVL340:
 2506 0062 15A3     		adr	r3, .L183+16
 2507 0064 D3E90023 		ldrd	r2, [r3]
 2508 0068 FFF7FEFF 		bl	pow
 2509              	.LVL341:
 2510 006c FFF7FEFF 		bl	__aeabi_d2f
 2511              	.LVL342:
 2512 0070 0546     		mov	r5, r0
 2513              	.LVL343:
 793:main.c        ****     CyDelay(200);
 2514              		.loc 1 793 0
 2515 0072 C820     		movs	r0, #200
 2516              	.LVL344:
 2517 0074 FFF7FEFF 		bl	CyDelay
 2518              	.LVL345:
 794:main.c        ****     sprintf(string_1,"volt(V): %lf\n",Sharp_IR_volt);
 2519              		.loc 1 794 0
 2520 0078 134C     		ldr	r4, .L183+32
 2521              	.LVL346:
 2522 007a 3246     		mov	r2, r6
 2523 007c 3B46     		mov	r3, r7
 2524 007e 1349     		ldr	r1, .L183+36
 2525 0080 2046     		mov	r0, r4
 2526 0082 FFF7FEFF 		bl	sprintf
 2527              	.LVL347:
 795:main.c        ****     UART_1_PutString(string_1);
 2528              		.loc 1 795 0
 2529 0086 2046     		mov	r0, r4
 2530 0088 FFF7FEFF 		bl	UART_1_PutString
 2531              	.LVL348:
 796:main.c        ****     sprintf(string_1,"dist(cm): %lf\n",Sharp_IR_dist);
 2532              		.loc 1 796 0
 2533 008c 2846     		mov	r0, r5
 2534 008e FFF7FEFF 		bl	__aeabi_f2d
 2535              	.LVL349:
 2536 0092 0246     		mov	r2, r0
 2537 0094 0B46     		mov	r3, r1
 2538 0096 0E49     		ldr	r1, .L183+40
 2539 0098 2046     		mov	r0, r4
 2540 009a FFF7FEFF 		bl	sprintf
 2541              	.LVL350:
 797:main.c        ****     UART_1_PutString(string_1);
 2542              		.loc 1 797 0
ARM GAS  C:\Users\weiro\AppData\Local\Temp\ccSkAWeC.s 			page 60


 2543 009e 2046     		mov	r0, r4
 2544 00a0 FFF7FEFF 		bl	UART_1_PutString
 2545              	.LVL351:
 798:main.c        ****     return Sharp_IR_dist;
 799:main.c        **** }
 2546              		.loc 1 799 0
 2547 00a4 2846     		mov	r0, r5
 2548 00a6 F8BD     		pop	{r3, r4, r5, r6, r7, pc}
 2549              	.LVL352:
 2550              	.L184:
 2551              		.align	3
 2552              	.L183:
 2553 00a8 9A999999 		.word	-1717986918
 2554 00ac 9999C93F 		.word	1070176665
 2555 00b0 6844696F 		.word	1869169768
 2556 00b4 F0054240 		.word	1078068720
 2557 00b8 1A578E1A 		.word	445536026
 2558 00bc 578EEABF 		.word	-1075147177
 2559 00c0 0000A041 		.word	1101004800
 2560 00c4 00004C42 		.word	1112276992
 2561 00c8 00000000 		.word	string_1
 2562 00cc 6C000000 		.word	.LC7
 2563 00d0 7C000000 		.word	.LC8
 2564              		.cfi_endproc
 2565              	.LFE85:
 2566              		.size	Sharp_IR, .-Sharp_IR
 2567              		.section	.text.Find_Puck,"ax",%progbits
 2568              		.align	2
 2569              		.global	Find_Puck
 2570              		.thumb
 2571              		.thumb_func
 2572              		.type	Find_Puck, %function
 2573              	Find_Puck:
 2574              	.LFB86:
 800:main.c        **** 
 801:main.c        **** void Find_Puck(int target)
 802:main.c        **** {
 2575              		.loc 1 802 0
 2576              		.cfi_startproc
 2577              		@ args = 0, pretend = 0, frame = 0
 2578              		@ frame_needed = 0, uses_anonymous_args = 0
 2579              	.LVL353:
 2580 0000 38B5     		push	{r3, r4, r5, lr}
 2581              		.cfi_def_cfa_offset 16
 2582              		.cfi_offset 3, -16
 2583              		.cfi_offset 4, -12
 2584              		.cfi_offset 5, -8
 2585              		.cfi_offset 14, -4
 2586 0002 0546     		mov	r5, r0
 2587              	.LVL354:
 803:main.c        ****     // [target] 1-Red; 2-Green; 3-Blue
 804:main.c        ****     int objective = 0;
 2588              		.loc 1 804 0
 2589 0004 0024     		movs	r4, #0
 805:main.c        ****     while (objective == 0)
 2590              		.loc 1 805 0
 2591 0006 43E0     		b	.L186
ARM GAS  C:\Users\weiro\AppData\Local\Temp\ccSkAWeC.s 			page 61


 2592              	.LVL355:
 2593              	.L191:
 2594              	.LBB6:
 806:main.c        ****     {
 807:main.c        ****         move2puck();
 2595              		.loc 1 807 0
 2596 0008 FFF7FEFF 		bl	move2puck
 2597              	.LVL356:
 808:main.c        ****         int flag_FR = 1;
 809:main.c        ****         int dist_trav = 4;
 810:main.c        ****         move_fixed_dist(dist_trav, flag_FR); // move backward
 2598              		.loc 1 810 0
 2599 000c 0121     		movs	r1, #1
 2600 000e 0420     		movs	r0, #4
 2601 0010 FFF7FEFF 		bl	move_fixed_dist
 2602              	.LVL357:
 811:main.c        ****         CyDelay(500);
 2603              		.loc 1 811 0
 2604 0014 4FF4FA70 		mov	r0, #500
 2605 0018 FFF7FEFF 		bl	CyDelay
 2606              	.LVL358:
 812:main.c        ****         Color_Sensing_Function();
 2607              		.loc 1 812 0
 2608 001c FFF7FEFF 		bl	Color_Sensing_Function
 2609              	.LVL359:
 813:main.c        ****         if (color_detected == 1) // red
 2610              		.loc 1 813 0
 2611 0020 1D4B     		ldr	r3, .L194
 2612 0022 D3F88831 		ldr	r3, [r3, #392]
 2613 0026 012B     		cmp	r3, #1
 2614 0028 0DD1     		bne	.L187
 814:main.c        ****         {
 815:main.c        ****             led_red_Write(1);
 2615              		.loc 1 815 0
 2616 002a 0120     		movs	r0, #1
 2617 002c FFF7FEFF 		bl	led_red_Write
 2618              	.LVL360:
 816:main.c        ****             CyDelay(1000);
 2619              		.loc 1 816 0
 2620 0030 4FF47A70 		mov	r0, #1000
 2621 0034 FFF7FEFF 		bl	CyDelay
 2622              	.LVL361:
 817:main.c        ****             led_red_Write(0);
 2623              		.loc 1 817 0
 2624 0038 0020     		movs	r0, #0
 2625 003a FFF7FEFF 		bl	led_red_Write
 2626              	.LVL362:
 818:main.c        ****             UART_1_PutString("Red  \n");
 2627              		.loc 1 818 0
 2628 003e 1748     		ldr	r0, .L194+4
 2629 0040 FFF7FEFF 		bl	UART_1_PutString
 2630              	.LVL363:
 2631 0044 1EE0     		b	.L188
 2632              	.L187:
 819:main.c        ****         }
 820:main.c        ****         else if (color_detected == 2) // green
 2633              		.loc 1 820 0
ARM GAS  C:\Users\weiro\AppData\Local\Temp\ccSkAWeC.s 			page 62


 2634 0046 022B     		cmp	r3, #2
 2635 0048 0DD1     		bne	.L189
 821:main.c        ****         {
 822:main.c        ****             led_green_Write(1);
 2636              		.loc 1 822 0
 2637 004a 0120     		movs	r0, #1
 2638 004c FFF7FEFF 		bl	led_green_Write
 2639              	.LVL364:
 823:main.c        ****             CyDelay(1000);
 2640              		.loc 1 823 0
 2641 0050 4FF47A70 		mov	r0, #1000
 2642 0054 FFF7FEFF 		bl	CyDelay
 2643              	.LVL365:
 824:main.c        ****             led_green_Write(0);
 2644              		.loc 1 824 0
 2645 0058 0020     		movs	r0, #0
 2646 005a FFF7FEFF 		bl	led_green_Write
 2647              	.LVL366:
 825:main.c        ****             UART_1_PutString("Green  \n");
 2648              		.loc 1 825 0
 2649 005e 1048     		ldr	r0, .L194+8
 2650 0060 FFF7FEFF 		bl	UART_1_PutString
 2651              	.LVL367:
 2652 0064 0EE0     		b	.L188
 2653              	.L189:
 826:main.c        ****         }
 827:main.c        ****         else if (color_detected == 3) // blue
 2654              		.loc 1 827 0
 2655 0066 032B     		cmp	r3, #3
 2656 0068 0CD1     		bne	.L188
 828:main.c        ****         {
 829:main.c        ****             led_blue_Write(1);
 2657              		.loc 1 829 0
 2658 006a 0120     		movs	r0, #1
 2659 006c FFF7FEFF 		bl	led_blue_Write
 2660              	.LVL368:
 830:main.c        ****             CyDelay(1000);
 2661              		.loc 1 830 0
 2662 0070 4FF47A70 		mov	r0, #1000
 2663 0074 FFF7FEFF 		bl	CyDelay
 2664              	.LVL369:
 831:main.c        ****             led_blue_Write(0);
 2665              		.loc 1 831 0
 2666 0078 0020     		movs	r0, #0
 2667 007a FFF7FEFF 		bl	led_blue_Write
 2668              	.LVL370:
 832:main.c        ****             UART_1_PutString("Blue  \n");
 2669              		.loc 1 832 0
 2670 007e 0948     		ldr	r0, .L194+12
 2671 0080 FFF7FEFF 		bl	UART_1_PutString
 2672              	.LVL371:
 2673              	.L188:
 833:main.c        ****         }
 834:main.c        ****         if (color_detected == target)
 2674              		.loc 1 834 0
 2675 0084 044B     		ldr	r3, .L194
 2676 0086 D3F88831 		ldr	r3, [r3, #392]
ARM GAS  C:\Users\weiro\AppData\Local\Temp\ccSkAWeC.s 			page 63


 2677 008a AB42     		cmp	r3, r5
 2678 008c 00D1     		bne	.L186
 835:main.c        ****         {
 836:main.c        ****             objective = 1;
 2679              		.loc 1 836 0
 2680 008e 0124     		movs	r4, #1
 2681              	.LVL372:
 2682              	.L186:
 2683              	.LBE6:
 805:main.c        ****     {
 2684              		.loc 1 805 0
 2685 0090 002C     		cmp	r4, #0
 2686 0092 B9D0     		beq	.L191
 837:main.c        ****         }
 838:main.c        ****     }
 839:main.c        **** }
 2687              		.loc 1 839 0
 2688 0094 38BD     		pop	{r3, r4, r5, pc}
 2689              	.LVL373:
 2690              	.L195:
 2691 0096 00BF     		.align	2
 2692              	.L194:
 2693 0098 00000000 		.word	.LANCHOR0
 2694 009c 8C000000 		.word	.LC9
 2695 00a0 94000000 		.word	.LC10
 2696 00a4 A0000000 		.word	.LC11
 2697              		.cfi_endproc
 2698              	.LFE86:
 2699              		.size	Find_Puck, .-Find_Puck
 2700              		.section	.text.Pick_Up_Puck,"ax",%progbits
 2701              		.align	2
 2702              		.global	Pick_Up_Puck
 2703              		.thumb
 2704              		.thumb_func
 2705              		.type	Pick_Up_Puck, %function
 2706              	Pick_Up_Puck:
 2707              	.LFB87:
 840:main.c        **** 
 841:main.c        **** void Pick_Up_Puck()
 842:main.c        **** {
 2708              		.loc 1 842 0
 2709              		.cfi_startproc
 2710              		@ args = 0, pretend = 0, frame = 0
 2711              		@ frame_needed = 0, uses_anonymous_args = 0
 2712 0000 10B5     		push	{r4, lr}
 2713              		.cfi_def_cfa_offset 8
 2714              		.cfi_offset 4, -8
 2715              		.cfi_offset 14, -4
 2716              	.LVL374:
 843:main.c        ****     int flag_FR = 1;
 844:main.c        ****     double dist_trav = 18; // distance from color sensor to gripper center
 845:main.c        ****     move_fixed_dist(dist_trav, flag_FR);
 2717              		.loc 1 845 0
 2718 0002 0121     		movs	r1, #1
 2719 0004 1220     		movs	r0, #18
 2720 0006 FFF7FEFF 		bl	move_fixed_dist
 2721              	.LVL375:
ARM GAS  C:\Users\weiro\AppData\Local\Temp\ccSkAWeC.s 			page 64


 846:main.c        ****     CyDelay(500);
 2722              		.loc 1 846 0
 2723 000a 4FF4FA70 		mov	r0, #500
 2724 000e FFF7FEFF 		bl	CyDelay
 2725              	.LVL376:
 847:main.c        ****     PWM_BigServo_WriteCompare(down_big);
 2726              		.loc 1 847 0
 2727 0012 094C     		ldr	r4, .L198
 2728 0014 A08D     		ldrh	r0, [r4, #44]
 2729 0016 FFF7FEFF 		bl	PWM_BigServo_WriteCompare
 2730              	.LVL377:
 848:main.c        ****     CyDelay(1000);
 2731              		.loc 1 848 0
 2732 001a 4FF47A70 		mov	r0, #1000
 2733 001e FFF7FEFF 		bl	CyDelay
 2734              	.LVL378:
 849:main.c        ****     PWM_SmallServo_WriteCompare(close_small);
 2735              		.loc 1 849 0
 2736 0022 208E     		ldrh	r0, [r4, #48]
 2737 0024 FFF7FEFF 		bl	PWM_SmallServo_WriteCompare
 2738              	.LVL379:
 850:main.c        ****     CyDelay(1000);
 2739              		.loc 1 850 0
 2740 0028 4FF47A70 		mov	r0, #1000
 2741 002c FFF7FEFF 		bl	CyDelay
 2742              	.LVL380:
 851:main.c        ****     PWM_BigServo_WriteCompare(up_big);
 2743              		.loc 1 851 0
 2744 0030 A08E     		ldrh	r0, [r4, #52]
 2745 0032 FFF7FEFF 		bl	PWM_BigServo_WriteCompare
 2746              	.LVL381:
 2747 0036 10BD     		pop	{r4, pc}
 2748              	.L199:
 2749              		.align	2
 2750              	.L198:
 2751 0038 00000000 		.word	.LANCHOR1
 2752              		.cfi_endproc
 2753              	.LFE87:
 2754              		.size	Pick_Up_Puck, .-Pick_Up_Puck
 2755              		.section	.text.Put_Down_Puck,"ax",%progbits
 2756              		.align	2
 2757              		.global	Put_Down_Puck
 2758              		.thumb
 2759              		.thumb_func
 2760              		.type	Put_Down_Puck, %function
 2761              	Put_Down_Puck:
 2762              	.LFB88:
 852:main.c        **** }
 853:main.c        **** 
 854:main.c        **** void Put_Down_Puck()
 855:main.c        **** {
 2763              		.loc 1 855 0
 2764              		.cfi_startproc
 2765              		@ args = 0, pretend = 0, frame = 0
 2766              		@ frame_needed = 0, uses_anonymous_args = 0
 2767 0000 10B5     		push	{r4, lr}
 2768              		.cfi_def_cfa_offset 8
ARM GAS  C:\Users\weiro\AppData\Local\Temp\ccSkAWeC.s 			page 65


 2769              		.cfi_offset 4, -8
 2770              		.cfi_offset 14, -4
 856:main.c        ****     PWM_BigServo_WriteCompare(down_big);
 2771              		.loc 1 856 0
 2772 0002 0D4C     		ldr	r4, .L202
 2773 0004 A08D     		ldrh	r0, [r4, #44]
 2774 0006 FFF7FEFF 		bl	PWM_BigServo_WriteCompare
 2775              	.LVL382:
 857:main.c        ****     CyDelay(1000);
 2776              		.loc 1 857 0
 2777 000a 4FF47A70 		mov	r0, #1000
 2778 000e FFF7FEFF 		bl	CyDelay
 2779              	.LVL383:
 858:main.c        ****     PWM_SmallServo_WriteCompare(open_small);
 2780              		.loc 1 858 0
 2781 0012 208F     		ldrh	r0, [r4, #56]
 2782 0014 FFF7FEFF 		bl	PWM_SmallServo_WriteCompare
 2783              	.LVL384:
 859:main.c        ****     CyDelay(500);
 2784              		.loc 1 859 0
 2785 0018 4FF4FA70 		mov	r0, #500
 2786 001c FFF7FEFF 		bl	CyDelay
 2787              	.LVL385:
 860:main.c        ****     PWM_BigServo_WriteCompare(up_big);
 2788              		.loc 1 860 0
 2789 0020 A08E     		ldrh	r0, [r4, #52]
 2790 0022 FFF7FEFF 		bl	PWM_BigServo_WriteCompare
 2791              	.LVL386:
 861:main.c        ****     CyDelay(500);
 2792              		.loc 1 861 0
 2793 0026 4FF4FA70 		mov	r0, #500
 2794 002a FFF7FEFF 		bl	CyDelay
 2795              	.LVL387:
 862:main.c        ****     PWM_SmallServo_WriteCompare(close_small);
 2796              		.loc 1 862 0
 2797 002e 208E     		ldrh	r0, [r4, #48]
 2798 0030 FFF7FEFF 		bl	PWM_SmallServo_WriteCompare
 2799              	.LVL388:
 2800 0034 10BD     		pop	{r4, pc}
 2801              	.L203:
 2802 0036 00BF     		.align	2
 2803              	.L202:
 2804 0038 00000000 		.word	.LANCHOR1
 2805              		.cfi_endproc
 2806              	.LFE88:
 2807              		.size	Put_Down_Puck, .-Put_Down_Puck
 2808              		.section	.text.Flick,"ax",%progbits
 2809              		.align	2
 2810              		.global	Flick
 2811              		.thumb
 2812              		.thumb_func
 2813              		.type	Flick, %function
 2814              	Flick:
 2815              	.LFB89:
 863:main.c        **** }
 864:main.c        **** 
 865:main.c        **** void Flick()
ARM GAS  C:\Users\weiro\AppData\Local\Temp\ccSkAWeC.s 			page 66


 866:main.c        **** {
 2816              		.loc 1 866 0
 2817              		.cfi_startproc
 2818              		@ args = 0, pretend = 0, frame = 0
 2819              		@ frame_needed = 0, uses_anonymous_args = 0
 2820 0000 08B5     		push	{r3, lr}
 2821              		.cfi_def_cfa_offset 8
 2822              		.cfi_offset 3, -8
 2823              		.cfi_offset 14, -4
 867:main.c        ****     Flicker_Write(1);
 2824              		.loc 1 867 0
 2825 0002 0120     		movs	r0, #1
 2826 0004 FFF7FEFF 		bl	Flicker_Write
 2827              	.LVL389:
 868:main.c        ****     CyDelay(5000);
 2828              		.loc 1 868 0
 2829 0008 41F28830 		movw	r0, #5000
 2830 000c FFF7FEFF 		bl	CyDelay
 2831              	.LVL390:
 869:main.c        ****     //move_fixed_dist(5, 0);
 870:main.c        ****     CyDelay(500);
 2832              		.loc 1 870 0
 2833 0010 4FF4FA70 		mov	r0, #500
 2834 0014 FFF7FEFF 		bl	CyDelay
 2835              	.LVL391:
 871:main.c        ****     Flicker_Write(0);
 2836              		.loc 1 871 0
 2837 0018 0020     		movs	r0, #0
 2838 001a FFF7FEFF 		bl	Flicker_Write
 2839              	.LVL392:
 2840 001e 08BD     		pop	{r3, pc}
 2841              		.cfi_endproc
 2842              	.LFE89:
 2843              		.size	Flick, .-Flick
 2844              		.section	.text.main,"ax",%progbits
 2845              		.align	2
 2846              		.global	main
 2847              		.thumb
 2848              		.thumb_func
 2849              		.type	main, %function
 2850              	main:
 2851              	.LFB90:
 872:main.c        **** }
 873:main.c        **** 
 874:main.c        **** int main(void)
 875:main.c        **** {
 2852              		.loc 1 875 0
 2853              		.cfi_startproc
 2854              		@ args = 0, pretend = 0, frame = 0
 2855              		@ frame_needed = 0, uses_anonymous_args = 0
 2856 0000 2DE9F84F 		push	{r3, r4, r5, r6, r7, r8, r9, r10, fp, lr}
 2857              		.cfi_def_cfa_offset 40
 2858              		.cfi_offset 3, -40
 2859              		.cfi_offset 4, -36
 2860              		.cfi_offset 5, -32
 2861              		.cfi_offset 6, -28
 2862              		.cfi_offset 7, -24
ARM GAS  C:\Users\weiro\AppData\Local\Temp\ccSkAWeC.s 			page 67


 2863              		.cfi_offset 8, -20
 2864              		.cfi_offset 9, -16
 2865              		.cfi_offset 10, -12
 2866              		.cfi_offset 11, -8
 2867              		.cfi_offset 14, -4
 876:main.c        ****     CyGlobalIntEnable; /* Enable global interrupts. */
 2868              		.loc 1 876 0
 2869              		.syntax unified
 2870              	@ 876 "main.c" 1
 2871 0004 62B6     		CPSIE   i
 2872              	@ 0 "" 2
 877:main.c        **** 
 878:main.c        ****     WHEEL_CIRCUMFERENCE = M_PI*WHEEL_DIAMETER;
 2873              		.loc 1 878 0
 2874              		.thumb
 2875              		.syntax unified
 2876 0006 DFF810B3 		ldr	fp, .L258+48
 2877 000a B7A3     		adr	r3, .L258
 2878 000c D3E90023 		ldrd	r2, [r3]
 2879 0010 DBE90801 		ldrd	r0, [fp, #32]
 2880 0014 FFF7FEFF 		bl	__aeabi_dmul
 2881              	.LVL393:
 2882 0018 0446     		mov	r4, r0
 2883 001a 0D46     		mov	r5, r1
 2884 001c DFF8E4A2 		ldr	r10, .L258+28
 2885 0020 0AF5C873 		add	r3, r10, #400
 2886 0024 C3E90045 		strd	r4, [r3]
 879:main.c        ****     DISTANCE_PT_TURN = M_PI*DISTANCE_BETW_WHEEL/4;
 2887              		.loc 1 879 0
 2888 0028 AFA3     		adr	r3, .L258
 2889 002a D3E90023 		ldrd	r2, [r3]
 2890 002e DBE91001 		ldrd	r0, [fp, #64]
 2891 0032 FFF7FEFF 		bl	__aeabi_dmul
 2892              	.LVL394:
 2893 0036 0022     		movs	r2, #0
 2894 0038 AD4B     		ldr	r3, .L258+8
 2895 003a FFF7FEFF 		bl	__aeabi_dmul
 2896              	.LVL395:
 2897 003e 0646     		mov	r6, r0
 2898 0040 0F46     		mov	r7, r1
 2899 0042 0AF5CC73 		add	r3, r10, #408
 2900 0046 C3E90067 		strd	r6, [r3]
 880:main.c        ****     CM_COUNT_CONV = COUNT_WHEEL/WHEEL_CIRCUMFERENCE;
 2901              		.loc 1 880 0
 2902 004a DBE91289 		ldrd	r8, [fp, #72]
 2903 004e 2246     		mov	r2, r4
 2904 0050 2B46     		mov	r3, r5
 2905 0052 4046     		mov	r0, r8
 2906 0054 4946     		mov	r1, r9
 2907 0056 FFF7FEFF 		bl	__aeabi_ddiv
 2908              	.LVL396:
 2909 005a 0AF5AC73 		add	r3, r10, #344
 2910 005e C3E90001 		strd	r0, [r3]
 881:main.c        ****     PT_TURN_COUNT = COUNT_WHEEL * DISTANCE_PT_TURN/(M_PI*WHEEL_DIAMETER);
 2911              		.loc 1 881 0
 2912 0062 4246     		mov	r2, r8
 2913 0064 4B46     		mov	r3, r9
ARM GAS  C:\Users\weiro\AppData\Local\Temp\ccSkAWeC.s 			page 68


 2914 0066 3046     		mov	r0, r6
 2915 0068 3946     		mov	r1, r7
 2916 006a FFF7FEFF 		bl	__aeabi_dmul
 2917              	.LVL397:
 2918 006e 2246     		mov	r2, r4
 2919 0070 2B46     		mov	r3, r5
 2920 0072 FFF7FEFF 		bl	__aeabi_ddiv
 2921              	.LVL398:
 2922 0076 0AF5D07A 		add	r10, r10, #416
 2923 007a CAE90001 		strd	r0, [r10]
 882:main.c        ****     isr_1_StartEx(Speed_Control);
 2924              		.loc 1 882 0
 2925 007e 9D48     		ldr	r0, .L258+12
 2926 0080 FFF7FEFF 		bl	isr_1_StartEx
 2927              	.LVL399:
 883:main.c        ****     isr_6_StartEx(Color_sensing);
 2928              		.loc 1 883 0
 2929 0084 9C48     		ldr	r0, .L258+16
 2930 0086 FFF7FEFF 		bl	isr_6_StartEx
 2931              	.LVL400:
 884:main.c        ****     Timer_1_Start();
 2932              		.loc 1 884 0
 2933 008a FFF7FEFF 		bl	Timer_1_Start
 2934              	.LVL401:
 885:main.c        ****     isr_3_StartEx(ultrasonic_echo);
 2935              		.loc 1 885 0
 2936 008e 9B48     		ldr	r0, .L258+20
 2937 0090 FFF7FEFF 		bl	isr_3_StartEx
 2938              	.LVL402:
 886:main.c        ****     PWM_ColorSensor_Start();
 2939              		.loc 1 886 0
 2940 0094 FFF7FEFF 		bl	PWM_ColorSensor_Start
 2941              	.LVL403:
 887:main.c        ****     isr_7_StartEx(Bluetooth);
 2942              		.loc 1 887 0
 2943 0098 9948     		ldr	r0, .L258+24
 2944 009a FFF7FEFF 		bl	isr_7_StartEx
 2945              	.LVL404:
 888:main.c        ****     Flicker_Write(0);
 2946              		.loc 1 888 0
 2947 009e 0020     		movs	r0, #0
 2948 00a0 FFF7FEFF 		bl	Flicker_Write
 2949              	.LVL405:
 889:main.c        ****     PWM_Wheels_Start();
 2950              		.loc 1 889 0
 2951 00a4 FFF7FEFF 		bl	PWM_Wheels_Start
 2952              	.LVL406:
 890:main.c        ****     PWM_SmallServo_Start();
 2953              		.loc 1 890 0
 2954 00a8 FFF7FEFF 		bl	PWM_SmallServo_Start
 2955              	.LVL407:
 891:main.c        ****     PWM_BigServo_Start();
 2956              		.loc 1 891 0
 2957 00ac FFF7FEFF 		bl	PWM_BigServo_Start
 2958              	.LVL408:
 892:main.c        ****     QuadDec_1_Start();
 2959              		.loc 1 892 0
ARM GAS  C:\Users\weiro\AppData\Local\Temp\ccSkAWeC.s 			page 69


 2960 00b0 FFF7FEFF 		bl	QuadDec_1_Start
 2961              	.LVL409:
 893:main.c        ****     QuadDec_1_SetCounter(0);
 2962              		.loc 1 893 0
 2963 00b4 0020     		movs	r0, #0
 2964 00b6 FFF7FEFF 		bl	QuadDec_1_SetCounter
 2965              	.LVL410:
 894:main.c        ****     QuadDec_2_Start();
 2966              		.loc 1 894 0
 2967 00ba FFF7FEFF 		bl	QuadDec_2_Start
 2968              	.LVL411:
 895:main.c        ****     QuadDec_2_SetCounter(0);
 2969              		.loc 1 895 0
 2970 00be 0020     		movs	r0, #0
 2971 00c0 FFF7FEFF 		bl	QuadDec_2_SetCounter
 2972              	.LVL412:
 896:main.c        ****     UART_1_Start();
 2973              		.loc 1 896 0
 2974 00c4 FFF7FEFF 		bl	UART_1_Start
 2975              	.LVL413:
 897:main.c        ****     CS_LED_Write(0);
 2976              		.loc 1 897 0
 2977 00c8 0020     		movs	r0, #0
 2978 00ca FFF7FEFF 		bl	CS_LED_Write
 2979              	.LVL414:
 898:main.c        ****     //ADC_SAR_1_Start();
 899:main.c        ****     I2C_1_Start();
 2980              		.loc 1 899 0
 2981 00ce FFF7FEFF 		bl	I2C_1_Start
 2982              	.LVL415:
 900:main.c        ****     Timer_2_Start();
 2983              		.loc 1 900 0
 2984 00d2 FFF7FEFF 		bl	Timer_2_Start
 2985              	.LVL416:
 901:main.c        ****     //isr_2_StartEx(Gyroscope);
 902:main.c        ****     //Gyroscope_Function();
 903:main.c        **** 
 904:main.c        ****     int flag_FR = 1;
 905:main.c        ****     int flag_CW = 1;
 906:main.c        ****     PWM_Wheels_WriteCompare1(PWM_Master);
 2986              		.loc 1 906 0
 2987 00d6 DBF80800 		ldr	r0, [fp, #8]	@ float
 2988 00da FFF7FEFF 		bl	__aeabi_f2uiz
 2989              	.LVL417:
 2990 00de 80B2     		uxth	r0, r0
 2991 00e0 FFF7FEFF 		bl	PWM_Wheels_WriteCompare1
 2992              	.LVL418:
 907:main.c        ****     PWM_Wheels_WriteCompare2(PWM_Master);
 2993              		.loc 1 907 0
 2994 00e4 DBF80800 		ldr	r0, [fp, #8]	@ float
 2995 00e8 FFF7FEFF 		bl	__aeabi_f2uiz
 2996              	.LVL419:
 2997 00ec 80B2     		uxth	r0, r0
 2998 00ee FFF7FEFF 		bl	PWM_Wheels_WriteCompare2
 2999              	.LVL420:
 3000              	.L207:
 908:main.c        ****     double dist_trav = 0;
ARM GAS  C:\Users\weiro\AppData\Local\Temp\ccSkAWeC.s 			page 70


 909:main.c        ****     //double dist_count = dist_trav*CM_COUNT_CONV;
 910:main.c        ****     
 911:main.c        ****     for(;;)
 912:main.c        ****     {   
 913:main.c        ****         /* Place your application code here. */
 914:main.c        ****         if (stop_bt == 1)
 3001              		.loc 1 914 0
 3002 00f2 844B     		ldr	r3, .L258+28
 3003 00f4 DB6C     		ldr	r3, [r3, #76]
 3004 00f6 012B     		cmp	r3, #1
 3005 00f8 FBD1     		bne	.L207
 915:main.c        ****         {
 916:main.c        ****             if (strcmp(string_bt, "Are you ready?") == 0)
 3006              		.loc 1 916 0
 3007 00fa 8349     		ldr	r1, .L258+32
 3008 00fc 8348     		ldr	r0, .L258+36
 3009 00fe FFF7FEFF 		bl	strcmp
 3010              	.LVL421:
 3011 0102 18B9     		cbnz	r0, .L208
 917:main.c        ****             {
 918:main.c        ****                 UART_1_PutString("Ready  \n"); // insert 2 white spaces to terminate
 3012              		.loc 1 918 0
 3013 0104 8248     		ldr	r0, .L258+40
 3014 0106 FFF7FEFF 		bl	UART_1_PutString
 3015              	.LVL422:
 3016 010a 3FE2     		b	.L209
 3017              	.L208:
 919:main.c        ****             }
 920:main.c        ****             else if (strcmp(string_bt, "Start") == 0)
 3018              		.loc 1 920 0
 3019 010c 8149     		ldr	r1, .L258+44
 3020 010e 7F48     		ldr	r0, .L258+36
 3021 0110 FFF7FEFF 		bl	strcmp
 3022              	.LVL423:
 3023 0114 0028     		cmp	r0, #0
 3024 0116 40F00C82 		bne	.L210
 921:main.c        ****             {
 922:main.c        ****                 // start main program
 923:main.c        ****                 /*Find_Puck(2);
 924:main.c        ****                 CyDelay(1000);
 925:main.c        ****                 Pick_Up_Puck();
 926:main.c        ****                 CyDelay(1000);
 927:main.c        ****                 move_fixed_dist(10, 0);
 928:main.c        ****                 CyDelay(1000);
 929:main.c        ****                 Put_Down_Puck();
 930:main.c        ****                 CyDelay(1000);
 931:main.c        ****                 Flick();*/
 932:main.c        ****                 move2wall();
 3025              		.loc 1 932 0
 3026 011a FFF7FEFF 		bl	move2wall
 3027              	.LVL424:
 933:main.c        ****                 
 934:main.c        ****                   
 935:main.c        ****                 while (step == 0)
 3028              		.loc 1 935 0
 3029 011e 18E0     		b	.L211
 3030              	.L212:
ARM GAS  C:\Users\weiro\AppData\Local\Temp\ccSkAWeC.s 			page 71


 3031              	.LVL425:
 936:main.c        ****                 {
 937:main.c        ****                     flag_FR = 1;
 938:main.c        ****                     dist_trav = 50;
 939:main.c        ****                     move_fixed_dist(dist_trav, flag_FR); // move forward
 3032              		.loc 1 939 0
 3033 0120 0121     		movs	r1, #1
 3034 0122 3220     		movs	r0, #50
 3035 0124 FFF7FEFF 		bl	move_fixed_dist
 3036              	.LVL426:
 940:main.c        ****                     
 941:main.c        ****                     flag_CW = 0;
 942:main.c        ****                     CW(PT_TURN_COUNT, flag_CW); // turn CCW facing left wall
 3037              		.loc 1 942 0
 3038 0128 764C     		ldr	r4, .L258+28
 3039 012a F4E96801 		ldrd	r0, [r4, #416]!
 3040 012e FFF7FEFF 		bl	__aeabi_d2iz
 3041              	.LVL427:
 3042 0132 0021     		movs	r1, #0
 3043 0134 FFF7FEFF 		bl	CW
 3044              	.LVL428:
 943:main.c        ****                     
 944:main.c        ****                     move2wall(); // move to left wall
 3045              		.loc 1 944 0
 3046 0138 FFF7FEFF 		bl	move2wall
 3047              	.LVL429:
 945:main.c        ****                     flag_CW = 1;
 946:main.c        ****                     CW(PT_TURN_COUNT, flag_CW); // turn CW facing front wall
 3048              		.loc 1 946 0
 3049 013c D4E90001 		ldrd	r0, [r4]
 3050 0140 FFF7FEFF 		bl	__aeabi_d2iz
 3051              	.LVL430:
 3052 0144 0121     		movs	r1, #1
 3053 0146 FFF7FEFF 		bl	CW
 3054              	.LVL431:
 947:main.c        ****                     
 948:main.c        ****                     step++; 
 3055              		.loc 1 948 0
 3056 014a 734A     		ldr	r2, .L258+48
 3057 014c 136D     		ldr	r3, [r2, #80]
 3058 014e 0133     		adds	r3, r3, #1
 3059 0150 1365     		str	r3, [r2, #80]
 3060              	.LVL432:
 3061              	.L211:
 935:main.c        ****                 {
 3062              		.loc 1 935 0
 3063 0152 714B     		ldr	r3, .L258+48
 3064 0154 1B6D     		ldr	r3, [r3, #80]
 3065 0156 002B     		cmp	r3, #0
 3066 0158 E2D0     		beq	.L212
 949:main.c        ****                 }
 950:main.c        ****                 wall_detected_10 = 0;
 3067              		.loc 1 950 0
 3068 015a 0022     		movs	r2, #0
 3069 015c 694B     		ldr	r3, .L258+28
 3070 015e 1A64     		str	r2, [r3, #64]
 951:main.c        ****                 CyDelay(500);
ARM GAS  C:\Users\weiro\AppData\Local\Temp\ccSkAWeC.s 			page 72


 3071              		.loc 1 951 0
 3072 0160 4FF4FA70 		mov	r0, #500
 3073 0164 FFF7FEFF 		bl	CyDelay
 3074              	.LVL433:
 952:main.c        ****                 
 953:main.c        ****                 // move forward to front wall & turn 90 deg CW facing right wall
 954:main.c        ****                 while (step == 1)
 3075              		.loc 1 954 0
 3076 0168 11E0     		b	.L213
 3077              	.L214:
 955:main.c        ****                 {
 956:main.c        ****                     /*flag_FR = 1;
 957:main.c        ****                     dist_trav = 150;
 958:main.c        ****                     dist_count = dist_trav*CM_COUNT_CONV;
 959:main.c        ****                     F_or_R_1(dist_count, flag_FR);*/
 960:main.c        ****                     move2wall(); // move to front wall
 3078              		.loc 1 960 0
 3079 016a FFF7FEFF 		bl	move2wall
 3080              	.LVL434:
 961:main.c        ****                     CyDelay(500);
 3081              		.loc 1 961 0
 3082 016e 4FF4FA70 		mov	r0, #500
 3083 0172 FFF7FEFF 		bl	CyDelay
 3084              	.LVL435:
 962:main.c        ****                     flag_CW = 1;
 963:main.c        ****                     CW(PT_TURN_COUNT, flag_CW); // turn CW facing right wall --> problem: Step 2 wi
 3085              		.loc 1 963 0
 3086 0176 694B     		ldr	r3, .L258+52
 3087 0178 D3E90001 		ldrd	r0, [r3]
 3088 017c FFF7FEFF 		bl	__aeabi_d2iz
 3089              	.LVL436:
 3090 0180 0121     		movs	r1, #1
 3091 0182 FFF7FEFF 		bl	CW
 3092              	.LVL437:
 964:main.c        ****                     step++;
 3093              		.loc 1 964 0
 3094 0186 644A     		ldr	r2, .L258+48
 3095 0188 136D     		ldr	r3, [r2, #80]
 3096 018a 0133     		adds	r3, r3, #1
 3097 018c 1365     		str	r3, [r2, #80]
 3098              	.LVL438:
 3099              	.L213:
 954:main.c        ****                 {
 3100              		.loc 1 954 0
 3101 018e 624B     		ldr	r3, .L258+48
 3102 0190 1B6D     		ldr	r3, [r3, #80]
 3103 0192 012B     		cmp	r3, #1
 3104 0194 E9D0     		beq	.L214
 965:main.c        ****                 }
 966:main.c        ****                 CyDelay(1000);
 3105              		.loc 1 966 0
 3106 0196 4FF47A70 		mov	r0, #1000
 3107 019a FFF7FEFF 		bl	CyDelay
 3108              	.LVL439:
 967:main.c        ****                 
 968:main.c        ****                 // look for slit & adjust so that robot can fit through slit
 969:main.c        ****                 while (step == 2)
ARM GAS  C:\Users\weiro\AppData\Local\Temp\ccSkAWeC.s 			page 73


 3109              		.loc 1 969 0
 3110 019e 14E0     		b	.L215
 3111              	.L216:
 970:main.c        ****                 {
 971:main.c        ****                     /*flag_FR = 1;
 972:main.c        ****                     dist_trav = 200;
 973:main.c        ****                     dist_count = dist_trav*CM_COUNT_CONV;
 974:main.c        ****                     F_or_R_2(dist_count, flag_FR);*/
 975:main.c        ****                     move2slit();
 3112              		.loc 1 975 0
 3113 01a0 FFF7FEFF 		bl	move2slit
 3114              	.LVL440:
 976:main.c        ****                     sprintf(string_1, "step 2");
 3115              		.loc 1 976 0
 3116 01a4 5E4B     		ldr	r3, .L258+56
 3117 01a6 5F4A     		ldr	r2, .L258+60
 3118 01a8 1068     		ldr	r0, [r2]	@ unaligned
 3119 01aa 1860     		str	r0, [r3]	@ unaligned
 3120 01ac 9188     		ldrh	r1, [r2, #4]	@ unaligned
 3121 01ae 9279     		ldrb	r2, [r2, #6]	@ zero_extendqisi2
 3122 01b0 9980     		strh	r1, [r3, #4]	@ unaligned
 3123 01b2 9A71     		strb	r2, [r3, #6]
 977:main.c        ****                     UART_1_PutString(string_1);
 3124              		.loc 1 977 0
 3125 01b4 1846     		mov	r0, r3
 3126 01b6 FFF7FEFF 		bl	UART_1_PutString
 3127              	.LVL441:
 978:main.c        ****                     CyDelay(500);
 3128              		.loc 1 978 0
 3129 01ba 4FF4FA70 		mov	r0, #500
 3130 01be FFF7FEFF 		bl	CyDelay
 3131              	.LVL442:
 979:main.c        ****                     
 980:main.c        ****                     step++;
 3132              		.loc 1 980 0
 3133 01c2 554A     		ldr	r2, .L258+48
 3134 01c4 136D     		ldr	r3, [r2, #80]
 3135 01c6 0133     		adds	r3, r3, #1
 3136 01c8 1365     		str	r3, [r2, #80]
 3137              	.L215:
 969:main.c        ****                 {
 3138              		.loc 1 969 0
 3139 01ca 534B     		ldr	r3, .L258+48
 3140 01cc 1B6D     		ldr	r3, [r3, #80]
 3141 01ce 022B     		cmp	r3, #2
 3142 01d0 E6D0     		beq	.L216
 981:main.c        ****                 }
 982:main.c        ****                 CyDelay(500);
 3143              		.loc 1 982 0
 3144 01d2 4FF4FA70 		mov	r0, #500
 3145 01d6 FFF7FEFF 		bl	CyDelay
 3146              	.LVL443:
 983:main.c        ****                 while (step == 3)
 3147              		.loc 1 983 0
 3148 01da 0FE0     		b	.L217
 3149              	.L218:
 3150              	.LVL444:
ARM GAS  C:\Users\weiro\AppData\Local\Temp\ccSkAWeC.s 			page 74


 984:main.c        ****                 {
 985:main.c        ****                     dist_trav = 8.5;
 986:main.c        ****                     flag_FR = 1;
 987:main.c        ****                     move_fixed_dist(dist_trav, flag_FR);
 3151              		.loc 1 987 0
 3152 01dc 0121     		movs	r1, #1
 3153 01de 0820     		movs	r0, #8
 3154 01e0 FFF7FEFF 		bl	move_fixed_dist
 3155              	.LVL445:
 988:main.c        ****                     flag_CW = 0;
 989:main.c        ****                     CW(PT_TURN_COUNT, flag_CW); 
 3156              		.loc 1 989 0
 3157 01e4 4D4B     		ldr	r3, .L258+52
 3158 01e6 D3E90001 		ldrd	r0, [r3]
 3159 01ea FFF7FEFF 		bl	__aeabi_d2iz
 3160              	.LVL446:
 3161 01ee 0021     		movs	r1, #0
 3162 01f0 FFF7FEFF 		bl	CW
 3163              	.LVL447:
 990:main.c        ****                     step++;
 3164              		.loc 1 990 0
 3165 01f4 484A     		ldr	r2, .L258+48
 3166 01f6 136D     		ldr	r3, [r2, #80]
 3167 01f8 0133     		adds	r3, r3, #1
 3168 01fa 1365     		str	r3, [r2, #80]
 3169              	.LVL448:
 3170              	.L217:
 983:main.c        ****                 {
 3171              		.loc 1 983 0
 3172 01fc 464B     		ldr	r3, .L258+48
 3173 01fe 1B6D     		ldr	r3, [r3, #80]
 3174 0200 032B     		cmp	r3, #3
 3175 0202 EBD0     		beq	.L218
 991:main.c        ****                 }
 992:main.c        ****                 CyDelay(500);
 3176              		.loc 1 992 0
 3177 0204 4FF4FA70 		mov	r0, #500
 3178 0208 FFF7FEFF 		bl	CyDelay
 3179              	.LVL449:
 993:main.c        ****                 // move forward until puck is detected
 994:main.c        ****                 while (step == 4)
 3180              		.loc 1 994 0
 3181 020c 05E0     		b	.L219
 3182              	.L220:
 995:main.c        ****                 {
 996:main.c        ****                     /*flag_FR = 1;
 997:main.c        ****                     dist_trav = 10;
 998:main.c        ****                     dist_count = dist_trav*CM_COUNT_CONV;
 999:main.c        ****                     F_or_R_2(dist_count, flag_FR);*/
1000:main.c        ****                     move2puck();
 3183              		.loc 1 1000 0
 3184 020e FFF7FEFF 		bl	move2puck
 3185              	.LVL450:
1001:main.c        ****                     step++;
 3186              		.loc 1 1001 0
 3187 0212 414A     		ldr	r2, .L258+48
 3188 0214 136D     		ldr	r3, [r2, #80]
ARM GAS  C:\Users\weiro\AppData\Local\Temp\ccSkAWeC.s 			page 75


 3189 0216 0133     		adds	r3, r3, #1
 3190 0218 1365     		str	r3, [r2, #80]
 3191              	.L219:
 994:main.c        ****                 {
 3192              		.loc 1 994 0
 3193 021a 3F4B     		ldr	r3, .L258+48
 3194 021c 1B6D     		ldr	r3, [r3, #80]
 3195 021e 042B     		cmp	r3, #4
 3196 0220 F5D0     		beq	.L220
1002:main.c        ****                 }
1003:main.c        ****                 CyDelay(500);
 3197              		.loc 1 1003 0
 3198 0222 4FF4FA70 		mov	r0, #500
 3199 0226 FFF7FEFF 		bl	CyDelay
 3200              	.LVL451:
1004:main.c        ****                 
1005:main.c        ****                 // color sensing & light up LED
1006:main.c        ****                 while (step == 5)
 3201              		.loc 1 1006 0
 3202 022a 21E0     		b	.L221
 3203              	.L225:
 3204              	.LVL452:
 3205              	.LBB7:
1007:main.c        ****                 {
1008:main.c        ****                     int flag_FR = 0;
1009:main.c        ****                     int dist_trav = 2;
1010:main.c        ****                     move_fixed_dist(dist_trav, flag_FR); // move backward
 3206              		.loc 1 1010 0
 3207 022c 0021     		movs	r1, #0
 3208 022e 0220     		movs	r0, #2
 3209 0230 FFF7FEFF 		bl	move_fixed_dist
 3210              	.LVL453:
1011:main.c        ****                     CyDelay(500);
 3211              		.loc 1 1011 0
 3212 0234 4FF4FA70 		mov	r0, #500
 3213 0238 FFF7FEFF 		bl	CyDelay
 3214              	.LVL454:
1012:main.c        ****                     Color_Sensing_Function();
 3215              		.loc 1 1012 0
 3216 023c FFF7FEFF 		bl	Color_Sensing_Function
 3217              	.LVL455:
1013:main.c        ****                     if (color_detected == 1) // red
 3218              		.loc 1 1013 0
 3219 0240 304B     		ldr	r3, .L258+28
 3220 0242 D3F88831 		ldr	r3, [r3, #392]
 3221 0246 012B     		cmp	r3, #1
 3222 0248 03D1     		bne	.L222
1014:main.c        ****                     {
1015:main.c        ****                         led_red_Write(1);
 3223              		.loc 1 1015 0
 3224 024a 0120     		movs	r0, #1
 3225 024c FFF7FEFF 		bl	led_red_Write
 3226              	.LVL456:
 3227 0250 0AE0     		b	.L223
 3228              	.L222:
1016:main.c        ****                     }
1017:main.c        ****                     else if (color_detected == 2) // green
ARM GAS  C:\Users\weiro\AppData\Local\Temp\ccSkAWeC.s 			page 76


 3229              		.loc 1 1017 0
 3230 0252 022B     		cmp	r3, #2
 3231 0254 03D1     		bne	.L224
1018:main.c        ****                     {
1019:main.c        ****                         led_green_Write(1);
 3232              		.loc 1 1019 0
 3233 0256 0120     		movs	r0, #1
 3234 0258 FFF7FEFF 		bl	led_green_Write
 3235              	.LVL457:
 3236 025c 04E0     		b	.L223
 3237              	.L224:
1020:main.c        ****                     }
1021:main.c        ****                     else if (color_detected == 3) // blue
 3238              		.loc 1 1021 0
 3239 025e 032B     		cmp	r3, #3
 3240 0260 02D1     		bne	.L223
1022:main.c        ****                     {
1023:main.c        ****                         led_blue_Write(1);   
 3241              		.loc 1 1023 0
 3242 0262 0120     		movs	r0, #1
 3243 0264 FFF7FEFF 		bl	led_blue_Write
 3244              	.LVL458:
 3245              	.L223:
1024:main.c        ****                     }
1025:main.c        ****                     step++;
 3246              		.loc 1 1025 0
 3247 0268 2B4A     		ldr	r2, .L258+48
 3248 026a 136D     		ldr	r3, [r2, #80]
 3249 026c 0133     		adds	r3, r3, #1
 3250 026e 1365     		str	r3, [r2, #80]
 3251              	.LVL459:
 3252              	.L221:
 3253              	.LBE7:
1006:main.c        ****                 {
 3254              		.loc 1 1006 0
 3255 0270 294B     		ldr	r3, .L258+48
 3256 0272 1B6D     		ldr	r3, [r3, #80]
 3257 0274 052B     		cmp	r3, #5
 3258 0276 D9D0     		beq	.L225
1026:main.c        ****                 }
1027:main.c        ****                 CyDelay(500);
 3259              		.loc 1 1027 0
 3260 0278 4FF4FA70 		mov	r0, #500
 3261 027c FFF7FEFF 		bl	CyDelay
 3262              	.LVL460:
1028:main.c        ****                 
1029:main.c        ****                 // move forward & pick up puck
1030:main.c        ****                 while (step == 6)
 3263              		.loc 1 1030 0
 3264 0280 18E0     		b	.L226
 3265              	.L227:
 3266              	.LVL461:
1031:main.c        ****                 {
1032:main.c        ****                     flag_FR = 1;
1033:main.c        ****                     dist_trav = 18; // distance from color sensor to gripper center
1034:main.c        ****                     move_fixed_dist(dist_trav, flag_FR);
 3267              		.loc 1 1034 0
ARM GAS  C:\Users\weiro\AppData\Local\Temp\ccSkAWeC.s 			page 77


 3268 0282 0121     		movs	r1, #1
 3269 0284 1220     		movs	r0, #18
 3270 0286 FFF7FEFF 		bl	move_fixed_dist
 3271              	.LVL462:
1035:main.c        ****                     PWM_BigServo_WriteCompare(down_big);
 3272              		.loc 1 1035 0
 3273 028a 234C     		ldr	r4, .L258+48
 3274 028c A08D     		ldrh	r0, [r4, #44]
 3275 028e FFF7FEFF 		bl	PWM_BigServo_WriteCompare
 3276              	.LVL463:
1036:main.c        ****                     CyDelay(500);
 3277              		.loc 1 1036 0
 3278 0292 4FF4FA70 		mov	r0, #500
 3279 0296 FFF7FEFF 		bl	CyDelay
 3280              	.LVL464:
1037:main.c        ****                     PWM_SmallServo_WriteCompare(close_small);
 3281              		.loc 1 1037 0
 3282 029a 208E     		ldrh	r0, [r4, #48]
 3283 029c FFF7FEFF 		bl	PWM_SmallServo_WriteCompare
 3284              	.LVL465:
1038:main.c        ****                     CyDelay(500);
 3285              		.loc 1 1038 0
 3286 02a0 4FF4FA70 		mov	r0, #500
 3287 02a4 FFF7FEFF 		bl	CyDelay
 3288              	.LVL466:
1039:main.c        ****                     PWM_BigServo_WriteCompare(up_big);
 3289              		.loc 1 1039 0
 3290 02a8 A08E     		ldrh	r0, [r4, #52]
 3291 02aa FFF7FEFF 		bl	PWM_BigServo_WriteCompare
 3292              	.LVL467:
1040:main.c        ****                     step++;
 3293              		.loc 1 1040 0
 3294 02ae 236D     		ldr	r3, [r4, #80]
 3295 02b0 0133     		adds	r3, r3, #1
 3296 02b2 2365     		str	r3, [r4, #80]
 3297              	.LVL468:
 3298              	.L226:
1030:main.c        ****                 {
 3299              		.loc 1 1030 0
 3300 02b4 184B     		ldr	r3, .L258+48
 3301 02b6 1B6D     		ldr	r3, [r3, #80]
 3302 02b8 062B     		cmp	r3, #6
 3303 02ba E2D0     		beq	.L227
1041:main.c        ****                 }
1042:main.c        ****                 CyDelay(500);
 3304              		.loc 1 1042 0
 3305 02bc 4FF4FA70 		mov	r0, #500
 3306 02c0 FFF7FEFF 		bl	CyDelay
 3307              	.LVL469:
1043:main.c        ****                 
1044:main.c        ****                 while (step == 7)
 3308              		.loc 1 1044 0
 3309 02c4 3DE0     		b	.L228
 3310              	.L230:
 3311              	.LVL470:
1045:main.c        ****                 {
1046:main.c        ****                     // reverse (out of the slit) and move to the corner of facing the initial posit
ARM GAS  C:\Users\weiro\AppData\Local\Temp\ccSkAWeC.s 			page 78


1047:main.c        ****                     flag_FR = 0;
1048:main.c        ****                     dist_trav = 50;
1049:main.c        ****                     move_fixed_dist(dist_trav, flag_FR);
 3312              		.loc 1 1049 0
 3313 02c6 0021     		movs	r1, #0
 3314 02c8 3220     		movs	r0, #50
 3315 02ca FFF7FEFF 		bl	move_fixed_dist
 3316              	.LVL471:
1050:main.c        ****                     CyDelay(500);
 3317              		.loc 1 1050 0
 3318 02ce 4FF4FA70 		mov	r0, #500
 3319 02d2 FFF7FEFF 		bl	CyDelay
 3320              	.LVL472:
1051:main.c        ****                     if (initial == 0)
 3321              		.loc 1 1051 0
 3322 02d6 0B4B     		ldr	r3, .L258+28
 3323 02d8 D3F8A831 		ldr	r3, [r3, #424]
 3324 02dc 23BB     		cbnz	r3, .L254
1052:main.c        ****                     {
1053:main.c        ****                         flag_CW = 0; // ccw to left wall
 3325              		.loc 1 1053 0
 3326 02de 0024     		movs	r4, #0
 3327 02e0 23E0     		b	.L229
 3328              	.L259:
 3329 02e2 00BFAFF3 		.align	3
 3329      0080
 3330              	.L258:
 3331 02e8 182D4454 		.word	1413754136
 3332 02ec FB210940 		.word	1074340347
 3333 02f0 0000D03F 		.word	1070596096
 3334 02f4 00000000 		.word	Speed_Control
 3335 02f8 00000000 		.word	Color_sensing
 3336 02fc 00000000 		.word	ultrasonic_echo
 3337 0300 00000000 		.word	Bluetooth
 3338 0304 00000000 		.word	.LANCHOR0
 3339 0308 A8000000 		.word	.LC12
 3340 030c 00000000 		.word	string_bt
 3341 0310 B8000000 		.word	.LC13
 3342 0314 C4000000 		.word	.LC14
 3343 0318 00000000 		.word	.LANCHOR1
 3344 031c A0010000 		.word	.LANCHOR0+416
 3345 0320 00000000 		.word	string_1
 3346 0324 CC000000 		.word	.LC15
 3347              	.L254:
1054:main.c        ****                     }
1055:main.c        ****                     else
1056:main.c        ****                     {
1057:main.c        ****                         flag_CW = 1; // cw to right wall
 3348              		.loc 1 1057 0
 3349 0328 0124     		movs	r4, #1
 3350              	.L229:
 3351              	.LVL473:
1058:main.c        ****                     }
1059:main.c        ****                     CW(PT_TURN_COUNT, flag_CW); // turn robot facing left or right wall
 3352              		.loc 1 1059 0
 3353 032a 9C4B     		ldr	r3, .L260
 3354 032c D3E90001 		ldrd	r0, [r3]
ARM GAS  C:\Users\weiro\AppData\Local\Temp\ccSkAWeC.s 			page 79


 3355 0330 FFF7FEFF 		bl	__aeabi_d2iz
 3356              	.LVL474:
 3357 0334 2146     		mov	r1, r4
 3358 0336 FFF7FEFF 		bl	CW
 3359              	.LVL475:
1060:main.c        ****                     step++;     
 3360              		.loc 1 1060 0
 3361 033a 994A     		ldr	r2, .L260+4
 3362 033c 136D     		ldr	r3, [r2, #80]
 3363 033e 0133     		adds	r3, r3, #1
 3364 0340 1365     		str	r3, [r2, #80]
 3365              	.LVL476:
 3366              	.L228:
1044:main.c        ****                 {
 3367              		.loc 1 1044 0
 3368 0342 974B     		ldr	r3, .L260+4
 3369 0344 1B6D     		ldr	r3, [r3, #80]
 3370 0346 072B     		cmp	r3, #7
 3371 0348 BDD0     		beq	.L230
1061:main.c        ****                 }
1062:main.c        ****                 CyDelay(500);
 3372              		.loc 1 1062 0
 3373 034a 4FF4FA70 		mov	r0, #500
 3374 034e FFF7FEFF 		bl	CyDelay
 3375              	.LVL477:
1063:main.c        ****                 wall_detected_10 = 0;
 3376              		.loc 1 1063 0
 3377 0352 0022     		movs	r2, #0
 3378 0354 934B     		ldr	r3, .L260+8
 3379 0356 1A64     		str	r2, [r3, #64]
1064:main.c        ****                 while (step ==8)
 3380              		.loc 1 1064 0
 3381 0358 0DE0     		b	.L231
 3382              	.L232:
1065:main.c        ****                 {
1066:main.c        ****                     move2wall(); // move to left wall
 3383              		.loc 1 1066 0
 3384 035a FFF7FEFF 		bl	move2wall
 3385              	.LVL478:
1067:main.c        ****                     flag_CW = 1;
1068:main.c        ****                     CW(PT_TURN_COUNT, flag_CW); // turn CW facing base wall
 3386              		.loc 1 1068 0
 3387 035e 8F4B     		ldr	r3, .L260
 3388 0360 D3E90001 		ldrd	r0, [r3]
 3389 0364 FFF7FEFF 		bl	__aeabi_d2iz
 3390              	.LVL479:
 3391 0368 0121     		movs	r1, #1
 3392 036a FFF7FEFF 		bl	CW
 3393              	.LVL480:
1069:main.c        ****                     
1070:main.c        ****                     
1071:main.c        ****                    
1072:main.c        ****                     step++;
 3394              		.loc 1 1072 0
 3395 036e 8C4A     		ldr	r2, .L260+4
 3396 0370 136D     		ldr	r3, [r2, #80]
 3397 0372 0133     		adds	r3, r3, #1
ARM GAS  C:\Users\weiro\AppData\Local\Temp\ccSkAWeC.s 			page 80


 3398 0374 1365     		str	r3, [r2, #80]
 3399              	.LVL481:
 3400              	.L231:
1064:main.c        ****                 {
 3401              		.loc 1 1064 0
 3402 0376 8A4B     		ldr	r3, .L260+4
 3403 0378 1B6D     		ldr	r3, [r3, #80]
 3404 037a 082B     		cmp	r3, #8
 3405 037c EDD0     		beq	.L232
1073:main.c        ****                     
1074:main.c        ****                 }
1075:main.c        ****                 CyDelay(500);
 3406              		.loc 1 1075 0
 3407 037e 4FF4FA70 		mov	r0, #500
 3408 0382 FFF7FEFF 		bl	CyDelay
 3409              	.LVL482:
1076:main.c        ****                 
1077:main.c        ****                 wall_detected_10 = 0;
 3410              		.loc 1 1077 0
 3411 0386 0022     		movs	r2, #0
 3412 0388 864B     		ldr	r3, .L260+8
 3413 038a 1A64     		str	r2, [r3, #64]
1078:main.c        ****                 while (step ==9)
 3414              		.loc 1 1078 0
 3415 038c 0BE0     		b	.L233
 3416              	.L234:
 3417              	.LVL483:
1079:main.c        ****                 {
1080:main.c        ****                     flag_FR = 0
1081:main.c        ****                     
1082:main.c        ****                     ;
1083:main.c        ****                     dist_trav = 70;
1084:main.c        ****                     move_fixed_dist(dist_trav, flag_FR);
 3418              		.loc 1 1084 0
 3419 038e 0021     		movs	r1, #0
 3420 0390 4620     		movs	r0, #70
 3421 0392 FFF7FEFF 		bl	move_fixed_dist
 3422              	.LVL484:
1085:main.c        ****                     //move_fixed_dist(200); // move to corner
1086:main.c        ****                     CyDelay(500);
 3423              		.loc 1 1086 0
 3424 0396 4FF4FA70 		mov	r0, #500
 3425 039a FFF7FEFF 		bl	CyDelay
 3426              	.LVL485:
1087:main.c        ****                     step ++;
 3427              		.loc 1 1087 0
 3428 039e 804A     		ldr	r2, .L260+4
 3429 03a0 136D     		ldr	r3, [r2, #80]
 3430 03a2 0133     		adds	r3, r3, #1
 3431 03a4 1365     		str	r3, [r2, #80]
 3432              	.LVL486:
 3433              	.L233:
1078:main.c        ****                 {
 3434              		.loc 1 1078 0
 3435 03a6 7E4B     		ldr	r3, .L260+4
 3436 03a8 1B6D     		ldr	r3, [r3, #80]
 3437 03aa 092B     		cmp	r3, #9
ARM GAS  C:\Users\weiro\AppData\Local\Temp\ccSkAWeC.s 			page 81


 3438 03ac EFD0     		beq	.L234
 3439 03ae 02E0     		b	.L235
 3440              	.L236:
1088:main.c        ****                 }
1089:main.c        ****                 
1090:main.c        ****                 while (step == 10)
1091:main.c        ****                 {
1092:main.c        ****                      // move away from the corner
1093:main.c        ****                     /*
1094:main.c        ****                     flag_FR = 0;
1095:main.c        ****                     dist_trav = 50;
1096:main.c        ****                     move_fixed_dist(dist_trav, flag_FR);
1097:main.c        ****                     CyDelay(500);
1098:main.c        ****                     if (initial == 0)
1099:main.c        ****                     {
1100:main.c        ****                         flag_CW = 1;    // ccw
1101:main.c        ****                     }
1102:main.c        ****                     else
1103:main.c        ****                     {
1104:main.c        ****                         flag_CW = 0;    // cw
1105:main.c        ****                     }
1106:main.c        ****                     CW(PT_TURN_COUNT, flag_CW); // turn CCW or CW facing puck landing zone
1107:main.c        ****                     CyDelay(500);
1108:main.c        ****                     */
1109:main.c        ****                     step ++;
 3441              		.loc 1 1109 0
 3442 03b0 0133     		adds	r3, r3, #1
 3443 03b2 7B4A     		ldr	r2, .L260+4
 3444 03b4 1365     		str	r3, [r2, #80]
 3445              	.L235:
1090:main.c        ****                 {
 3446              		.loc 1 1090 0
 3447 03b6 7A4B     		ldr	r3, .L260+4
 3448 03b8 1B6D     		ldr	r3, [r3, #80]
 3449 03ba 0A2B     		cmp	r3, #10
 3450 03bc F8D0     		beq	.L236
1110:main.c        ****                 }
1111:main.c        ****                 CyDelay(500);
 3451              		.loc 1 1111 0
 3452 03be 4FF4FA70 		mov	r0, #500
 3453 03c2 FFF7FEFF 		bl	CyDelay
 3454              	.LVL487:
1112:main.c        ****                 
1113:main.c        ****                 while (step == 11)
 3455              		.loc 1 1113 0
 3456 03c6 02E0     		b	.L237
 3457              	.L238:
1114:main.c        ****                 {
1115:main.c        ****                 
1116:main.c        ****                     // move to puck landing
1117:main.c        ****                     /*
1118:main.c        ****                     flag_FR = 0;
1119:main.c        ****                     dist_trav = 20;
1120:main.c        ****                     move_fixed_dist(dist_trav, flag_FR);
1121:main.c        ****                     CyDelay(500);
1122:main.c        ****                     if (initial == 0)
1123:main.c        ****                     {
ARM GAS  C:\Users\weiro\AppData\Local\Temp\ccSkAWeC.s 			page 82


1124:main.c        ****                         flag_CW = 1;    // cw
1125:main.c        ****                     }
1126:main.c        ****                     else
1127:main.c        ****                     {
1128:main.c        ****                         flag_CW = 0;    // ccw
1129:main.c        ****                     }
1130:main.c        ****                     CW(PT_TURN_COUNT, flag_CW); // turn CCW or CW facing puck landing zone
1131:main.c        ****                     */
1132:main.c        ****                     step++;
 3458              		.loc 1 1132 0
 3459 03c8 0133     		adds	r3, r3, #1
 3460 03ca 754A     		ldr	r2, .L260+4
 3461 03cc 1365     		str	r3, [r2, #80]
 3462              	.L237:
1113:main.c        ****                 {
 3463              		.loc 1 1113 0
 3464 03ce 744B     		ldr	r3, .L260+4
 3465 03d0 1B6D     		ldr	r3, [r3, #80]
 3466 03d2 0B2B     		cmp	r3, #11
 3467 03d4 F8D0     		beq	.L238
1133:main.c        ****                 }
1134:main.c        ****                 CyDelay(500);
 3468              		.loc 1 1134 0
 3469 03d6 4FF4FA70 		mov	r0, #500
 3470 03da FFF7FEFF 		bl	CyDelay
 3471              	.LVL488:
1135:main.c        ****                 while (step ==12)
 3472              		.loc 1 1135 0
 3473 03de 1BE0     		b	.L239
 3474              	.L240:
1136:main.c        ****                 {
1137:main.c        ****                     // put down
1138:main.c        ****                     PWM_BigServo_WriteCompare(down_big);
 3475              		.loc 1 1138 0
 3476 03e0 6F4C     		ldr	r4, .L260+4
 3477 03e2 A08D     		ldrh	r0, [r4, #44]
 3478 03e4 FFF7FEFF 		bl	PWM_BigServo_WriteCompare
 3479              	.LVL489:
1139:main.c        ****                     CyDelay(1000);
 3480              		.loc 1 1139 0
 3481 03e8 4FF47A70 		mov	r0, #1000
 3482 03ec FFF7FEFF 		bl	CyDelay
 3483              	.LVL490:
1140:main.c        ****                     PWM_SmallServo_WriteCompare(open_small);
 3484              		.loc 1 1140 0
 3485 03f0 208F     		ldrh	r0, [r4, #56]
 3486 03f2 FFF7FEFF 		bl	PWM_SmallServo_WriteCompare
 3487              	.LVL491:
1141:main.c        ****                     CyDelay(500);
 3488              		.loc 1 1141 0
 3489 03f6 4FF4FA70 		mov	r0, #500
 3490 03fa FFF7FEFF 		bl	CyDelay
 3491              	.LVL492:
1142:main.c        ****                     PWM_BigServo_WriteCompare(up_big);
 3492              		.loc 1 1142 0
 3493 03fe A08E     		ldrh	r0, [r4, #52]
 3494 0400 FFF7FEFF 		bl	PWM_BigServo_WriteCompare
ARM GAS  C:\Users\weiro\AppData\Local\Temp\ccSkAWeC.s 			page 83


 3495              	.LVL493:
1143:main.c        ****                     CyDelay(500);
 3496              		.loc 1 1143 0
 3497 0404 4FF4FA70 		mov	r0, #500
 3498 0408 FFF7FEFF 		bl	CyDelay
 3499              	.LVL494:
1144:main.c        ****                     PWM_SmallServo_WriteCompare(close_small);
 3500              		.loc 1 1144 0
 3501 040c 208E     		ldrh	r0, [r4, #48]
 3502 040e FFF7FEFF 		bl	PWM_SmallServo_WriteCompare
 3503              	.LVL495:
1145:main.c        ****                     step++;
 3504              		.loc 1 1145 0
 3505 0412 236D     		ldr	r3, [r4, #80]
 3506 0414 0133     		adds	r3, r3, #1
 3507 0416 2365     		str	r3, [r4, #80]
 3508              	.L239:
1135:main.c        ****                 {
 3509              		.loc 1 1135 0
 3510 0418 614B     		ldr	r3, .L260+4
 3511 041a 1B6D     		ldr	r3, [r3, #80]
 3512 041c 0C2B     		cmp	r3, #12
 3513 041e DFD0     		beq	.L240
1146:main.c        ****                 }
1147:main.c        ****                 CyDelay(500);
 3514              		.loc 1 1147 0
 3515 0420 4FF4FA70 		mov	r0, #500
 3516 0424 FFF7FEFF 		bl	CyDelay
 3517              	.LVL496:
1148:main.c        ****                 while (step == 13)
 3518              		.loc 1 1148 0
 3519 0428 12E0     		b	.L241
 3520              	.L242:
 3521              	.LVL497:
1149:main.c        ****                 {
1150:main.c        ****                     flag_FR = 1;
1151:main.c        ****                     dist_trav = 20;
1152:main.c        ****                     move_fixed_dist(dist_trav, flag_FR);
 3522              		.loc 1 1152 0
 3523 042a 0121     		movs	r1, #1
 3524 042c 1420     		movs	r0, #20
 3525 042e FFF7FEFF 		bl	move_fixed_dist
 3526              	.LVL498:
1153:main.c        ****                     CyDelay(500);
 3527              		.loc 1 1153 0
 3528 0432 4FF4FA70 		mov	r0, #500
 3529 0436 FFF7FEFF 		bl	CyDelay
 3530              	.LVL499:
1154:main.c        ****                     PWM_BigServo_WriteCompare(down_big);
 3531              		.loc 1 1154 0
 3532 043a 594C     		ldr	r4, .L260+4
 3533 043c A08D     		ldrh	r0, [r4, #44]
 3534 043e FFF7FEFF 		bl	PWM_BigServo_WriteCompare
 3535              	.LVL500:
1155:main.c        ****                     CyDelay(500);
 3536              		.loc 1 1155 0
 3537 0442 4FF4FA70 		mov	r0, #500
ARM GAS  C:\Users\weiro\AppData\Local\Temp\ccSkAWeC.s 			page 84


 3538 0446 FFF7FEFF 		bl	CyDelay
 3539              	.LVL501:
1156:main.c        ****                     step++;
 3540              		.loc 1 1156 0
 3541 044a 236D     		ldr	r3, [r4, #80]
 3542 044c 0133     		adds	r3, r3, #1
 3543 044e 2365     		str	r3, [r4, #80]
 3544              	.LVL502:
 3545              	.L241:
1148:main.c        ****                 {
 3546              		.loc 1 1148 0
 3547 0450 534B     		ldr	r3, .L260+4
 3548 0452 1B6D     		ldr	r3, [r3, #80]
 3549 0454 0D2B     		cmp	r3, #13
 3550 0456 E8D0     		beq	.L242
1157:main.c        ****                 }
1158:main.c        ****                 CyDelay(500);
 3551              		.loc 1 1158 0
 3552 0458 4FF4FA70 		mov	r0, #500
 3553 045c FFF7FEFF 		bl	CyDelay
 3554              	.LVL503:
1159:main.c        ****                 while (step == 14)
 3555              		.loc 1 1159 0
 3556 0460 12E0     		b	.L243
 3557              	.L244:
 3558              	.LVL504:
1160:main.c        ****                 {
1161:main.c        ****                     flag_FR = 0;
1162:main.c        ****                     dist_trav = 20;
1163:main.c        ****                     move_fixed_dist(dist_trav, flag_FR);
 3559              		.loc 1 1163 0
 3560 0462 0021     		movs	r1, #0
 3561 0464 1420     		movs	r0, #20
 3562 0466 FFF7FEFF 		bl	move_fixed_dist
 3563              	.LVL505:
1164:main.c        ****                     CyDelay(500);
 3564              		.loc 1 1164 0
 3565 046a 4FF4FA70 		mov	r0, #500
 3566 046e FFF7FEFF 		bl	CyDelay
 3567              	.LVL506:
1165:main.c        ****                     PWM_BigServo_WriteCompare(up_big);
 3568              		.loc 1 1165 0
 3569 0472 4B4C     		ldr	r4, .L260+4
 3570 0474 A08E     		ldrh	r0, [r4, #52]
 3571 0476 FFF7FEFF 		bl	PWM_BigServo_WriteCompare
 3572              	.LVL507:
1166:main.c        ****                     CyDelay(500);
 3573              		.loc 1 1166 0
 3574 047a 4FF4FA70 		mov	r0, #500
 3575 047e FFF7FEFF 		bl	CyDelay
 3576              	.LVL508:
1167:main.c        ****                     step++;
 3577              		.loc 1 1167 0
 3578 0482 236D     		ldr	r3, [r4, #80]
 3579 0484 0133     		adds	r3, r3, #1
 3580 0486 2365     		str	r3, [r4, #80]
 3581              	.LVL509:
ARM GAS  C:\Users\weiro\AppData\Local\Temp\ccSkAWeC.s 			page 85


 3582              	.L243:
1159:main.c        ****                 {
 3583              		.loc 1 1159 0
 3584 0488 454B     		ldr	r3, .L260+4
 3585 048a 1B6D     		ldr	r3, [r3, #80]
 3586 048c 0E2B     		cmp	r3, #14
 3587 048e E8D0     		beq	.L244
1168:main.c        ****                 }
1169:main.c        ****                 CyDelay(500);
 3588              		.loc 1 1169 0
 3589 0490 4FF4FA70 		mov	r0, #500
 3590 0494 FFF7FEFF 		bl	CyDelay
 3591              	.LVL510:
1170:main.c        ****                 while (step == 15)
 3592              		.loc 1 1170 0
 3593 0498 1EE0     		b	.L245
 3594              	.L247:
1171:main.c        ****                 {
1172:main.c        ****                     if (initial == 0)
 3595              		.loc 1 1172 0
 3596 049a 424B     		ldr	r3, .L260+8
 3597 049c D3F8A831 		ldr	r3, [r3, #424]
 3598 04a0 0BB9     		cbnz	r3, .L255
1173:main.c        ****                     {
1174:main.c        ****                         flag_CW = 1;    // cw
 3599              		.loc 1 1174 0
 3600 04a2 0124     		movs	r4, #1
 3601 04a4 00E0     		b	.L246
 3602              	.L255:
1175:main.c        ****                     }
1176:main.c        ****                     else
1177:main.c        ****                     {
1178:main.c        ****                         flag_CW = 0;    // ccw
 3603              		.loc 1 1178 0
 3604 04a6 0024     		movs	r4, #0
 3605              	.L246:
 3606              	.LVL511:
1179:main.c        ****                     }
1180:main.c        ****                     CW(PT_TURN_COUNT, flag_CW); // turn CCW or CW facing puck landing zone
 3607              		.loc 1 1180 0
 3608 04a8 3C4B     		ldr	r3, .L260
 3609 04aa D3E90001 		ldrd	r0, [r3]
 3610 04ae FFF7FEFF 		bl	__aeabi_d2iz
 3611              	.LVL512:
 3612 04b2 2146     		mov	r1, r4
 3613 04b4 FFF7FEFF 		bl	CW
 3614              	.LVL513:
1181:main.c        ****                     CyDelay(500);
 3615              		.loc 1 1181 0
 3616 04b8 4FF4FA70 		mov	r0, #500
 3617 04bc FFF7FEFF 		bl	CyDelay
 3618              	.LVL514:
1182:main.c        ****                     flag_FR = 1;
1183:main.c        ****                     dist_trav = 50;
1184:main.c        ****                     move_fixed_dist(dist_trav, flag_FR);
 3619              		.loc 1 1184 0
 3620 04c0 0121     		movs	r1, #1
ARM GAS  C:\Users\weiro\AppData\Local\Temp\ccSkAWeC.s 			page 86


 3621 04c2 3220     		movs	r0, #50
 3622 04c4 FFF7FEFF 		bl	move_fixed_dist
 3623              	.LVL515:
1185:main.c        ****                     CyDelay(500);
 3624              		.loc 1 1185 0
 3625 04c8 4FF4FA70 		mov	r0, #500
 3626 04cc FFF7FEFF 		bl	CyDelay
 3627              	.LVL516:
1186:main.c        ****                     step++;
 3628              		.loc 1 1186 0
 3629 04d0 334A     		ldr	r2, .L260+4
 3630 04d2 136D     		ldr	r3, [r2, #80]
 3631 04d4 0133     		adds	r3, r3, #1
 3632 04d6 1365     		str	r3, [r2, #80]
 3633              	.LVL517:
 3634              	.L245:
1170:main.c        ****                 {
 3635              		.loc 1 1170 0
 3636 04d8 314B     		ldr	r3, .L260+4
 3637 04da 1B6D     		ldr	r3, [r3, #80]
 3638 04dc 0F2B     		cmp	r3, #15
 3639 04de DCD0     		beq	.L247
1187:main.c        ****                 }
1188:main.c        ****                 CyDelay(500);
 3640              		.loc 1 1188 0
 3641 04e0 4FF4FA70 		mov	r0, #500
 3642 04e4 FFF7FEFF 		bl	CyDelay
 3643              	.LVL518:
1189:main.c        ****                 while (step == 16)
 3644              		.loc 1 1189 0
 3645 04e8 1EE0     		b	.L248
 3646              	.L250:
1190:main.c        ****                 {
1191:main.c        ****                     if (initial == 0)
 3647              		.loc 1 1191 0
 3648 04ea 2E4B     		ldr	r3, .L260+8
 3649 04ec D3F8A831 		ldr	r3, [r3, #424]
 3650 04f0 0BB9     		cbnz	r3, .L256
1192:main.c        ****                     {
1193:main.c        ****                         flag_CW = 1;    // cw
 3651              		.loc 1 1193 0
 3652 04f2 0124     		movs	r4, #1
 3653 04f4 00E0     		b	.L249
 3654              	.L256:
1194:main.c        ****                     }
1195:main.c        ****                     else
1196:main.c        ****                     {
1197:main.c        ****                         flag_CW = 0;    // ccw
 3655              		.loc 1 1197 0
 3656 04f6 0024     		movs	r4, #0
 3657              	.L249:
 3658              	.LVL519:
1198:main.c        ****                     }
1199:main.c        ****                     CW(PT_TURN_COUNT, flag_CW); // turn CCW or CW facing puck landing zone
 3659              		.loc 1 1199 0
 3660 04f8 284B     		ldr	r3, .L260
 3661 04fa D3E90001 		ldrd	r0, [r3]
ARM GAS  C:\Users\weiro\AppData\Local\Temp\ccSkAWeC.s 			page 87


 3662 04fe FFF7FEFF 		bl	__aeabi_d2iz
 3663              	.LVL520:
 3664 0502 2146     		mov	r1, r4
 3665 0504 FFF7FEFF 		bl	CW
 3666              	.LVL521:
1200:main.c        ****                     CyDelay(500);
 3667              		.loc 1 1200 0
 3668 0508 4FF4FA70 		mov	r0, #500
 3669 050c FFF7FEFF 		bl	CyDelay
 3670              	.LVL522:
1201:main.c        ****                     flag_FR = 1;
1202:main.c        ****                     dist_trav = 50;
1203:main.c        ****                     move_fixed_dist(dist_trav, flag_FR);
 3671              		.loc 1 1203 0
 3672 0510 0121     		movs	r1, #1
 3673 0512 3220     		movs	r0, #50
 3674 0514 FFF7FEFF 		bl	move_fixed_dist
 3675              	.LVL523:
1204:main.c        ****                     CyDelay(500);
 3676              		.loc 1 1204 0
 3677 0518 4FF4FA70 		mov	r0, #500
 3678 051c FFF7FEFF 		bl	CyDelay
 3679              	.LVL524:
1205:main.c        ****                     step ++;
 3680              		.loc 1 1205 0
 3681 0520 1F4A     		ldr	r2, .L260+4
 3682 0522 136D     		ldr	r3, [r2, #80]
 3683 0524 0133     		adds	r3, r3, #1
 3684 0526 1365     		str	r3, [r2, #80]
 3685              	.LVL525:
 3686              	.L248:
1189:main.c        ****                 {
 3687              		.loc 1 1189 0
 3688 0528 1D4B     		ldr	r3, .L260+4
 3689 052a 1B6D     		ldr	r3, [r3, #80]
 3690 052c 102B     		cmp	r3, #16
 3691 052e DCD0     		beq	.L250
 3692 0530 2CE0     		b	.L209
 3693              	.L210:
1206:main.c        ****                 }
1207:main.c        ****                 
1208:main.c        ****                 // go home
1209:main.c        ****             }
1210:main.c        ****             else // task info
1211:main.c        ****             {
1212:main.c        ****                 tokenPtr = strtok(string_bt, " ");
 3694              		.loc 1 1212 0
 3695 0532 1D49     		ldr	r1, .L260+12
 3696 0534 1D48     		ldr	r0, .L260+16
 3697 0536 FFF7FEFF 		bl	strtok
 3698              	.LVL526:
 3699 053a 1D4B     		ldr	r3, .L260+20
 3700 053c 1860     		str	r0, [r3]
1213:main.c        ****                 while (tokenPtr != NULL)
 3701              		.loc 1 1213 0
 3702 053e 12E0     		b	.L251
 3703              	.L252:
ARM GAS  C:\Users\weiro\AppData\Local\Temp\ccSkAWeC.s 			page 88


1214:main.c        ****                 {
1215:main.c        ****                     strcpy(task_info[j], tokenPtr);
 3704              		.loc 1 1215 0
 3705 0540 184D     		ldr	r5, .L260+8
 3706 0542 D5F8AC41 		ldr	r4, [r5, #428]
 3707 0546 04EB8402 		add	r2, r4, r4, lsl #2
 3708 054a 9300     		lsls	r3, r2, #2
 3709 054c 1948     		ldr	r0, .L260+24
 3710 054e 1844     		add	r0, r0, r3
 3711 0550 FFF7FEFF 		bl	strcpy
 3712              	.LVL527:
1216:main.c        ****                     j++;
 3713              		.loc 1 1216 0
 3714 0554 0134     		adds	r4, r4, #1
 3715 0556 C5F8AC41 		str	r4, [r5, #428]
1217:main.c        ****                     tokenPtr = strtok(NULL, " ");
 3716              		.loc 1 1217 0
 3717 055a 1349     		ldr	r1, .L260+12
 3718 055c 0020     		movs	r0, #0
 3719 055e FFF7FEFF 		bl	strtok
 3720              	.LVL528:
 3721 0562 134B     		ldr	r3, .L260+20
 3722 0564 1860     		str	r0, [r3]
 3723              	.L251:
1213:main.c        ****                 {
 3724              		.loc 1 1213 0
 3725 0566 124B     		ldr	r3, .L260+20
 3726 0568 1968     		ldr	r1, [r3]
 3727 056a 0029     		cmp	r1, #0
 3728 056c E8D1     		bne	.L252
1218:main.c        ****                 }
1219:main.c        ****                 UART_1_PutString(task_info[0]);
 3729              		.loc 1 1219 0
 3730 056e 114C     		ldr	r4, .L260+24
 3731 0570 2046     		mov	r0, r4
 3732 0572 FFF7FEFF 		bl	UART_1_PutString
 3733              	.LVL529:
1220:main.c        ****                 UART_1_PutString(task_info[1]);
 3734              		.loc 1 1220 0
 3735 0576 04F11400 		add	r0, r4, #20
 3736 057a FFF7FEFF 		bl	UART_1_PutString
 3737              	.LVL530:
1221:main.c        ****                 UART_1_PutString(task_info[2]);
 3738              		.loc 1 1221 0
 3739 057e 04F12800 		add	r0, r4, #40
 3740 0582 FFF7FEFF 		bl	UART_1_PutString
 3741              	.LVL531:
1222:main.c        ****                 UART_1_PutString("Received  \n");
 3742              		.loc 1 1222 0
 3743 0586 0C48     		ldr	r0, .L260+28
 3744 0588 FFF7FEFF 		bl	UART_1_PutString
 3745              	.LVL532:
 3746              	.L209:
1223:main.c        ****             }
1224:main.c        ****             i = 0;
 3747              		.loc 1 1224 0
 3748 058c 054B     		ldr	r3, .L260+8
ARM GAS  C:\Users\weiro\AppData\Local\Temp\ccSkAWeC.s 			page 89


 3749 058e 0022     		movs	r2, #0
 3750 0590 9A64     		str	r2, [r3, #72]
1225:main.c        ****             j = 0;
 3751              		.loc 1 1225 0
 3752 0592 C3F8AC21 		str	r2, [r3, #428]
1226:main.c        ****             stop_bt = 0;
 3753              		.loc 1 1226 0
 3754 0596 DA64     		str	r2, [r3, #76]
 3755 0598 ABE5     		b	.L207
 3756              	.L261:
 3757 059a 00BF     		.align	2
 3758              	.L260:
 3759 059c A0010000 		.word	.LANCHOR0+416
 3760 05a0 00000000 		.word	.LANCHOR1
 3761 05a4 00000000 		.word	.LANCHOR0
 3762 05a8 D4000000 		.word	.LC16
 3763 05ac 00000000 		.word	string_bt
 3764 05b0 00000000 		.word	tokenPtr
 3765 05b4 00000000 		.word	task_info
 3766 05b8 D8000000 		.word	.LC17
 3767              		.cfi_endproc
 3768              	.LFE90:
 3769              		.size	main, .-main
 3770              		.global	threshold
 3771              		.global	error_gyro_avg
 3772              		.global	error_gyro
 3773              		.global	count
 3774              		.global	cal
 3775              		.global	string_gyro
 3776              		.global	cycles
 3777              		.global	heading
 3778              		.global	current_reading
 3779              		.global	previous_reading
 3780              		.global	yaw_angle
 3781              		.global	yaw_rate
 3782              		.global	temp
 3783              		.global	array_1
 3784              		.global	j
 3785              		.comm	task_info,60,4
 3786              		.comm	tokenPtr,4,4
 3787              		.global	stop_bt
 3788              		.comm	string_bt,200,4
 3789              		.global	i
 3790              		.comm	Rx,1,1
 3791              		.global	close_small
 3792              		.global	open_small
 3793              		.global	up_big
 3794              		.global	down_big
 3795              		.global	slit_detected
 3796              		.global	wall_detected_10
 3797              		.global	color_detected
 3798              		.global	compare_ready
 3799              		.global	step
 3800              		.global	direction
 3801              		.global	y_coord
 3802              		.global	x_coord
 3803              		.global	echo_select
ARM GAS  C:\Users\weiro\AppData\Local\Temp\ccSkAWeC.s 			page 90


 3804              		.global	left_measured
 3805              		.comm	right_measured,8,8
 3806              		.comm	front_measured_2,8,8
 3807              		.comm	front_measured_1,8,8
 3808              		.global	ultrasonic_measure
 3809              		.global	ultrasonic_count
 3810              		.global	is_moving
 3811              		.global	PWM_Slave_puck
 3812              		.global	PWM_Master_puck
 3813              		.global	PWM_Slave
 3814              		.global	PWM_Cal
 3815              		.global	PWM_Master
 3816              		.global	K_d
 3817              		.global	K_i
 3818              		.global	K_p
 3819              		.global	timer_period
 3820              		.global	derivative_error
 3821              		.global	last_error
 3822              		.global	accumulated_error
 3823              		.global	error
 3824              		.comm	string_3,200,4
 3825              		.comm	string_2,200,4
 3826              		.comm	string_1,200,4
 3827              		.global	Count_Slave
 3828              		.global	Count_Master
 3829              		.global	PT_TURN_COUNT
 3830              		.global	DISTANCE_PT_TURN
 3831              		.global	DISTANCE_BETW_WHEEL
 3832              		.global	CM_COUNT_CONV
 3833              		.global	COUNT_WHEEL
 3834              		.global	CS_count_Green
 3835              		.global	CS_count_Blue
 3836              		.global	CS_count_Red
 3837              		.global	WHEEL_CIRCUMFERENCE
 3838              		.global	WHEEL_DIAMETER
 3839              		.global	initial
 3840              		.data
 3841              		.align	3
 3842              		.set	.LANCHOR1,. + 0
 3843              		.type	K_p, %object
 3844              		.size	K_p, 8
 3845              	K_p:
 3846 0000 00000000 		.word	0
 3847 0004 00001440 		.word	1075052544
 3848              		.type	PWM_Master, %object
 3849              		.size	PWM_Master, 4
 3850              	PWM_Master:
 3851 0008 00409C46 		.word	1184645120
 3852              		.type	PWM_Slave, %object
 3853              		.size	PWM_Slave, 4
 3854              	PWM_Slave:
 3855 000c 00409C46 		.word	1184645120
 3856              		.type	cal, %object
 3857              		.size	cal, 4
 3858              	cal:
 3859 0010 01000000 		.word	1
 3860 0014 00000000 		.space	4
ARM GAS  C:\Users\weiro\AppData\Local\Temp\ccSkAWeC.s 			page 91


 3861              		.type	threshold, %object
 3862              		.size	threshold, 8
 3863              	threshold:
 3864 0018 9A999999 		.word	-1717986918
 3865 001c 9999B93F 		.word	1069128089
 3866              		.type	WHEEL_DIAMETER, %object
 3867              		.size	WHEEL_DIAMETER, 8
 3868              	WHEEL_DIAMETER:
 3869 0020 9A999999 		.word	-1717986918
 3870 0024 99991540 		.word	1075157401
 3871              		.type	PWM_Cal, %object
 3872              		.size	PWM_Cal, 4
 3873              	PWM_Cal:
 3874 0028 00401C46 		.word	1176256512
 3875              		.type	down_big, %object
 3876              		.size	down_big, 4
 3877              	down_big:
 3878 002c 67020000 		.word	615
 3879              		.type	close_small, %object
 3880              		.size	close_small, 4
 3881              	close_small:
 3882 0030 AC030000 		.word	940
 3883              		.type	up_big, %object
 3884              		.size	up_big, 4
 3885              	up_big:
 3886 0034 0D020000 		.word	525
 3887              		.type	open_small, %object
 3888              		.size	open_small, 4
 3889              	open_small:
 3890 0038 D4030000 		.word	980
 3891 003c 00000000 		.space	4
 3892              		.type	DISTANCE_BETW_WHEEL, %object
 3893              		.size	DISTANCE_BETW_WHEEL, 8
 3894              	DISTANCE_BETW_WHEEL:
 3895 0040 CDCCCCCC 		.word	-858993459
 3896 0044 CC4C3640 		.word	1077300428
 3897              		.type	COUNT_WHEEL, %object
 3898              		.size	COUNT_WHEEL, 8
 3899              	COUNT_WHEEL:
 3900 0048 00000000 		.word	0
 3901 004c 00A6AC40 		.word	1085056512
 3902              		.type	step, %object
 3903              		.size	step, 4
 3904              	step:
 3905 0050 FFFFFFFF 		.word	-1
 3906              		.type	PWM_Slave_puck, %object
 3907              		.size	PWM_Slave_puck, 4
 3908              	PWM_Slave_puck:
 3909 0054 00409C45 		.word	1167867904
 3910              		.type	PWM_Master_puck, %object
 3911              		.size	PWM_Master_puck, 4
 3912              	PWM_Master_puck:
 3913 0058 00409C45 		.word	1167867904
 3914 005c 00000000 		.space	4
 3915              		.type	timer_period, %object
 3916              		.size	timer_period, 8
 3917              	timer_period:
ARM GAS  C:\Users\weiro\AppData\Local\Temp\ccSkAWeC.s 			page 92


 3918 0060 00000000 		.word	0
 3919 0064 00001440 		.word	1075052544
 3920              		.section	.rodata.str1.4,"aMS",%progbits,1
 3921              		.align	2
 3922              	.LC0:
 3923 0000 46726F6E 		.ascii	"Front dist 1: %lf  \012\000"
 3923      74206469 
 3923      73742031 
 3923      3A20256C 
 3923      6620200A 
 3924 0015 000000   		.space	3
 3925              	.LC1:
 3926 0018 43616C69 		.ascii	"Calibrating\012\000"
 3926      62726174 
 3926      696E670A 
 3926      00
 3927 0025 000000   		.space	3
 3928              	.LC2:
 3929 0028 48656164 		.ascii	"Heading: %lf\012\000"
 3929      696E673A 
 3929      20256C66 
 3929      0A00
 3930 0036 0000     		.space	2
 3931              	.LC3:
 3932 0038 6D6F7669 		.ascii	"moving to slit\000"
 3932      6E672074 
 3932      6F20736C 
 3932      697400
 3933 0047 00       		.space	1
 3934              	.LC4:
 3935 0048 7265643A 		.ascii	"red: %d\012\000"
 3935      2025640A 
 3935      00
 3936 0051 000000   		.space	3
 3937              	.LC5:
 3938 0054 67726565 		.ascii	"green: %d\012\000"
 3938      6E3A2025 
 3938      640A00
 3939 005f 00       		.space	1
 3940              	.LC6:
 3941 0060 626C7565 		.ascii	"blue: %d\012\000"
 3941      3A202564 
 3941      0A00
 3942 006a 0000     		.space	2
 3943              	.LC7:
 3944 006c 766F6C74 		.ascii	"volt(V): %lf\012\000"
 3944      2856293A 
 3944      20256C66 
 3944      0A00
 3945 007a 0000     		.space	2
 3946              	.LC8:
 3947 007c 64697374 		.ascii	"dist(cm): %lf\012\000"
 3947      28636D29 
 3947      3A20256C 
 3947      660A00
 3948 008b 00       		.space	1
 3949              	.LC9:
ARM GAS  C:\Users\weiro\AppData\Local\Temp\ccSkAWeC.s 			page 93


 3950 008c 52656420 		.ascii	"Red  \012\000"
 3950      200A00
 3951 0093 00       		.space	1
 3952              	.LC10:
 3953 0094 47726565 		.ascii	"Green  \012\000"
 3953      6E20200A 
 3953      00
 3954 009d 000000   		.space	3
 3955              	.LC11:
 3956 00a0 426C7565 		.ascii	"Blue  \012\000"
 3956      20200A00 
 3957              	.LC12:
 3958 00a8 41726520 		.ascii	"Are you ready?\000"
 3958      796F7520 
 3958      72656164 
 3958      793F00
 3959 00b7 00       		.space	1
 3960              	.LC13:
 3961 00b8 52656164 		.ascii	"Ready  \012\000"
 3961      7920200A 
 3961      00
 3962 00c1 000000   		.space	3
 3963              	.LC14:
 3964 00c4 53746172 		.ascii	"Start\000"
 3964      7400
 3965 00ca 0000     		.space	2
 3966              	.LC15:
 3967 00cc 73746570 		.ascii	"step 2\000"
 3967      203200
 3968 00d3 00       		.space	1
 3969              	.LC16:
 3970 00d4 2000     		.ascii	" \000"
 3971 00d6 0000     		.space	2
 3972              	.LC17:
 3973 00d8 52656365 		.ascii	"Received  \012\000"
 3973      69766564 
 3973      20200A00 
 3974              		.bss
 3975              		.align	3
 3976              		.set	.LANCHOR0,. + 0
 3977              		.type	is_moving, %object
 3978              		.size	is_moving, 4
 3979              	is_moving:
 3980 0000 00000000 		.space	4
 3981              		.type	Count_Master, %object
 3982              		.size	Count_Master, 4
 3983              	Count_Master:
 3984 0004 00000000 		.space	4
 3985              		.type	Count_Slave, %object
 3986              		.size	Count_Slave, 4
 3987              	Count_Slave:
 3988 0008 00000000 		.space	4
 3989 000c 00000000 		.space	4
 3990              		.type	error, %object
 3991              		.size	error, 8
 3992              	error:
 3993 0010 00000000 		.space	8
ARM GAS  C:\Users\weiro\AppData\Local\Temp\ccSkAWeC.s 			page 94


 3993      00000000 
 3994              		.type	last_error, %object
 3995              		.size	last_error, 8
 3996              	last_error:
 3997 0018 00000000 		.space	8
 3997      00000000 
 3998              		.type	ultrasonic_count, %object
 3999              		.size	ultrasonic_count, 4
 4000              	ultrasonic_count:
 4001 0020 00000000 		.space	4
 4002 0024 00000000 		.space	4
 4003              		.type	ultrasonic_measure, %object
 4004              		.size	ultrasonic_measure, 8
 4005              	ultrasonic_measure:
 4006 0028 00000000 		.space	8
 4006      00000000 
 4007              		.type	echo_select, %object
 4008              		.size	echo_select, 4
 4009              	echo_select:
 4010 0030 00000000 		.space	4
 4011 0034 00000000 		.space	4
 4012              		.type	left_measured, %object
 4013              		.size	left_measured, 8
 4014              	left_measured:
 4015 0038 00000000 		.space	8
 4015      00000000 
 4016              		.type	wall_detected_10, %object
 4017              		.size	wall_detected_10, 4
 4018              	wall_detected_10:
 4019 0040 00000000 		.space	4
 4020              		.type	compare_ready, %object
 4021              		.size	compare_ready, 4
 4022              	compare_ready:
 4023 0044 00000000 		.space	4
 4024              		.type	i, %object
 4025              		.size	i, 4
 4026              	i:
 4027 0048 00000000 		.space	4
 4028              		.type	stop_bt, %object
 4029              		.size	stop_bt, 4
 4030              	stop_bt:
 4031 004c 00000000 		.space	4
 4032              		.type	array_1, %object
 4033              		.size	array_1, 6
 4034              	array_1:
 4035 0050 00000000 		.space	6
 4035      0000
 4036              		.type	temp, %object
 4037              		.size	temp, 2
 4038              	temp:
 4039 0056 0000     		.space	2
 4040              		.type	count, %object
 4041              		.size	count, 4
 4042              	count:
 4043 0058 00000000 		.space	4
 4044              		.type	error_gyro, %object
 4045              		.size	error_gyro, 2
ARM GAS  C:\Users\weiro\AppData\Local\Temp\ccSkAWeC.s 			page 95


 4046              	error_gyro:
 4047 005c 0000     		.space	2
 4048              		.type	error_gyro_avg, %object
 4049              		.size	error_gyro_avg, 2
 4050              	error_gyro_avg:
 4051 005e 0000     		.space	2
 4052              		.type	yaw_rate, %object
 4053              		.size	yaw_rate, 8
 4054              	yaw_rate:
 4055 0060 00000000 		.space	8
 4055      00000000 
 4056              		.type	current_reading, %object
 4057              		.size	current_reading, 8
 4058              	current_reading:
 4059 0068 00000000 		.space	8
 4059      00000000 
 4060              		.type	previous_reading, %object
 4061              		.size	previous_reading, 8
 4062              	previous_reading:
 4063 0070 00000000 		.space	8
 4063      00000000 
 4064              		.type	yaw_angle, %object
 4065              		.size	yaw_angle, 8
 4066              	yaw_angle:
 4067 0078 00000000 		.space	8
 4067      00000000 
 4068              		.type	cycles, %object
 4069              		.size	cycles, 4
 4070              	cycles:
 4071 0080 00000000 		.space	4
 4072 0084 00000000 		.space	4
 4073              		.type	heading, %object
 4074              		.size	heading, 8
 4075              	heading:
 4076 0088 00000000 		.space	8
 4076      00000000 
 4077              		.type	string_gyro, %object
 4078              		.size	string_gyro, 200
 4079              	string_gyro:
 4080 0090 00000000 		.space	200
 4080      00000000 
 4080      00000000 
 4080      00000000 
 4080      00000000 
 4081              		.type	CM_COUNT_CONV, %object
 4082              		.size	CM_COUNT_CONV, 8
 4083              	CM_COUNT_CONV:
 4084 0158 00000000 		.space	8
 4084      00000000 
 4085              		.type	direction, %object
 4086              		.size	direction, 4
 4087              	direction:
 4088 0160 00000000 		.space	4
 4089 0164 00000000 		.space	4
 4090              		.type	y_coord, %object
 4091              		.size	y_coord, 8
 4092              	y_coord:
ARM GAS  C:\Users\weiro\AppData\Local\Temp\ccSkAWeC.s 			page 96


 4093 0168 00000000 		.space	8
 4093      00000000 
 4094              		.type	x_coord, %object
 4095              		.size	x_coord, 8
 4096              	x_coord:
 4097 0170 00000000 		.space	8
 4097      00000000 
 4098              		.type	slit_detected, %object
 4099              		.size	slit_detected, 4
 4100              	slit_detected:
 4101 0178 00000000 		.space	4
 4102              		.type	CS_count_Red, %object
 4103              		.size	CS_count_Red, 4
 4104              	CS_count_Red:
 4105 017c 00000000 		.space	4
 4106              		.type	CS_count_Green, %object
 4107              		.size	CS_count_Green, 4
 4108              	CS_count_Green:
 4109 0180 00000000 		.space	4
 4110              		.type	CS_count_Blue, %object
 4111              		.size	CS_count_Blue, 4
 4112              	CS_count_Blue:
 4113 0184 00000000 		.space	4
 4114              		.type	color_detected, %object
 4115              		.size	color_detected, 4
 4116              	color_detected:
 4117 0188 00000000 		.space	4
 4118 018c 00000000 		.space	4
 4119              		.type	WHEEL_CIRCUMFERENCE, %object
 4120              		.size	WHEEL_CIRCUMFERENCE, 8
 4121              	WHEEL_CIRCUMFERENCE:
 4122 0190 00000000 		.space	8
 4122      00000000 
 4123              		.type	DISTANCE_PT_TURN, %object
 4124              		.size	DISTANCE_PT_TURN, 8
 4125              	DISTANCE_PT_TURN:
 4126 0198 00000000 		.space	8
 4126      00000000 
 4127              		.type	PT_TURN_COUNT, %object
 4128              		.size	PT_TURN_COUNT, 8
 4129              	PT_TURN_COUNT:
 4130 01a0 00000000 		.space	8
 4130      00000000 
 4131              		.type	initial, %object
 4132              		.size	initial, 4
 4133              	initial:
 4134 01a8 00000000 		.space	4
 4135              		.type	j, %object
 4136              		.size	j, 4
 4137              	j:
 4138 01ac 00000000 		.space	4
 4139              		.type	K_d, %object
 4140              		.size	K_d, 8
 4141              	K_d:
 4142 01b0 00000000 		.space	8
 4142      00000000 
 4143              		.type	K_i, %object
ARM GAS  C:\Users\weiro\AppData\Local\Temp\ccSkAWeC.s 			page 97


 4144              		.size	K_i, 8
 4145              	K_i:
 4146 01b8 00000000 		.space	8
 4146      00000000 
 4147              		.type	derivative_error, %object
 4148              		.size	derivative_error, 8
 4149              	derivative_error:
 4150 01c0 00000000 		.space	8
 4150      00000000 
 4151              		.type	accumulated_error, %object
 4152              		.size	accumulated_error, 8
 4153              	accumulated_error:
 4154 01c8 00000000 		.space	8
 4154      00000000 
 4155              		.text
 4156              	.Letext0:
 4157              		.file 2 "c:\\program files (x86)\\cypress\\psoc creator\\4.4\\psoc creator\\import\\gnu\\arm\\5.4.
 4158              		.file 3 "c:\\program files (x86)\\cypress\\psoc creator\\4.4\\psoc creator\\import\\gnu\\arm\\5.4.
 4159              		.file 4 "Generated_Source\\PSoC5/cytypes.h"
 4160              		.file 5 "Generated_Source\\PSoC5/core_cm3.h"
 4161              		.file 6 "Generated_Source\\PSoC5/PWM_Wheels.h"
 4162              		.file 7 "Generated_Source\\PSoC5/Timer_3.h"
 4163              		.file 8 "c:\\program files (x86)\\cypress\\psoc creator\\4.4\\psoc creator\\import\\gnu\\arm\\5.4.
 4164              		.file 9 "Generated_Source\\PSoC5/UART_1.h"
 4165              		.file 10 "Generated_Source\\PSoC5/PWM_ColorSensor.h"
 4166              		.file 11 "Generated_Source\\PSoC5/Timer_2.h"
 4167              		.file 12 "Generated_Source\\PSoC5/I2C_1.h"
 4168              		.file 13 "Generated_Source\\PSoC5/CyLib.h"
 4169              		.file 14 "Generated_Source\\PSoC5/Motor_1_IN_1.h"
 4170              		.file 15 "Generated_Source\\PSoC5/Motor_1_IN_2.h"
 4171              		.file 16 "Generated_Source\\PSoC5/Motor_2_IN_3.h"
 4172              		.file 17 "Generated_Source\\PSoC5/Motor_2_IN_4.h"
 4173              		.file 18 "Generated_Source\\PSoC5/QuadDec_1.h"
 4174              		.file 19 "Generated_Source\\PSoC5/QuadDec_2.h"
 4175              		.file 20 "Generated_Source\\PSoC5/Control_Reg_2.h"
 4176              		.file 21 "Generated_Source\\PSoC5/Trigger.h"
 4177              		.file 22 "Generated_Source\\PSoC5/Front_Echo_1.h"
 4178              		.file 23 "Generated_Source\\PSoC5/Left_Echo.h"
 4179              		.file 24 "Generated_Source\\PSoC5/IR_input.h"
 4180              		.file 25 "Generated_Source\\PSoC5/S0.h"
 4181              		.file 26 "Generated_Source\\PSoC5/S1.h"
 4182              		.file 27 "Generated_Source\\PSoC5/CS_LED.h"
 4183              		.file 28 "Generated_Source\\PSoC5/Counter_ColorSensor.h"
 4184              		.file 29 "Generated_Source\\PSoC5/S2.h"
 4185              		.file 30 "Generated_Source\\PSoC5/S3.h"
 4186              		.file 31 "Generated_Source\\PSoC5/Control_Reg_1.h"
 4187              		.file 32 "Generated_Source\\PSoC5/led_red.h"
 4188              		.file 33 "Generated_Source\\PSoC5/led_green.h"
 4189              		.file 34 "Generated_Source\\PSoC5/led_blue.h"
 4190              		.file 35 "Generated_Source\\PSoC5/Flicker.h"
 4191              		.file 36 "Generated_Source\\PSoC5/ADC_SAR_1.h"
 4192              		.file 37 "Generated_Source\\PSoC5/PWM_BigServo.h"
 4193              		.file 38 "Generated_Source\\PSoC5/PWM_SmallServo.h"
 4194              		.file 39 "Generated_Source\\PSoC5/isr_1.h"
 4195              		.file 40 "Generated_Source\\PSoC5/isr_6.h"
 4196              		.file 41 "Generated_Source\\PSoC5/Timer_1.h"
 4197              		.file 42 "Generated_Source\\PSoC5/isr_3.h"
ARM GAS  C:\Users\weiro\AppData\Local\Temp\ccSkAWeC.s 			page 98


 4198              		.file 43 "Generated_Source\\PSoC5/isr_7.h"
 4199              		.file 44 "c:\\program files (x86)\\cypress\\psoc creator\\4.4\\psoc creator\\import\\gnu\\arm\\5.4
 4200              		.file 45 "c:\\program files (x86)\\cypress\\psoc creator\\4.4\\psoc creator\\import\\gnu\\arm\\5.4
 4201              		.section	.debug_info,"",%progbits
 4202              	.Ldebug_info0:
 4203 0000 40230000 		.4byte	0x2340
 4204 0004 0400     		.2byte	0x4
 4205 0006 00000000 		.4byte	.Ldebug_abbrev0
 4206 000a 04       		.byte	0x4
 4207 000b 01       		.uleb128 0x1
 4208 000c 2F030000 		.4byte	.LASF189
 4209 0010 0C       		.byte	0xc
 4210 0011 4F000000 		.4byte	.LASF190
 4211 0015 060A0000 		.4byte	.LASF191
 4212 0019 30000000 		.4byte	.Ldebug_ranges0+0x30
 4213 001d 00000000 		.4byte	0
 4214 0021 00000000 		.4byte	.Ldebug_line0
 4215 0025 02       		.uleb128 0x2
 4216 0026 08       		.byte	0x8
 4217 0027 04       		.byte	0x4
 4218 0028 CF0A0000 		.4byte	.LASF0
 4219 002c 02       		.uleb128 0x2
 4220 002d 01       		.byte	0x1
 4221 002e 06       		.byte	0x6
 4222 002f 610A0000 		.4byte	.LASF1
 4223 0033 02       		.uleb128 0x2
 4224 0034 01       		.byte	0x1
 4225 0035 08       		.byte	0x8
 4226 0036 36090000 		.4byte	.LASF2
 4227 003a 02       		.uleb128 0x2
 4228 003b 02       		.byte	0x2
 4229 003c 05       		.byte	0x5
 4230 003d 02070000 		.4byte	.LASF3
 4231 0041 02       		.uleb128 0x2
 4232 0042 02       		.byte	0x2
 4233 0043 07       		.byte	0x7
 4234 0044 6D0A0000 		.4byte	.LASF4
 4235 0048 03       		.uleb128 0x3
 4236 0049 0E010000 		.4byte	.LASF10
 4237 004d 02       		.byte	0x2
 4238 004e 3F       		.byte	0x3f
 4239 004f 53000000 		.4byte	0x53
 4240 0053 02       		.uleb128 0x2
 4241 0054 04       		.byte	0x4
 4242 0055 05       		.byte	0x5
 4243 0056 2C070000 		.4byte	.LASF5
 4244 005a 02       		.uleb128 0x2
 4245 005b 04       		.byte	0x4
 4246 005c 07       		.byte	0x7
 4247 005d B2080000 		.4byte	.LASF6
 4248 0061 02       		.uleb128 0x2
 4249 0062 08       		.byte	0x8
 4250 0063 05       		.byte	0x5
 4251 0064 7A050000 		.4byte	.LASF7
 4252 0068 02       		.uleb128 0x2
 4253 0069 08       		.byte	0x8
 4254 006a 07       		.byte	0x7
ARM GAS  C:\Users\weiro\AppData\Local\Temp\ccSkAWeC.s 			page 99


 4255 006b AA020000 		.4byte	.LASF8
 4256 006f 04       		.uleb128 0x4
 4257 0070 04       		.byte	0x4
 4258 0071 05       		.byte	0x5
 4259 0072 696E7400 		.ascii	"int\000"
 4260 0076 02       		.uleb128 0x2
 4261 0077 04       		.byte	0x4
 4262 0078 07       		.byte	0x7
 4263 0079 E8000000 		.4byte	.LASF9
 4264 007d 03       		.uleb128 0x3
 4265 007e FF080000 		.4byte	.LASF11
 4266 0082 03       		.byte	0x3
 4267 0083 2C       		.byte	0x2c
 4268 0084 48000000 		.4byte	0x48
 4269 0088 05       		.uleb128 0x5
 4270 0089 C90A0000 		.4byte	.LASF12
 4271 008d 04       		.byte	0x4
 4272 008e E801     		.2byte	0x1e8
 4273 0090 33000000 		.4byte	0x33
 4274 0094 05       		.uleb128 0x5
 4275 0095 18010000 		.4byte	.LASF13
 4276 0099 04       		.byte	0x4
 4277 009a EC01     		.2byte	0x1ec
 4278 009c 3A000000 		.4byte	0x3a
 4279 00a0 02       		.uleb128 0x2
 4280 00a1 04       		.byte	0x4
 4281 00a2 04       		.byte	0x4
 4282 00a3 48020000 		.4byte	.LASF14
 4283 00a7 02       		.uleb128 0x2
 4284 00a8 01       		.byte	0x1
 4285 00a9 08       		.byte	0x8
 4286 00aa F2040000 		.4byte	.LASF15
 4287 00ae 02       		.uleb128 0x2
 4288 00af 08       		.byte	0x8
 4289 00b0 04       		.byte	0x4
 4290 00b1 6E060000 		.4byte	.LASF16
 4291 00b5 02       		.uleb128 0x2
 4292 00b6 04       		.byte	0x4
 4293 00b7 07       		.byte	0x7
 4294 00b8 9B080000 		.4byte	.LASF17
 4295 00bc 06       		.uleb128 0x6
 4296 00bd 04       		.byte	0x4
 4297 00be A7000000 		.4byte	0xa7
 4298 00c2 07       		.uleb128 0x7
 4299 00c3 F5000000 		.4byte	.LASF18
 4300 00c7 01       		.byte	0x1
 4301 00c8 5C       		.byte	0x5c
 4302 00c9 00000000 		.4byte	.LFB64
 4303 00cd 78000000 		.4byte	.LFE64-.LFB64
 4304 00d1 01       		.uleb128 0x1
 4305 00d2 9C       		.byte	0x9c
 4306 00d3 E1000000 		.4byte	0xe1
 4307 00d7 08       		.uleb128 0x8
 4308 00d8 5C000000 		.4byte	.LVL7
 4309 00dc 83200000 		.4byte	0x2083
 4310 00e0 00       		.byte	0
 4311 00e1 07       		.uleb128 0x7
ARM GAS  C:\Users\weiro\AppData\Local\Temp\ccSkAWeC.s 			page 100


 4312 00e2 05060000 		.4byte	.LASF19
 4313 00e6 01       		.byte	0x1
 4314 00e7 74       		.byte	0x74
 4315 00e8 00000000 		.4byte	.LFB65
 4316 00ec C0000000 		.4byte	.LFE65-.LFB65
 4317 00f0 01       		.uleb128 0x1
 4318 00f1 9C       		.byte	0x9c
 4319 00f2 36010000 		.4byte	0x136
 4320 00f6 08       		.uleb128 0x8
 4321 00f7 06000000 		.4byte	.LVL8
 4322 00fb 8E200000 		.4byte	0x208e
 4323 00ff 08       		.uleb128 0x8
 4324 0100 0A000000 		.4byte	.LVL9
 4325 0104 99200000 		.4byte	0x2099
 4326 0108 09       		.uleb128 0x9
 4327 0109 38000000 		.4byte	.LVL11
 4328 010d A4200000 		.4byte	0x20a4
 4329 0111 25010000 		.4byte	0x125
 4330 0115 0A       		.uleb128 0xa
 4331 0116 01       		.uleb128 0x1
 4332 0117 50       		.byte	0x50
 4333 0118 02       		.uleb128 0x2
 4334 0119 75       		.byte	0x75
 4335 011a 00       		.sleb128 0
 4336 011b 0A       		.uleb128 0xa
 4337 011c 01       		.uleb128 0x1
 4338 011d 51       		.byte	0x51
 4339 011e 05       		.uleb128 0x5
 4340 011f 03       		.byte	0x3
 4341 0120 00000000 		.4byte	.LC0
 4342 0124 00       		.byte	0
 4343 0125 0B       		.uleb128 0xb
 4344 0126 3E000000 		.4byte	.LVL12
 4345 012a AF200000 		.4byte	0x20af
 4346 012e 0A       		.uleb128 0xa
 4347 012f 01       		.uleb128 0x1
 4348 0130 50       		.byte	0x50
 4349 0131 02       		.uleb128 0x2
 4350 0132 75       		.byte	0x75
 4351 0133 00       		.sleb128 0
 4352 0134 00       		.byte	0
 4353 0135 00       		.byte	0
 4354 0136 0C       		.uleb128 0xc
 4355 0137 24060000 		.4byte	.LASF20
 4356 013b 01       		.byte	0x1
 4357 013c 9B       		.byte	0x9b
 4358 013d 00000000 		.4byte	.LFB66
 4359 0141 14000000 		.4byte	.LFE66-.LFB66
 4360 0145 01       		.uleb128 0x1
 4361 0146 9C       		.byte	0x9c
 4362 0147 55010000 		.4byte	0x155
 4363 014b 08       		.uleb128 0x8
 4364 014c 06000000 		.4byte	.LVL14
 4365 0150 BA200000 		.4byte	0x20ba
 4366 0154 00       		.byte	0
 4367 0155 0C       		.uleb128 0xc
 4368 0156 E50A0000 		.4byte	.LASF21
ARM GAS  C:\Users\weiro\AppData\Local\Temp\ccSkAWeC.s 			page 101


 4369 015a 01       		.byte	0x1
 4370 015b A2       		.byte	0xa2
 4371 015c 00000000 		.4byte	.LFB67
 4372 0160 38000000 		.4byte	.LFE67-.LFB67
 4373 0164 01       		.uleb128 0x1
 4374 0165 9C       		.byte	0x9c
 4375 0166 74010000 		.4byte	0x174
 4376 016a 08       		.uleb128 0x8
 4377 016b 06000000 		.4byte	.LVL15
 4378 016f C5200000 		.4byte	0x20c5
 4379 0173 00       		.byte	0
 4380 0174 07       		.uleb128 0x7
 4381 0175 48060000 		.4byte	.LASF22
 4382 0179 01       		.byte	0x1
 4383 017a B1       		.byte	0xb1
 4384 017b 00000000 		.4byte	.LFB68
 4385 017f 58020000 		.4byte	.LFE68-.LFB68
 4386 0183 01       		.uleb128 0x1
 4387 0184 9C       		.byte	0x9c
 4388 0185 F8020000 		.4byte	0x2f8
 4389 0189 08       		.uleb128 0x8
 4390 018a 08000000 		.4byte	.LVL16
 4391 018e D0200000 		.4byte	0x20d0
 4392 0192 09       		.uleb128 0x9
 4393 0193 10000000 		.4byte	.LVL17
 4394 0197 DB200000 		.4byte	0x20db
 4395 019b AB010000 		.4byte	0x1ab
 4396 019f 0A       		.uleb128 0xa
 4397 01a0 01       		.uleb128 0x1
 4398 01a1 50       		.byte	0x50
 4399 01a2 02       		.uleb128 0x2
 4400 01a3 08       		.byte	0x8
 4401 01a4 68       		.byte	0x68
 4402 01a5 0A       		.uleb128 0xa
 4403 01a6 01       		.uleb128 0x1
 4404 01a7 51       		.byte	0x51
 4405 01a8 01       		.uleb128 0x1
 4406 01a9 30       		.byte	0x30
 4407 01aa 00       		.byte	0
 4408 01ab 09       		.uleb128 0x9
 4409 01ac 16000000 		.4byte	.LVL18
 4410 01b0 E6200000 		.4byte	0x20e6
 4411 01b4 BF010000 		.4byte	0x1bf
 4412 01b8 0A       		.uleb128 0xa
 4413 01b9 01       		.uleb128 0x1
 4414 01ba 50       		.byte	0x50
 4415 01bb 02       		.uleb128 0x2
 4416 01bc 08       		.byte	0x8
 4417 01bd 43       		.byte	0x43
 4418 01be 00       		.byte	0
 4419 01bf 08       		.uleb128 0x8
 4420 01c0 1A000000 		.4byte	.LVL19
 4421 01c4 F1200000 		.4byte	0x20f1
 4422 01c8 09       		.uleb128 0x9
 4423 01c9 20000000 		.4byte	.LVL20
 4424 01cd FC200000 		.4byte	0x20fc
 4425 01d1 DB010000 		.4byte	0x1db
ARM GAS  C:\Users\weiro\AppData\Local\Temp\ccSkAWeC.s 			page 102


 4426 01d5 0A       		.uleb128 0xa
 4427 01d6 01       		.uleb128 0x1
 4428 01d7 50       		.byte	0x50
 4429 01d8 01       		.uleb128 0x1
 4430 01d9 31       		.byte	0x31
 4431 01da 00       		.byte	0
 4432 01db 09       		.uleb128 0x9
 4433 01dc 28000000 		.4byte	.LVL21
 4434 01e0 DB200000 		.4byte	0x20db
 4435 01e4 F4010000 		.4byte	0x1f4
 4436 01e8 0A       		.uleb128 0xa
 4437 01e9 01       		.uleb128 0x1
 4438 01ea 50       		.byte	0x50
 4439 01eb 02       		.uleb128 0x2
 4440 01ec 08       		.byte	0x8
 4441 01ed 68       		.byte	0x68
 4442 01ee 0A       		.uleb128 0xa
 4443 01ef 01       		.uleb128 0x1
 4444 01f0 51       		.byte	0x51
 4445 01f1 01       		.uleb128 0x1
 4446 01f2 31       		.byte	0x31
 4447 01f3 00       		.byte	0
 4448 01f4 09       		.uleb128 0x9
 4449 01f5 2E000000 		.4byte	.LVL22
 4450 01f9 07210000 		.4byte	0x2107
 4451 01fd 07020000 		.4byte	0x207
 4452 0201 0A       		.uleb128 0xa
 4453 0202 01       		.uleb128 0x1
 4454 0203 50       		.byte	0x50
 4455 0204 01       		.uleb128 0x1
 4456 0205 31       		.byte	0x31
 4457 0206 00       		.byte	0
 4458 0207 09       		.uleb128 0x9
 4459 0208 3A000000 		.4byte	.LVL23
 4460 020c 07210000 		.4byte	0x2107
 4461 0210 1A020000 		.4byte	0x21a
 4462 0214 0A       		.uleb128 0xa
 4463 0215 01       		.uleb128 0x1
 4464 0216 50       		.byte	0x50
 4465 0217 01       		.uleb128 0x1
 4466 0218 31       		.byte	0x31
 4467 0219 00       		.byte	0
 4468 021a 09       		.uleb128 0x9
 4469 021b 44000000 		.4byte	.LVL24
 4470 021f 07210000 		.4byte	0x2107
 4471 0223 2D020000 		.4byte	0x22d
 4472 0227 0A       		.uleb128 0xa
 4473 0228 01       		.uleb128 0x1
 4474 0229 50       		.byte	0x50
 4475 022a 01       		.uleb128 0x1
 4476 022b 31       		.byte	0x31
 4477 022c 00       		.byte	0
 4478 022d 09       		.uleb128 0x9
 4479 022e 4E000000 		.4byte	.LVL25
 4480 0232 07210000 		.4byte	0x2107
 4481 0236 40020000 		.4byte	0x240
 4482 023a 0A       		.uleb128 0xa
ARM GAS  C:\Users\weiro\AppData\Local\Temp\ccSkAWeC.s 			page 103


 4483 023b 01       		.uleb128 0x1
 4484 023c 50       		.byte	0x50
 4485 023d 01       		.uleb128 0x1
 4486 023e 31       		.byte	0x31
 4487 023f 00       		.byte	0
 4488 0240 09       		.uleb128 0x9
 4489 0241 58000000 		.4byte	.LVL26
 4490 0245 07210000 		.4byte	0x2107
 4491 0249 53020000 		.4byte	0x253
 4492 024d 0A       		.uleb128 0xa
 4493 024e 01       		.uleb128 0x1
 4494 024f 50       		.byte	0x50
 4495 0250 01       		.uleb128 0x1
 4496 0251 31       		.byte	0x31
 4497 0252 00       		.byte	0
 4498 0253 09       		.uleb128 0x9
 4499 0254 62000000 		.4byte	.LVL27
 4500 0258 07210000 		.4byte	0x2107
 4501 025c 66020000 		.4byte	0x266
 4502 0260 0A       		.uleb128 0xa
 4503 0261 01       		.uleb128 0x1
 4504 0262 50       		.byte	0x50
 4505 0263 01       		.uleb128 0x1
 4506 0264 30       		.byte	0x30
 4507 0265 00       		.byte	0
 4508 0266 08       		.uleb128 0x8
 4509 0267 6A000000 		.4byte	.LVL28
 4510 026b F1200000 		.4byte	0x20f1
 4511 026f 09       		.uleb128 0x9
 4512 0270 70000000 		.4byte	.LVL29
 4513 0274 FC200000 		.4byte	0x20fc
 4514 0278 82020000 		.4byte	0x282
 4515 027c 0A       		.uleb128 0xa
 4516 027d 01       		.uleb128 0x1
 4517 027e 50       		.byte	0x50
 4518 027f 01       		.uleb128 0x1
 4519 0280 31       		.byte	0x31
 4520 0281 00       		.byte	0
 4521 0282 09       		.uleb128 0x9
 4522 0283 96000000 		.4byte	.LVL30
 4523 0287 AF200000 		.4byte	0x20af
 4524 028b 99020000 		.4byte	0x299
 4525 028f 0A       		.uleb128 0xa
 4526 0290 01       		.uleb128 0x1
 4527 0291 50       		.byte	0x50
 4528 0292 05       		.uleb128 0x5
 4529 0293 03       		.byte	0x3
 4530 0294 18000000 		.4byte	.LC1
 4531 0298 00       		.byte	0
 4532 0299 09       		.uleb128 0x9
 4533 029a 02020000 		.4byte	.LVL47
 4534 029e A4200000 		.4byte	0x20a4
 4535 02a2 B6020000 		.4byte	0x2b6
 4536 02a6 0A       		.uleb128 0xa
 4537 02a7 01       		.uleb128 0x1
 4538 02a8 50       		.byte	0x50
 4539 02a9 02       		.uleb128 0x2
ARM GAS  C:\Users\weiro\AppData\Local\Temp\ccSkAWeC.s 			page 104


 4540 02aa 74       		.byte	0x74
 4541 02ab 00       		.sleb128 0
 4542 02ac 0A       		.uleb128 0xa
 4543 02ad 01       		.uleb128 0x1
 4544 02ae 51       		.byte	0x51
 4545 02af 05       		.uleb128 0x5
 4546 02b0 03       		.byte	0x3
 4547 02b1 28000000 		.4byte	.LC2
 4548 02b5 00       		.byte	0
 4549 02b6 09       		.uleb128 0x9
 4550 02b7 08020000 		.4byte	.LVL48
 4551 02bb AF200000 		.4byte	0x20af
 4552 02bf CA020000 		.4byte	0x2ca
 4553 02c3 0A       		.uleb128 0xa
 4554 02c4 01       		.uleb128 0x1
 4555 02c5 50       		.byte	0x50
 4556 02c6 02       		.uleb128 0x2
 4557 02c7 74       		.byte	0x74
 4558 02c8 00       		.sleb128 0
 4559 02c9 00       		.byte	0
 4560 02ca 09       		.uleb128 0x9
 4561 02cb 22020000 		.4byte	.LVL49
 4562 02cf A4200000 		.4byte	0x20a4
 4563 02d3 E7020000 		.4byte	0x2e7
 4564 02d7 0A       		.uleb128 0xa
 4565 02d8 01       		.uleb128 0x1
 4566 02d9 50       		.byte	0x50
 4567 02da 02       		.uleb128 0x2
 4568 02db 74       		.byte	0x74
 4569 02dc 00       		.sleb128 0
 4570 02dd 0A       		.uleb128 0xa
 4571 02de 01       		.uleb128 0x1
 4572 02df 51       		.byte	0x51
 4573 02e0 05       		.uleb128 0x5
 4574 02e1 03       		.byte	0x3
 4575 02e2 28000000 		.4byte	.LC2
 4576 02e6 00       		.byte	0
 4577 02e7 0B       		.uleb128 0xb
 4578 02e8 28020000 		.4byte	.LVL50
 4579 02ec AF200000 		.4byte	0x20af
 4580 02f0 0A       		.uleb128 0xa
 4581 02f1 01       		.uleb128 0x1
 4582 02f2 50       		.byte	0x50
 4583 02f3 02       		.uleb128 0x2
 4584 02f4 74       		.byte	0x74
 4585 02f5 00       		.sleb128 0
 4586 02f6 00       		.byte	0
 4587 02f7 00       		.byte	0
 4588 02f8 0D       		.uleb128 0xd
 4589 02f9 32020000 		.4byte	.LASF23
 4590 02fd 01       		.byte	0x1
 4591 02fe 0A01     		.2byte	0x10a
 4592 0300 00000000 		.4byte	.LFB69
 4593 0304 28000000 		.4byte	.LFE69-.LFB69
 4594 0308 01       		.uleb128 0x1
 4595 0309 9C       		.byte	0x9c
 4596 030a 5B030000 		.4byte	0x35b
ARM GAS  C:\Users\weiro\AppData\Local\Temp\ccSkAWeC.s 			page 105


 4597 030e 09       		.uleb128 0x9
 4598 030f 0E000000 		.4byte	.LVL51
 4599 0313 12210000 		.4byte	0x2112
 4600 0317 22030000 		.4byte	0x322
 4601 031b 0A       		.uleb128 0xa
 4602 031c 01       		.uleb128 0x1
 4603 031d 50       		.byte	0x50
 4604 031e 02       		.uleb128 0x2
 4605 031f 74       		.byte	0x74
 4606 0320 00       		.sleb128 0
 4607 0321 00       		.byte	0
 4608 0322 09       		.uleb128 0x9
 4609 0323 14000000 		.4byte	.LVL52
 4610 0327 1D210000 		.4byte	0x211d
 4611 032b 36030000 		.4byte	0x336
 4612 032f 0A       		.uleb128 0xa
 4613 0330 01       		.uleb128 0x1
 4614 0331 50       		.byte	0x50
 4615 0332 02       		.uleb128 0x2
 4616 0333 74       		.byte	0x74
 4617 0334 00       		.sleb128 0
 4618 0335 00       		.byte	0
 4619 0336 09       		.uleb128 0x9
 4620 0337 1A000000 		.4byte	.LVL53
 4621 033b 28210000 		.4byte	0x2128
 4622 033f 4A030000 		.4byte	0x34a
 4623 0343 0A       		.uleb128 0xa
 4624 0344 01       		.uleb128 0x1
 4625 0345 50       		.byte	0x50
 4626 0346 02       		.uleb128 0x2
 4627 0347 74       		.byte	0x74
 4628 0348 00       		.sleb128 0
 4629 0349 00       		.byte	0
 4630 034a 0B       		.uleb128 0xb
 4631 034b 20000000 		.4byte	.LVL54
 4632 034f 33210000 		.4byte	0x2133
 4633 0353 0A       		.uleb128 0xa
 4634 0354 01       		.uleb128 0x1
 4635 0355 50       		.byte	0x50
 4636 0356 02       		.uleb128 0x2
 4637 0357 74       		.byte	0x74
 4638 0358 00       		.sleb128 0
 4639 0359 00       		.byte	0
 4640 035a 00       		.byte	0
 4641 035b 0D       		.uleb128 0xd
 4642 035c F8050000 		.4byte	.LASF24
 4643 0360 01       		.byte	0x1
 4644 0361 1301     		.2byte	0x113
 4645 0363 00000000 		.4byte	.LFB70
 4646 0367 28000000 		.4byte	.LFE70-.LFB70
 4647 036b 01       		.uleb128 0x1
 4648 036c 9C       		.byte	0x9c
 4649 036d BC030000 		.4byte	0x3bc
 4650 0371 09       		.uleb128 0x9
 4651 0372 0E000000 		.4byte	.LVL55
 4652 0376 12210000 		.4byte	0x2112
 4653 037a 84030000 		.4byte	0x384
ARM GAS  C:\Users\weiro\AppData\Local\Temp\ccSkAWeC.s 			page 106


 4654 037e 0A       		.uleb128 0xa
 4655 037f 01       		.uleb128 0x1
 4656 0380 50       		.byte	0x50
 4657 0381 01       		.uleb128 0x1
 4658 0382 30       		.byte	0x30
 4659 0383 00       		.byte	0
 4660 0384 09       		.uleb128 0x9
 4661 0385 14000000 		.4byte	.LVL56
 4662 0389 1D210000 		.4byte	0x211d
 4663 038d 98030000 		.4byte	0x398
 4664 0391 0A       		.uleb128 0xa
 4665 0392 01       		.uleb128 0x1
 4666 0393 50       		.byte	0x50
 4667 0394 02       		.uleb128 0x2
 4668 0395 74       		.byte	0x74
 4669 0396 00       		.sleb128 0
 4670 0397 00       		.byte	0
 4671 0398 09       		.uleb128 0x9
 4672 0399 1A000000 		.4byte	.LVL57
 4673 039d 28210000 		.4byte	0x2128
 4674 03a1 AB030000 		.4byte	0x3ab
 4675 03a5 0A       		.uleb128 0xa
 4676 03a6 01       		.uleb128 0x1
 4677 03a7 50       		.byte	0x50
 4678 03a8 01       		.uleb128 0x1
 4679 03a9 30       		.byte	0x30
 4680 03aa 00       		.byte	0
 4681 03ab 0B       		.uleb128 0xb
 4682 03ac 20000000 		.4byte	.LVL58
 4683 03b0 33210000 		.4byte	0x2133
 4684 03b4 0A       		.uleb128 0xa
 4685 03b5 01       		.uleb128 0x1
 4686 03b6 50       		.byte	0x50
 4687 03b7 02       		.uleb128 0x2
 4688 03b8 74       		.byte	0x74
 4689 03b9 00       		.sleb128 0
 4690 03ba 00       		.byte	0
 4691 03bb 00       		.byte	0
 4692 03bc 0D       		.uleb128 0xd
 4693 03bd DA010000 		.4byte	.LASF25
 4694 03c1 01       		.byte	0x1
 4695 03c2 1C01     		.2byte	0x11c
 4696 03c4 00000000 		.4byte	.LFB71
 4697 03c8 28000000 		.4byte	.LFE71-.LFB71
 4698 03cc 01       		.uleb128 0x1
 4699 03cd 9C       		.byte	0x9c
 4700 03ce 1D040000 		.4byte	0x41d
 4701 03d2 09       		.uleb128 0x9
 4702 03d3 0E000000 		.4byte	.LVL59
 4703 03d7 12210000 		.4byte	0x2112
 4704 03db E6030000 		.4byte	0x3e6
 4705 03df 0A       		.uleb128 0xa
 4706 03e0 01       		.uleb128 0x1
 4707 03e1 50       		.byte	0x50
 4708 03e2 02       		.uleb128 0x2
 4709 03e3 74       		.byte	0x74
 4710 03e4 00       		.sleb128 0
ARM GAS  C:\Users\weiro\AppData\Local\Temp\ccSkAWeC.s 			page 107


 4711 03e5 00       		.byte	0
 4712 03e6 09       		.uleb128 0x9
 4713 03e7 14000000 		.4byte	.LVL60
 4714 03eb 1D210000 		.4byte	0x211d
 4715 03ef F9030000 		.4byte	0x3f9
 4716 03f3 0A       		.uleb128 0xa
 4717 03f4 01       		.uleb128 0x1
 4718 03f5 50       		.byte	0x50
 4719 03f6 01       		.uleb128 0x1
 4720 03f7 30       		.byte	0x30
 4721 03f8 00       		.byte	0
 4722 03f9 09       		.uleb128 0x9
 4723 03fa 1A000000 		.4byte	.LVL61
 4724 03fe 28210000 		.4byte	0x2128
 4725 0402 0D040000 		.4byte	0x40d
 4726 0406 0A       		.uleb128 0xa
 4727 0407 01       		.uleb128 0x1
 4728 0408 50       		.byte	0x50
 4729 0409 02       		.uleb128 0x2
 4730 040a 74       		.byte	0x74
 4731 040b 00       		.sleb128 0
 4732 040c 00       		.byte	0
 4733 040d 0B       		.uleb128 0xb
 4734 040e 20000000 		.4byte	.LVL62
 4735 0412 33210000 		.4byte	0x2133
 4736 0416 0A       		.uleb128 0xa
 4737 0417 01       		.uleb128 0x1
 4738 0418 50       		.byte	0x50
 4739 0419 01       		.uleb128 0x1
 4740 041a 30       		.byte	0x30
 4741 041b 00       		.byte	0
 4742 041c 00       		.byte	0
 4743 041d 0D       		.uleb128 0xd
 4744 041e DF090000 		.4byte	.LASF26
 4745 0422 01       		.byte	0x1
 4746 0423 2501     		.2byte	0x125
 4747 0425 00000000 		.4byte	.LFB72
 4748 0429 28000000 		.4byte	.LFE72-.LFB72
 4749 042d 01       		.uleb128 0x1
 4750 042e 9C       		.byte	0x9c
 4751 042f 7E040000 		.4byte	0x47e
 4752 0433 09       		.uleb128 0x9
 4753 0434 0E000000 		.4byte	.LVL63
 4754 0438 12210000 		.4byte	0x2112
 4755 043c 46040000 		.4byte	0x446
 4756 0440 0A       		.uleb128 0xa
 4757 0441 01       		.uleb128 0x1
 4758 0442 50       		.byte	0x50
 4759 0443 01       		.uleb128 0x1
 4760 0444 30       		.byte	0x30
 4761 0445 00       		.byte	0
 4762 0446 09       		.uleb128 0x9
 4763 0447 14000000 		.4byte	.LVL64
 4764 044b 1D210000 		.4byte	0x211d
 4765 044f 5A040000 		.4byte	0x45a
 4766 0453 0A       		.uleb128 0xa
 4767 0454 01       		.uleb128 0x1
ARM GAS  C:\Users\weiro\AppData\Local\Temp\ccSkAWeC.s 			page 108


 4768 0455 50       		.byte	0x50
 4769 0456 02       		.uleb128 0x2
 4770 0457 74       		.byte	0x74
 4771 0458 00       		.sleb128 0
 4772 0459 00       		.byte	0
 4773 045a 09       		.uleb128 0x9
 4774 045b 1A000000 		.4byte	.LVL65
 4775 045f 28210000 		.4byte	0x2128
 4776 0463 6E040000 		.4byte	0x46e
 4777 0467 0A       		.uleb128 0xa
 4778 0468 01       		.uleb128 0x1
 4779 0469 50       		.byte	0x50
 4780 046a 02       		.uleb128 0x2
 4781 046b 74       		.byte	0x74
 4782 046c 00       		.sleb128 0
 4783 046d 00       		.byte	0
 4784 046e 0B       		.uleb128 0xb
 4785 046f 20000000 		.4byte	.LVL66
 4786 0473 33210000 		.4byte	0x2133
 4787 0477 0A       		.uleb128 0xa
 4788 0478 01       		.uleb128 0x1
 4789 0479 50       		.byte	0x50
 4790 047a 01       		.uleb128 0x1
 4791 047b 30       		.byte	0x30
 4792 047c 00       		.byte	0
 4793 047d 00       		.byte	0
 4794 047e 0D       		.uleb128 0xd
 4795 047f 92060000 		.4byte	.LASF27
 4796 0483 01       		.byte	0x1
 4797 0484 2E01     		.2byte	0x12e
 4798 0486 00000000 		.4byte	.LFB73
 4799 048a 28000000 		.4byte	.LFE73-.LFB73
 4800 048e 01       		.uleb128 0x1
 4801 048f 9C       		.byte	0x9c
 4802 0490 DF040000 		.4byte	0x4df
 4803 0494 09       		.uleb128 0x9
 4804 0495 0E000000 		.4byte	.LVL67
 4805 0499 12210000 		.4byte	0x2112
 4806 049d A8040000 		.4byte	0x4a8
 4807 04a1 0A       		.uleb128 0xa
 4808 04a2 01       		.uleb128 0x1
 4809 04a3 50       		.byte	0x50
 4810 04a4 02       		.uleb128 0x2
 4811 04a5 74       		.byte	0x74
 4812 04a6 00       		.sleb128 0
 4813 04a7 00       		.byte	0
 4814 04a8 09       		.uleb128 0x9
 4815 04a9 14000000 		.4byte	.LVL68
 4816 04ad 1D210000 		.4byte	0x211d
 4817 04b1 BB040000 		.4byte	0x4bb
 4818 04b5 0A       		.uleb128 0xa
 4819 04b6 01       		.uleb128 0x1
 4820 04b7 50       		.byte	0x50
 4821 04b8 01       		.uleb128 0x1
 4822 04b9 30       		.byte	0x30
 4823 04ba 00       		.byte	0
 4824 04bb 09       		.uleb128 0x9
ARM GAS  C:\Users\weiro\AppData\Local\Temp\ccSkAWeC.s 			page 109


 4825 04bc 1A000000 		.4byte	.LVL69
 4826 04c0 28210000 		.4byte	0x2128
 4827 04c4 CE040000 		.4byte	0x4ce
 4828 04c8 0A       		.uleb128 0xa
 4829 04c9 01       		.uleb128 0x1
 4830 04ca 50       		.byte	0x50
 4831 04cb 01       		.uleb128 0x1
 4832 04cc 30       		.byte	0x30
 4833 04cd 00       		.byte	0
 4834 04ce 0B       		.uleb128 0xb
 4835 04cf 20000000 		.4byte	.LVL70
 4836 04d3 33210000 		.4byte	0x2133
 4837 04d7 0A       		.uleb128 0xa
 4838 04d8 01       		.uleb128 0x1
 4839 04d9 50       		.byte	0x50
 4840 04da 02       		.uleb128 0x2
 4841 04db 74       		.byte	0x74
 4842 04dc 00       		.sleb128 0
 4843 04dd 00       		.byte	0
 4844 04de 00       		.byte	0
 4845 04df 0D       		.uleb128 0xd
 4846 04e0 C0010000 		.4byte	.LASF28
 4847 04e4 01       		.byte	0x1
 4848 04e5 3701     		.2byte	0x137
 4849 04e7 00000000 		.4byte	.LFB74
 4850 04eb 1C000000 		.4byte	.LFE74-.LFB74
 4851 04ef 01       		.uleb128 0x1
 4852 04f0 9C       		.byte	0x9c
 4853 04f1 18050000 		.4byte	0x518
 4854 04f5 09       		.uleb128 0x9
 4855 04f6 08000000 		.4byte	.LVL71
 4856 04fa 3E210000 		.4byte	0x213e
 4857 04fe 08050000 		.4byte	0x508
 4858 0502 0A       		.uleb128 0xa
 4859 0503 01       		.uleb128 0x1
 4860 0504 50       		.byte	0x50
 4861 0505 01       		.uleb128 0x1
 4862 0506 30       		.byte	0x30
 4863 0507 00       		.byte	0
 4864 0508 0B       		.uleb128 0xb
 4865 0509 0E000000 		.4byte	.LVL72
 4866 050d 49210000 		.4byte	0x2149
 4867 0511 0A       		.uleb128 0xa
 4868 0512 01       		.uleb128 0x1
 4869 0513 50       		.byte	0x50
 4870 0514 01       		.uleb128 0x1
 4871 0515 30       		.byte	0x30
 4872 0516 00       		.byte	0
 4873 0517 00       		.byte	0
 4874 0518 0E       		.uleb128 0xe
 4875 0519 97050000 		.4byte	.LASF29
 4876 051d 01       		.byte	0x1
 4877 051e 3F01     		.2byte	0x13f
 4878 0520 00000000 		.4byte	.LFB75
 4879 0524 14010000 		.4byte	.LFE75-.LFB75
 4880 0528 01       		.uleb128 0x1
 4881 0529 9C       		.byte	0x9c
ARM GAS  C:\Users\weiro\AppData\Local\Temp\ccSkAWeC.s 			page 110


 4882 052a C7050000 		.4byte	0x5c7
 4883 052e 0F       		.uleb128 0xf
 4884 052f 15060000 		.4byte	.LASF30
 4885 0533 01       		.byte	0x1
 4886 0534 3F01     		.2byte	0x13f
 4887 0536 6F000000 		.4byte	0x6f
 4888 053a 00000000 		.4byte	.LLST0
 4889 053e 0F       		.uleb128 0xf
 4890 053f 09080000 		.4byte	.LASF31
 4891 0543 01       		.byte	0x1
 4892 0544 3F01     		.2byte	0x13f
 4893 0546 6F000000 		.4byte	0x6f
 4894 054a 21000000 		.4byte	.LLST1
 4895 054e 10       		.uleb128 0x10
 4896 054f FC090000 		.4byte	.LASF32
 4897 0553 01       		.byte	0x1
 4898 0554 4101     		.2byte	0x141
 4899 0556 25000000 		.4byte	0x25
 4900 055a 4D000000 		.4byte	.LLST2
 4901 055e 10       		.uleb128 0x10
 4902 055f 77070000 		.4byte	.LASF33
 4903 0563 01       		.byte	0x1
 4904 0564 4101     		.2byte	0x141
 4905 0566 25000000 		.4byte	0x25
 4906 056a 95000000 		.4byte	.LLST3
 4907 056e 10       		.uleb128 0x10
 4908 056f 69040000 		.4byte	.LASF34
 4909 0573 01       		.byte	0x1
 4910 0574 4201     		.2byte	0x142
 4911 0576 6F000000 		.4byte	0x6f
 4912 057a DD000000 		.4byte	.LLST4
 4913 057e 08       		.uleb128 0x8
 4914 057f 1E000000 		.4byte	.LVL79
 4915 0583 54210000 		.4byte	0x2154
 4916 0587 08       		.uleb128 0x8
 4917 0588 26000000 		.4byte	.LVL80
 4918 058c 5F210000 		.4byte	0x215f
 4919 0590 08       		.uleb128 0x8
 4920 0591 30000000 		.4byte	.LVL81
 4921 0595 5B030000 		.4byte	0x35b
 4922 0599 08       		.uleb128 0x8
 4923 059a 36000000 		.4byte	.LVL82
 4924 059e BC030000 		.4byte	0x3bc
 4925 05a2 08       		.uleb128 0x8
 4926 05a3 56000000 		.4byte	.LVL83
 4927 05a7 F8020000 		.4byte	0x2f8
 4928 05ab 08       		.uleb128 0x8
 4929 05ac 5A000000 		.4byte	.LVL84
 4930 05b0 54210000 		.4byte	0x2154
 4931 05b4 08       		.uleb128 0x8
 4932 05b5 60000000 		.4byte	.LVL85
 4933 05b9 5F210000 		.4byte	0x215f
 4934 05bd 08       		.uleb128 0x8
 4935 05be F4000000 		.4byte	.LVL104
 4936 05c2 DF040000 		.4byte	0x4df
 4937 05c6 00       		.byte	0
 4938 05c7 11       		.uleb128 0x11
ARM GAS  C:\Users\weiro\AppData\Local\Temp\ccSkAWeC.s 			page 111


 4939 05c8 03050000 		.4byte	.LASF35
 4940 05cc 01       		.byte	0x1
 4941 05cd 6901     		.2byte	0x169
 4942 05cf 00000000 		.4byte	.LFB76
 4943 05d3 00010000 		.4byte	.LFE76-.LFB76
 4944 05d7 01       		.uleb128 0x1
 4945 05d8 9C       		.byte	0x9c
 4946 05d9 AA060000 		.4byte	0x6aa
 4947 05dd 10       		.uleb128 0x10
 4948 05de FC090000 		.4byte	.LASF32
 4949 05e2 01       		.byte	0x1
 4950 05e3 6B01     		.2byte	0x16b
 4951 05e5 25000000 		.4byte	0x25
 4952 05e9 FB000000 		.4byte	.LLST5
 4953 05ed 10       		.uleb128 0x10
 4954 05ee 77070000 		.4byte	.LASF33
 4955 05f2 01       		.byte	0x1
 4956 05f3 6B01     		.2byte	0x16b
 4957 05f5 25000000 		.4byte	0x25
 4958 05f9 43010000 		.4byte	.LLST6
 4959 05fd 08       		.uleb128 0x8
 4960 05fe 08000000 		.4byte	.LVL106
 4961 0602 5B030000 		.4byte	0x35b
 4962 0606 09       		.uleb128 0x9
 4963 0607 0E000000 		.4byte	.LVL107
 4964 060b FC200000 		.4byte	0x20fc
 4965 060f 1A060000 		.4byte	0x61a
 4966 0613 0A       		.uleb128 0xa
 4967 0614 01       		.uleb128 0x1
 4968 0615 50       		.byte	0x50
 4969 0616 02       		.uleb128 0x2
 4970 0617 08       		.byte	0x8
 4971 0618 32       		.byte	0x32
 4972 0619 00       		.byte	0
 4973 061a 09       		.uleb128 0x9
 4974 061b 1C000000 		.4byte	.LVL108
 4975 061f 6A210000 		.4byte	0x216a
 4976 0623 2E060000 		.4byte	0x62e
 4977 0627 0A       		.uleb128 0xa
 4978 0628 01       		.uleb128 0x1
 4979 0629 50       		.byte	0x50
 4980 062a 02       		.uleb128 0x2
 4981 062b 74       		.byte	0x74
 4982 062c 00       		.sleb128 0
 4983 062d 00       		.byte	0
 4984 062e 09       		.uleb128 0x9
 4985 062f 22000000 		.4byte	.LVL109
 4986 0633 FC200000 		.4byte	0x20fc
 4987 0637 42060000 		.4byte	0x642
 4988 063b 0A       		.uleb128 0xa
 4989 063c 01       		.uleb128 0x1
 4990 063d 50       		.byte	0x50
 4991 063e 02       		.uleb128 0x2
 4992 063f 08       		.byte	0x8
 4993 0640 32       		.byte	0x32
 4994 0641 00       		.byte	0
 4995 0642 09       		.uleb128 0x9
ARM GAS  C:\Users\weiro\AppData\Local\Temp\ccSkAWeC.s 			page 112


 4996 0643 28000000 		.4byte	.LVL110
 4997 0647 75210000 		.4byte	0x2175
 4998 064b 55060000 		.4byte	0x655
 4999 064f 0A       		.uleb128 0xa
 5000 0650 01       		.uleb128 0x1
 5001 0651 50       		.byte	0x50
 5002 0652 01       		.uleb128 0x1
 5003 0653 31       		.byte	0x31
 5004 0654 00       		.byte	0
 5005 0655 09       		.uleb128 0x9
 5006 0656 2E000000 		.4byte	.LVL111
 5007 065a 80210000 		.4byte	0x2180
 5008 065e 68060000 		.4byte	0x668
 5009 0662 0A       		.uleb128 0xa
 5010 0663 01       		.uleb128 0x1
 5011 0664 50       		.byte	0x50
 5012 0665 01       		.uleb128 0x1
 5013 0666 3A       		.byte	0x3a
 5014 0667 00       		.byte	0
 5015 0668 09       		.uleb128 0x9
 5016 0669 34000000 		.4byte	.LVL112
 5017 066d 75210000 		.4byte	0x2175
 5018 0671 7C060000 		.4byte	0x67c
 5019 0675 0A       		.uleb128 0xa
 5020 0676 01       		.uleb128 0x1
 5021 0677 50       		.byte	0x50
 5022 0678 02       		.uleb128 0x2
 5023 0679 74       		.byte	0x74
 5024 067a 00       		.sleb128 0
 5025 067b 00       		.byte	0
 5026 067c 08       		.uleb128 0x8
 5027 067d 38000000 		.4byte	.LVL113
 5028 0681 8B210000 		.4byte	0x218b
 5029 0685 08       		.uleb128 0x8
 5030 0686 48000000 		.4byte	.LVL114
 5031 068a F8020000 		.4byte	0x2f8
 5032 068e 08       		.uleb128 0x8
 5033 068f 4C000000 		.4byte	.LVL115
 5034 0693 54210000 		.4byte	0x2154
 5035 0697 08       		.uleb128 0x8
 5036 0698 52000000 		.4byte	.LVL116
 5037 069c 5F210000 		.4byte	0x215f
 5038 06a0 08       		.uleb128 0x8
 5039 06a1 E6000000 		.4byte	.LVL135
 5040 06a5 DF040000 		.4byte	0x4df
 5041 06a9 00       		.byte	0
 5042 06aa 11       		.uleb128 0x11
 5043 06ab 06030000 		.4byte	.LASF36
 5044 06af 01       		.byte	0x1
 5045 06b0 9301     		.2byte	0x193
 5046 06b2 00000000 		.4byte	.LFB77
 5047 06b6 30010000 		.4byte	.LFE77-.LFB77
 5048 06ba 01       		.uleb128 0x1
 5049 06bb 9C       		.byte	0x9c
 5050 06bc B4070000 		.4byte	0x7b4
 5051 06c0 10       		.uleb128 0x10
 5052 06c1 FC090000 		.4byte	.LASF32
ARM GAS  C:\Users\weiro\AppData\Local\Temp\ccSkAWeC.s 			page 113


 5053 06c5 01       		.byte	0x1
 5054 06c6 9501     		.2byte	0x195
 5055 06c8 25000000 		.4byte	0x25
 5056 06cc 8B010000 		.4byte	.LLST7
 5057 06d0 10       		.uleb128 0x10
 5058 06d1 77070000 		.4byte	.LASF33
 5059 06d5 01       		.byte	0x1
 5060 06d6 9501     		.2byte	0x195
 5061 06d8 25000000 		.4byte	0x25
 5062 06dc D3010000 		.4byte	.LLST8
 5063 06e0 09       		.uleb128 0x9
 5064 06e1 0A000000 		.4byte	.LVL136
 5065 06e5 FC200000 		.4byte	0x20fc
 5066 06e9 F5060000 		.4byte	0x6f5
 5067 06ed 0A       		.uleb128 0xa
 5068 06ee 01       		.uleb128 0x1
 5069 06ef 50       		.byte	0x50
 5070 06f0 03       		.uleb128 0x3
 5071 06f1 0A       		.byte	0xa
 5072 06f2 F401     		.2byte	0x1f4
 5073 06f4 00       		.byte	0
 5074 06f5 08       		.uleb128 0x8
 5075 06f6 10000000 		.4byte	.LVL137
 5076 06fa 5B030000 		.4byte	0x35b
 5077 06fe 09       		.uleb128 0x9
 5078 06ff 2A000000 		.4byte	.LVL138
 5079 0703 AF200000 		.4byte	0x20af
 5080 0707 12070000 		.4byte	0x712
 5081 070b 0A       		.uleb128 0xa
 5082 070c 01       		.uleb128 0x1
 5083 070d 50       		.byte	0x50
 5084 070e 02       		.uleb128 0x2
 5085 070f 74       		.byte	0x74
 5086 0710 00       		.sleb128 0
 5087 0711 00       		.byte	0
 5088 0712 09       		.uleb128 0x9
 5089 0713 30000000 		.4byte	.LVL139
 5090 0717 FC200000 		.4byte	0x20fc
 5091 071b 26070000 		.4byte	0x726
 5092 071f 0A       		.uleb128 0xa
 5093 0720 01       		.uleb128 0x1
 5094 0721 50       		.byte	0x50
 5095 0722 02       		.uleb128 0x2
 5096 0723 08       		.byte	0x8
 5097 0724 64       		.byte	0x64
 5098 0725 00       		.byte	0
 5099 0726 09       		.uleb128 0x9
 5100 0727 3C000000 		.4byte	.LVL140
 5101 072b 6A210000 		.4byte	0x216a
 5102 072f 39070000 		.4byte	0x739
 5103 0733 0A       		.uleb128 0xa
 5104 0734 01       		.uleb128 0x1
 5105 0735 50       		.byte	0x50
 5106 0736 01       		.uleb128 0x1
 5107 0737 32       		.byte	0x32
 5108 0738 00       		.byte	0
 5109 0739 09       		.uleb128 0x9
ARM GAS  C:\Users\weiro\AppData\Local\Temp\ccSkAWeC.s 			page 114


 5110 073a 42000000 		.4byte	.LVL141
 5111 073e FC200000 		.4byte	0x20fc
 5112 0742 4D070000 		.4byte	0x74d
 5113 0746 0A       		.uleb128 0xa
 5114 0747 01       		.uleb128 0x1
 5115 0748 50       		.byte	0x50
 5116 0749 02       		.uleb128 0x2
 5117 074a 08       		.byte	0x8
 5118 074b 32       		.byte	0x32
 5119 074c 00       		.byte	0
 5120 074d 09       		.uleb128 0x9
 5121 074e 48000000 		.4byte	.LVL142
 5122 0752 75210000 		.4byte	0x2175
 5123 0756 60070000 		.4byte	0x760
 5124 075a 0A       		.uleb128 0xa
 5125 075b 01       		.uleb128 0x1
 5126 075c 50       		.byte	0x50
 5127 075d 01       		.uleb128 0x1
 5128 075e 31       		.byte	0x31
 5129 075f 00       		.byte	0
 5130 0760 09       		.uleb128 0x9
 5131 0761 4E000000 		.4byte	.LVL143
 5132 0765 80210000 		.4byte	0x2180
 5133 0769 73070000 		.4byte	0x773
 5134 076d 0A       		.uleb128 0xa
 5135 076e 01       		.uleb128 0x1
 5136 076f 50       		.byte	0x50
 5137 0770 01       		.uleb128 0x1
 5138 0771 3A       		.byte	0x3a
 5139 0772 00       		.byte	0
 5140 0773 09       		.uleb128 0x9
 5141 0774 54000000 		.4byte	.LVL144
 5142 0778 75210000 		.4byte	0x2175
 5143 077c 86070000 		.4byte	0x786
 5144 0780 0A       		.uleb128 0xa
 5145 0781 01       		.uleb128 0x1
 5146 0782 50       		.byte	0x50
 5147 0783 01       		.uleb128 0x1
 5148 0784 30       		.byte	0x30
 5149 0785 00       		.byte	0
 5150 0786 08       		.uleb128 0x8
 5151 0787 58000000 		.4byte	.LVL145
 5152 078b 96210000 		.4byte	0x2196
 5153 078f 08       		.uleb128 0x8
 5154 0790 6A000000 		.4byte	.LVL146
 5155 0794 F8020000 		.4byte	0x2f8
 5156 0798 08       		.uleb128 0x8
 5157 0799 6E000000 		.4byte	.LVL147
 5158 079d 54210000 		.4byte	0x2154
 5159 07a1 08       		.uleb128 0x8
 5160 07a2 74000000 		.4byte	.LVL148
 5161 07a6 5F210000 		.4byte	0x215f
 5162 07aa 08       		.uleb128 0x8
 5163 07ab 08010000 		.4byte	.LVL167
 5164 07af DF040000 		.4byte	0x4df
 5165 07b3 00       		.byte	0
 5166 07b4 11       		.uleb128 0x11
ARM GAS  C:\Users\weiro\AppData\Local\Temp\ccSkAWeC.s 			page 115


 5167 07b5 FF070000 		.4byte	.LASF37
 5168 07b9 01       		.byte	0x1
 5169 07ba C001     		.2byte	0x1c0
 5170 07bc 00000000 		.4byte	.LFB78
 5171 07c0 D8000000 		.4byte	.LFE78-.LFB78
 5172 07c4 01       		.uleb128 0x1
 5173 07c5 9C       		.byte	0x9c
 5174 07c6 36080000 		.4byte	0x836
 5175 07ca 10       		.uleb128 0x10
 5176 07cb FC090000 		.4byte	.LASF32
 5177 07cf 01       		.byte	0x1
 5178 07d0 C201     		.2byte	0x1c2
 5179 07d2 25000000 		.4byte	0x25
 5180 07d6 1B020000 		.4byte	.LLST9
 5181 07da 10       		.uleb128 0x10
 5182 07db 77070000 		.4byte	.LASF33
 5183 07df 01       		.byte	0x1
 5184 07e0 C201     		.2byte	0x1c2
 5185 07e2 25000000 		.4byte	0x25
 5186 07e6 63020000 		.4byte	.LLST10
 5187 07ea 08       		.uleb128 0x8
 5188 07eb 08000000 		.4byte	.LVL168
 5189 07ef 5B030000 		.4byte	0x35b
 5190 07f3 08       		.uleb128 0x8
 5191 07f4 0C000000 		.4byte	.LVL169
 5192 07f8 A1210000 		.4byte	0x21a1
 5193 07fc 08       		.uleb128 0x8
 5194 07fd 14000000 		.4byte	.LVL170
 5195 0801 F8020000 		.4byte	0x2f8
 5196 0805 09       		.uleb128 0x9
 5197 0806 1C000000 		.4byte	.LVL171
 5198 080a FC200000 		.4byte	0x20fc
 5199 080e 1A080000 		.4byte	0x81a
 5200 0812 0A       		.uleb128 0xa
 5201 0813 01       		.uleb128 0x1
 5202 0814 50       		.byte	0x50
 5203 0815 03       		.uleb128 0x3
 5204 0816 0A       		.byte	0xa
 5205 0817 F401     		.2byte	0x1f4
 5206 0819 00       		.byte	0
 5207 081a 08       		.uleb128 0x8
 5208 081b 20000000 		.4byte	.LVL172
 5209 081f 54210000 		.4byte	0x2154
 5210 0823 08       		.uleb128 0x8
 5211 0824 26000000 		.4byte	.LVL173
 5212 0828 5F210000 		.4byte	0x215f
 5213 082c 08       		.uleb128 0x8
 5214 082d BA000000 		.4byte	.LVL192
 5215 0831 DF040000 		.4byte	0x4df
 5216 0835 00       		.byte	0
 5217 0836 11       		.uleb128 0x11
 5218 0837 D1070000 		.4byte	.LASF38
 5219 083b 01       		.byte	0x1
 5220 083c E201     		.2byte	0x1e2
 5221 083e 00000000 		.4byte	.LFB79
 5222 0842 A8000000 		.4byte	.LFE79-.LFB79
 5223 0846 01       		.uleb128 0x1
ARM GAS  C:\Users\weiro\AppData\Local\Temp\ccSkAWeC.s 			page 116


 5224 0847 9C       		.byte	0x9c
 5225 0848 E7080000 		.4byte	0x8e7
 5226 084c 12       		.uleb128 0x12
 5227 084d 04040000 		.4byte	.LASF39
 5228 0851 01       		.byte	0x1
 5229 0852 E501     		.2byte	0x1e5
 5230 0854 6F000000 		.4byte	0x6f
 5231 0858 05       		.byte	0x5
 5232 0859 10       		.uleb128 0x10
 5233 085a F7040000 		.4byte	.LASF40
 5234 085e 01       		.byte	0x1
 5235 085f E601     		.2byte	0x1e6
 5236 0861 6F000000 		.4byte	0x6f
 5237 0865 AB020000 		.4byte	.LLST11
 5238 0869 13       		.uleb128 0x13
 5239 086a 00000000 		.4byte	.Ldebug_ranges0+0
 5240 086e AE080000 		.4byte	0x8ae
 5241 0872 10       		.uleb128 0x10
 5242 0873 11080000 		.4byte	.LASF41
 5243 0877 01       		.byte	0x1
 5244 0878 FE01     		.2byte	0x1fe
 5245 087a 6F000000 		.4byte	0x6f
 5246 087e 08030000 		.4byte	.LLST12
 5247 0882 08       		.uleb128 0x8
 5248 0883 64000000 		.4byte	.LVL205
 5249 0887 F8020000 		.4byte	0x2f8
 5250 088b 08       		.uleb128 0x8
 5251 088c 8E000000 		.4byte	.LVL213
 5252 0890 1D040000 		.4byte	0x41d
 5253 0894 08       		.uleb128 0x8
 5254 0895 94000000 		.4byte	.LVL215
 5255 0899 7E040000 		.4byte	0x47e
 5256 089d 0B       		.uleb128 0xb
 5257 089e 9A000000 		.4byte	.LVL216
 5258 08a2 FC200000 		.4byte	0x20fc
 5259 08a6 0A       		.uleb128 0xa
 5260 08a7 01       		.uleb128 0x1
 5261 08a8 50       		.byte	0x50
 5262 08a9 02       		.uleb128 0x2
 5263 08aa 08       		.byte	0x8
 5264 08ab 32       		.byte	0x32
 5265 08ac 00       		.byte	0
 5266 08ad 00       		.byte	0
 5267 08ae 08       		.uleb128 0x8
 5268 08af 10000000 		.4byte	.LVL195
 5269 08b3 AC210000 		.4byte	0x21ac
 5270 08b7 08       		.uleb128 0x8
 5271 08b8 1C000000 		.4byte	.LVL197
 5272 08bc 83200000 		.4byte	0x2083
 5273 08c0 09       		.uleb128 0x9
 5274 08c1 6A000000 		.4byte	.LVL206
 5275 08c5 FC200000 		.4byte	0x20fc
 5276 08c9 D4080000 		.4byte	0x8d4
 5277 08cd 0A       		.uleb128 0xa
 5278 08ce 01       		.uleb128 0x1
 5279 08cf 50       		.byte	0x50
 5280 08d0 02       		.uleb128 0x2
ARM GAS  C:\Users\weiro\AppData\Local\Temp\ccSkAWeC.s 			page 117


 5281 08d1 08       		.byte	0x8
 5282 08d2 C8       		.byte	0xc8
 5283 08d3 00       		.byte	0
 5284 08d4 08       		.uleb128 0x8
 5285 08d5 78000000 		.4byte	.LVL209
 5286 08d9 AC210000 		.4byte	0x21ac
 5287 08dd 08       		.uleb128 0x8
 5288 08de 84000000 		.4byte	.LVL211
 5289 08e2 83200000 		.4byte	0x2083
 5290 08e6 00       		.byte	0
 5291 08e7 11       		.uleb128 0x11
 5292 08e8 DC070000 		.4byte	.LASF42
 5293 08ec 01       		.byte	0x1
 5294 08ed 1402     		.2byte	0x214
 5295 08ef 00000000 		.4byte	.LFB80
 5296 08f3 A8000000 		.4byte	.LFE80-.LFB80
 5297 08f7 01       		.uleb128 0x1
 5298 08f8 9C       		.byte	0x9c
 5299 08f9 98090000 		.4byte	0x998
 5300 08fd 12       		.uleb128 0x12
 5301 08fe 04040000 		.4byte	.LASF39
 5302 0902 01       		.byte	0x1
 5303 0903 1702     		.2byte	0x217
 5304 0905 6F000000 		.4byte	0x6f
 5305 0909 01       		.byte	0x1
 5306 090a 10       		.uleb128 0x10
 5307 090b F7040000 		.4byte	.LASF40
 5308 090f 01       		.byte	0x1
 5309 0910 1802     		.2byte	0x218
 5310 0912 6F000000 		.4byte	0x6f
 5311 0916 31030000 		.4byte	.LLST13
 5312 091a 13       		.uleb128 0x13
 5313 091b 18000000 		.4byte	.Ldebug_ranges0+0x18
 5314 091f 5F090000 		.4byte	0x95f
 5315 0923 10       		.uleb128 0x10
 5316 0924 11080000 		.4byte	.LASF41
 5317 0928 01       		.byte	0x1
 5318 0929 3002     		.2byte	0x230
 5319 092b 6F000000 		.4byte	0x6f
 5320 092f 8E030000 		.4byte	.LLST14
 5321 0933 08       		.uleb128 0x8
 5322 0934 64000000 		.4byte	.LVL230
 5323 0938 F8020000 		.4byte	0x2f8
 5324 093c 08       		.uleb128 0x8
 5325 093d 8E000000 		.4byte	.LVL238
 5326 0941 1D040000 		.4byte	0x41d
 5327 0945 08       		.uleb128 0x8
 5328 0946 94000000 		.4byte	.LVL240
 5329 094a 7E040000 		.4byte	0x47e
 5330 094e 0B       		.uleb128 0xb
 5331 094f 9A000000 		.4byte	.LVL241
 5332 0953 FC200000 		.4byte	0x20fc
 5333 0957 0A       		.uleb128 0xa
 5334 0958 01       		.uleb128 0x1
 5335 0959 50       		.byte	0x50
 5336 095a 02       		.uleb128 0x2
 5337 095b 08       		.byte	0x8
ARM GAS  C:\Users\weiro\AppData\Local\Temp\ccSkAWeC.s 			page 118


 5338 095c 32       		.byte	0x32
 5339 095d 00       		.byte	0
 5340 095e 00       		.byte	0
 5341 095f 08       		.uleb128 0x8
 5342 0960 10000000 		.4byte	.LVL220
 5343 0964 AC210000 		.4byte	0x21ac
 5344 0968 08       		.uleb128 0x8
 5345 0969 1C000000 		.4byte	.LVL222
 5346 096d 83200000 		.4byte	0x2083
 5347 0971 09       		.uleb128 0x9
 5348 0972 6A000000 		.4byte	.LVL231
 5349 0976 FC200000 		.4byte	0x20fc
 5350 097a 85090000 		.4byte	0x985
 5351 097e 0A       		.uleb128 0xa
 5352 097f 01       		.uleb128 0x1
 5353 0980 50       		.byte	0x50
 5354 0981 02       		.uleb128 0x2
 5355 0982 08       		.byte	0x8
 5356 0983 C8       		.byte	0xc8
 5357 0984 00       		.byte	0
 5358 0985 08       		.uleb128 0x8
 5359 0986 78000000 		.4byte	.LVL234
 5360 098a AC210000 		.4byte	0x21ac
 5361 098e 08       		.uleb128 0x8
 5362 098f 84000000 		.4byte	.LVL236
 5363 0993 83200000 		.4byte	0x2083
 5364 0997 00       		.byte	0
 5365 0998 14       		.uleb128 0x14
 5366 0999 435700   		.ascii	"CW\000"
 5367 099c 01       		.byte	0x1
 5368 099d 4702     		.2byte	0x247
 5369 099f 00000000 		.4byte	.LFB81
 5370 09a3 A0000000 		.4byte	.LFE81-.LFB81
 5371 09a7 01       		.uleb128 0x1
 5372 09a8 9C       		.byte	0x9c
 5373 09a9 3F0A0000 		.4byte	0xa3f
 5374 09ad 0F       		.uleb128 0xf
 5375 09ae 77020000 		.4byte	.LASF43
 5376 09b2 01       		.byte	0x1
 5377 09b3 4702     		.2byte	0x247
 5378 09b5 6F000000 		.4byte	0x6f
 5379 09b9 B7030000 		.4byte	.LLST15
 5380 09bd 0F       		.uleb128 0xf
 5381 09be F0050000 		.4byte	.LASF44
 5382 09c2 01       		.byte	0x1
 5383 09c3 4702     		.2byte	0x247
 5384 09c5 6F000000 		.4byte	0x6f
 5385 09c9 E3030000 		.4byte	.LLST16
 5386 09cd 08       		.uleb128 0x8
 5387 09ce 0C000000 		.4byte	.LVL245
 5388 09d2 54210000 		.4byte	0x2154
 5389 09d6 08       		.uleb128 0x8
 5390 09d7 14000000 		.4byte	.LVL246
 5391 09db 5F210000 		.4byte	0x215f
 5392 09df 08       		.uleb128 0x8
 5393 09e0 1E000000 		.4byte	.LVL247
 5394 09e4 7E040000 		.4byte	0x47e
ARM GAS  C:\Users\weiro\AppData\Local\Temp\ccSkAWeC.s 			page 119


 5395 09e8 08       		.uleb128 0x8
 5396 09e9 24000000 		.4byte	.LVL248
 5397 09ed 1D040000 		.4byte	0x41d
 5398 09f1 08       		.uleb128 0x8
 5399 09f2 44000000 		.4byte	.LVL249
 5400 09f6 F8020000 		.4byte	0x2f8
 5401 09fa 09       		.uleb128 0x9
 5402 09fb 86000000 		.4byte	.LVL250
 5403 09ff FC200000 		.4byte	0x20fc
 5404 0a03 0E0A0000 		.4byte	0xa0e
 5405 0a07 0A       		.uleb128 0xa
 5406 0a08 01       		.uleb128 0x1
 5407 0a09 50       		.byte	0x50
 5408 0a0a 02       		.uleb128 0x2
 5409 0a0b 08       		.byte	0x8
 5410 0a0c 32       		.byte	0x32
 5411 0a0d 00       		.byte	0
 5412 0a0e 08       		.uleb128 0x8
 5413 0a0f 8A000000 		.4byte	.LVL251
 5414 0a13 36080000 		.4byte	0x836
 5415 0a17 09       		.uleb128 0x9
 5416 0a18 92000000 		.4byte	.LVL252
 5417 0a1c FC200000 		.4byte	0x20fc
 5418 0a20 2C0A0000 		.4byte	0xa2c
 5419 0a24 0A       		.uleb128 0xa
 5420 0a25 01       		.uleb128 0x1
 5421 0a26 50       		.byte	0x50
 5422 0a27 03       		.uleb128 0x3
 5423 0a28 0A       		.byte	0xa
 5424 0a29 F401     		.2byte	0x1f4
 5425 0a2b 00       		.byte	0
 5426 0a2c 08       		.uleb128 0x8
 5427 0a2d 96000000 		.4byte	.LVL253
 5428 0a31 E7080000 		.4byte	0x8e7
 5429 0a35 08       		.uleb128 0x8
 5430 0a36 9A000000 		.4byte	.LVL254
 5431 0a3a DF040000 		.4byte	0x4df
 5432 0a3e 00       		.byte	0
 5433 0a3f 0D       		.uleb128 0xd
 5434 0a40 79080000 		.4byte	.LASF45
 5435 0a44 01       		.byte	0x1
 5436 0a45 7402     		.2byte	0x274
 5437 0a47 00000000 		.4byte	.LFB82
 5438 0a4b D0010000 		.4byte	.LFE82-.LFB82
 5439 0a4f 01       		.uleb128 0x1
 5440 0a50 9C       		.byte	0x9c
 5441 0a51 C70D0000 		.4byte	0xdc7
 5442 0a55 10       		.uleb128 0x10
 5443 0a56 9E010000 		.4byte	.LASF46
 5444 0a5a 01       		.byte	0x1
 5445 0a5b 7602     		.2byte	0x276
 5446 0a5d 6F000000 		.4byte	0x6f
 5447 0a61 0F040000 		.4byte	.LLST17
 5448 0a65 09       		.uleb128 0x9
 5449 0a66 08000000 		.4byte	.LVL257
 5450 0a6a B7210000 		.4byte	0x21b7
 5451 0a6e 780A0000 		.4byte	0xa78
ARM GAS  C:\Users\weiro\AppData\Local\Temp\ccSkAWeC.s 			page 120


 5452 0a72 0A       		.uleb128 0xa
 5453 0a73 01       		.uleb128 0x1
 5454 0a74 50       		.byte	0x50
 5455 0a75 01       		.uleb128 0x1
 5456 0a76 31       		.byte	0x31
 5457 0a77 00       		.byte	0
 5458 0a78 09       		.uleb128 0x9
 5459 0a79 0E000000 		.4byte	.LVL258
 5460 0a7d C2210000 		.4byte	0x21c2
 5461 0a81 8B0A0000 		.4byte	0xa8b
 5462 0a85 0A       		.uleb128 0xa
 5463 0a86 01       		.uleb128 0x1
 5464 0a87 50       		.byte	0x50
 5465 0a88 01       		.uleb128 0x1
 5466 0a89 31       		.byte	0x31
 5467 0a8a 00       		.byte	0
 5468 0a8b 09       		.uleb128 0x9
 5469 0a8c 14000000 		.4byte	.LVL259
 5470 0a90 CD210000 		.4byte	0x21cd
 5471 0a94 9E0A0000 		.4byte	0xa9e
 5472 0a98 0A       		.uleb128 0xa
 5473 0a99 01       		.uleb128 0x1
 5474 0a9a 50       		.byte	0x50
 5475 0a9b 01       		.uleb128 0x1
 5476 0a9c 31       		.byte	0x31
 5477 0a9d 00       		.byte	0
 5478 0a9e 09       		.uleb128 0x9
 5479 0a9f 1A000000 		.4byte	.LVL260
 5480 0aa3 FC200000 		.4byte	0x20fc
 5481 0aa7 B10A0000 		.4byte	0xab1
 5482 0aab 0A       		.uleb128 0xa
 5483 0aac 01       		.uleb128 0x1
 5484 0aad 50       		.byte	0x50
 5485 0aae 01       		.uleb128 0x1
 5486 0aaf 3A       		.byte	0x3a
 5487 0ab0 00       		.byte	0
 5488 0ab1 08       		.uleb128 0x8
 5489 0ab2 1E000000 		.4byte	.LVL261
 5490 0ab6 D8210000 		.4byte	0x21d8
 5491 0aba 09       		.uleb128 0x9
 5492 0abb 2A000000 		.4byte	.LVL262
 5493 0abf E3210000 		.4byte	0x21e3
 5494 0ac3 CE0A0000 		.4byte	0xace
 5495 0ac7 0A       		.uleb128 0xa
 5496 0ac8 01       		.uleb128 0x1
 5497 0ac9 50       		.byte	0x50
 5498 0aca 02       		.uleb128 0x2
 5499 0acb 74       		.byte	0x74
 5500 0acc 00       		.sleb128 0
 5501 0acd 00       		.byte	0
 5502 0ace 09       		.uleb128 0x9
 5503 0acf 30000000 		.4byte	.LVL263
 5504 0ad3 EE210000 		.4byte	0x21ee
 5505 0ad7 E20A0000 		.4byte	0xae2
 5506 0adb 0A       		.uleb128 0xa
 5507 0adc 01       		.uleb128 0x1
 5508 0add 50       		.byte	0x50
ARM GAS  C:\Users\weiro\AppData\Local\Temp\ccSkAWeC.s 			page 121


 5509 0ade 02       		.uleb128 0x2
 5510 0adf 74       		.byte	0x74
 5511 0ae0 00       		.sleb128 0
 5512 0ae1 00       		.byte	0
 5513 0ae2 09       		.uleb128 0x9
 5514 0ae3 36000000 		.4byte	.LVL264
 5515 0ae7 FC200000 		.4byte	0x20fc
 5516 0aeb F50A0000 		.4byte	0xaf5
 5517 0aef 0A       		.uleb128 0xa
 5518 0af0 01       		.uleb128 0x1
 5519 0af1 50       		.byte	0x50
 5520 0af2 01       		.uleb128 0x1
 5521 0af3 44       		.byte	0x44
 5522 0af4 00       		.byte	0
 5523 0af5 09       		.uleb128 0x9
 5524 0af6 3C000000 		.4byte	.LVL265
 5525 0afa F9210000 		.4byte	0x21f9
 5526 0afe 080B0000 		.4byte	0xb08
 5527 0b02 0A       		.uleb128 0xa
 5528 0b03 01       		.uleb128 0x1
 5529 0b04 50       		.byte	0x50
 5530 0b05 01       		.uleb128 0x1
 5531 0b06 31       		.byte	0x31
 5532 0b07 00       		.byte	0
 5533 0b08 09       		.uleb128 0x9
 5534 0b09 42000000 		.4byte	.LVL266
 5535 0b0d FC200000 		.4byte	0x20fc
 5536 0b11 1B0B0000 		.4byte	0xb1b
 5537 0b15 0A       		.uleb128 0xa
 5538 0b16 01       		.uleb128 0x1
 5539 0b17 50       		.byte	0x50
 5540 0b18 01       		.uleb128 0x1
 5541 0b19 31       		.byte	0x31
 5542 0b1a 00       		.byte	0
 5543 0b1b 09       		.uleb128 0x9
 5544 0b1c 48000000 		.4byte	.LVL267
 5545 0b20 F9210000 		.4byte	0x21f9
 5546 0b24 2F0B0000 		.4byte	0xb2f
 5547 0b28 0A       		.uleb128 0xa
 5548 0b29 01       		.uleb128 0x1
 5549 0b2a 50       		.byte	0x50
 5550 0b2b 02       		.uleb128 0x2
 5551 0b2c 74       		.byte	0x74
 5552 0b2d 00       		.sleb128 0
 5553 0b2e 00       		.byte	0
 5554 0b2f 08       		.uleb128 0x8
 5555 0b30 54000000 		.4byte	.LVL268
 5556 0b34 04220000 		.4byte	0x2204
 5557 0b38 09       		.uleb128 0x9
 5558 0b39 66000000 		.4byte	.LVL269
 5559 0b3d A4200000 		.4byte	0x20a4
 5560 0b41 550B0000 		.4byte	0xb55
 5561 0b45 0A       		.uleb128 0xa
 5562 0b46 01       		.uleb128 0x1
 5563 0b47 50       		.byte	0x50
 5564 0b48 02       		.uleb128 0x2
 5565 0b49 74       		.byte	0x74
ARM GAS  C:\Users\weiro\AppData\Local\Temp\ccSkAWeC.s 			page 122


 5566 0b4a 00       		.sleb128 0
 5567 0b4b 0A       		.uleb128 0xa
 5568 0b4c 01       		.uleb128 0x1
 5569 0b4d 51       		.byte	0x51
 5570 0b4e 05       		.uleb128 0x5
 5571 0b4f 03       		.byte	0x3
 5572 0b50 48000000 		.4byte	.LC4
 5573 0b54 00       		.byte	0
 5574 0b55 09       		.uleb128 0x9
 5575 0b56 6C000000 		.4byte	.LVL270
 5576 0b5a AF200000 		.4byte	0x20af
 5577 0b5e 690B0000 		.4byte	0xb69
 5578 0b62 0A       		.uleb128 0xa
 5579 0b63 01       		.uleb128 0x1
 5580 0b64 50       		.byte	0x50
 5581 0b65 02       		.uleb128 0x2
 5582 0b66 74       		.byte	0x74
 5583 0b67 00       		.sleb128 0
 5584 0b68 00       		.byte	0
 5585 0b69 08       		.uleb128 0x8
 5586 0b6a 70000000 		.4byte	.LVL271
 5587 0b6e 0F220000 		.4byte	0x220f
 5588 0b72 09       		.uleb128 0x9
 5589 0b73 76000000 		.4byte	.LVL272
 5590 0b77 FC200000 		.4byte	0x20fc
 5591 0b7b 860B0000 		.4byte	0xb86
 5592 0b7f 0A       		.uleb128 0xa
 5593 0b80 01       		.uleb128 0x1
 5594 0b81 50       		.byte	0x50
 5595 0b82 02       		.uleb128 0x2
 5596 0b83 08       		.byte	0x8
 5597 0b84 64       		.byte	0x64
 5598 0b85 00       		.byte	0
 5599 0b86 08       		.uleb128 0x8
 5600 0b87 7A000000 		.4byte	.LVL273
 5601 0b8b D8210000 		.4byte	0x21d8
 5602 0b8f 09       		.uleb128 0x9
 5603 0b90 84000000 		.4byte	.LVL274
 5604 0b94 E3210000 		.4byte	0x21e3
 5605 0b98 A20B0000 		.4byte	0xba2
 5606 0b9c 0A       		.uleb128 0xa
 5607 0b9d 01       		.uleb128 0x1
 5608 0b9e 50       		.byte	0x50
 5609 0b9f 01       		.uleb128 0x1
 5610 0ba0 31       		.byte	0x31
 5611 0ba1 00       		.byte	0
 5612 0ba2 09       		.uleb128 0x9
 5613 0ba3 8A000000 		.4byte	.LVL275
 5614 0ba7 EE210000 		.4byte	0x21ee
 5615 0bab B50B0000 		.4byte	0xbb5
 5616 0baf 0A       		.uleb128 0xa
 5617 0bb0 01       		.uleb128 0x1
 5618 0bb1 50       		.byte	0x50
 5619 0bb2 01       		.uleb128 0x1
 5620 0bb3 31       		.byte	0x31
 5621 0bb4 00       		.byte	0
 5622 0bb5 09       		.uleb128 0x9
ARM GAS  C:\Users\weiro\AppData\Local\Temp\ccSkAWeC.s 			page 123


 5623 0bb6 90000000 		.4byte	.LVL276
 5624 0bba FC200000 		.4byte	0x20fc
 5625 0bbe C80B0000 		.4byte	0xbc8
 5626 0bc2 0A       		.uleb128 0xa
 5627 0bc3 01       		.uleb128 0x1
 5628 0bc4 50       		.byte	0x50
 5629 0bc5 01       		.uleb128 0x1
 5630 0bc6 44       		.byte	0x44
 5631 0bc7 00       		.byte	0
 5632 0bc8 09       		.uleb128 0x9
 5633 0bc9 96000000 		.4byte	.LVL277
 5634 0bcd F9210000 		.4byte	0x21f9
 5635 0bd1 DB0B0000 		.4byte	0xbdb
 5636 0bd5 0A       		.uleb128 0xa
 5637 0bd6 01       		.uleb128 0x1
 5638 0bd7 50       		.byte	0x50
 5639 0bd8 01       		.uleb128 0x1
 5640 0bd9 31       		.byte	0x31
 5641 0bda 00       		.byte	0
 5642 0bdb 09       		.uleb128 0x9
 5643 0bdc 9C000000 		.4byte	.LVL278
 5644 0be0 FC200000 		.4byte	0x20fc
 5645 0be4 EE0B0000 		.4byte	0xbee
 5646 0be8 0A       		.uleb128 0xa
 5647 0be9 01       		.uleb128 0x1
 5648 0bea 50       		.byte	0x50
 5649 0beb 01       		.uleb128 0x1
 5650 0bec 31       		.byte	0x31
 5651 0bed 00       		.byte	0
 5652 0bee 09       		.uleb128 0x9
 5653 0bef A2000000 		.4byte	.LVL279
 5654 0bf3 F9210000 		.4byte	0x21f9
 5655 0bf7 020C0000 		.4byte	0xc02
 5656 0bfb 0A       		.uleb128 0xa
 5657 0bfc 01       		.uleb128 0x1
 5658 0bfd 50       		.byte	0x50
 5659 0bfe 02       		.uleb128 0x2
 5660 0bff 74       		.byte	0x74
 5661 0c00 00       		.sleb128 0
 5662 0c01 00       		.byte	0
 5663 0c02 08       		.uleb128 0x8
 5664 0c03 AE000000 		.4byte	.LVL280
 5665 0c07 04220000 		.4byte	0x2204
 5666 0c0b 09       		.uleb128 0x9
 5667 0c0c C0000000 		.4byte	.LVL281
 5668 0c10 A4200000 		.4byte	0x20a4
 5669 0c14 280C0000 		.4byte	0xc28
 5670 0c18 0A       		.uleb128 0xa
 5671 0c19 01       		.uleb128 0x1
 5672 0c1a 50       		.byte	0x50
 5673 0c1b 02       		.uleb128 0x2
 5674 0c1c 74       		.byte	0x74
 5675 0c1d 00       		.sleb128 0
 5676 0c1e 0A       		.uleb128 0xa
 5677 0c1f 01       		.uleb128 0x1
 5678 0c20 51       		.byte	0x51
 5679 0c21 05       		.uleb128 0x5
ARM GAS  C:\Users\weiro\AppData\Local\Temp\ccSkAWeC.s 			page 124


 5680 0c22 03       		.byte	0x3
 5681 0c23 54000000 		.4byte	.LC5
 5682 0c27 00       		.byte	0
 5683 0c28 09       		.uleb128 0x9
 5684 0c29 C6000000 		.4byte	.LVL282
 5685 0c2d AF200000 		.4byte	0x20af
 5686 0c31 3C0C0000 		.4byte	0xc3c
 5687 0c35 0A       		.uleb128 0xa
 5688 0c36 01       		.uleb128 0x1
 5689 0c37 50       		.byte	0x50
 5690 0c38 02       		.uleb128 0x2
 5691 0c39 74       		.byte	0x74
 5692 0c3a 00       		.sleb128 0
 5693 0c3b 00       		.byte	0
 5694 0c3c 08       		.uleb128 0x8
 5695 0c3d CA000000 		.4byte	.LVL283
 5696 0c41 0F220000 		.4byte	0x220f
 5697 0c45 09       		.uleb128 0x9
 5698 0c46 D0000000 		.4byte	.LVL284
 5699 0c4a FC200000 		.4byte	0x20fc
 5700 0c4e 590C0000 		.4byte	0xc59
 5701 0c52 0A       		.uleb128 0xa
 5702 0c53 01       		.uleb128 0x1
 5703 0c54 50       		.byte	0x50
 5704 0c55 02       		.uleb128 0x2
 5705 0c56 08       		.byte	0x8
 5706 0c57 64       		.byte	0x64
 5707 0c58 00       		.byte	0
 5708 0c59 08       		.uleb128 0x8
 5709 0c5a D4000000 		.4byte	.LVL285
 5710 0c5e D8210000 		.4byte	0x21d8
 5711 0c62 09       		.uleb128 0x9
 5712 0c63 DE000000 		.4byte	.LVL286
 5713 0c67 E3210000 		.4byte	0x21e3
 5714 0c6b 760C0000 		.4byte	0xc76
 5715 0c6f 0A       		.uleb128 0xa
 5716 0c70 01       		.uleb128 0x1
 5717 0c71 50       		.byte	0x50
 5718 0c72 02       		.uleb128 0x2
 5719 0c73 74       		.byte	0x74
 5720 0c74 00       		.sleb128 0
 5721 0c75 00       		.byte	0
 5722 0c76 09       		.uleb128 0x9
 5723 0c77 E4000000 		.4byte	.LVL287
 5724 0c7b EE210000 		.4byte	0x21ee
 5725 0c7f 890C0000 		.4byte	0xc89
 5726 0c83 0A       		.uleb128 0xa
 5727 0c84 01       		.uleb128 0x1
 5728 0c85 50       		.byte	0x50
 5729 0c86 01       		.uleb128 0x1
 5730 0c87 31       		.byte	0x31
 5731 0c88 00       		.byte	0
 5732 0c89 09       		.uleb128 0x9
 5733 0c8a EA000000 		.4byte	.LVL288
 5734 0c8e FC200000 		.4byte	0x20fc
 5735 0c92 9C0C0000 		.4byte	0xc9c
 5736 0c96 0A       		.uleb128 0xa
ARM GAS  C:\Users\weiro\AppData\Local\Temp\ccSkAWeC.s 			page 125


 5737 0c97 01       		.uleb128 0x1
 5738 0c98 50       		.byte	0x50
 5739 0c99 01       		.uleb128 0x1
 5740 0c9a 44       		.byte	0x44
 5741 0c9b 00       		.byte	0
 5742 0c9c 09       		.uleb128 0x9
 5743 0c9d F0000000 		.4byte	.LVL289
 5744 0ca1 F9210000 		.4byte	0x21f9
 5745 0ca5 AF0C0000 		.4byte	0xcaf
 5746 0ca9 0A       		.uleb128 0xa
 5747 0caa 01       		.uleb128 0x1
 5748 0cab 50       		.byte	0x50
 5749 0cac 01       		.uleb128 0x1
 5750 0cad 31       		.byte	0x31
 5751 0cae 00       		.byte	0
 5752 0caf 09       		.uleb128 0x9
 5753 0cb0 F6000000 		.4byte	.LVL290
 5754 0cb4 FC200000 		.4byte	0x20fc
 5755 0cb8 C20C0000 		.4byte	0xcc2
 5756 0cbc 0A       		.uleb128 0xa
 5757 0cbd 01       		.uleb128 0x1
 5758 0cbe 50       		.byte	0x50
 5759 0cbf 01       		.uleb128 0x1
 5760 0cc0 31       		.byte	0x31
 5761 0cc1 00       		.byte	0
 5762 0cc2 09       		.uleb128 0x9
 5763 0cc3 FC000000 		.4byte	.LVL291
 5764 0cc7 F9210000 		.4byte	0x21f9
 5765 0ccb D60C0000 		.4byte	0xcd6
 5766 0ccf 0A       		.uleb128 0xa
 5767 0cd0 01       		.uleb128 0x1
 5768 0cd1 50       		.byte	0x50
 5769 0cd2 02       		.uleb128 0x2
 5770 0cd3 74       		.byte	0x74
 5771 0cd4 00       		.sleb128 0
 5772 0cd5 00       		.byte	0
 5773 0cd6 08       		.uleb128 0x8
 5774 0cd7 08010000 		.4byte	.LVL292
 5775 0cdb 04220000 		.4byte	0x2204
 5776 0cdf 09       		.uleb128 0x9
 5777 0ce0 1A010000 		.4byte	.LVL293
 5778 0ce4 A4200000 		.4byte	0x20a4
 5779 0ce8 FC0C0000 		.4byte	0xcfc
 5780 0cec 0A       		.uleb128 0xa
 5781 0ced 01       		.uleb128 0x1
 5782 0cee 50       		.byte	0x50
 5783 0cef 02       		.uleb128 0x2
 5784 0cf0 75       		.byte	0x75
 5785 0cf1 00       		.sleb128 0
 5786 0cf2 0A       		.uleb128 0xa
 5787 0cf3 01       		.uleb128 0x1
 5788 0cf4 51       		.byte	0x51
 5789 0cf5 05       		.uleb128 0x5
 5790 0cf6 03       		.byte	0x3
 5791 0cf7 60000000 		.4byte	.LC6
 5792 0cfb 00       		.byte	0
 5793 0cfc 09       		.uleb128 0x9
ARM GAS  C:\Users\weiro\AppData\Local\Temp\ccSkAWeC.s 			page 126


 5794 0cfd 20010000 		.4byte	.LVL294
 5795 0d01 AF200000 		.4byte	0x20af
 5796 0d05 100D0000 		.4byte	0xd10
 5797 0d09 0A       		.uleb128 0xa
 5798 0d0a 01       		.uleb128 0x1
 5799 0d0b 50       		.byte	0x50
 5800 0d0c 02       		.uleb128 0x2
 5801 0d0d 75       		.byte	0x75
 5802 0d0e 00       		.sleb128 0
 5803 0d0f 00       		.byte	0
 5804 0d10 08       		.uleb128 0x8
 5805 0d11 24010000 		.4byte	.LVL295
 5806 0d15 0F220000 		.4byte	0x220f
 5807 0d19 09       		.uleb128 0x9
 5808 0d1a 42010000 		.4byte	.LVL296
 5809 0d1e 1A220000 		.4byte	0x221a
 5810 0d22 2C0D0000 		.4byte	0xd2c
 5811 0d26 0A       		.uleb128 0xa
 5812 0d27 01       		.uleb128 0x1
 5813 0d28 50       		.byte	0x50
 5814 0d29 01       		.uleb128 0x1
 5815 0d2a 31       		.byte	0x31
 5816 0d2b 00       		.byte	0
 5817 0d2c 09       		.uleb128 0x9
 5818 0d2d 4A010000 		.4byte	.LVL297
 5819 0d31 FC200000 		.4byte	0x20fc
 5820 0d35 410D0000 		.4byte	0xd41
 5821 0d39 0A       		.uleb128 0xa
 5822 0d3a 01       		.uleb128 0x1
 5823 0d3b 50       		.byte	0x50
 5824 0d3c 03       		.uleb128 0x3
 5825 0d3d 0A       		.byte	0xa
 5826 0d3e E803     		.2byte	0x3e8
 5827 0d40 00       		.byte	0
 5828 0d41 09       		.uleb128 0x9
 5829 0d42 50010000 		.4byte	.LVL298
 5830 0d46 1A220000 		.4byte	0x221a
 5831 0d4a 540D0000 		.4byte	0xd54
 5832 0d4e 0A       		.uleb128 0xa
 5833 0d4f 01       		.uleb128 0x1
 5834 0d50 50       		.byte	0x50
 5835 0d51 01       		.uleb128 0x1
 5836 0d52 30       		.byte	0x30
 5837 0d53 00       		.byte	0
 5838 0d54 09       		.uleb128 0x9
 5839 0d55 76010000 		.4byte	.LVL299
 5840 0d59 25220000 		.4byte	0x2225
 5841 0d5d 670D0000 		.4byte	0xd67
 5842 0d61 0A       		.uleb128 0xa
 5843 0d62 01       		.uleb128 0x1
 5844 0d63 50       		.byte	0x50
 5845 0d64 01       		.uleb128 0x1
 5846 0d65 31       		.byte	0x31
 5847 0d66 00       		.byte	0
 5848 0d67 09       		.uleb128 0x9
 5849 0d68 7E010000 		.4byte	.LVL300
 5850 0d6c FC200000 		.4byte	0x20fc
ARM GAS  C:\Users\weiro\AppData\Local\Temp\ccSkAWeC.s 			page 127


 5851 0d70 7C0D0000 		.4byte	0xd7c
 5852 0d74 0A       		.uleb128 0xa
 5853 0d75 01       		.uleb128 0x1
 5854 0d76 50       		.byte	0x50
 5855 0d77 03       		.uleb128 0x3
 5856 0d78 0A       		.byte	0xa
 5857 0d79 E803     		.2byte	0x3e8
 5858 0d7b 00       		.byte	0
 5859 0d7c 09       		.uleb128 0x9
 5860 0d7d 84010000 		.4byte	.LVL301
 5861 0d81 25220000 		.4byte	0x2225
 5862 0d85 8F0D0000 		.4byte	0xd8f
 5863 0d89 0A       		.uleb128 0xa
 5864 0d8a 01       		.uleb128 0x1
 5865 0d8b 50       		.byte	0x50
 5866 0d8c 01       		.uleb128 0x1
 5867 0d8d 30       		.byte	0x30
 5868 0d8e 00       		.byte	0
 5869 0d8f 09       		.uleb128 0x9
 5870 0d90 AA010000 		.4byte	.LVL302
 5871 0d94 30220000 		.4byte	0x2230
 5872 0d98 A20D0000 		.4byte	0xda2
 5873 0d9c 0A       		.uleb128 0xa
 5874 0d9d 01       		.uleb128 0x1
 5875 0d9e 50       		.byte	0x50
 5876 0d9f 01       		.uleb128 0x1
 5877 0da0 31       		.byte	0x31
 5878 0da1 00       		.byte	0
 5879 0da2 09       		.uleb128 0x9
 5880 0da3 B2010000 		.4byte	.LVL303
 5881 0da7 FC200000 		.4byte	0x20fc
 5882 0dab B70D0000 		.4byte	0xdb7
 5883 0daf 0A       		.uleb128 0xa
 5884 0db0 01       		.uleb128 0x1
 5885 0db1 50       		.byte	0x50
 5886 0db2 03       		.uleb128 0x3
 5887 0db3 0A       		.byte	0xa
 5888 0db4 E803     		.2byte	0x3e8
 5889 0db6 00       		.byte	0
 5890 0db7 0B       		.uleb128 0xb
 5891 0db8 B8010000 		.4byte	.LVL304
 5892 0dbc 30220000 		.4byte	0x2230
 5893 0dc0 0A       		.uleb128 0xa
 5894 0dc1 01       		.uleb128 0x1
 5895 0dc2 50       		.byte	0x50
 5896 0dc3 01       		.uleb128 0x1
 5897 0dc4 30       		.byte	0x30
 5898 0dc5 00       		.byte	0
 5899 0dc6 00       		.byte	0
 5900 0dc7 0D       		.uleb128 0xd
 5901 0dc8 56040000 		.4byte	.LASF47
 5902 0dcc 01       		.byte	0x1
 5903 0dcd D802     		.2byte	0x2d8
 5904 0dcf 00000000 		.4byte	.LFB83
 5905 0dd3 5E000000 		.4byte	.LFE83-.LFB83
 5906 0dd7 01       		.uleb128 0x1
 5907 0dd8 9C       		.byte	0x9c
ARM GAS  C:\Users\weiro\AppData\Local\Temp\ccSkAWeC.s 			page 128


 5908 0dd9 EC0E0000 		.4byte	0xeec
 5909 0ddd 09       		.uleb128 0x9
 5910 0dde 0A000000 		.4byte	.LVL305
 5911 0de2 DB200000 		.4byte	0x20db
 5912 0de6 F60D0000 		.4byte	0xdf6
 5913 0dea 0A       		.uleb128 0xa
 5914 0deb 01       		.uleb128 0x1
 5915 0dec 50       		.byte	0x50
 5916 0ded 02       		.uleb128 0x2
 5917 0dee 08       		.byte	0x8
 5918 0def 68       		.byte	0x68
 5919 0df0 0A       		.uleb128 0xa
 5920 0df1 01       		.uleb128 0x1
 5921 0df2 51       		.byte	0x51
 5922 0df3 01       		.uleb128 0x1
 5923 0df4 30       		.byte	0x30
 5924 0df5 00       		.byte	0
 5925 0df6 09       		.uleb128 0x9
 5926 0df7 10000000 		.4byte	.LVL306
 5927 0dfb E6200000 		.4byte	0x20e6
 5928 0dff 0A0E0000 		.4byte	0xe0a
 5929 0e03 0A       		.uleb128 0xa
 5930 0e04 01       		.uleb128 0x1
 5931 0e05 50       		.byte	0x50
 5932 0e06 02       		.uleb128 0x2
 5933 0e07 08       		.byte	0x8
 5934 0e08 6B       		.byte	0x6b
 5935 0e09 00       		.byte	0
 5936 0e0a 09       		.uleb128 0x9
 5937 0e0b 16000000 		.4byte	.LVL307
 5938 0e0f E6200000 		.4byte	0x20e6
 5939 0e13 1D0E0000 		.4byte	0xe1d
 5940 0e17 0A       		.uleb128 0xa
 5941 0e18 01       		.uleb128 0x1
 5942 0e19 50       		.byte	0x50
 5943 0e1a 01       		.uleb128 0x1
 5944 0e1b 30       		.byte	0x30
 5945 0e1c 00       		.byte	0
 5946 0e1d 08       		.uleb128 0x8
 5947 0e1e 1A000000 		.4byte	.LVL308
 5948 0e22 F1200000 		.4byte	0x20f1
 5949 0e26 09       		.uleb128 0x9
 5950 0e27 20000000 		.4byte	.LVL309
 5951 0e2b FC200000 		.4byte	0x20fc
 5952 0e2f 390E0000 		.4byte	0xe39
 5953 0e33 0A       		.uleb128 0xa
 5954 0e34 01       		.uleb128 0x1
 5955 0e35 50       		.byte	0x50
 5956 0e36 01       		.uleb128 0x1
 5957 0e37 31       		.byte	0x31
 5958 0e38 00       		.byte	0
 5959 0e39 09       		.uleb128 0x9
 5960 0e3a 28000000 		.4byte	.LVL310
 5961 0e3e DB200000 		.4byte	0x20db
 5962 0e42 520E0000 		.4byte	0xe52
 5963 0e46 0A       		.uleb128 0xa
 5964 0e47 01       		.uleb128 0x1
ARM GAS  C:\Users\weiro\AppData\Local\Temp\ccSkAWeC.s 			page 129


 5965 0e48 50       		.byte	0x50
 5966 0e49 02       		.uleb128 0x2
 5967 0e4a 08       		.byte	0x8
 5968 0e4b 68       		.byte	0x68
 5969 0e4c 0A       		.uleb128 0xa
 5970 0e4d 01       		.uleb128 0x1
 5971 0e4e 51       		.byte	0x51
 5972 0e4f 01       		.uleb128 0x1
 5973 0e50 30       		.byte	0x30
 5974 0e51 00       		.byte	0
 5975 0e52 09       		.uleb128 0x9
 5976 0e53 2E000000 		.4byte	.LVL311
 5977 0e57 E6200000 		.4byte	0x20e6
 5978 0e5b 650E0000 		.4byte	0xe65
 5979 0e5f 0A       		.uleb128 0xa
 5980 0e60 01       		.uleb128 0x1
 5981 0e61 50       		.byte	0x50
 5982 0e62 01       		.uleb128 0x1
 5983 0e63 4B       		.byte	0x4b
 5984 0e64 00       		.byte	0
 5985 0e65 09       		.uleb128 0x9
 5986 0e66 34000000 		.4byte	.LVL312
 5987 0e6a E6200000 		.4byte	0x20e6
 5988 0e6e 780E0000 		.4byte	0xe78
 5989 0e72 0A       		.uleb128 0xa
 5990 0e73 01       		.uleb128 0x1
 5991 0e74 50       		.byte	0x50
 5992 0e75 01       		.uleb128 0x1
 5993 0e76 38       		.byte	0x38
 5994 0e77 00       		.byte	0
 5995 0e78 08       		.uleb128 0x8
 5996 0e79 38000000 		.4byte	.LVL313
 5997 0e7d F1200000 		.4byte	0x20f1
 5998 0e81 09       		.uleb128 0x9
 5999 0e82 3E000000 		.4byte	.LVL314
 6000 0e86 FC200000 		.4byte	0x20fc
 6001 0e8a 940E0000 		.4byte	0xe94
 6002 0e8e 0A       		.uleb128 0xa
 6003 0e8f 01       		.uleb128 0x1
 6004 0e90 50       		.byte	0x50
 6005 0e91 01       		.uleb128 0x1
 6006 0e92 31       		.byte	0x31
 6007 0e93 00       		.byte	0
 6008 0e94 09       		.uleb128 0x9
 6009 0e95 46000000 		.4byte	.LVL315
 6010 0e99 DB200000 		.4byte	0x20db
 6011 0e9d AD0E0000 		.4byte	0xead
 6012 0ea1 0A       		.uleb128 0xa
 6013 0ea2 01       		.uleb128 0x1
 6014 0ea3 50       		.byte	0x50
 6015 0ea4 02       		.uleb128 0x2
 6016 0ea5 08       		.byte	0x8
 6017 0ea6 68       		.byte	0x68
 6018 0ea7 0A       		.uleb128 0xa
 6019 0ea8 01       		.uleb128 0x1
 6020 0ea9 51       		.byte	0x51
 6021 0eaa 01       		.uleb128 0x1
ARM GAS  C:\Users\weiro\AppData\Local\Temp\ccSkAWeC.s 			page 130


 6022 0eab 30       		.byte	0x30
 6023 0eac 00       		.byte	0
 6024 0ead 09       		.uleb128 0x9
 6025 0eae 4C000000 		.4byte	.LVL316
 6026 0eb2 E6200000 		.4byte	0x20e6
 6027 0eb6 C00E0000 		.4byte	0xec0
 6028 0eba 0A       		.uleb128 0xa
 6029 0ebb 01       		.uleb128 0x1
 6030 0ebc 50       		.byte	0x50
 6031 0ebd 01       		.uleb128 0x1
 6032 0ebe 4A       		.byte	0x4a
 6033 0ebf 00       		.byte	0
 6034 0ec0 09       		.uleb128 0x9
 6035 0ec1 52000000 		.4byte	.LVL317
 6036 0ec5 E6200000 		.4byte	0x20e6
 6037 0ec9 D30E0000 		.4byte	0xed3
 6038 0ecd 0A       		.uleb128 0xa
 6039 0ece 01       		.uleb128 0x1
 6040 0ecf 50       		.byte	0x50
 6041 0ed0 01       		.uleb128 0x1
 6042 0ed1 35       		.byte	0x35
 6043 0ed2 00       		.byte	0
 6044 0ed3 08       		.uleb128 0x8
 6045 0ed4 56000000 		.4byte	.LVL318
 6046 0ed8 F1200000 		.4byte	0x20f1
 6047 0edc 0B       		.uleb128 0xb
 6048 0edd 5C000000 		.4byte	.LVL319
 6049 0ee1 FC200000 		.4byte	0x20fc
 6050 0ee5 0A       		.uleb128 0xa
 6051 0ee6 01       		.uleb128 0x1
 6052 0ee7 50       		.byte	0x50
 6053 0ee8 01       		.uleb128 0x1
 6054 0ee9 31       		.byte	0x31
 6055 0eea 00       		.byte	0
 6056 0eeb 00       		.byte	0
 6057 0eec 0D       		.uleb128 0xd
 6058 0eed E2030000 		.4byte	.LASF48
 6059 0ef1 01       		.byte	0x1
 6060 0ef2 F202     		.2byte	0x2f2
 6061 0ef4 00000000 		.4byte	.LFB84
 6062 0ef8 28000000 		.4byte	.LFE84-.LFB84
 6063 0efc 01       		.uleb128 0x1
 6064 0efd 9C       		.byte	0x9c
 6065 0efe 890F0000 		.4byte	0xf89
 6066 0f02 12       		.uleb128 0x12
 6067 0f03 09080000 		.4byte	.LASF31
 6068 0f07 01       		.byte	0x1
 6069 0f08 F402     		.2byte	0x2f4
 6070 0f0a 6F000000 		.4byte	0x6f
 6071 0f0e 00       		.byte	0
 6072 0f0f 15       		.uleb128 0x15
 6073 0f10 E8060000 		.4byte	.LASF49
 6074 0f14 01       		.byte	0x1
 6075 0f15 F502     		.2byte	0x2f5
 6076 0f17 25000000 		.4byte	0x25
 6077 0f1b 08       		.byte	0x8
 6078 0f1c 00000000 		.4byte	0
ARM GAS  C:\Users\weiro\AppData\Local\Temp\ccSkAWeC.s 			page 131


 6079 0f20 00001440 		.4byte	0x40140000
 6080 0f24 09       		.uleb128 0x9
 6081 0f25 08000000 		.4byte	.LVL321
 6082 0f29 3B220000 		.4byte	0x223b
 6083 0f2d 370F0000 		.4byte	0xf37
 6084 0f31 0A       		.uleb128 0xa
 6085 0f32 01       		.uleb128 0x1
 6086 0f33 50       		.byte	0x50
 6087 0f34 01       		.uleb128 0x1
 6088 0f35 31       		.byte	0x31
 6089 0f36 00       		.byte	0
 6090 0f37 09       		.uleb128 0x9
 6091 0f38 10000000 		.4byte	.LVL322
 6092 0f3c FC200000 		.4byte	0x20fc
 6093 0f40 4C0F0000 		.4byte	0xf4c
 6094 0f44 0A       		.uleb128 0xa
 6095 0f45 01       		.uleb128 0x1
 6096 0f46 50       		.byte	0x50
 6097 0f47 03       		.uleb128 0x3
 6098 0f48 0A       		.byte	0xa
 6099 0f49 E803     		.2byte	0x3e8
 6100 0f4b 00       		.byte	0
 6101 0f4c 09       		.uleb128 0x9
 6102 0f4d 18000000 		.4byte	.LVL323
 6103 0f51 18050000 		.4byte	0x518
 6104 0f55 640F0000 		.4byte	0xf64
 6105 0f59 0A       		.uleb128 0xa
 6106 0f5a 01       		.uleb128 0x1
 6107 0f5b 50       		.byte	0x50
 6108 0f5c 01       		.uleb128 0x1
 6109 0f5d 35       		.byte	0x35
 6110 0f5e 0A       		.uleb128 0xa
 6111 0f5f 01       		.uleb128 0x1
 6112 0f60 51       		.byte	0x51
 6113 0f61 01       		.uleb128 0x1
 6114 0f62 30       		.byte	0x30
 6115 0f63 00       		.byte	0
 6116 0f64 09       		.uleb128 0x9
 6117 0f65 20000000 		.4byte	.LVL324
 6118 0f69 FC200000 		.4byte	0x20fc
 6119 0f6d 790F0000 		.4byte	0xf79
 6120 0f71 0A       		.uleb128 0xa
 6121 0f72 01       		.uleb128 0x1
 6122 0f73 50       		.byte	0x50
 6123 0f74 03       		.uleb128 0x3
 6124 0f75 0A       		.byte	0xa
 6125 0f76 F401     		.2byte	0x1f4
 6126 0f78 00       		.byte	0
 6127 0f79 0B       		.uleb128 0xb
 6128 0f7a 26000000 		.4byte	.LVL325
 6129 0f7e 3B220000 		.4byte	0x223b
 6130 0f82 0A       		.uleb128 0xa
 6131 0f83 01       		.uleb128 0x1
 6132 0f84 50       		.byte	0x50
 6133 0f85 01       		.uleb128 0x1
 6134 0f86 30       		.byte	0x30
 6135 0f87 00       		.byte	0
ARM GAS  C:\Users\weiro\AppData\Local\Temp\ccSkAWeC.s 			page 132


 6136 0f88 00       		.byte	0
 6137 0f89 16       		.uleb128 0x16
 6138 0f8a C4080000 		.4byte	.LASF50
 6139 0f8e 01       		.byte	0x1
 6140 0f8f FE02     		.2byte	0x2fe
 6141 0f91 A0000000 		.4byte	0xa0
 6142 0f95 00000000 		.4byte	.LFB85
 6143 0f99 D4000000 		.4byte	.LFE85-.LFB85
 6144 0f9d 01       		.uleb128 0x1
 6145 0f9e 9C       		.byte	0x9c
 6146 0f9f D0100000 		.4byte	0x10d0
 6147 0fa3 10       		.uleb128 0x10
 6148 0fa4 CA060000 		.4byte	.LASF51
 6149 0fa8 01       		.byte	0x1
 6150 0fa9 0003     		.2byte	0x300
 6151 0fab 6F000000 		.4byte	0x6f
 6152 0faf 47040000 		.4byte	.LLST18
 6153 0fb3 10       		.uleb128 0x10
 6154 0fb4 88050000 		.4byte	.LASF52
 6155 0fb8 01       		.byte	0x1
 6156 0fb9 0103     		.2byte	0x301
 6157 0fbb A0000000 		.4byte	0xa0
 6158 0fbf 76040000 		.4byte	.LLST19
 6159 0fc3 10       		.uleb128 0x10
 6160 0fc4 56000000 		.4byte	.LASF53
 6161 0fc8 01       		.byte	0x1
 6162 0fc9 0203     		.2byte	0x302
 6163 0fcb A0000000 		.4byte	0xa0
 6164 0fcf 99040000 		.4byte	.LLST20
 6165 0fd3 10       		.uleb128 0x10
 6166 0fd4 74040000 		.4byte	.LASF54
 6167 0fd8 01       		.byte	0x1
 6168 0fd9 0303     		.2byte	0x303
 6169 0fdb 6F000000 		.4byte	0x6f
 6170 0fdf D2040000 		.4byte	.LLST21
 6171 0fe3 10       		.uleb128 0x10
 6172 0fe4 14040000 		.4byte	.LASF55
 6173 0fe8 01       		.byte	0x1
 6174 0fe9 0403     		.2byte	0x304
 6175 0feb A0000000 		.4byte	0xa0
 6176 0fef F1040000 		.4byte	.LLST22
 6177 0ff3 10       		.uleb128 0x10
 6178 0ff4 85000000 		.4byte	.LASF56
 6179 0ff8 01       		.byte	0x1
 6180 0ff9 0503     		.2byte	0x305
 6181 0ffb A0000000 		.4byte	0xa0
 6182 0fff 14050000 		.4byte	.LLST23
 6183 1003 08       		.uleb128 0x8
 6184 1004 0C000000 		.4byte	.LVL328
 6185 1008 46220000 		.4byte	0x2246
 6186 100c 09       		.uleb128 0x9
 6187 100d 12000000 		.4byte	.LVL329
 6188 1011 51220000 		.4byte	0x2251
 6189 1015 1F100000 		.4byte	0x101f
 6190 1019 0A       		.uleb128 0xa
 6191 101a 01       		.uleb128 0x1
 6192 101b 50       		.byte	0x50
ARM GAS  C:\Users\weiro\AppData\Local\Temp\ccSkAWeC.s 			page 133


 6193 101c 01       		.uleb128 0x1
 6194 101d 31       		.byte	0x31
 6195 101e 00       		.byte	0
 6196 101f 08       		.uleb128 0x8
 6197 1020 1A000000 		.4byte	.LVL330
 6198 1024 5C220000 		.4byte	0x225c
 6199 1028 09       		.uleb128 0x9
 6200 1029 34000000 		.4byte	.LVL335
 6201 102d FC200000 		.4byte	0x20fc
 6202 1031 3B100000 		.4byte	0x103b
 6203 1035 0A       		.uleb128 0xa
 6204 1036 01       		.uleb128 0x1
 6205 1037 50       		.byte	0x50
 6206 1038 01       		.uleb128 0x1
 6207 1039 44       		.byte	0x44
 6208 103a 00       		.byte	0
 6209 103b 09       		.uleb128 0x9
 6210 103c 6C000000 		.4byte	.LVL341
 6211 1040 67220000 		.4byte	0x2267
 6212 1044 5D100000 		.4byte	0x105d
 6213 1048 0A       		.uleb128 0xa
 6214 1049 06       		.uleb128 0x6
 6215 104a 52       		.byte	0x52
 6216 104b 93       		.byte	0x93
 6217 104c 04       		.uleb128 0x4
 6218 104d 53       		.byte	0x53
 6219 104e 93       		.byte	0x93
 6220 104f 04       		.uleb128 0x4
 6221 1050 0B       		.uleb128 0xb
 6222 1051 F4       		.byte	0xf4
 6223 1052 25       		.uleb128 0x25
 6224 1053 08       		.byte	0x8
 6225 1054 1A578E1A 		.4byte	0x1a8e571a
 6226 1058 578EEABF 		.4byte	0xbfea8e57
 6227 105c 00       		.byte	0
 6228 105d 09       		.uleb128 0x9
 6229 105e 78000000 		.4byte	.LVL345
 6230 1062 FC200000 		.4byte	0x20fc
 6231 1066 71100000 		.4byte	0x1071
 6232 106a 0A       		.uleb128 0xa
 6233 106b 01       		.uleb128 0x1
 6234 106c 50       		.byte	0x50
 6235 106d 02       		.uleb128 0x2
 6236 106e 08       		.byte	0x8
 6237 106f C8       		.byte	0xc8
 6238 1070 00       		.byte	0
 6239 1071 09       		.uleb128 0x9
 6240 1072 86000000 		.4byte	.LVL347
 6241 1076 A4200000 		.4byte	0x20a4
 6242 107a 8E100000 		.4byte	0x108e
 6243 107e 0A       		.uleb128 0xa
 6244 107f 01       		.uleb128 0x1
 6245 1080 50       		.byte	0x50
 6246 1081 02       		.uleb128 0x2
 6247 1082 74       		.byte	0x74
 6248 1083 00       		.sleb128 0
 6249 1084 0A       		.uleb128 0xa
ARM GAS  C:\Users\weiro\AppData\Local\Temp\ccSkAWeC.s 			page 134


 6250 1085 01       		.uleb128 0x1
 6251 1086 51       		.byte	0x51
 6252 1087 05       		.uleb128 0x5
 6253 1088 03       		.byte	0x3
 6254 1089 6C000000 		.4byte	.LC7
 6255 108d 00       		.byte	0
 6256 108e 09       		.uleb128 0x9
 6257 108f 8C000000 		.4byte	.LVL348
 6258 1093 AF200000 		.4byte	0x20af
 6259 1097 A2100000 		.4byte	0x10a2
 6260 109b 0A       		.uleb128 0xa
 6261 109c 01       		.uleb128 0x1
 6262 109d 50       		.byte	0x50
 6263 109e 02       		.uleb128 0x2
 6264 109f 74       		.byte	0x74
 6265 10a0 00       		.sleb128 0
 6266 10a1 00       		.byte	0
 6267 10a2 09       		.uleb128 0x9
 6268 10a3 9E000000 		.4byte	.LVL350
 6269 10a7 A4200000 		.4byte	0x20a4
 6270 10ab BF100000 		.4byte	0x10bf
 6271 10af 0A       		.uleb128 0xa
 6272 10b0 01       		.uleb128 0x1
 6273 10b1 50       		.byte	0x50
 6274 10b2 02       		.uleb128 0x2
 6275 10b3 74       		.byte	0x74
 6276 10b4 00       		.sleb128 0
 6277 10b5 0A       		.uleb128 0xa
 6278 10b6 01       		.uleb128 0x1
 6279 10b7 51       		.byte	0x51
 6280 10b8 05       		.uleb128 0x5
 6281 10b9 03       		.byte	0x3
 6282 10ba 7C000000 		.4byte	.LC8
 6283 10be 00       		.byte	0
 6284 10bf 0B       		.uleb128 0xb
 6285 10c0 A4000000 		.4byte	.LVL351
 6286 10c4 AF200000 		.4byte	0x20af
 6287 10c8 0A       		.uleb128 0xa
 6288 10c9 01       		.uleb128 0x1
 6289 10ca 50       		.byte	0x50
 6290 10cb 02       		.uleb128 0x2
 6291 10cc 74       		.byte	0x74
 6292 10cd 00       		.sleb128 0
 6293 10ce 00       		.byte	0
 6294 10cf 00       		.byte	0
 6295 10d0 17       		.uleb128 0x17
 6296 10d1 20020000 		.4byte	.LASF57
 6297 10d5 01       		.byte	0x1
 6298 10d6 2103     		.2byte	0x321
 6299 10d8 00000000 		.4byte	.LFB86
 6300 10dc A8000000 		.4byte	.LFE86-.LFB86
 6301 10e0 01       		.uleb128 0x1
 6302 10e1 9C       		.byte	0x9c
 6303 10e2 62120000 		.4byte	0x1262
 6304 10e6 0F       		.uleb128 0xf
 6305 10e7 DB030000 		.4byte	.LASF58
 6306 10eb 01       		.byte	0x1
ARM GAS  C:\Users\weiro\AppData\Local\Temp\ccSkAWeC.s 			page 135


 6307 10ec 2103     		.2byte	0x321
 6308 10ee 6F000000 		.4byte	0x6f
 6309 10f2 4D050000 		.4byte	.LLST24
 6310 10f6 10       		.uleb128 0x10
 6311 10f7 22070000 		.4byte	.LASF59
 6312 10fb 01       		.byte	0x1
 6313 10fc 2403     		.2byte	0x324
 6314 10fe 6F000000 		.4byte	0x6f
 6315 1102 79050000 		.4byte	.LLST25
 6316 1106 18       		.uleb128 0x18
 6317 1107 08000000 		.4byte	.LBB6
 6318 110b 88000000 		.4byte	.LBE6-.LBB6
 6319 110f 10       		.uleb128 0x10
 6320 1110 09080000 		.4byte	.LASF31
 6321 1114 01       		.byte	0x1
 6322 1115 2803     		.2byte	0x328
 6323 1117 6F000000 		.4byte	0x6f
 6324 111b 98050000 		.4byte	.LLST26
 6325 111f 10       		.uleb128 0x10
 6326 1120 E8060000 		.4byte	.LASF49
 6327 1124 01       		.byte	0x1
 6328 1125 2903     		.2byte	0x329
 6329 1127 6F000000 		.4byte	0x6f
 6330 112b AC050000 		.4byte	.LLST27
 6331 112f 08       		.uleb128 0x8
 6332 1130 0C000000 		.4byte	.LVL356
 6333 1134 B4070000 		.4byte	0x7b4
 6334 1138 09       		.uleb128 0x9
 6335 1139 14000000 		.4byte	.LVL357
 6336 113d 18050000 		.4byte	0x518
 6337 1141 50110000 		.4byte	0x1150
 6338 1145 0A       		.uleb128 0xa
 6339 1146 01       		.uleb128 0x1
 6340 1147 50       		.byte	0x50
 6341 1148 01       		.uleb128 0x1
 6342 1149 34       		.byte	0x34
 6343 114a 0A       		.uleb128 0xa
 6344 114b 01       		.uleb128 0x1
 6345 114c 51       		.byte	0x51
 6346 114d 01       		.uleb128 0x1
 6347 114e 31       		.byte	0x31
 6348 114f 00       		.byte	0
 6349 1150 09       		.uleb128 0x9
 6350 1151 1C000000 		.4byte	.LVL358
 6351 1155 FC200000 		.4byte	0x20fc
 6352 1159 65110000 		.4byte	0x1165
 6353 115d 0A       		.uleb128 0xa
 6354 115e 01       		.uleb128 0x1
 6355 115f 50       		.byte	0x50
 6356 1160 03       		.uleb128 0x3
 6357 1161 0A       		.byte	0xa
 6358 1162 F401     		.2byte	0x1f4
 6359 1164 00       		.byte	0
 6360 1165 08       		.uleb128 0x8
 6361 1166 20000000 		.4byte	.LVL359
 6362 116a 3F0A0000 		.4byte	0xa3f
 6363 116e 09       		.uleb128 0x9
ARM GAS  C:\Users\weiro\AppData\Local\Temp\ccSkAWeC.s 			page 136


 6364 116f 30000000 		.4byte	.LVL360
 6365 1173 1A220000 		.4byte	0x221a
 6366 1177 81110000 		.4byte	0x1181
 6367 117b 0A       		.uleb128 0xa
 6368 117c 01       		.uleb128 0x1
 6369 117d 50       		.byte	0x50
 6370 117e 01       		.uleb128 0x1
 6371 117f 31       		.byte	0x31
 6372 1180 00       		.byte	0
 6373 1181 09       		.uleb128 0x9
 6374 1182 38000000 		.4byte	.LVL361
 6375 1186 FC200000 		.4byte	0x20fc
 6376 118a 96110000 		.4byte	0x1196
 6377 118e 0A       		.uleb128 0xa
 6378 118f 01       		.uleb128 0x1
 6379 1190 50       		.byte	0x50
 6380 1191 03       		.uleb128 0x3
 6381 1192 0A       		.byte	0xa
 6382 1193 E803     		.2byte	0x3e8
 6383 1195 00       		.byte	0
 6384 1196 09       		.uleb128 0x9
 6385 1197 3E000000 		.4byte	.LVL362
 6386 119b 1A220000 		.4byte	0x221a
 6387 119f A9110000 		.4byte	0x11a9
 6388 11a3 0A       		.uleb128 0xa
 6389 11a4 01       		.uleb128 0x1
 6390 11a5 50       		.byte	0x50
 6391 11a6 01       		.uleb128 0x1
 6392 11a7 30       		.byte	0x30
 6393 11a8 00       		.byte	0
 6394 11a9 09       		.uleb128 0x9
 6395 11aa 44000000 		.4byte	.LVL363
 6396 11ae AF200000 		.4byte	0x20af
 6397 11b2 C0110000 		.4byte	0x11c0
 6398 11b6 0A       		.uleb128 0xa
 6399 11b7 01       		.uleb128 0x1
 6400 11b8 50       		.byte	0x50
 6401 11b9 05       		.uleb128 0x5
 6402 11ba 03       		.byte	0x3
 6403 11bb 8C000000 		.4byte	.LC9
 6404 11bf 00       		.byte	0
 6405 11c0 09       		.uleb128 0x9
 6406 11c1 50000000 		.4byte	.LVL364
 6407 11c5 25220000 		.4byte	0x2225
 6408 11c9 D3110000 		.4byte	0x11d3
 6409 11cd 0A       		.uleb128 0xa
 6410 11ce 01       		.uleb128 0x1
 6411 11cf 50       		.byte	0x50
 6412 11d0 01       		.uleb128 0x1
 6413 11d1 31       		.byte	0x31
 6414 11d2 00       		.byte	0
 6415 11d3 09       		.uleb128 0x9
 6416 11d4 58000000 		.4byte	.LVL365
 6417 11d8 FC200000 		.4byte	0x20fc
 6418 11dc E8110000 		.4byte	0x11e8
 6419 11e0 0A       		.uleb128 0xa
 6420 11e1 01       		.uleb128 0x1
ARM GAS  C:\Users\weiro\AppData\Local\Temp\ccSkAWeC.s 			page 137


 6421 11e2 50       		.byte	0x50
 6422 11e3 03       		.uleb128 0x3
 6423 11e4 0A       		.byte	0xa
 6424 11e5 E803     		.2byte	0x3e8
 6425 11e7 00       		.byte	0
 6426 11e8 09       		.uleb128 0x9
 6427 11e9 5E000000 		.4byte	.LVL366
 6428 11ed 25220000 		.4byte	0x2225
 6429 11f1 FB110000 		.4byte	0x11fb
 6430 11f5 0A       		.uleb128 0xa
 6431 11f6 01       		.uleb128 0x1
 6432 11f7 50       		.byte	0x50
 6433 11f8 01       		.uleb128 0x1
 6434 11f9 30       		.byte	0x30
 6435 11fa 00       		.byte	0
 6436 11fb 09       		.uleb128 0x9
 6437 11fc 64000000 		.4byte	.LVL367
 6438 1200 AF200000 		.4byte	0x20af
 6439 1204 12120000 		.4byte	0x1212
 6440 1208 0A       		.uleb128 0xa
 6441 1209 01       		.uleb128 0x1
 6442 120a 50       		.byte	0x50
 6443 120b 05       		.uleb128 0x5
 6444 120c 03       		.byte	0x3
 6445 120d 94000000 		.4byte	.LC10
 6446 1211 00       		.byte	0
 6447 1212 09       		.uleb128 0x9
 6448 1213 70000000 		.4byte	.LVL368
 6449 1217 30220000 		.4byte	0x2230
 6450 121b 25120000 		.4byte	0x1225
 6451 121f 0A       		.uleb128 0xa
 6452 1220 01       		.uleb128 0x1
 6453 1221 50       		.byte	0x50
 6454 1222 01       		.uleb128 0x1
 6455 1223 31       		.byte	0x31
 6456 1224 00       		.byte	0
 6457 1225 09       		.uleb128 0x9
 6458 1226 78000000 		.4byte	.LVL369
 6459 122a FC200000 		.4byte	0x20fc
 6460 122e 3A120000 		.4byte	0x123a
 6461 1232 0A       		.uleb128 0xa
 6462 1233 01       		.uleb128 0x1
 6463 1234 50       		.byte	0x50
 6464 1235 03       		.uleb128 0x3
 6465 1236 0A       		.byte	0xa
 6466 1237 E803     		.2byte	0x3e8
 6467 1239 00       		.byte	0
 6468 123a 09       		.uleb128 0x9
 6469 123b 7E000000 		.4byte	.LVL370
 6470 123f 30220000 		.4byte	0x2230
 6471 1243 4D120000 		.4byte	0x124d
 6472 1247 0A       		.uleb128 0xa
 6473 1248 01       		.uleb128 0x1
 6474 1249 50       		.byte	0x50
 6475 124a 01       		.uleb128 0x1
 6476 124b 30       		.byte	0x30
 6477 124c 00       		.byte	0
ARM GAS  C:\Users\weiro\AppData\Local\Temp\ccSkAWeC.s 			page 138


 6478 124d 0B       		.uleb128 0xb
 6479 124e 84000000 		.4byte	.LVL371
 6480 1252 AF200000 		.4byte	0x20af
 6481 1256 0A       		.uleb128 0xa
 6482 1257 01       		.uleb128 0x1
 6483 1258 50       		.byte	0x50
 6484 1259 05       		.uleb128 0x5
 6485 125a 03       		.byte	0x3
 6486 125b A0000000 		.4byte	.LC11
 6487 125f 00       		.byte	0
 6488 1260 00       		.byte	0
 6489 1261 00       		.byte	0
 6490 1262 0D       		.uleb128 0xd
 6491 1263 000B0000 		.4byte	.LASF60
 6492 1267 01       		.byte	0x1
 6493 1268 4903     		.2byte	0x349
 6494 126a 00000000 		.4byte	.LFB87
 6495 126e 3C000000 		.4byte	.LFE87-.LFB87
 6496 1272 01       		.uleb128 0x1
 6497 1273 9C       		.byte	0x9c
 6498 1274 0D130000 		.4byte	0x130d
 6499 1278 12       		.uleb128 0x12
 6500 1279 09080000 		.4byte	.LASF31
 6501 127d 01       		.byte	0x1
 6502 127e 4B03     		.2byte	0x34b
 6503 1280 6F000000 		.4byte	0x6f
 6504 1284 01       		.byte	0x1
 6505 1285 15       		.uleb128 0x15
 6506 1286 E8060000 		.4byte	.LASF49
 6507 128a 01       		.byte	0x1
 6508 128b 4C03     		.2byte	0x34c
 6509 128d 25000000 		.4byte	0x25
 6510 1291 08       		.byte	0x8
 6511 1292 00000000 		.4byte	0
 6512 1296 00003240 		.4byte	0x40320000
 6513 129a 09       		.uleb128 0x9
 6514 129b 0A000000 		.4byte	.LVL375
 6515 129f 18050000 		.4byte	0x518
 6516 12a3 B2120000 		.4byte	0x12b2
 6517 12a7 0A       		.uleb128 0xa
 6518 12a8 01       		.uleb128 0x1
 6519 12a9 50       		.byte	0x50
 6520 12aa 01       		.uleb128 0x1
 6521 12ab 42       		.byte	0x42
 6522 12ac 0A       		.uleb128 0xa
 6523 12ad 01       		.uleb128 0x1
 6524 12ae 51       		.byte	0x51
 6525 12af 01       		.uleb128 0x1
 6526 12b0 31       		.byte	0x31
 6527 12b1 00       		.byte	0
 6528 12b2 09       		.uleb128 0x9
 6529 12b3 12000000 		.4byte	.LVL376
 6530 12b7 FC200000 		.4byte	0x20fc
 6531 12bb C7120000 		.4byte	0x12c7
 6532 12bf 0A       		.uleb128 0xa
 6533 12c0 01       		.uleb128 0x1
 6534 12c1 50       		.byte	0x50
ARM GAS  C:\Users\weiro\AppData\Local\Temp\ccSkAWeC.s 			page 139


 6535 12c2 03       		.uleb128 0x3
 6536 12c3 0A       		.byte	0xa
 6537 12c4 F401     		.2byte	0x1f4
 6538 12c6 00       		.byte	0
 6539 12c7 08       		.uleb128 0x8
 6540 12c8 1A000000 		.4byte	.LVL377
 6541 12cc 72220000 		.4byte	0x2272
 6542 12d0 09       		.uleb128 0x9
 6543 12d1 22000000 		.4byte	.LVL378
 6544 12d5 FC200000 		.4byte	0x20fc
 6545 12d9 E5120000 		.4byte	0x12e5
 6546 12dd 0A       		.uleb128 0xa
 6547 12de 01       		.uleb128 0x1
 6548 12df 50       		.byte	0x50
 6549 12e0 03       		.uleb128 0x3
 6550 12e1 0A       		.byte	0xa
 6551 12e2 E803     		.2byte	0x3e8
 6552 12e4 00       		.byte	0
 6553 12e5 08       		.uleb128 0x8
 6554 12e6 28000000 		.4byte	.LVL379
 6555 12ea 7D220000 		.4byte	0x227d
 6556 12ee 09       		.uleb128 0x9
 6557 12ef 30000000 		.4byte	.LVL380
 6558 12f3 FC200000 		.4byte	0x20fc
 6559 12f7 03130000 		.4byte	0x1303
 6560 12fb 0A       		.uleb128 0xa
 6561 12fc 01       		.uleb128 0x1
 6562 12fd 50       		.byte	0x50
 6563 12fe 03       		.uleb128 0x3
 6564 12ff 0A       		.byte	0xa
 6565 1300 E803     		.2byte	0x3e8
 6566 1302 00       		.byte	0
 6567 1303 08       		.uleb128 0x8
 6568 1304 36000000 		.4byte	.LVL381
 6569 1308 72220000 		.4byte	0x2272
 6570 130c 00       		.byte	0
 6571 130d 0D       		.uleb128 0xd
 6572 130e 0B020000 		.4byte	.LASF61
 6573 1312 01       		.byte	0x1
 6574 1313 5603     		.2byte	0x356
 6575 1315 00000000 		.4byte	.LFB88
 6576 1319 3C000000 		.4byte	.LFE88-.LFB88
 6577 131d 01       		.uleb128 0x1
 6578 131e 9C       		.byte	0x9c
 6579 131f 87130000 		.4byte	0x1387
 6580 1323 08       		.uleb128 0x8
 6581 1324 0A000000 		.4byte	.LVL382
 6582 1328 72220000 		.4byte	0x2272
 6583 132c 09       		.uleb128 0x9
 6584 132d 12000000 		.4byte	.LVL383
 6585 1331 FC200000 		.4byte	0x20fc
 6586 1335 41130000 		.4byte	0x1341
 6587 1339 0A       		.uleb128 0xa
 6588 133a 01       		.uleb128 0x1
 6589 133b 50       		.byte	0x50
 6590 133c 03       		.uleb128 0x3
 6591 133d 0A       		.byte	0xa
ARM GAS  C:\Users\weiro\AppData\Local\Temp\ccSkAWeC.s 			page 140


 6592 133e E803     		.2byte	0x3e8
 6593 1340 00       		.byte	0
 6594 1341 08       		.uleb128 0x8
 6595 1342 18000000 		.4byte	.LVL384
 6596 1346 7D220000 		.4byte	0x227d
 6597 134a 09       		.uleb128 0x9
 6598 134b 20000000 		.4byte	.LVL385
 6599 134f FC200000 		.4byte	0x20fc
 6600 1353 5F130000 		.4byte	0x135f
 6601 1357 0A       		.uleb128 0xa
 6602 1358 01       		.uleb128 0x1
 6603 1359 50       		.byte	0x50
 6604 135a 03       		.uleb128 0x3
 6605 135b 0A       		.byte	0xa
 6606 135c F401     		.2byte	0x1f4
 6607 135e 00       		.byte	0
 6608 135f 08       		.uleb128 0x8
 6609 1360 26000000 		.4byte	.LVL386
 6610 1364 72220000 		.4byte	0x2272
 6611 1368 09       		.uleb128 0x9
 6612 1369 2E000000 		.4byte	.LVL387
 6613 136d FC200000 		.4byte	0x20fc
 6614 1371 7D130000 		.4byte	0x137d
 6615 1375 0A       		.uleb128 0xa
 6616 1376 01       		.uleb128 0x1
 6617 1377 50       		.byte	0x50
 6618 1378 03       		.uleb128 0x3
 6619 1379 0A       		.byte	0xa
 6620 137a F401     		.2byte	0x1f4
 6621 137c 00       		.byte	0
 6622 137d 08       		.uleb128 0x8
 6623 137e 34000000 		.4byte	.LVL388
 6624 1382 7D220000 		.4byte	0x227d
 6625 1386 00       		.byte	0
 6626 1387 0D       		.uleb128 0xd
 6627 1388 82010000 		.4byte	.LASF62
 6628 138c 01       		.byte	0x1
 6629 138d 6103     		.2byte	0x361
 6630 138f 00000000 		.4byte	.LFB89
 6631 1393 20000000 		.4byte	.LFE89-.LFB89
 6632 1397 01       		.uleb128 0x1
 6633 1398 9C       		.byte	0x9c
 6634 1399 EA130000 		.4byte	0x13ea
 6635 139d 09       		.uleb128 0x9
 6636 139e 08000000 		.4byte	.LVL389
 6637 13a2 3B220000 		.4byte	0x223b
 6638 13a6 B0130000 		.4byte	0x13b0
 6639 13aa 0A       		.uleb128 0xa
 6640 13ab 01       		.uleb128 0x1
 6641 13ac 50       		.byte	0x50
 6642 13ad 01       		.uleb128 0x1
 6643 13ae 31       		.byte	0x31
 6644 13af 00       		.byte	0
 6645 13b0 09       		.uleb128 0x9
 6646 13b1 10000000 		.4byte	.LVL390
 6647 13b5 FC200000 		.4byte	0x20fc
 6648 13b9 C5130000 		.4byte	0x13c5
ARM GAS  C:\Users\weiro\AppData\Local\Temp\ccSkAWeC.s 			page 141


 6649 13bd 0A       		.uleb128 0xa
 6650 13be 01       		.uleb128 0x1
 6651 13bf 50       		.byte	0x50
 6652 13c0 03       		.uleb128 0x3
 6653 13c1 0A       		.byte	0xa
 6654 13c2 8813     		.2byte	0x1388
 6655 13c4 00       		.byte	0
 6656 13c5 09       		.uleb128 0x9
 6657 13c6 18000000 		.4byte	.LVL391
 6658 13ca FC200000 		.4byte	0x20fc
 6659 13ce DA130000 		.4byte	0x13da
 6660 13d2 0A       		.uleb128 0xa
 6661 13d3 01       		.uleb128 0x1
 6662 13d4 50       		.byte	0x50
 6663 13d5 03       		.uleb128 0x3
 6664 13d6 0A       		.byte	0xa
 6665 13d7 F401     		.2byte	0x1f4
 6666 13d9 00       		.byte	0
 6667 13da 0B       		.uleb128 0xb
 6668 13db 1E000000 		.4byte	.LVL392
 6669 13df 3B220000 		.4byte	0x223b
 6670 13e3 0A       		.uleb128 0xa
 6671 13e4 01       		.uleb128 0x1
 6672 13e5 50       		.byte	0x50
 6673 13e6 01       		.uleb128 0x1
 6674 13e7 30       		.byte	0x30
 6675 13e8 00       		.byte	0
 6676 13e9 00       		.byte	0
 6677 13ea 19       		.uleb128 0x19
 6678 13eb 800A0000 		.4byte	.LASF192
 6679 13ef 01       		.byte	0x1
 6680 13f0 6A03     		.2byte	0x36a
 6681 13f2 6F000000 		.4byte	0x6f
 6682 13f6 00000000 		.4byte	.LFB90
 6683 13fa BC050000 		.4byte	.LFE90-.LFB90
 6684 13fe 01       		.uleb128 0x1
 6685 13ff 9C       		.byte	0x9c
 6686 1400 9B1B0000 		.4byte	0x1b9b
 6687 1404 10       		.uleb128 0x10
 6688 1405 09080000 		.4byte	.LASF31
 6689 1409 01       		.byte	0x1
 6690 140a 8803     		.2byte	0x388
 6691 140c 6F000000 		.4byte	0x6f
 6692 1410 C0050000 		.4byte	.LLST28
 6693 1414 10       		.uleb128 0x10
 6694 1415 F0050000 		.4byte	.LASF44
 6695 1419 01       		.byte	0x1
 6696 141a 8903     		.2byte	0x389
 6697 141c 6F000000 		.4byte	0x6f
 6698 1420 40060000 		.4byte	.LLST29
 6699 1424 10       		.uleb128 0x10
 6700 1425 E8060000 		.4byte	.LASF49
 6701 1429 01       		.byte	0x1
 6702 142a 8C03     		.2byte	0x38c
 6703 142c 25000000 		.4byte	0x25
 6704 1430 B1060000 		.4byte	.LLST30
 6705 1434 1A       		.uleb128 0x1a
ARM GAS  C:\Users\weiro\AppData\Local\Temp\ccSkAWeC.s 			page 142


 6706 1435 2C020000 		.4byte	.LBB7
 6707 1439 44000000 		.4byte	.LBE7-.LBB7
 6708 143d CD140000 		.4byte	0x14cd
 6709 1441 10       		.uleb128 0x10
 6710 1442 09080000 		.4byte	.LASF31
 6711 1446 01       		.byte	0x1
 6712 1447 F003     		.2byte	0x3f0
 6713 1449 6F000000 		.4byte	0x6f
 6714 144d 6D070000 		.4byte	.LLST31
 6715 1451 10       		.uleb128 0x10
 6716 1452 E8060000 		.4byte	.LASF49
 6717 1456 01       		.byte	0x1
 6718 1457 F103     		.2byte	0x3f1
 6719 1459 6F000000 		.4byte	0x6f
 6720 145d 81070000 		.4byte	.LLST32
 6721 1461 09       		.uleb128 0x9
 6722 1462 34020000 		.4byte	.LVL453
 6723 1466 18050000 		.4byte	0x518
 6724 146a 79140000 		.4byte	0x1479
 6725 146e 0A       		.uleb128 0xa
 6726 146f 01       		.uleb128 0x1
 6727 1470 50       		.byte	0x50
 6728 1471 01       		.uleb128 0x1
 6729 1472 32       		.byte	0x32
 6730 1473 0A       		.uleb128 0xa
 6731 1474 01       		.uleb128 0x1
 6732 1475 51       		.byte	0x51
 6733 1476 01       		.uleb128 0x1
 6734 1477 30       		.byte	0x30
 6735 1478 00       		.byte	0
 6736 1479 09       		.uleb128 0x9
 6737 147a 3C020000 		.4byte	.LVL454
 6738 147e FC200000 		.4byte	0x20fc
 6739 1482 8E140000 		.4byte	0x148e
 6740 1486 0A       		.uleb128 0xa
 6741 1487 01       		.uleb128 0x1
 6742 1488 50       		.byte	0x50
 6743 1489 03       		.uleb128 0x3
 6744 148a 0A       		.byte	0xa
 6745 148b F401     		.2byte	0x1f4
 6746 148d 00       		.byte	0
 6747 148e 08       		.uleb128 0x8
 6748 148f 40020000 		.4byte	.LVL455
 6749 1493 3F0A0000 		.4byte	0xa3f
 6750 1497 09       		.uleb128 0x9
 6751 1498 50020000 		.4byte	.LVL456
 6752 149c 1A220000 		.4byte	0x221a
 6753 14a0 AA140000 		.4byte	0x14aa
 6754 14a4 0A       		.uleb128 0xa
 6755 14a5 01       		.uleb128 0x1
 6756 14a6 50       		.byte	0x50
 6757 14a7 01       		.uleb128 0x1
 6758 14a8 31       		.byte	0x31
 6759 14a9 00       		.byte	0
 6760 14aa 09       		.uleb128 0x9
 6761 14ab 5C020000 		.4byte	.LVL457
 6762 14af 25220000 		.4byte	0x2225
ARM GAS  C:\Users\weiro\AppData\Local\Temp\ccSkAWeC.s 			page 143


 6763 14b3 BD140000 		.4byte	0x14bd
 6764 14b7 0A       		.uleb128 0xa
 6765 14b8 01       		.uleb128 0x1
 6766 14b9 50       		.byte	0x50
 6767 14ba 01       		.uleb128 0x1
 6768 14bb 31       		.byte	0x31
 6769 14bc 00       		.byte	0
 6770 14bd 0B       		.uleb128 0xb
 6771 14be 68020000 		.4byte	.LVL458
 6772 14c2 30220000 		.4byte	0x2230
 6773 14c6 0A       		.uleb128 0xa
 6774 14c7 01       		.uleb128 0x1
 6775 14c8 50       		.byte	0x50
 6776 14c9 01       		.uleb128 0x1
 6777 14ca 31       		.byte	0x31
 6778 14cb 00       		.byte	0
 6779 14cc 00       		.byte	0
 6780 14cd 09       		.uleb128 0x9
 6781 14ce 84000000 		.4byte	.LVL399
 6782 14d2 88220000 		.4byte	0x2288
 6783 14d6 E4140000 		.4byte	0x14e4
 6784 14da 0A       		.uleb128 0xa
 6785 14db 01       		.uleb128 0x1
 6786 14dc 50       		.byte	0x50
 6787 14dd 05       		.uleb128 0x5
 6788 14de 03       		.byte	0x3
 6789 14df 00000000 		.4byte	Speed_Control
 6790 14e3 00       		.byte	0
 6791 14e4 09       		.uleb128 0x9
 6792 14e5 8A000000 		.4byte	.LVL400
 6793 14e9 93220000 		.4byte	0x2293
 6794 14ed FB140000 		.4byte	0x14fb
 6795 14f1 0A       		.uleb128 0xa
 6796 14f2 01       		.uleb128 0x1
 6797 14f3 50       		.byte	0x50
 6798 14f4 05       		.uleb128 0x5
 6799 14f5 03       		.byte	0x3
 6800 14f6 00000000 		.4byte	Color_sensing
 6801 14fa 00       		.byte	0
 6802 14fb 08       		.uleb128 0x8
 6803 14fc 8E000000 		.4byte	.LVL401
 6804 1500 9E220000 		.4byte	0x229e
 6805 1504 09       		.uleb128 0x9
 6806 1505 94000000 		.4byte	.LVL402
 6807 1509 A9220000 		.4byte	0x22a9
 6808 150d 1B150000 		.4byte	0x151b
 6809 1511 0A       		.uleb128 0xa
 6810 1512 01       		.uleb128 0x1
 6811 1513 50       		.byte	0x50
 6812 1514 05       		.uleb128 0x5
 6813 1515 03       		.byte	0x3
 6814 1516 00000000 		.4byte	ultrasonic_echo
 6815 151a 00       		.byte	0
 6816 151b 08       		.uleb128 0x8
 6817 151c 98000000 		.4byte	.LVL403
 6818 1520 B4220000 		.4byte	0x22b4
 6819 1524 09       		.uleb128 0x9
ARM GAS  C:\Users\weiro\AppData\Local\Temp\ccSkAWeC.s 			page 144


 6820 1525 9E000000 		.4byte	.LVL404
 6821 1529 BF220000 		.4byte	0x22bf
 6822 152d 3B150000 		.4byte	0x153b
 6823 1531 0A       		.uleb128 0xa
 6824 1532 01       		.uleb128 0x1
 6825 1533 50       		.byte	0x50
 6826 1534 05       		.uleb128 0x5
 6827 1535 03       		.byte	0x3
 6828 1536 00000000 		.4byte	Bluetooth
 6829 153a 00       		.byte	0
 6830 153b 09       		.uleb128 0x9
 6831 153c A4000000 		.4byte	.LVL405
 6832 1540 3B220000 		.4byte	0x223b
 6833 1544 4E150000 		.4byte	0x154e
 6834 1548 0A       		.uleb128 0xa
 6835 1549 01       		.uleb128 0x1
 6836 154a 50       		.byte	0x50
 6837 154b 01       		.uleb128 0x1
 6838 154c 30       		.byte	0x30
 6839 154d 00       		.byte	0
 6840 154e 08       		.uleb128 0x8
 6841 154f A8000000 		.4byte	.LVL406
 6842 1553 CA220000 		.4byte	0x22ca
 6843 1557 08       		.uleb128 0x8
 6844 1558 AC000000 		.4byte	.LVL407
 6845 155c D5220000 		.4byte	0x22d5
 6846 1560 08       		.uleb128 0x8
 6847 1561 B0000000 		.4byte	.LVL408
 6848 1565 E0220000 		.4byte	0x22e0
 6849 1569 08       		.uleb128 0x8
 6850 156a B4000000 		.4byte	.LVL409
 6851 156e EB220000 		.4byte	0x22eb
 6852 1572 09       		.uleb128 0x9
 6853 1573 BA000000 		.4byte	.LVL410
 6854 1577 3E210000 		.4byte	0x213e
 6855 157b 85150000 		.4byte	0x1585
 6856 157f 0A       		.uleb128 0xa
 6857 1580 01       		.uleb128 0x1
 6858 1581 50       		.byte	0x50
 6859 1582 01       		.uleb128 0x1
 6860 1583 30       		.byte	0x30
 6861 1584 00       		.byte	0
 6862 1585 08       		.uleb128 0x8
 6863 1586 BE000000 		.4byte	.LVL411
 6864 158a F6220000 		.4byte	0x22f6
 6865 158e 09       		.uleb128 0x9
 6866 158f C4000000 		.4byte	.LVL412
 6867 1593 49210000 		.4byte	0x2149
 6868 1597 A1150000 		.4byte	0x15a1
 6869 159b 0A       		.uleb128 0xa
 6870 159c 01       		.uleb128 0x1
 6871 159d 50       		.byte	0x50
 6872 159e 01       		.uleb128 0x1
 6873 159f 30       		.byte	0x30
 6874 15a0 00       		.byte	0
 6875 15a1 08       		.uleb128 0x8
 6876 15a2 C8000000 		.4byte	.LVL413
ARM GAS  C:\Users\weiro\AppData\Local\Temp\ccSkAWeC.s 			page 145


 6877 15a6 01230000 		.4byte	0x2301
 6878 15aa 09       		.uleb128 0x9
 6879 15ab CE000000 		.4byte	.LVL414
 6880 15af CD210000 		.4byte	0x21cd
 6881 15b3 BD150000 		.4byte	0x15bd
 6882 15b7 0A       		.uleb128 0xa
 6883 15b8 01       		.uleb128 0x1
 6884 15b9 50       		.byte	0x50
 6885 15ba 01       		.uleb128 0x1
 6886 15bb 30       		.byte	0x30
 6887 15bc 00       		.byte	0
 6888 15bd 08       		.uleb128 0x8
 6889 15be D2000000 		.4byte	.LVL415
 6890 15c2 0C230000 		.4byte	0x230c
 6891 15c6 08       		.uleb128 0x8
 6892 15c7 D6000000 		.4byte	.LVL416
 6893 15cb 17230000 		.4byte	0x2317
 6894 15cf 08       		.uleb128 0x8
 6895 15d0 E4000000 		.4byte	.LVL418
 6896 15d4 AC210000 		.4byte	0x21ac
 6897 15d8 08       		.uleb128 0x8
 6898 15d9 F2000000 		.4byte	.LVL420
 6899 15dd 83200000 		.4byte	0x2083
 6900 15e1 09       		.uleb128 0x9
 6901 15e2 02010000 		.4byte	.LVL421
 6902 15e6 22230000 		.4byte	0x2322
 6903 15ea 01160000 		.4byte	0x1601
 6904 15ee 0A       		.uleb128 0xa
 6905 15ef 01       		.uleb128 0x1
 6906 15f0 50       		.byte	0x50
 6907 15f1 05       		.uleb128 0x5
 6908 15f2 03       		.byte	0x3
 6909 15f3 00000000 		.4byte	string_bt
 6910 15f7 0A       		.uleb128 0xa
 6911 15f8 01       		.uleb128 0x1
 6912 15f9 51       		.byte	0x51
 6913 15fa 05       		.uleb128 0x5
 6914 15fb 03       		.byte	0x3
 6915 15fc A8000000 		.4byte	.LC12
 6916 1600 00       		.byte	0
 6917 1601 09       		.uleb128 0x9
 6918 1602 0A010000 		.4byte	.LVL422
 6919 1606 AF200000 		.4byte	0x20af
 6920 160a 18160000 		.4byte	0x1618
 6921 160e 0A       		.uleb128 0xa
 6922 160f 01       		.uleb128 0x1
 6923 1610 50       		.byte	0x50
 6924 1611 05       		.uleb128 0x5
 6925 1612 03       		.byte	0x3
 6926 1613 B8000000 		.4byte	.LC13
 6927 1617 00       		.byte	0
 6928 1618 09       		.uleb128 0x9
 6929 1619 14010000 		.4byte	.LVL423
 6930 161d 22230000 		.4byte	0x2322
 6931 1621 38160000 		.4byte	0x1638
 6932 1625 0A       		.uleb128 0xa
 6933 1626 01       		.uleb128 0x1
ARM GAS  C:\Users\weiro\AppData\Local\Temp\ccSkAWeC.s 			page 146


 6934 1627 50       		.byte	0x50
 6935 1628 05       		.uleb128 0x5
 6936 1629 03       		.byte	0x3
 6937 162a 00000000 		.4byte	string_bt
 6938 162e 0A       		.uleb128 0xa
 6939 162f 01       		.uleb128 0x1
 6940 1630 51       		.byte	0x51
 6941 1631 05       		.uleb128 0x5
 6942 1632 03       		.byte	0x3
 6943 1633 C4000000 		.4byte	.LC14
 6944 1637 00       		.byte	0
 6945 1638 08       		.uleb128 0x8
 6946 1639 1E010000 		.4byte	.LVL424
 6947 163d C7050000 		.4byte	0x5c7
 6948 1641 09       		.uleb128 0x9
 6949 1642 28010000 		.4byte	.LVL426
 6950 1646 18050000 		.4byte	0x518
 6951 164a 5A160000 		.4byte	0x165a
 6952 164e 0A       		.uleb128 0xa
 6953 164f 01       		.uleb128 0x1
 6954 1650 50       		.byte	0x50
 6955 1651 02       		.uleb128 0x2
 6956 1652 08       		.byte	0x8
 6957 1653 32       		.byte	0x32
 6958 1654 0A       		.uleb128 0xa
 6959 1655 01       		.uleb128 0x1
 6960 1656 51       		.byte	0x51
 6961 1657 01       		.uleb128 0x1
 6962 1658 31       		.byte	0x31
 6963 1659 00       		.byte	0
 6964 165a 09       		.uleb128 0x9
 6965 165b 38010000 		.4byte	.LVL428
 6966 165f 98090000 		.4byte	0x998
 6967 1663 6D160000 		.4byte	0x166d
 6968 1667 0A       		.uleb128 0xa
 6969 1668 01       		.uleb128 0x1
 6970 1669 51       		.byte	0x51
 6971 166a 01       		.uleb128 0x1
 6972 166b 30       		.byte	0x30
 6973 166c 00       		.byte	0
 6974 166d 08       		.uleb128 0x8
 6975 166e 3C010000 		.4byte	.LVL429
 6976 1672 C7050000 		.4byte	0x5c7
 6977 1676 09       		.uleb128 0x9
 6978 1677 4A010000 		.4byte	.LVL431
 6979 167b 98090000 		.4byte	0x998
 6980 167f 89160000 		.4byte	0x1689
 6981 1683 0A       		.uleb128 0xa
 6982 1684 01       		.uleb128 0x1
 6983 1685 51       		.byte	0x51
 6984 1686 01       		.uleb128 0x1
 6985 1687 31       		.byte	0x31
 6986 1688 00       		.byte	0
 6987 1689 09       		.uleb128 0x9
 6988 168a 68010000 		.4byte	.LVL433
 6989 168e FC200000 		.4byte	0x20fc
 6990 1692 9E160000 		.4byte	0x169e
ARM GAS  C:\Users\weiro\AppData\Local\Temp\ccSkAWeC.s 			page 147


 6991 1696 0A       		.uleb128 0xa
 6992 1697 01       		.uleb128 0x1
 6993 1698 50       		.byte	0x50
 6994 1699 03       		.uleb128 0x3
 6995 169a 0A       		.byte	0xa
 6996 169b F401     		.2byte	0x1f4
 6997 169d 00       		.byte	0
 6998 169e 08       		.uleb128 0x8
 6999 169f 6E010000 		.4byte	.LVL434
 7000 16a3 C7050000 		.4byte	0x5c7
 7001 16a7 09       		.uleb128 0x9
 7002 16a8 76010000 		.4byte	.LVL435
 7003 16ac FC200000 		.4byte	0x20fc
 7004 16b0 BC160000 		.4byte	0x16bc
 7005 16b4 0A       		.uleb128 0xa
 7006 16b5 01       		.uleb128 0x1
 7007 16b6 50       		.byte	0x50
 7008 16b7 03       		.uleb128 0x3
 7009 16b8 0A       		.byte	0xa
 7010 16b9 F401     		.2byte	0x1f4
 7011 16bb 00       		.byte	0
 7012 16bc 09       		.uleb128 0x9
 7013 16bd 86010000 		.4byte	.LVL437
 7014 16c1 98090000 		.4byte	0x998
 7015 16c5 CF160000 		.4byte	0x16cf
 7016 16c9 0A       		.uleb128 0xa
 7017 16ca 01       		.uleb128 0x1
 7018 16cb 51       		.byte	0x51
 7019 16cc 01       		.uleb128 0x1
 7020 16cd 31       		.byte	0x31
 7021 16ce 00       		.byte	0
 7022 16cf 09       		.uleb128 0x9
 7023 16d0 9E010000 		.4byte	.LVL439
 7024 16d4 FC200000 		.4byte	0x20fc
 7025 16d8 E4160000 		.4byte	0x16e4
 7026 16dc 0A       		.uleb128 0xa
 7027 16dd 01       		.uleb128 0x1
 7028 16de 50       		.byte	0x50
 7029 16df 03       		.uleb128 0x3
 7030 16e0 0A       		.byte	0xa
 7031 16e1 E803     		.2byte	0x3e8
 7032 16e3 00       		.byte	0
 7033 16e4 08       		.uleb128 0x8
 7034 16e5 A4010000 		.4byte	.LVL440
 7035 16e9 AA060000 		.4byte	0x6aa
 7036 16ed 09       		.uleb128 0x9
 7037 16ee BA010000 		.4byte	.LVL441
 7038 16f2 AF200000 		.4byte	0x20af
 7039 16f6 04170000 		.4byte	0x1704
 7040 16fa 0A       		.uleb128 0xa
 7041 16fb 01       		.uleb128 0x1
 7042 16fc 50       		.byte	0x50
 7043 16fd 05       		.uleb128 0x5
 7044 16fe 03       		.byte	0x3
 7045 16ff 00000000 		.4byte	string_1
 7046 1703 00       		.byte	0
 7047 1704 09       		.uleb128 0x9
ARM GAS  C:\Users\weiro\AppData\Local\Temp\ccSkAWeC.s 			page 148


 7048 1705 C2010000 		.4byte	.LVL442
 7049 1709 FC200000 		.4byte	0x20fc
 7050 170d 19170000 		.4byte	0x1719
 7051 1711 0A       		.uleb128 0xa
 7052 1712 01       		.uleb128 0x1
 7053 1713 50       		.byte	0x50
 7054 1714 03       		.uleb128 0x3
 7055 1715 0A       		.byte	0xa
 7056 1716 F401     		.2byte	0x1f4
 7057 1718 00       		.byte	0
 7058 1719 09       		.uleb128 0x9
 7059 171a DA010000 		.4byte	.LVL443
 7060 171e FC200000 		.4byte	0x20fc
 7061 1722 2E170000 		.4byte	0x172e
 7062 1726 0A       		.uleb128 0xa
 7063 1727 01       		.uleb128 0x1
 7064 1728 50       		.byte	0x50
 7065 1729 03       		.uleb128 0x3
 7066 172a 0A       		.byte	0xa
 7067 172b F401     		.2byte	0x1f4
 7068 172d 00       		.byte	0
 7069 172e 09       		.uleb128 0x9
 7070 172f E4010000 		.4byte	.LVL445
 7071 1733 18050000 		.4byte	0x518
 7072 1737 46170000 		.4byte	0x1746
 7073 173b 0A       		.uleb128 0xa
 7074 173c 01       		.uleb128 0x1
 7075 173d 50       		.byte	0x50
 7076 173e 01       		.uleb128 0x1
 7077 173f 38       		.byte	0x38
 7078 1740 0A       		.uleb128 0xa
 7079 1741 01       		.uleb128 0x1
 7080 1742 51       		.byte	0x51
 7081 1743 01       		.uleb128 0x1
 7082 1744 31       		.byte	0x31
 7083 1745 00       		.byte	0
 7084 1746 09       		.uleb128 0x9
 7085 1747 F4010000 		.4byte	.LVL447
 7086 174b 98090000 		.4byte	0x998
 7087 174f 59170000 		.4byte	0x1759
 7088 1753 0A       		.uleb128 0xa
 7089 1754 01       		.uleb128 0x1
 7090 1755 51       		.byte	0x51
 7091 1756 01       		.uleb128 0x1
 7092 1757 30       		.byte	0x30
 7093 1758 00       		.byte	0
 7094 1759 09       		.uleb128 0x9
 7095 175a 0C020000 		.4byte	.LVL449
 7096 175e FC200000 		.4byte	0x20fc
 7097 1762 6E170000 		.4byte	0x176e
 7098 1766 0A       		.uleb128 0xa
 7099 1767 01       		.uleb128 0x1
 7100 1768 50       		.byte	0x50
 7101 1769 03       		.uleb128 0x3
 7102 176a 0A       		.byte	0xa
 7103 176b F401     		.2byte	0x1f4
 7104 176d 00       		.byte	0
ARM GAS  C:\Users\weiro\AppData\Local\Temp\ccSkAWeC.s 			page 149


 7105 176e 08       		.uleb128 0x8
 7106 176f 12020000 		.4byte	.LVL450
 7107 1773 B4070000 		.4byte	0x7b4
 7108 1777 09       		.uleb128 0x9
 7109 1778 2A020000 		.4byte	.LVL451
 7110 177c FC200000 		.4byte	0x20fc
 7111 1780 8C170000 		.4byte	0x178c
 7112 1784 0A       		.uleb128 0xa
 7113 1785 01       		.uleb128 0x1
 7114 1786 50       		.byte	0x50
 7115 1787 03       		.uleb128 0x3
 7116 1788 0A       		.byte	0xa
 7117 1789 F401     		.2byte	0x1f4
 7118 178b 00       		.byte	0
 7119 178c 09       		.uleb128 0x9
 7120 178d 80020000 		.4byte	.LVL460
 7121 1791 FC200000 		.4byte	0x20fc
 7122 1795 A1170000 		.4byte	0x17a1
 7123 1799 0A       		.uleb128 0xa
 7124 179a 01       		.uleb128 0x1
 7125 179b 50       		.byte	0x50
 7126 179c 03       		.uleb128 0x3
 7127 179d 0A       		.byte	0xa
 7128 179e F401     		.2byte	0x1f4
 7129 17a0 00       		.byte	0
 7130 17a1 09       		.uleb128 0x9
 7131 17a2 8A020000 		.4byte	.LVL462
 7132 17a6 18050000 		.4byte	0x518
 7133 17aa B9170000 		.4byte	0x17b9
 7134 17ae 0A       		.uleb128 0xa
 7135 17af 01       		.uleb128 0x1
 7136 17b0 50       		.byte	0x50
 7137 17b1 01       		.uleb128 0x1
 7138 17b2 42       		.byte	0x42
 7139 17b3 0A       		.uleb128 0xa
 7140 17b4 01       		.uleb128 0x1
 7141 17b5 51       		.byte	0x51
 7142 17b6 01       		.uleb128 0x1
 7143 17b7 31       		.byte	0x31
 7144 17b8 00       		.byte	0
 7145 17b9 08       		.uleb128 0x8
 7146 17ba 92020000 		.4byte	.LVL463
 7147 17be 72220000 		.4byte	0x2272
 7148 17c2 09       		.uleb128 0x9
 7149 17c3 9A020000 		.4byte	.LVL464
 7150 17c7 FC200000 		.4byte	0x20fc
 7151 17cb D7170000 		.4byte	0x17d7
 7152 17cf 0A       		.uleb128 0xa
 7153 17d0 01       		.uleb128 0x1
 7154 17d1 50       		.byte	0x50
 7155 17d2 03       		.uleb128 0x3
 7156 17d3 0A       		.byte	0xa
 7157 17d4 F401     		.2byte	0x1f4
 7158 17d6 00       		.byte	0
 7159 17d7 08       		.uleb128 0x8
 7160 17d8 A0020000 		.4byte	.LVL465
 7161 17dc 7D220000 		.4byte	0x227d
ARM GAS  C:\Users\weiro\AppData\Local\Temp\ccSkAWeC.s 			page 150


 7162 17e0 09       		.uleb128 0x9
 7163 17e1 A8020000 		.4byte	.LVL466
 7164 17e5 FC200000 		.4byte	0x20fc
 7165 17e9 F5170000 		.4byte	0x17f5
 7166 17ed 0A       		.uleb128 0xa
 7167 17ee 01       		.uleb128 0x1
 7168 17ef 50       		.byte	0x50
 7169 17f0 03       		.uleb128 0x3
 7170 17f1 0A       		.byte	0xa
 7171 17f2 F401     		.2byte	0x1f4
 7172 17f4 00       		.byte	0
 7173 17f5 08       		.uleb128 0x8
 7174 17f6 AE020000 		.4byte	.LVL467
 7175 17fa 72220000 		.4byte	0x2272
 7176 17fe 09       		.uleb128 0x9
 7177 17ff C4020000 		.4byte	.LVL469
 7178 1803 FC200000 		.4byte	0x20fc
 7179 1807 13180000 		.4byte	0x1813
 7180 180b 0A       		.uleb128 0xa
 7181 180c 01       		.uleb128 0x1
 7182 180d 50       		.byte	0x50
 7183 180e 03       		.uleb128 0x3
 7184 180f 0A       		.byte	0xa
 7185 1810 F401     		.2byte	0x1f4
 7186 1812 00       		.byte	0
 7187 1813 09       		.uleb128 0x9
 7188 1814 CE020000 		.4byte	.LVL471
 7189 1818 18050000 		.4byte	0x518
 7190 181c 2C180000 		.4byte	0x182c
 7191 1820 0A       		.uleb128 0xa
 7192 1821 01       		.uleb128 0x1
 7193 1822 50       		.byte	0x50
 7194 1823 02       		.uleb128 0x2
 7195 1824 08       		.byte	0x8
 7196 1825 32       		.byte	0x32
 7197 1826 0A       		.uleb128 0xa
 7198 1827 01       		.uleb128 0x1
 7199 1828 51       		.byte	0x51
 7200 1829 01       		.uleb128 0x1
 7201 182a 30       		.byte	0x30
 7202 182b 00       		.byte	0
 7203 182c 09       		.uleb128 0x9
 7204 182d D6020000 		.4byte	.LVL472
 7205 1831 FC200000 		.4byte	0x20fc
 7206 1835 41180000 		.4byte	0x1841
 7207 1839 0A       		.uleb128 0xa
 7208 183a 01       		.uleb128 0x1
 7209 183b 50       		.byte	0x50
 7210 183c 03       		.uleb128 0x3
 7211 183d 0A       		.byte	0xa
 7212 183e F401     		.2byte	0x1f4
 7213 1840 00       		.byte	0
 7214 1841 09       		.uleb128 0x9
 7215 1842 3A030000 		.4byte	.LVL475
 7216 1846 98090000 		.4byte	0x998
 7217 184a 55180000 		.4byte	0x1855
 7218 184e 0A       		.uleb128 0xa
ARM GAS  C:\Users\weiro\AppData\Local\Temp\ccSkAWeC.s 			page 151


 7219 184f 01       		.uleb128 0x1
 7220 1850 51       		.byte	0x51
 7221 1851 02       		.uleb128 0x2
 7222 1852 74       		.byte	0x74
 7223 1853 00       		.sleb128 0
 7224 1854 00       		.byte	0
 7225 1855 09       		.uleb128 0x9
 7226 1856 52030000 		.4byte	.LVL477
 7227 185a FC200000 		.4byte	0x20fc
 7228 185e 6A180000 		.4byte	0x186a
 7229 1862 0A       		.uleb128 0xa
 7230 1863 01       		.uleb128 0x1
 7231 1864 50       		.byte	0x50
 7232 1865 03       		.uleb128 0x3
 7233 1866 0A       		.byte	0xa
 7234 1867 F401     		.2byte	0x1f4
 7235 1869 00       		.byte	0
 7236 186a 08       		.uleb128 0x8
 7237 186b 5E030000 		.4byte	.LVL478
 7238 186f C7050000 		.4byte	0x5c7
 7239 1873 09       		.uleb128 0x9
 7240 1874 6E030000 		.4byte	.LVL480
 7241 1878 98090000 		.4byte	0x998
 7242 187c 86180000 		.4byte	0x1886
 7243 1880 0A       		.uleb128 0xa
 7244 1881 01       		.uleb128 0x1
 7245 1882 51       		.byte	0x51
 7246 1883 01       		.uleb128 0x1
 7247 1884 31       		.byte	0x31
 7248 1885 00       		.byte	0
 7249 1886 09       		.uleb128 0x9
 7250 1887 86030000 		.4byte	.LVL482
 7251 188b FC200000 		.4byte	0x20fc
 7252 188f 9B180000 		.4byte	0x189b
 7253 1893 0A       		.uleb128 0xa
 7254 1894 01       		.uleb128 0x1
 7255 1895 50       		.byte	0x50
 7256 1896 03       		.uleb128 0x3
 7257 1897 0A       		.byte	0xa
 7258 1898 F401     		.2byte	0x1f4
 7259 189a 00       		.byte	0
 7260 189b 09       		.uleb128 0x9
 7261 189c 96030000 		.4byte	.LVL484
 7262 18a0 18050000 		.4byte	0x518
 7263 18a4 B4180000 		.4byte	0x18b4
 7264 18a8 0A       		.uleb128 0xa
 7265 18a9 01       		.uleb128 0x1
 7266 18aa 50       		.byte	0x50
 7267 18ab 02       		.uleb128 0x2
 7268 18ac 08       		.byte	0x8
 7269 18ad 46       		.byte	0x46
 7270 18ae 0A       		.uleb128 0xa
 7271 18af 01       		.uleb128 0x1
 7272 18b0 51       		.byte	0x51
 7273 18b1 01       		.uleb128 0x1
 7274 18b2 30       		.byte	0x30
 7275 18b3 00       		.byte	0
ARM GAS  C:\Users\weiro\AppData\Local\Temp\ccSkAWeC.s 			page 152


 7276 18b4 09       		.uleb128 0x9
 7277 18b5 9E030000 		.4byte	.LVL485
 7278 18b9 FC200000 		.4byte	0x20fc
 7279 18bd C9180000 		.4byte	0x18c9
 7280 18c1 0A       		.uleb128 0xa
 7281 18c2 01       		.uleb128 0x1
 7282 18c3 50       		.byte	0x50
 7283 18c4 03       		.uleb128 0x3
 7284 18c5 0A       		.byte	0xa
 7285 18c6 F401     		.2byte	0x1f4
 7286 18c8 00       		.byte	0
 7287 18c9 09       		.uleb128 0x9
 7288 18ca C6030000 		.4byte	.LVL487
 7289 18ce FC200000 		.4byte	0x20fc
 7290 18d2 DE180000 		.4byte	0x18de
 7291 18d6 0A       		.uleb128 0xa
 7292 18d7 01       		.uleb128 0x1
 7293 18d8 50       		.byte	0x50
 7294 18d9 03       		.uleb128 0x3
 7295 18da 0A       		.byte	0xa
 7296 18db F401     		.2byte	0x1f4
 7297 18dd 00       		.byte	0
 7298 18de 09       		.uleb128 0x9
 7299 18df DE030000 		.4byte	.LVL488
 7300 18e3 FC200000 		.4byte	0x20fc
 7301 18e7 F3180000 		.4byte	0x18f3
 7302 18eb 0A       		.uleb128 0xa
 7303 18ec 01       		.uleb128 0x1
 7304 18ed 50       		.byte	0x50
 7305 18ee 03       		.uleb128 0x3
 7306 18ef 0A       		.byte	0xa
 7307 18f0 F401     		.2byte	0x1f4
 7308 18f2 00       		.byte	0
 7309 18f3 08       		.uleb128 0x8
 7310 18f4 E8030000 		.4byte	.LVL489
 7311 18f8 72220000 		.4byte	0x2272
 7312 18fc 09       		.uleb128 0x9
 7313 18fd F0030000 		.4byte	.LVL490
 7314 1901 FC200000 		.4byte	0x20fc
 7315 1905 11190000 		.4byte	0x1911
 7316 1909 0A       		.uleb128 0xa
 7317 190a 01       		.uleb128 0x1
 7318 190b 50       		.byte	0x50
 7319 190c 03       		.uleb128 0x3
 7320 190d 0A       		.byte	0xa
 7321 190e E803     		.2byte	0x3e8
 7322 1910 00       		.byte	0
 7323 1911 08       		.uleb128 0x8
 7324 1912 F6030000 		.4byte	.LVL491
 7325 1916 7D220000 		.4byte	0x227d
 7326 191a 09       		.uleb128 0x9
 7327 191b FE030000 		.4byte	.LVL492
 7328 191f FC200000 		.4byte	0x20fc
 7329 1923 2F190000 		.4byte	0x192f
 7330 1927 0A       		.uleb128 0xa
 7331 1928 01       		.uleb128 0x1
 7332 1929 50       		.byte	0x50
ARM GAS  C:\Users\weiro\AppData\Local\Temp\ccSkAWeC.s 			page 153


 7333 192a 03       		.uleb128 0x3
 7334 192b 0A       		.byte	0xa
 7335 192c F401     		.2byte	0x1f4
 7336 192e 00       		.byte	0
 7337 192f 08       		.uleb128 0x8
 7338 1930 04040000 		.4byte	.LVL493
 7339 1934 72220000 		.4byte	0x2272
 7340 1938 09       		.uleb128 0x9
 7341 1939 0C040000 		.4byte	.LVL494
 7342 193d FC200000 		.4byte	0x20fc
 7343 1941 4D190000 		.4byte	0x194d
 7344 1945 0A       		.uleb128 0xa
 7345 1946 01       		.uleb128 0x1
 7346 1947 50       		.byte	0x50
 7347 1948 03       		.uleb128 0x3
 7348 1949 0A       		.byte	0xa
 7349 194a F401     		.2byte	0x1f4
 7350 194c 00       		.byte	0
 7351 194d 08       		.uleb128 0x8
 7352 194e 12040000 		.4byte	.LVL495
 7353 1952 7D220000 		.4byte	0x227d
 7354 1956 09       		.uleb128 0x9
 7355 1957 28040000 		.4byte	.LVL496
 7356 195b FC200000 		.4byte	0x20fc
 7357 195f 6B190000 		.4byte	0x196b
 7358 1963 0A       		.uleb128 0xa
 7359 1964 01       		.uleb128 0x1
 7360 1965 50       		.byte	0x50
 7361 1966 03       		.uleb128 0x3
 7362 1967 0A       		.byte	0xa
 7363 1968 F401     		.2byte	0x1f4
 7364 196a 00       		.byte	0
 7365 196b 09       		.uleb128 0x9
 7366 196c 32040000 		.4byte	.LVL498
 7367 1970 18050000 		.4byte	0x518
 7368 1974 83190000 		.4byte	0x1983
 7369 1978 0A       		.uleb128 0xa
 7370 1979 01       		.uleb128 0x1
 7371 197a 50       		.byte	0x50
 7372 197b 01       		.uleb128 0x1
 7373 197c 44       		.byte	0x44
 7374 197d 0A       		.uleb128 0xa
 7375 197e 01       		.uleb128 0x1
 7376 197f 51       		.byte	0x51
 7377 1980 01       		.uleb128 0x1
 7378 1981 31       		.byte	0x31
 7379 1982 00       		.byte	0
 7380 1983 09       		.uleb128 0x9
 7381 1984 3A040000 		.4byte	.LVL499
 7382 1988 FC200000 		.4byte	0x20fc
 7383 198c 98190000 		.4byte	0x1998
 7384 1990 0A       		.uleb128 0xa
 7385 1991 01       		.uleb128 0x1
 7386 1992 50       		.byte	0x50
 7387 1993 03       		.uleb128 0x3
 7388 1994 0A       		.byte	0xa
 7389 1995 F401     		.2byte	0x1f4
ARM GAS  C:\Users\weiro\AppData\Local\Temp\ccSkAWeC.s 			page 154


 7390 1997 00       		.byte	0
 7391 1998 08       		.uleb128 0x8
 7392 1999 42040000 		.4byte	.LVL500
 7393 199d 72220000 		.4byte	0x2272
 7394 19a1 09       		.uleb128 0x9
 7395 19a2 4A040000 		.4byte	.LVL501
 7396 19a6 FC200000 		.4byte	0x20fc
 7397 19aa B6190000 		.4byte	0x19b6
 7398 19ae 0A       		.uleb128 0xa
 7399 19af 01       		.uleb128 0x1
 7400 19b0 50       		.byte	0x50
 7401 19b1 03       		.uleb128 0x3
 7402 19b2 0A       		.byte	0xa
 7403 19b3 F401     		.2byte	0x1f4
 7404 19b5 00       		.byte	0
 7405 19b6 09       		.uleb128 0x9
 7406 19b7 60040000 		.4byte	.LVL503
 7407 19bb FC200000 		.4byte	0x20fc
 7408 19bf CB190000 		.4byte	0x19cb
 7409 19c3 0A       		.uleb128 0xa
 7410 19c4 01       		.uleb128 0x1
 7411 19c5 50       		.byte	0x50
 7412 19c6 03       		.uleb128 0x3
 7413 19c7 0A       		.byte	0xa
 7414 19c8 F401     		.2byte	0x1f4
 7415 19ca 00       		.byte	0
 7416 19cb 09       		.uleb128 0x9
 7417 19cc 6A040000 		.4byte	.LVL505
 7418 19d0 18050000 		.4byte	0x518
 7419 19d4 E3190000 		.4byte	0x19e3
 7420 19d8 0A       		.uleb128 0xa
 7421 19d9 01       		.uleb128 0x1
 7422 19da 50       		.byte	0x50
 7423 19db 01       		.uleb128 0x1
 7424 19dc 44       		.byte	0x44
 7425 19dd 0A       		.uleb128 0xa
 7426 19de 01       		.uleb128 0x1
 7427 19df 51       		.byte	0x51
 7428 19e0 01       		.uleb128 0x1
 7429 19e1 30       		.byte	0x30
 7430 19e2 00       		.byte	0
 7431 19e3 09       		.uleb128 0x9
 7432 19e4 72040000 		.4byte	.LVL506
 7433 19e8 FC200000 		.4byte	0x20fc
 7434 19ec F8190000 		.4byte	0x19f8
 7435 19f0 0A       		.uleb128 0xa
 7436 19f1 01       		.uleb128 0x1
 7437 19f2 50       		.byte	0x50
 7438 19f3 03       		.uleb128 0x3
 7439 19f4 0A       		.byte	0xa
 7440 19f5 F401     		.2byte	0x1f4
 7441 19f7 00       		.byte	0
 7442 19f8 08       		.uleb128 0x8
 7443 19f9 7A040000 		.4byte	.LVL507
 7444 19fd 72220000 		.4byte	0x2272
 7445 1a01 09       		.uleb128 0x9
 7446 1a02 82040000 		.4byte	.LVL508
ARM GAS  C:\Users\weiro\AppData\Local\Temp\ccSkAWeC.s 			page 155


 7447 1a06 FC200000 		.4byte	0x20fc
 7448 1a0a 161A0000 		.4byte	0x1a16
 7449 1a0e 0A       		.uleb128 0xa
 7450 1a0f 01       		.uleb128 0x1
 7451 1a10 50       		.byte	0x50
 7452 1a11 03       		.uleb128 0x3
 7453 1a12 0A       		.byte	0xa
 7454 1a13 F401     		.2byte	0x1f4
 7455 1a15 00       		.byte	0
 7456 1a16 09       		.uleb128 0x9
 7457 1a17 98040000 		.4byte	.LVL510
 7458 1a1b FC200000 		.4byte	0x20fc
 7459 1a1f 2B1A0000 		.4byte	0x1a2b
 7460 1a23 0A       		.uleb128 0xa
 7461 1a24 01       		.uleb128 0x1
 7462 1a25 50       		.byte	0x50
 7463 1a26 03       		.uleb128 0x3
 7464 1a27 0A       		.byte	0xa
 7465 1a28 F401     		.2byte	0x1f4
 7466 1a2a 00       		.byte	0
 7467 1a2b 09       		.uleb128 0x9
 7468 1a2c B8040000 		.4byte	.LVL513
 7469 1a30 98090000 		.4byte	0x998
 7470 1a34 3F1A0000 		.4byte	0x1a3f
 7471 1a38 0A       		.uleb128 0xa
 7472 1a39 01       		.uleb128 0x1
 7473 1a3a 51       		.byte	0x51
 7474 1a3b 02       		.uleb128 0x2
 7475 1a3c 74       		.byte	0x74
 7476 1a3d 00       		.sleb128 0
 7477 1a3e 00       		.byte	0
 7478 1a3f 09       		.uleb128 0x9
 7479 1a40 C0040000 		.4byte	.LVL514
 7480 1a44 FC200000 		.4byte	0x20fc
 7481 1a48 541A0000 		.4byte	0x1a54
 7482 1a4c 0A       		.uleb128 0xa
 7483 1a4d 01       		.uleb128 0x1
 7484 1a4e 50       		.byte	0x50
 7485 1a4f 03       		.uleb128 0x3
 7486 1a50 0A       		.byte	0xa
 7487 1a51 F401     		.2byte	0x1f4
 7488 1a53 00       		.byte	0
 7489 1a54 09       		.uleb128 0x9
 7490 1a55 C8040000 		.4byte	.LVL515
 7491 1a59 18050000 		.4byte	0x518
 7492 1a5d 6D1A0000 		.4byte	0x1a6d
 7493 1a61 0A       		.uleb128 0xa
 7494 1a62 01       		.uleb128 0x1
 7495 1a63 50       		.byte	0x50
 7496 1a64 02       		.uleb128 0x2
 7497 1a65 08       		.byte	0x8
 7498 1a66 32       		.byte	0x32
 7499 1a67 0A       		.uleb128 0xa
 7500 1a68 01       		.uleb128 0x1
 7501 1a69 51       		.byte	0x51
 7502 1a6a 01       		.uleb128 0x1
 7503 1a6b 31       		.byte	0x31
ARM GAS  C:\Users\weiro\AppData\Local\Temp\ccSkAWeC.s 			page 156


 7504 1a6c 00       		.byte	0
 7505 1a6d 09       		.uleb128 0x9
 7506 1a6e D0040000 		.4byte	.LVL516
 7507 1a72 FC200000 		.4byte	0x20fc
 7508 1a76 821A0000 		.4byte	0x1a82
 7509 1a7a 0A       		.uleb128 0xa
 7510 1a7b 01       		.uleb128 0x1
 7511 1a7c 50       		.byte	0x50
 7512 1a7d 03       		.uleb128 0x3
 7513 1a7e 0A       		.byte	0xa
 7514 1a7f F401     		.2byte	0x1f4
 7515 1a81 00       		.byte	0
 7516 1a82 09       		.uleb128 0x9
 7517 1a83 E8040000 		.4byte	.LVL518
 7518 1a87 FC200000 		.4byte	0x20fc
 7519 1a8b 971A0000 		.4byte	0x1a97
 7520 1a8f 0A       		.uleb128 0xa
 7521 1a90 01       		.uleb128 0x1
 7522 1a91 50       		.byte	0x50
 7523 1a92 03       		.uleb128 0x3
 7524 1a93 0A       		.byte	0xa
 7525 1a94 F401     		.2byte	0x1f4
 7526 1a96 00       		.byte	0
 7527 1a97 09       		.uleb128 0x9
 7528 1a98 08050000 		.4byte	.LVL521
 7529 1a9c 98090000 		.4byte	0x998
 7530 1aa0 AB1A0000 		.4byte	0x1aab
 7531 1aa4 0A       		.uleb128 0xa
 7532 1aa5 01       		.uleb128 0x1
 7533 1aa6 51       		.byte	0x51
 7534 1aa7 02       		.uleb128 0x2
 7535 1aa8 74       		.byte	0x74
 7536 1aa9 00       		.sleb128 0
 7537 1aaa 00       		.byte	0
 7538 1aab 09       		.uleb128 0x9
 7539 1aac 10050000 		.4byte	.LVL522
 7540 1ab0 FC200000 		.4byte	0x20fc
 7541 1ab4 C01A0000 		.4byte	0x1ac0
 7542 1ab8 0A       		.uleb128 0xa
 7543 1ab9 01       		.uleb128 0x1
 7544 1aba 50       		.byte	0x50
 7545 1abb 03       		.uleb128 0x3
 7546 1abc 0A       		.byte	0xa
 7547 1abd F401     		.2byte	0x1f4
 7548 1abf 00       		.byte	0
 7549 1ac0 09       		.uleb128 0x9
 7550 1ac1 18050000 		.4byte	.LVL523
 7551 1ac5 18050000 		.4byte	0x518
 7552 1ac9 D91A0000 		.4byte	0x1ad9
 7553 1acd 0A       		.uleb128 0xa
 7554 1ace 01       		.uleb128 0x1
 7555 1acf 50       		.byte	0x50
 7556 1ad0 02       		.uleb128 0x2
 7557 1ad1 08       		.byte	0x8
 7558 1ad2 32       		.byte	0x32
 7559 1ad3 0A       		.uleb128 0xa
 7560 1ad4 01       		.uleb128 0x1
ARM GAS  C:\Users\weiro\AppData\Local\Temp\ccSkAWeC.s 			page 157


 7561 1ad5 51       		.byte	0x51
 7562 1ad6 01       		.uleb128 0x1
 7563 1ad7 31       		.byte	0x31
 7564 1ad8 00       		.byte	0
 7565 1ad9 09       		.uleb128 0x9
 7566 1ada 20050000 		.4byte	.LVL524
 7567 1ade FC200000 		.4byte	0x20fc
 7568 1ae2 EE1A0000 		.4byte	0x1aee
 7569 1ae6 0A       		.uleb128 0xa
 7570 1ae7 01       		.uleb128 0x1
 7571 1ae8 50       		.byte	0x50
 7572 1ae9 03       		.uleb128 0x3
 7573 1aea 0A       		.byte	0xa
 7574 1aeb F401     		.2byte	0x1f4
 7575 1aed 00       		.byte	0
 7576 1aee 09       		.uleb128 0x9
 7577 1aef 3A050000 		.4byte	.LVL526
 7578 1af3 2D230000 		.4byte	0x232d
 7579 1af7 0E1B0000 		.4byte	0x1b0e
 7580 1afb 0A       		.uleb128 0xa
 7581 1afc 01       		.uleb128 0x1
 7582 1afd 50       		.byte	0x50
 7583 1afe 05       		.uleb128 0x5
 7584 1aff 03       		.byte	0x3
 7585 1b00 00000000 		.4byte	string_bt
 7586 1b04 0A       		.uleb128 0xa
 7587 1b05 01       		.uleb128 0x1
 7588 1b06 51       		.byte	0x51
 7589 1b07 05       		.uleb128 0x5
 7590 1b08 03       		.byte	0x3
 7591 1b09 D4000000 		.4byte	.LC16
 7592 1b0d 00       		.byte	0
 7593 1b0e 09       		.uleb128 0x9
 7594 1b0f 54050000 		.4byte	.LVL527
 7595 1b13 38230000 		.4byte	0x2338
 7596 1b17 2F1B0000 		.4byte	0x1b2f
 7597 1b1b 0A       		.uleb128 0xa
 7598 1b1c 01       		.uleb128 0x1
 7599 1b1d 50       		.byte	0x50
 7600 1b1e 0F       		.uleb128 0xf
 7601 1b1f 74       		.byte	0x74
 7602 1b20 00       		.sleb128 0
 7603 1b21 32       		.byte	0x32
 7604 1b22 24       		.byte	0x24
 7605 1b23 74       		.byte	0x74
 7606 1b24 00       		.sleb128 0
 7607 1b25 22       		.byte	0x22
 7608 1b26 32       		.byte	0x32
 7609 1b27 24       		.byte	0x24
 7610 1b28 03       		.byte	0x3
 7611 1b29 00000000 		.4byte	task_info
 7612 1b2d 22       		.byte	0x22
 7613 1b2e 00       		.byte	0
 7614 1b2f 09       		.uleb128 0x9
 7615 1b30 62050000 		.4byte	.LVL528
 7616 1b34 2D230000 		.4byte	0x232d
 7617 1b38 4B1B0000 		.4byte	0x1b4b
ARM GAS  C:\Users\weiro\AppData\Local\Temp\ccSkAWeC.s 			page 158


 7618 1b3c 0A       		.uleb128 0xa
 7619 1b3d 01       		.uleb128 0x1
 7620 1b3e 50       		.byte	0x50
 7621 1b3f 01       		.uleb128 0x1
 7622 1b40 30       		.byte	0x30
 7623 1b41 0A       		.uleb128 0xa
 7624 1b42 01       		.uleb128 0x1
 7625 1b43 51       		.byte	0x51
 7626 1b44 05       		.uleb128 0x5
 7627 1b45 03       		.byte	0x3
 7628 1b46 D4000000 		.4byte	.LC16
 7629 1b4a 00       		.byte	0
 7630 1b4b 09       		.uleb128 0x9
 7631 1b4c 76050000 		.4byte	.LVL529
 7632 1b50 AF200000 		.4byte	0x20af
 7633 1b54 5F1B0000 		.4byte	0x1b5f
 7634 1b58 0A       		.uleb128 0xa
 7635 1b59 01       		.uleb128 0x1
 7636 1b5a 50       		.byte	0x50
 7637 1b5b 02       		.uleb128 0x2
 7638 1b5c 74       		.byte	0x74
 7639 1b5d 00       		.sleb128 0
 7640 1b5e 00       		.byte	0
 7641 1b5f 09       		.uleb128 0x9
 7642 1b60 7E050000 		.4byte	.LVL530
 7643 1b64 AF200000 		.4byte	0x20af
 7644 1b68 731B0000 		.4byte	0x1b73
 7645 1b6c 0A       		.uleb128 0xa
 7646 1b6d 01       		.uleb128 0x1
 7647 1b6e 50       		.byte	0x50
 7648 1b6f 02       		.uleb128 0x2
 7649 1b70 74       		.byte	0x74
 7650 1b71 14       		.sleb128 20
 7651 1b72 00       		.byte	0
 7652 1b73 09       		.uleb128 0x9
 7653 1b74 86050000 		.4byte	.LVL531
 7654 1b78 AF200000 		.4byte	0x20af
 7655 1b7c 871B0000 		.4byte	0x1b87
 7656 1b80 0A       		.uleb128 0xa
 7657 1b81 01       		.uleb128 0x1
 7658 1b82 50       		.byte	0x50
 7659 1b83 02       		.uleb128 0x2
 7660 1b84 74       		.byte	0x74
 7661 1b85 28       		.sleb128 40
 7662 1b86 00       		.byte	0
 7663 1b87 0B       		.uleb128 0xb
 7664 1b88 8C050000 		.4byte	.LVL532
 7665 1b8c AF200000 		.4byte	0x20af
 7666 1b90 0A       		.uleb128 0xa
 7667 1b91 01       		.uleb128 0x1
 7668 1b92 50       		.byte	0x50
 7669 1b93 05       		.uleb128 0x5
 7670 1b94 03       		.byte	0x3
 7671 1b95 D8000000 		.4byte	.LC17
 7672 1b99 00       		.byte	0
 7673 1b9a 00       		.byte	0
 7674 1b9b 1B       		.uleb128 0x1b
ARM GAS  C:\Users\weiro\AppData\Local\Temp\ccSkAWeC.s 			page 159


 7675 1b9c 35070000 		.4byte	.LASF63
 7676 1ba0 05       		.byte	0x5
 7677 1ba1 1207     		.2byte	0x712
 7678 1ba3 A71B0000 		.4byte	0x1ba7
 7679 1ba7 1C       		.uleb128 0x1c
 7680 1ba8 7D000000 		.4byte	0x7d
 7681 1bac 1D       		.uleb128 0x1d
 7682 1bad E0000000 		.4byte	.LASF64
 7683 1bb1 01       		.byte	0x1
 7684 1bb2 15       		.byte	0x15
 7685 1bb3 6F000000 		.4byte	0x6f
 7686 1bb7 05       		.uleb128 0x5
 7687 1bb8 03       		.byte	0x3
 7688 1bb9 00000000 		.4byte	initial
 7689 1bbd 1D       		.uleb128 0x1d
 7690 1bbe A9060000 		.4byte	.LASF65
 7691 1bc2 01       		.byte	0x1
 7692 1bc3 16       		.byte	0x16
 7693 1bc4 25000000 		.4byte	0x25
 7694 1bc8 05       		.uleb128 0x5
 7695 1bc9 03       		.byte	0x3
 7696 1bca 00000000 		.4byte	WHEEL_DIAMETER
 7697 1bce 1D       		.uleb128 0x1d
 7698 1bcf E2010000 		.4byte	.LASF66
 7699 1bd3 01       		.byte	0x1
 7700 1bd4 17       		.byte	0x17
 7701 1bd5 25000000 		.4byte	0x25
 7702 1bd9 05       		.uleb128 0x5
 7703 1bda 03       		.byte	0x3
 7704 1bdb 00000000 		.4byte	WHEEL_CIRCUMFERENCE
 7705 1bdf 1D       		.uleb128 0x1d
 7706 1be0 BD000000 		.4byte	.LASF67
 7707 1be4 01       		.byte	0x1
 7708 1be5 18       		.byte	0x18
 7709 1be6 6F000000 		.4byte	0x6f
 7710 1bea 05       		.uleb128 0x5
 7711 1beb 03       		.byte	0x3
 7712 1bec 00000000 		.4byte	CS_count_Red
 7713 1bf0 1D       		.uleb128 0x1d
 7714 1bf1 CC010000 		.4byte	.LASF68
 7715 1bf5 01       		.byte	0x1
 7716 1bf6 19       		.byte	0x19
 7717 1bf7 6F000000 		.4byte	0x6f
 7718 1bfb 05       		.uleb128 0x5
 7719 1bfc 03       		.byte	0x3
 7720 1bfd 00000000 		.4byte	CS_count_Blue
 7721 1c01 1D       		.uleb128 0x1d
 7722 1c02 B1010000 		.4byte	.LASF69
 7723 1c06 01       		.byte	0x1
 7724 1c07 1A       		.byte	0x1a
 7725 1c08 6F000000 		.4byte	0x6f
 7726 1c0c 05       		.uleb128 0x5
 7727 1c0d 03       		.byte	0x3
 7728 1c0e 00000000 		.4byte	CS_count_Green
 7729 1c12 1D       		.uleb128 0x1d
 7730 1c13 CF030000 		.4byte	.LASF70
 7731 1c17 01       		.byte	0x1
ARM GAS  C:\Users\weiro\AppData\Local\Temp\ccSkAWeC.s 			page 160


 7732 1c18 1B       		.byte	0x1b
 7733 1c19 25000000 		.4byte	0x25
 7734 1c1d 05       		.uleb128 0x5
 7735 1c1e 03       		.byte	0x3
 7736 1c1f 00000000 		.4byte	COUNT_WHEEL
 7737 1c23 1D       		.uleb128 0x1d
 7738 1c24 41000000 		.4byte	.LASF71
 7739 1c28 01       		.byte	0x1
 7740 1c29 1C       		.byte	0x1c
 7741 1c2a 25000000 		.4byte	0x25
 7742 1c2e 05       		.uleb128 0x5
 7743 1c2f 03       		.byte	0x3
 7744 1c30 00000000 		.4byte	CM_COUNT_CONV
 7745 1c34 1D       		.uleb128 0x1d
 7746 1c35 A7050000 		.4byte	.LASF72
 7747 1c39 01       		.byte	0x1
 7748 1c3a 1D       		.byte	0x1d
 7749 1c3b 25000000 		.4byte	0x25
 7750 1c3f 05       		.uleb128 0x5
 7751 1c40 03       		.byte	0x3
 7752 1c41 00000000 		.4byte	DISTANCE_BETW_WHEEL
 7753 1c45 1D       		.uleb128 0x1d
 7754 1c46 37020000 		.4byte	.LASF73
 7755 1c4a 01       		.byte	0x1
 7756 1c4b 1E       		.byte	0x1e
 7757 1c4c 25000000 		.4byte	0x25
 7758 1c50 05       		.uleb128 0x5
 7759 1c51 03       		.byte	0x3
 7760 1c52 00000000 		.4byte	DISTANCE_PT_TURN
 7761 1c56 1D       		.uleb128 0x1d
 7762 1c57 77020000 		.4byte	.LASF43
 7763 1c5b 01       		.byte	0x1
 7764 1c5c 1F       		.byte	0x1f
 7765 1c5d 25000000 		.4byte	0x25
 7766 1c61 05       		.uleb128 0x5
 7767 1c62 03       		.byte	0x3
 7768 1c63 00000000 		.4byte	PT_TURN_COUNT
 7769 1c67 1D       		.uleb128 0x1d
 7770 1c68 F2070000 		.4byte	.LASF74
 7771 1c6c 01       		.byte	0x1
 7772 1c6d 20       		.byte	0x20
 7773 1c6e 6F000000 		.4byte	0x6f
 7774 1c72 05       		.uleb128 0x5
 7775 1c73 03       		.byte	0x3
 7776 1c74 00000000 		.4byte	Count_Master
 7777 1c78 1D       		.uleb128 0x1d
 7778 1c79 DC060000 		.4byte	.LASF75
 7779 1c7d 01       		.byte	0x1
 7780 1c7e 21       		.byte	0x21
 7781 1c7f 6F000000 		.4byte	0x6f
 7782 1c83 05       		.uleb128 0x5
 7783 1c84 03       		.byte	0x3
 7784 1c85 00000000 		.4byte	Count_Slave
 7785 1c89 1E       		.uleb128 0x1e
 7786 1c8a A7000000 		.4byte	0xa7
 7787 1c8e 991C0000 		.4byte	0x1c99
 7788 1c92 1F       		.uleb128 0x1f
ARM GAS  C:\Users\weiro\AppData\Local\Temp\ccSkAWeC.s 			page 161


 7789 1c93 B5000000 		.4byte	0xb5
 7790 1c97 C7       		.byte	0xc7
 7791 1c98 00       		.byte	0
 7792 1c99 1D       		.uleb128 0x1d
 7793 1c9a 8C0A0000 		.4byte	.LASF76
 7794 1c9e 01       		.byte	0x1
 7795 1c9f 22       		.byte	0x22
 7796 1ca0 891C0000 		.4byte	0x1c89
 7797 1ca4 05       		.uleb128 0x5
 7798 1ca5 03       		.byte	0x3
 7799 1ca6 00000000 		.4byte	string_1
 7800 1caa 1D       		.uleb128 0x1d
 7801 1cab 950A0000 		.4byte	.LASF77
 7802 1caf 01       		.byte	0x1
 7803 1cb0 23       		.byte	0x23
 7804 1cb1 891C0000 		.4byte	0x1c89
 7805 1cb5 05       		.uleb128 0x5
 7806 1cb6 03       		.byte	0x3
 7807 1cb7 00000000 		.4byte	string_2
 7808 1cbb 1D       		.uleb128 0x1d
 7809 1cbc 9E0A0000 		.4byte	.LASF78
 7810 1cc0 01       		.byte	0x1
 7811 1cc1 24       		.byte	0x24
 7812 1cc2 891C0000 		.4byte	0x1c89
 7813 1cc6 05       		.uleb128 0x5
 7814 1cc7 03       		.byte	0x3
 7815 1cc8 00000000 		.4byte	string_3
 7816 1ccc 1D       		.uleb128 0x1d
 7817 1ccd 98010000 		.4byte	.LASF79
 7818 1cd1 01       		.byte	0x1
 7819 1cd2 25       		.byte	0x25
 7820 1cd3 25000000 		.4byte	0x25
 7821 1cd7 05       		.uleb128 0x5
 7822 1cd8 03       		.byte	0x3
 7823 1cd9 00000000 		.4byte	error
 7824 1cdd 1D       		.uleb128 0x1d
 7825 1cde BD030000 		.4byte	.LASF80
 7826 1ce2 01       		.byte	0x1
 7827 1ce3 26       		.byte	0x26
 7828 1ce4 25000000 		.4byte	0x25
 7829 1ce8 05       		.uleb128 0x5
 7830 1ce9 03       		.byte	0x3
 7831 1cea 00000000 		.4byte	accumulated_error
 7832 1cee 1D       		.uleb128 0x1d
 7833 1cef 90080000 		.4byte	.LASF81
 7834 1cf3 01       		.byte	0x1
 7835 1cf4 27       		.byte	0x27
 7836 1cf5 25000000 		.4byte	0x25
 7837 1cf9 05       		.uleb128 0x5
 7838 1cfa 03       		.byte	0x3
 7839 1cfb 00000000 		.4byte	last_error
 7840 1cff 1D       		.uleb128 0x1d
 7841 1d00 68080000 		.4byte	.LASF82
 7842 1d04 01       		.byte	0x1
 7843 1d05 28       		.byte	0x28
 7844 1d06 25000000 		.4byte	0x25
 7845 1d0a 05       		.uleb128 0x5
ARM GAS  C:\Users\weiro\AppData\Local\Temp\ccSkAWeC.s 			page 162


 7846 1d0b 03       		.byte	0x3
 7847 1d0c 00000000 		.4byte	derivative_error
 7848 1d10 1D       		.uleb128 0x1d
 7849 1d11 3B010000 		.4byte	.LASF83
 7850 1d15 01       		.byte	0x1
 7851 1d16 29       		.byte	0x29
 7852 1d17 25000000 		.4byte	0x25
 7853 1d1b 05       		.uleb128 0x5
 7854 1d1c 03       		.byte	0x3
 7855 1d1d 00000000 		.4byte	timer_period
 7856 1d21 20       		.uleb128 0x20
 7857 1d22 4B5F7000 		.ascii	"K_p\000"
 7858 1d26 01       		.byte	0x1
 7859 1d27 2A       		.byte	0x2a
 7860 1d28 25000000 		.4byte	0x25
 7861 1d2c 05       		.uleb128 0x5
 7862 1d2d 03       		.byte	0x3
 7863 1d2e 00000000 		.4byte	K_p
 7864 1d32 20       		.uleb128 0x20
 7865 1d33 4B5F6900 		.ascii	"K_i\000"
 7866 1d37 01       		.byte	0x1
 7867 1d38 2B       		.byte	0x2b
 7868 1d39 25000000 		.4byte	0x25
 7869 1d3d 05       		.uleb128 0x5
 7870 1d3e 03       		.byte	0x3
 7871 1d3f 00000000 		.4byte	K_i
 7872 1d43 20       		.uleb128 0x20
 7873 1d44 4B5F6400 		.ascii	"K_d\000"
 7874 1d48 01       		.byte	0x1
 7875 1d49 2C       		.byte	0x2c
 7876 1d4a 25000000 		.4byte	0x25
 7877 1d4e 05       		.uleb128 0x5
 7878 1d4f 03       		.byte	0x3
 7879 1d50 00000000 		.4byte	K_d
 7880 1d54 1D       		.uleb128 0x1d
 7881 1d55 1B000000 		.4byte	.LASF84
 7882 1d59 01       		.byte	0x1
 7883 1d5a 2D       		.byte	0x2d
 7884 1d5b A0000000 		.4byte	0xa0
 7885 1d5f 05       		.uleb128 0x5
 7886 1d60 03       		.byte	0x3
 7887 1d61 00000000 		.4byte	PWM_Master
 7888 1d65 1D       		.uleb128 0x1d
 7889 1d66 07090000 		.4byte	.LASF85
 7890 1d6a 01       		.byte	0x1
 7891 1d6b 2E       		.byte	0x2e
 7892 1d6c A0000000 		.4byte	0xa0
 7893 1d70 05       		.uleb128 0x5
 7894 1d71 03       		.byte	0x3
 7895 1d72 00000000 		.4byte	PWM_Cal
 7896 1d76 1D       		.uleb128 0x1d
 7897 1d77 1D090000 		.4byte	.LASF86
 7898 1d7b 01       		.byte	0x1
 7899 1d7c 30       		.byte	0x30
 7900 1d7d A0000000 		.4byte	0xa0
 7901 1d81 05       		.uleb128 0x5
 7902 1d82 03       		.byte	0x3
ARM GAS  C:\Users\weiro\AppData\Local\Temp\ccSkAWeC.s 			page 163


 7903 1d83 00000000 		.4byte	PWM_Slave
 7904 1d87 1D       		.uleb128 0x1d
 7905 1d88 9F070000 		.4byte	.LASF87
 7906 1d8c 01       		.byte	0x1
 7907 1d8d 31       		.byte	0x31
 7908 1d8e A0000000 		.4byte	0xa0
 7909 1d92 05       		.uleb128 0x5
 7910 1d93 03       		.byte	0x3
 7911 1d94 00000000 		.4byte	PWM_Master_puck
 7912 1d98 1D       		.uleb128 0x1d
 7913 1d99 44090000 		.4byte	.LASF88
 7914 1d9d 01       		.byte	0x1
 7915 1d9e 32       		.byte	0x32
 7916 1d9f A0000000 		.4byte	0xa0
 7917 1da3 05       		.uleb128 0x5
 7918 1da4 03       		.byte	0x3
 7919 1da5 00000000 		.4byte	PWM_Slave_puck
 7920 1da9 1D       		.uleb128 0x1d
 7921 1daa E5020000 		.4byte	.LASF89
 7922 1dae 01       		.byte	0x1
 7923 1daf 33       		.byte	0x33
 7924 1db0 6F000000 		.4byte	0x6f
 7925 1db4 05       		.uleb128 0x5
 7926 1db5 03       		.byte	0x3
 7927 1db6 00000000 		.4byte	is_moving
 7928 1dba 1D       		.uleb128 0x1d
 7929 1dbb A70A0000 		.4byte	.LASF90
 7930 1dbf 01       		.byte	0x1
 7931 1dc0 34       		.byte	0x34
 7932 1dc1 6F000000 		.4byte	0x6f
 7933 1dc5 05       		.uleb128 0x5
 7934 1dc6 03       		.byte	0x3
 7935 1dc7 00000000 		.4byte	ultrasonic_count
 7936 1dcb 1D       		.uleb128 0x1d
 7937 1dcc 0D050000 		.4byte	.LASF91
 7938 1dd0 01       		.byte	0x1
 7939 1dd1 35       		.byte	0x35
 7940 1dd2 25000000 		.4byte	0x25
 7941 1dd6 05       		.uleb128 0x5
 7942 1dd7 03       		.byte	0x3
 7943 1dd8 00000000 		.4byte	ultrasonic_measure
 7944 1ddc 1D       		.uleb128 0x1d
 7945 1ddd AF070000 		.4byte	.LASF92
 7946 1de1 01       		.byte	0x1
 7947 1de2 36       		.byte	0x36
 7948 1de3 25000000 		.4byte	0x25
 7949 1de7 05       		.uleb128 0x5
 7950 1de8 03       		.byte	0x3
 7951 1de9 00000000 		.4byte	front_measured_1
 7952 1ded 1D       		.uleb128 0x1d
 7953 1dee C0070000 		.4byte	.LASF93
 7954 1df2 01       		.byte	0x1
 7955 1df3 36       		.byte	0x36
 7956 1df4 25000000 		.4byte	0x25
 7957 1df8 05       		.uleb128 0x5
 7958 1df9 03       		.byte	0x3
 7959 1dfa 00000000 		.4byte	front_measured_2
ARM GAS  C:\Users\weiro\AppData\Local\Temp\ccSkAWeC.s 			page 164


 7960 1dfe 1D       		.uleb128 0x1d
 7961 1dff 2C010000 		.4byte	.LASF94
 7962 1e03 01       		.byte	0x1
 7963 1e04 36       		.byte	0x36
 7964 1e05 25000000 		.4byte	0x25
 7965 1e09 05       		.uleb128 0x5
 7966 1e0a 03       		.byte	0x3
 7967 1e0b 00000000 		.4byte	right_measured
 7968 1e0f 1D       		.uleb128 0x1d
 7969 1e10 C1020000 		.4byte	.LASF95
 7970 1e14 01       		.byte	0x1
 7971 1e15 36       		.byte	0x36
 7972 1e16 25000000 		.4byte	0x25
 7973 1e1a 05       		.uleb128 0x5
 7974 1e1b 03       		.byte	0x3
 7975 1e1c 00000000 		.4byte	left_measured
 7976 1e20 1D       		.uleb128 0x1d
 7977 1e21 21080000 		.4byte	.LASF96
 7978 1e25 01       		.byte	0x1
 7979 1e26 37       		.byte	0x37
 7980 1e27 6F000000 		.4byte	0x6f
 7981 1e2b 05       		.uleb128 0x5
 7982 1e2c 03       		.byte	0x3
 7983 1e2d 00000000 		.4byte	echo_select
 7984 1e31 1D       		.uleb128 0x1d
 7985 1e32 2A020000 		.4byte	.LASF97
 7986 1e36 01       		.byte	0x1
 7987 1e37 38       		.byte	0x38
 7988 1e38 25000000 		.4byte	0x25
 7989 1e3c 05       		.uleb128 0x5
 7990 1e3d 03       		.byte	0x3
 7991 1e3e 00000000 		.4byte	x_coord
 7992 1e42 1D       		.uleb128 0x1d
 7993 1e43 A1060000 		.4byte	.LASF98
 7994 1e47 01       		.byte	0x1
 7995 1e48 39       		.byte	0x39
 7996 1e49 25000000 		.4byte	0x25
 7997 1e4d 05       		.uleb128 0x5
 7998 1e4e 03       		.byte	0x3
 7999 1e4f 00000000 		.4byte	y_coord
 8000 1e53 1D       		.uleb128 0x1d
 8001 1e54 00000000 		.4byte	.LASF99
 8002 1e58 01       		.byte	0x1
 8003 1e59 3A       		.byte	0x3a
 8004 1e5a 6F000000 		.4byte	0x6f
 8005 1e5e 05       		.uleb128 0x5
 8006 1e5f 03       		.byte	0x3
 8007 1e60 00000000 		.4byte	direction
 8008 1e64 1D       		.uleb128 0x1d
 8009 1e65 00060000 		.4byte	.LASF100
 8010 1e69 01       		.byte	0x1
 8011 1e6a 3B       		.byte	0x3b
 8012 1e6b 6F000000 		.4byte	0x6f
 8013 1e6f 05       		.uleb128 0x5
 8014 1e70 03       		.byte	0x3
 8015 1e71 00000000 		.4byte	step
 8016 1e75 1D       		.uleb128 0x1d
ARM GAS  C:\Users\weiro\AppData\Local\Temp\ccSkAWeC.s 			page 165


 8017 1e76 32060000 		.4byte	.LASF101
 8018 1e7a 01       		.byte	0x1
 8019 1e7b 3C       		.byte	0x3c
 8020 1e7c 6F000000 		.4byte	0x6f
 8021 1e80 05       		.uleb128 0x5
 8022 1e81 03       		.byte	0x3
 8023 1e82 00000000 		.4byte	compare_ready
 8024 1e86 1D       		.uleb128 0x1d
 8025 1e87 27090000 		.4byte	.LASF102
 8026 1e8b 01       		.byte	0x1
 8027 1e8c 3D       		.byte	0x3d
 8028 1e8d 6F000000 		.4byte	0x6f
 8029 1e91 05       		.uleb128 0x5
 8030 1e92 03       		.byte	0x3
 8031 1e93 00000000 		.4byte	color_detected
 8032 1e97 1D       		.uleb128 0x1d
 8033 1e98 EF0A0000 		.4byte	.LASF103
 8034 1e9c 01       		.byte	0x1
 8035 1e9d 3E       		.byte	0x3e
 8036 1e9e 6F000000 		.4byte	0x6f
 8037 1ea2 05       		.uleb128 0x5
 8038 1ea3 03       		.byte	0x3
 8039 1ea4 00000000 		.4byte	wall_detected_10
 8040 1ea8 1D       		.uleb128 0x1d
 8041 1ea9 A3010000 		.4byte	.LASF104
 8042 1ead 01       		.byte	0x1
 8043 1eae 3F       		.byte	0x3f
 8044 1eaf 6F000000 		.4byte	0x6f
 8045 1eb3 05       		.uleb128 0x5
 8046 1eb4 03       		.byte	0x3
 8047 1eb5 00000000 		.4byte	slit_detected
 8048 1eb9 1D       		.uleb128 0x1d
 8049 1eba 0A000000 		.4byte	.LASF105
 8050 1ebe 01       		.byte	0x1
 8051 1ebf 40       		.byte	0x40
 8052 1ec0 6F000000 		.4byte	0x6f
 8053 1ec4 05       		.uleb128 0x5
 8054 1ec5 03       		.byte	0x3
 8055 1ec6 00000000 		.4byte	down_big
 8056 1eca 1D       		.uleb128 0x1d
 8057 1ecb 850A0000 		.4byte	.LASF106
 8058 1ecf 01       		.byte	0x1
 8059 1ed0 41       		.byte	0x41
 8060 1ed1 6F000000 		.4byte	0x6f
 8061 1ed5 05       		.uleb128 0x5
 8062 1ed6 03       		.byte	0x3
 8063 1ed7 00000000 		.4byte	up_big
 8064 1edb 1D       		.uleb128 0x1d
 8065 1edc E7070000 		.4byte	.LASF107
 8066 1ee0 01       		.byte	0x1
 8067 1ee1 42       		.byte	0x42
 8068 1ee2 6F000000 		.4byte	0x6f
 8069 1ee6 05       		.uleb128 0x5
 8070 1ee7 03       		.byte	0x3
 8071 1ee8 00000000 		.4byte	open_small
 8072 1eec 1D       		.uleb128 0x1d
 8073 1eed 6B020000 		.4byte	.LASF108
ARM GAS  C:\Users\weiro\AppData\Local\Temp\ccSkAWeC.s 			page 166


 8074 1ef1 01       		.byte	0x1
 8075 1ef2 43       		.byte	0x43
 8076 1ef3 6F000000 		.4byte	0x6f
 8077 1ef7 05       		.uleb128 0x5
 8078 1ef8 03       		.byte	0x3
 8079 1ef9 00000000 		.4byte	close_small
 8080 1efd 20       		.uleb128 0x20
 8081 1efe 527800   		.ascii	"Rx\000"
 8082 1f01 01       		.byte	0x1
 8083 1f02 45       		.byte	0x45
 8084 1f03 A7000000 		.4byte	0xa7
 8085 1f07 05       		.uleb128 0x5
 8086 1f08 03       		.byte	0x3
 8087 1f09 00000000 		.4byte	Rx
 8088 1f0d 20       		.uleb128 0x20
 8089 1f0e 6900     		.ascii	"i\000"
 8090 1f10 01       		.byte	0x1
 8091 1f11 46       		.byte	0x46
 8092 1f12 6F000000 		.4byte	0x6f
 8093 1f16 05       		.uleb128 0x5
 8094 1f17 03       		.byte	0x3
 8095 1f18 00000000 		.4byte	i
 8096 1f1c 1D       		.uleb128 0x1d
 8097 1f1d 7A060000 		.4byte	.LASF109
 8098 1f21 01       		.byte	0x1
 8099 1f22 47       		.byte	0x47
 8100 1f23 891C0000 		.4byte	0x1c89
 8101 1f27 05       		.uleb128 0x5
 8102 1f28 03       		.byte	0x3
 8103 1f29 00000000 		.4byte	string_bt
 8104 1f2d 1D       		.uleb128 0x1d
 8105 1f2e B80A0000 		.4byte	.LASF110
 8106 1f32 01       		.byte	0x1
 8107 1f33 48       		.byte	0x48
 8108 1f34 6F000000 		.4byte	0x6f
 8109 1f38 05       		.uleb128 0x5
 8110 1f39 03       		.byte	0x3
 8111 1f3a 00000000 		.4byte	stop_bt
 8112 1f3e 1D       		.uleb128 0x1d
 8113 1f3f C00A0000 		.4byte	.LASF111
 8114 1f43 01       		.byte	0x1
 8115 1f44 49       		.byte	0x49
 8116 1f45 BC000000 		.4byte	0xbc
 8117 1f49 05       		.uleb128 0x5
 8118 1f4a 03       		.byte	0x3
 8119 1f4b 00000000 		.4byte	tokenPtr
 8120 1f4f 1E       		.uleb128 0x1e
 8121 1f50 A7000000 		.4byte	0xa7
 8122 1f54 651F0000 		.4byte	0x1f65
 8123 1f58 1F       		.uleb128 0x1f
 8124 1f59 B5000000 		.4byte	0xb5
 8125 1f5d 02       		.byte	0x2
 8126 1f5e 1F       		.uleb128 0x1f
 8127 1f5f B5000000 		.4byte	0xb5
 8128 1f63 13       		.byte	0x13
 8129 1f64 00       		.byte	0
 8130 1f65 1D       		.uleb128 0x1d
ARM GAS  C:\Users\weiro\AppData\Local\Temp\ccSkAWeC.s 			page 167


 8131 1f66 97090000 		.4byte	.LASF112
 8132 1f6a 01       		.byte	0x1
 8133 1f6b 4A       		.byte	0x4a
 8134 1f6c 4F1F0000 		.4byte	0x1f4f
 8135 1f70 05       		.uleb128 0x5
 8136 1f71 03       		.byte	0x3
 8137 1f72 00000000 		.4byte	task_info
 8138 1f76 20       		.uleb128 0x20
 8139 1f77 6A00     		.ascii	"j\000"
 8140 1f79 01       		.byte	0x1
 8141 1f7a 4B       		.byte	0x4b
 8142 1f7b 6F000000 		.4byte	0x6f
 8143 1f7f 05       		.uleb128 0x5
 8144 1f80 03       		.byte	0x3
 8145 1f81 00000000 		.4byte	j
 8146 1f85 1E       		.uleb128 0x1e
 8147 1f86 88000000 		.4byte	0x88
 8148 1f8a 951F0000 		.4byte	0x1f95
 8149 1f8e 1F       		.uleb128 0x1f
 8150 1f8f B5000000 		.4byte	0xb5
 8151 1f93 05       		.byte	0x5
 8152 1f94 00       		.byte	0
 8153 1f95 1D       		.uleb128 0x1d
 8154 1f96 D8000000 		.4byte	.LASF113
 8155 1f9a 01       		.byte	0x1
 8156 1f9b 4D       		.byte	0x4d
 8157 1f9c 851F0000 		.4byte	0x1f85
 8158 1fa0 05       		.uleb128 0x5
 8159 1fa1 03       		.byte	0x3
 8160 1fa2 00000000 		.4byte	array_1
 8161 1fa6 1D       		.uleb128 0x1d
 8162 1fa7 80070000 		.4byte	.LASF114
 8163 1fab 01       		.byte	0x1
 8164 1fac 4E       		.byte	0x4e
 8165 1fad 94000000 		.4byte	0x94
 8166 1fb1 05       		.uleb128 0x5
 8167 1fb2 03       		.byte	0x3
 8168 1fb3 00000000 		.4byte	temp
 8169 1fb7 1D       		.uleb128 0x1d
 8170 1fb8 AA040000 		.4byte	.LASF115
 8171 1fbc 01       		.byte	0x1
 8172 1fbd 4F       		.byte	0x4f
 8173 1fbe 25000000 		.4byte	0x25
 8174 1fc2 05       		.uleb128 0x5
 8175 1fc3 03       		.byte	0x3
 8176 1fc4 00000000 		.4byte	yaw_rate
 8177 1fc8 1D       		.uleb128 0x1d
 8178 1fc9 1A060000 		.4byte	.LASF116
 8179 1fcd 01       		.byte	0x1
 8180 1fce 50       		.byte	0x50
 8181 1fcf 25000000 		.4byte	0x25
 8182 1fd3 05       		.uleb128 0x5
 8183 1fd4 03       		.byte	0x3
 8184 1fd5 00000000 		.4byte	yaw_angle
 8185 1fd9 1D       		.uleb128 0x1d
 8186 1fda 0D0B0000 		.4byte	.LASF117
 8187 1fde 01       		.byte	0x1
ARM GAS  C:\Users\weiro\AppData\Local\Temp\ccSkAWeC.s 			page 168


 8188 1fdf 51       		.byte	0x51
 8189 1fe0 25000000 		.4byte	0x25
 8190 1fe4 05       		.uleb128 0x5
 8191 1fe5 03       		.byte	0x3
 8192 1fe6 00000000 		.4byte	previous_reading
 8193 1fea 1D       		.uleb128 0x1d
 8194 1feb 1F030000 		.4byte	.LASF118
 8195 1fef 01       		.byte	0x1
 8196 1ff0 52       		.byte	0x52
 8197 1ff1 25000000 		.4byte	0x25
 8198 1ff5 05       		.uleb128 0x5
 8199 1ff6 03       		.byte	0x3
 8200 1ff7 00000000 		.4byte	current_reading
 8201 1ffb 1D       		.uleb128 0x1d
 8202 1ffc 64050000 		.4byte	.LASF119
 8203 2000 01       		.byte	0x1
 8204 2001 53       		.byte	0x53
 8205 2002 25000000 		.4byte	0x25
 8206 2006 05       		.uleb128 0x5
 8207 2007 03       		.byte	0x3
 8208 2008 00000000 		.4byte	heading
 8209 200c 1D       		.uleb128 0x1d
 8210 200d 26000000 		.4byte	.LASF120
 8211 2011 01       		.byte	0x1
 8212 2012 54       		.byte	0x54
 8213 2013 6F000000 		.4byte	0x6f
 8214 2017 05       		.uleb128 0x5
 8215 2018 03       		.byte	0x3
 8216 2019 00000000 		.4byte	cycles
 8217 201d 1D       		.uleb128 0x1d
 8218 201e D3090000 		.4byte	.LASF121
 8219 2022 01       		.byte	0x1
 8220 2023 55       		.byte	0x55
 8221 2024 891C0000 		.4byte	0x1c89
 8222 2028 05       		.uleb128 0x5
 8223 2029 03       		.byte	0x3
 8224 202a 00000000 		.4byte	string_gyro
 8225 202e 20       		.uleb128 0x20
 8226 202f 63616C00 		.ascii	"cal\000"
 8227 2033 01       		.byte	0x1
 8228 2034 56       		.byte	0x56
 8229 2035 6F000000 		.4byte	0x6f
 8230 2039 05       		.uleb128 0x5
 8231 203a 03       		.byte	0x3
 8232 203b 00000000 		.4byte	cal
 8233 203f 1D       		.uleb128 0x1d
 8234 2040 65020000 		.4byte	.LASF122
 8235 2044 01       		.byte	0x1
 8236 2045 57       		.byte	0x57
 8237 2046 6F000000 		.4byte	0x6f
 8238 204a 05       		.uleb128 0x5
 8239 204b 03       		.byte	0x3
 8240 204c 00000000 		.4byte	count
 8241 2050 1D       		.uleb128 0x1d
 8242 2051 03010000 		.4byte	.LASF123
 8243 2055 01       		.byte	0x1
 8244 2056 58       		.byte	0x58
ARM GAS  C:\Users\weiro\AppData\Local\Temp\ccSkAWeC.s 			page 169


 8245 2057 94000000 		.4byte	0x94
 8246 205b 05       		.uleb128 0x5
 8247 205c 03       		.byte	0x3
 8248 205d 00000000 		.4byte	error_gyro
 8249 2061 1D       		.uleb128 0x1d
 8250 2062 73010000 		.4byte	.LASF124
 8251 2066 01       		.byte	0x1
 8252 2067 59       		.byte	0x59
 8253 2068 94000000 		.4byte	0x94
 8254 206c 05       		.uleb128 0x5
 8255 206d 03       		.byte	0x3
 8256 206e 00000000 		.4byte	error_gyro_avg
 8257 2072 1D       		.uleb128 0x1d
 8258 2073 F2090000 		.4byte	.LASF125
 8259 2077 01       		.byte	0x1
 8260 2078 5A       		.byte	0x5a
 8261 2079 25000000 		.4byte	0x25
 8262 207d 05       		.uleb128 0x5
 8263 207e 03       		.byte	0x3
 8264 207f 00000000 		.4byte	threshold
 8265 2083 21       		.uleb128 0x21
 8266 2084 E6080000 		.4byte	.LASF126
 8267 2088 E6080000 		.4byte	.LASF126
 8268 208c 06       		.byte	0x6
 8269 208d CA       		.byte	0xca
 8270 208e 21       		.uleb128 0x21
 8271 208f 48010000 		.4byte	.LASF127
 8272 2093 48010000 		.4byte	.LASF127
 8273 2097 07       		.byte	0x7
 8274 2098 5E       		.byte	0x5e
 8275 2099 21       		.uleb128 0x21
 8276 209a 50050000 		.4byte	.LASF128
 8277 209e 50050000 		.4byte	.LASF128
 8278 20a2 07       		.byte	0x7
 8279 20a3 69       		.byte	0x69
 8280 20a4 21       		.uleb128 0x21
 8281 20a5 40060000 		.4byte	.LASF129
 8282 20a9 40060000 		.4byte	.LASF129
 8283 20ad 08       		.byte	0x8
 8284 20ae E7       		.byte	0xe7
 8285 20af 21       		.uleb128 0x21
 8286 20b0 F3030000 		.4byte	.LASF130
 8287 20b4 F3030000 		.4byte	.LASF130
 8288 20b8 09       		.byte	0x9
 8289 20b9 8B       		.byte	0x8b
 8290 20ba 21       		.uleb128 0x21
 8291 20bb C6040000 		.4byte	.LASF131
 8292 20bf C6040000 		.4byte	.LASF131
 8293 20c3 0A       		.byte	0xa
 8294 20c4 97       		.byte	0x97
 8295 20c5 21       		.uleb128 0x21
 8296 20c6 D60A0000 		.4byte	.LASF132
 8297 20ca D60A0000 		.4byte	.LASF132
 8298 20ce 09       		.byte	0x9
 8299 20cf 71       		.byte	0x71
 8300 20d0 21       		.uleb128 0x21
 8301 20d1 8F020000 		.4byte	.LASF133
ARM GAS  C:\Users\weiro\AppData\Local\Temp\ccSkAWeC.s 			page 170


 8302 20d5 8F020000 		.4byte	.LASF133
 8303 20d9 0B       		.byte	0xb
 8304 20da 5E       		.byte	0x5e
 8305 20db 21       		.uleb128 0x21
 8306 20dc 0C070000 		.4byte	.LASF134
 8307 20e0 0C070000 		.4byte	.LASF134
 8308 20e4 0C       		.byte	0xc
 8309 20e5 B1       		.byte	0xb1
 8310 20e6 21       		.uleb128 0x21
 8311 20e7 BD090000 		.4byte	.LASF135
 8312 20eb BD090000 		.4byte	.LASF135
 8313 20ef 0C       		.byte	0xc
 8314 20f0 B6       		.byte	0xb6
 8315 20f1 21       		.uleb128 0x21
 8316 20f2 F6010000 		.4byte	.LASF136
 8317 20f6 F6010000 		.4byte	.LASF136
 8318 20fa 0C       		.byte	0xc
 8319 20fb B5       		.byte	0xb5
 8320 20fc 21       		.uleb128 0x21
 8321 20fd 13000000 		.4byte	.LASF137
 8322 2101 13000000 		.4byte	.LASF137
 8323 2105 0D       		.byte	0xd
 8324 2106 76       		.byte	0x76
 8325 2107 21       		.uleb128 0x21
 8326 2108 BB050000 		.4byte	.LASF138
 8327 210c BB050000 		.4byte	.LASF138
 8328 2110 0C       		.byte	0xc
 8329 2111 B7       		.byte	0xb7
 8330 2112 21       		.uleb128 0x21
 8331 2113 97040000 		.4byte	.LASF139
 8332 2117 97040000 		.4byte	.LASF139
 8333 211b 0E       		.byte	0xe
 8334 211c 26       		.byte	0x26
 8335 211d 21       		.uleb128 0x21
 8336 211e 66090000 		.4byte	.LASF140
 8337 2122 66090000 		.4byte	.LASF140
 8338 2126 0F       		.byte	0xf
 8339 2127 26       		.byte	0x26
 8340 2128 21       		.uleb128 0x21
 8341 2129 53090000 		.4byte	.LASF141
 8342 212d 53090000 		.4byte	.LASF141
 8343 2131 10       		.byte	0x10
 8344 2132 26       		.byte	0x26
 8345 2133 21       		.uleb128 0x21
 8346 2134 B3040000 		.4byte	.LASF142
 8347 2138 B3040000 		.4byte	.LASF142
 8348 213c 11       		.byte	0x11
 8349 213d 26       		.byte	0x26
 8350 213e 21       		.uleb128 0x21
 8351 213f A8090000 		.4byte	.LASF143
 8352 2143 A8090000 		.4byte	.LASF143
 8353 2147 12       		.byte	0x12
 8354 2148 4F       		.byte	0x4f
 8355 2149 21       		.uleb128 0x21
 8356 214a 82090000 		.4byte	.LASF144
 8357 214e 82090000 		.4byte	.LASF144
 8358 2152 13       		.byte	0x13
ARM GAS  C:\Users\weiro\AppData\Local\Temp\ccSkAWeC.s 			page 171


 8359 2153 4F       		.byte	0x4f
 8360 2154 21       		.uleb128 0x21
 8361 2155 A8000000 		.4byte	.LASF145
 8362 2159 A8000000 		.4byte	.LASF145
 8363 215d 12       		.byte	0x12
 8364 215e 4E       		.byte	0x4e
 8365 215f 21       		.uleb128 0x21
 8366 2160 82040000 		.4byte	.LASF146
 8367 2164 82040000 		.4byte	.LASF146
 8368 2168 13       		.byte	0x13
 8369 2169 4E       		.byte	0x4e
 8370 216a 21       		.uleb128 0x21
 8371 216b 2D000000 		.4byte	.LASF147
 8372 216f 2D000000 		.4byte	.LASF147
 8373 2173 14       		.byte	0x14
 8374 2174 2F       		.byte	0x2f
 8375 2175 21       		.uleb128 0x21
 8376 2176 F8020000 		.4byte	.LASF148
 8377 217a F8020000 		.4byte	.LASF148
 8378 217e 15       		.byte	0x15
 8379 217f 26       		.byte	0x26
 8380 2180 21       		.uleb128 0x21
 8381 2181 85020000 		.4byte	.LASF149
 8382 2185 85020000 		.4byte	.LASF149
 8383 2189 0D       		.byte	0xd
 8384 218a 77       		.byte	0x77
 8385 218b 21       		.uleb128 0x21
 8386 218c B8060000 		.4byte	.LASF150
 8387 2190 B8060000 		.4byte	.LASF150
 8388 2194 16       		.byte	0x16
 8389 2195 29       		.byte	0x29
 8390 2196 21       		.uleb128 0x21
 8391 2197 42070000 		.4byte	.LASF151
 8392 219b 42070000 		.4byte	.LASF151
 8393 219f 17       		.byte	0x17
 8394 21a0 29       		.byte	0x29
 8395 21a1 21       		.uleb128 0x21
 8396 21a2 1E010000 		.4byte	.LASF152
 8397 21a6 1E010000 		.4byte	.LASF152
 8398 21aa 18       		.byte	0x18
 8399 21ab 29       		.byte	0x29
 8400 21ac 21       		.uleb128 0x21
 8401 21ad CD080000 		.4byte	.LASF153
 8402 21b1 CD080000 		.4byte	.LASF153
 8403 21b5 06       		.byte	0x6
 8404 21b6 C7       		.byte	0xc7
 8405 21b7 21       		.uleb128 0x21
 8406 21b8 96070000 		.4byte	.LASF154
 8407 21bc 96070000 		.4byte	.LASF154
 8408 21c0 19       		.byte	0x19
 8409 21c1 26       		.byte	0x26
 8410 21c2 21       		.uleb128 0x21
 8411 21c3 EF020000 		.4byte	.LASF155
 8412 21c7 EF020000 		.4byte	.LASF155
 8413 21cb 1A       		.byte	0x1a
 8414 21cc 26       		.byte	0x26
 8415 21cd 21       		.uleb128 0x21
ARM GAS  C:\Users\weiro\AppData\Local\Temp\ccSkAWeC.s 			page 172


 8416 21ce 78000000 		.4byte	.LASF156
 8417 21d2 78000000 		.4byte	.LASF156
 8418 21d6 1B       		.byte	0x1b
 8419 21d7 26       		.byte	0x26
 8420 21d8 21       		.uleb128 0x21
 8421 21d9 5D070000 		.4byte	.LASF157
 8422 21dd 5D070000 		.4byte	.LASF157
 8423 21e1 1C       		.byte	0x1c
 8424 21e2 4F       		.byte	0x4f
 8425 21e3 21       		.uleb128 0x21
 8426 21e4 79090000 		.4byte	.LASF158
 8427 21e8 79090000 		.4byte	.LASF158
 8428 21ec 1D       		.byte	0x1d
 8429 21ed 26       		.byte	0x26
 8430 21ee 21       		.uleb128 0x21
 8431 21ef E9040000 		.4byte	.LASF159
 8432 21f3 E9040000 		.4byte	.LASF159
 8433 21f7 1E       		.byte	0x1e
 8434 21f8 26       		.byte	0x26
 8435 21f9 21       		.uleb128 0x21
 8436 21fa 20050000 		.4byte	.LASF160
 8437 21fe 20050000 		.4byte	.LASF160
 8438 2202 1F       		.byte	0x1f
 8439 2203 2F       		.byte	0x2f
 8440 2204 21       		.uleb128 0x21
 8441 2205 D0050000 		.4byte	.LASF161
 8442 2209 D0050000 		.4byte	.LASF161
 8443 220d 1C       		.byte	0x1c
 8444 220e 5E       		.byte	0x5e
 8445 220f 21       		.uleb128 0x21
 8446 2210 2D080000 		.4byte	.LASF162
 8447 2214 2D080000 		.4byte	.LASF162
 8448 2218 1C       		.byte	0x1c
 8449 2219 50       		.byte	0x50
 8450 221a 21       		.uleb128 0x21
 8451 221b 0F090000 		.4byte	.LASF163
 8452 221f 0F090000 		.4byte	.LASF163
 8453 2223 20       		.byte	0x20
 8454 2224 26       		.byte	0x26
 8455 2225 21       		.uleb128 0x21
 8456 2226 88010000 		.4byte	.LASF164
 8457 222a 88010000 		.4byte	.LASF164
 8458 222e 21       		.byte	0x21
 8459 222f 26       		.byte	0x26
 8460 2230 21       		.uleb128 0x21
 8461 2231 10030000 		.4byte	.LASF165
 8462 2235 10030000 		.4byte	.LASF165
 8463 2239 22       		.byte	0x22
 8464 223a 26       		.byte	0x26
 8465 223b 21       		.uleb128 0x21
 8466 223c 34050000 		.4byte	.LASF166
 8467 2240 34050000 		.4byte	.LASF166
 8468 2244 23       		.byte	0x23
 8469 2245 26       		.byte	0x26
 8470 2246 21       		.uleb128 0x21
 8471 2247 4E020000 		.4byte	.LASF167
 8472 224b 4E020000 		.4byte	.LASF167
ARM GAS  C:\Users\weiro\AppData\Local\Temp\ccSkAWeC.s 			page 173


 8473 224f 24       		.byte	0x24
 8474 2250 D1       		.byte	0xd1
 8475 2251 21       		.uleb128 0x21
 8476 2252 22040000 		.4byte	.LASF168
 8477 2256 22040000 		.4byte	.LASF168
 8478 225a 24       		.byte	0x24
 8479 225b 39       		.byte	0x39
 8480 225c 21       		.uleb128 0x21
 8481 225d 46080000 		.4byte	.LASF169
 8482 2261 46080000 		.4byte	.LASF169
 8483 2265 24       		.byte	0x24
 8484 2266 3A       		.byte	0x3a
 8485 2267 22       		.uleb128 0x22
 8486 2268 706F7700 		.ascii	"pow\000"
 8487 226c 706F7700 		.ascii	"pow\000"
 8488 2270 2D       		.byte	0x2d
 8489 2271 86       		.byte	0x86
 8490 2272 21       		.uleb128 0x21
 8491 2273 3C040000 		.4byte	.LASF170
 8492 2277 3C040000 		.4byte	.LASF170
 8493 227b 25       		.byte	0x25
 8494 227c C3       		.byte	0xc3
 8495 227d 21       		.uleb128 0x21
 8496 227e 52060000 		.4byte	.LASF171
 8497 2282 52060000 		.4byte	.LASF171
 8498 2286 26       		.byte	0x26
 8499 2287 C3       		.byte	0xc3
 8500 2288 21       		.uleb128 0x21
 8501 2289 CA000000 		.4byte	.LASF172
 8502 228d CA000000 		.4byte	.LASF172
 8503 2291 27       		.byte	0x27
 8504 2292 18       		.byte	0x18
 8505 2293 21       		.uleb128 0x21
 8506 2294 6C050000 		.4byte	.LASF173
 8507 2298 6C050000 		.4byte	.LASF173
 8508 229c 28       		.byte	0x28
 8509 229d 18       		.byte	0x18
 8510 229e 21       		.uleb128 0x21
 8511 229f 530A0000 		.4byte	.LASF174
 8512 22a3 530A0000 		.4byte	.LASF174
 8513 22a7 29       		.byte	0x29
 8514 22a8 5A       		.byte	0x5a
 8515 22a9 21       		.uleb128 0x21
 8516 22aa 84060000 		.4byte	.LASF175
 8517 22ae 84060000 		.4byte	.LASF175
 8518 22b2 2A       		.byte	0x2a
 8519 22b3 18       		.byte	0x18
 8520 22b4 21       		.uleb128 0x21
 8521 22b5 CF020000 		.4byte	.LASF176
 8522 22b9 CF020000 		.4byte	.LASF176
 8523 22bd 0A       		.byte	0xa
 8524 22be 92       		.byte	0x92
 8525 22bf 21       		.uleb128 0x21
 8526 22c0 A4080000 		.4byte	.LASF177
 8527 22c4 A4080000 		.4byte	.LASF177
 8528 22c8 2B       		.byte	0x2b
 8529 22c9 18       		.byte	0x18
ARM GAS  C:\Users\weiro\AppData\Local\Temp\ccSkAWeC.s 			page 174


 8530 22ca 21       		.uleb128 0x21
 8531 22cb 85070000 		.4byte	.LASF178
 8532 22cf 85070000 		.4byte	.LASF178
 8533 22d3 06       		.byte	0x6
 8534 22d4 92       		.byte	0x92
 8535 22d5 21       		.uleb128 0x21
 8536 22d6 93000000 		.4byte	.LASF179
 8537 22da 93000000 		.4byte	.LASF179
 8538 22de 26       		.byte	0x26
 8539 22df 92       		.byte	0x92
 8540 22e0 21       		.uleb128 0x21
 8541 22e1 65000000 		.4byte	.LASF180
 8542 22e5 65000000 		.4byte	.LASF180
 8543 22e9 25       		.byte	0x25
 8544 22ea 92       		.byte	0x92
 8545 22eb 21       		.uleb128 0x21
 8546 22ec 63010000 		.4byte	.LASF181
 8547 22f0 63010000 		.4byte	.LASF181
 8548 22f4 12       		.byte	0x12
 8549 22f5 48       		.byte	0x48
 8550 22f6 21       		.uleb128 0x21
 8551 22f7 F2060000 		.4byte	.LASF182
 8552 22fb F2060000 		.4byte	.LASF182
 8553 22ff 13       		.byte	0x13
 8554 2300 48       		.byte	0x48
 8555 2301 21       		.uleb128 0x21
 8556 2302 5B080000 		.4byte	.LASF183
 8557 2306 5B080000 		.4byte	.LASF183
 8558 230a 09       		.byte	0x9
 8559 230b 54       		.byte	0x54
 8560 230c 21       		.uleb128 0x21
 8561 230d 51070000 		.4byte	.LASF184
 8562 2311 51070000 		.4byte	.LASF184
 8563 2315 0C       		.byte	0xc
 8564 2316 93       		.byte	0x93
 8565 2317 21       		.uleb128 0x21
 8566 2318 42050000 		.4byte	.LASF185
 8567 231c 42050000 		.4byte	.LASF185
 8568 2320 0B       		.byte	0xb
 8569 2321 5A       		.byte	0x5a
 8570 2322 21       		.uleb128 0x21
 8571 2323 1E0B0000 		.4byte	.LASF186
 8572 2327 1E0B0000 		.4byte	.LASF186
 8573 232b 2C       		.byte	0x2c
 8574 232c 1C       		.byte	0x1c
 8575 232d 21       		.uleb128 0x21
 8576 232e A1090000 		.4byte	.LASF187
 8577 2332 A1090000 		.4byte	.LASF187
 8578 2336 2C       		.byte	0x2c
 8579 2337 2A       		.byte	0x2a
 8580 2338 21       		.uleb128 0x21
 8581 2339 19020000 		.4byte	.LASF188
 8582 233d 19020000 		.4byte	.LASF188
 8583 2341 2C       		.byte	0x2c
 8584 2342 1E       		.byte	0x1e
 8585 2343 00       		.byte	0
 8586              		.section	.debug_abbrev,"",%progbits
ARM GAS  C:\Users\weiro\AppData\Local\Temp\ccSkAWeC.s 			page 175


 8587              	.Ldebug_abbrev0:
 8588 0000 01       		.uleb128 0x1
 8589 0001 11       		.uleb128 0x11
 8590 0002 01       		.byte	0x1
 8591 0003 25       		.uleb128 0x25
 8592 0004 0E       		.uleb128 0xe
 8593 0005 13       		.uleb128 0x13
 8594 0006 0B       		.uleb128 0xb
 8595 0007 03       		.uleb128 0x3
 8596 0008 0E       		.uleb128 0xe
 8597 0009 1B       		.uleb128 0x1b
 8598 000a 0E       		.uleb128 0xe
 8599 000b 55       		.uleb128 0x55
 8600 000c 17       		.uleb128 0x17
 8601 000d 11       		.uleb128 0x11
 8602 000e 01       		.uleb128 0x1
 8603 000f 10       		.uleb128 0x10
 8604 0010 17       		.uleb128 0x17
 8605 0011 00       		.byte	0
 8606 0012 00       		.byte	0
 8607 0013 02       		.uleb128 0x2
 8608 0014 24       		.uleb128 0x24
 8609 0015 00       		.byte	0
 8610 0016 0B       		.uleb128 0xb
 8611 0017 0B       		.uleb128 0xb
 8612 0018 3E       		.uleb128 0x3e
 8613 0019 0B       		.uleb128 0xb
 8614 001a 03       		.uleb128 0x3
 8615 001b 0E       		.uleb128 0xe
 8616 001c 00       		.byte	0
 8617 001d 00       		.byte	0
 8618 001e 03       		.uleb128 0x3
 8619 001f 16       		.uleb128 0x16
 8620 0020 00       		.byte	0
 8621 0021 03       		.uleb128 0x3
 8622 0022 0E       		.uleb128 0xe
 8623 0023 3A       		.uleb128 0x3a
 8624 0024 0B       		.uleb128 0xb
 8625 0025 3B       		.uleb128 0x3b
 8626 0026 0B       		.uleb128 0xb
 8627 0027 49       		.uleb128 0x49
 8628 0028 13       		.uleb128 0x13
 8629 0029 00       		.byte	0
 8630 002a 00       		.byte	0
 8631 002b 04       		.uleb128 0x4
 8632 002c 24       		.uleb128 0x24
 8633 002d 00       		.byte	0
 8634 002e 0B       		.uleb128 0xb
 8635 002f 0B       		.uleb128 0xb
 8636 0030 3E       		.uleb128 0x3e
 8637 0031 0B       		.uleb128 0xb
 8638 0032 03       		.uleb128 0x3
 8639 0033 08       		.uleb128 0x8
 8640 0034 00       		.byte	0
 8641 0035 00       		.byte	0
 8642 0036 05       		.uleb128 0x5
 8643 0037 16       		.uleb128 0x16
ARM GAS  C:\Users\weiro\AppData\Local\Temp\ccSkAWeC.s 			page 176


 8644 0038 00       		.byte	0
 8645 0039 03       		.uleb128 0x3
 8646 003a 0E       		.uleb128 0xe
 8647 003b 3A       		.uleb128 0x3a
 8648 003c 0B       		.uleb128 0xb
 8649 003d 3B       		.uleb128 0x3b
 8650 003e 05       		.uleb128 0x5
 8651 003f 49       		.uleb128 0x49
 8652 0040 13       		.uleb128 0x13
 8653 0041 00       		.byte	0
 8654 0042 00       		.byte	0
 8655 0043 06       		.uleb128 0x6
 8656 0044 0F       		.uleb128 0xf
 8657 0045 00       		.byte	0
 8658 0046 0B       		.uleb128 0xb
 8659 0047 0B       		.uleb128 0xb
 8660 0048 49       		.uleb128 0x49
 8661 0049 13       		.uleb128 0x13
 8662 004a 00       		.byte	0
 8663 004b 00       		.byte	0
 8664 004c 07       		.uleb128 0x7
 8665 004d 2E       		.uleb128 0x2e
 8666 004e 01       		.byte	0x1
 8667 004f 3F       		.uleb128 0x3f
 8668 0050 19       		.uleb128 0x19
 8669 0051 03       		.uleb128 0x3
 8670 0052 0E       		.uleb128 0xe
 8671 0053 3A       		.uleb128 0x3a
 8672 0054 0B       		.uleb128 0xb
 8673 0055 3B       		.uleb128 0x3b
 8674 0056 0B       		.uleb128 0xb
 8675 0057 27       		.uleb128 0x27
 8676 0058 19       		.uleb128 0x19
 8677 0059 11       		.uleb128 0x11
 8678 005a 01       		.uleb128 0x1
 8679 005b 12       		.uleb128 0x12
 8680 005c 06       		.uleb128 0x6
 8681 005d 40       		.uleb128 0x40
 8682 005e 18       		.uleb128 0x18
 8683 005f 9642     		.uleb128 0x2116
 8684 0061 19       		.uleb128 0x19
 8685 0062 01       		.uleb128 0x1
 8686 0063 13       		.uleb128 0x13
 8687 0064 00       		.byte	0
 8688 0065 00       		.byte	0
 8689 0066 08       		.uleb128 0x8
 8690 0067 898201   		.uleb128 0x4109
 8691 006a 00       		.byte	0
 8692 006b 11       		.uleb128 0x11
 8693 006c 01       		.uleb128 0x1
 8694 006d 31       		.uleb128 0x31
 8695 006e 13       		.uleb128 0x13
 8696 006f 00       		.byte	0
 8697 0070 00       		.byte	0
 8698 0071 09       		.uleb128 0x9
 8699 0072 898201   		.uleb128 0x4109
 8700 0075 01       		.byte	0x1
ARM GAS  C:\Users\weiro\AppData\Local\Temp\ccSkAWeC.s 			page 177


 8701 0076 11       		.uleb128 0x11
 8702 0077 01       		.uleb128 0x1
 8703 0078 31       		.uleb128 0x31
 8704 0079 13       		.uleb128 0x13
 8705 007a 01       		.uleb128 0x1
 8706 007b 13       		.uleb128 0x13
 8707 007c 00       		.byte	0
 8708 007d 00       		.byte	0
 8709 007e 0A       		.uleb128 0xa
 8710 007f 8A8201   		.uleb128 0x410a
 8711 0082 00       		.byte	0
 8712 0083 02       		.uleb128 0x2
 8713 0084 18       		.uleb128 0x18
 8714 0085 9142     		.uleb128 0x2111
 8715 0087 18       		.uleb128 0x18
 8716 0088 00       		.byte	0
 8717 0089 00       		.byte	0
 8718 008a 0B       		.uleb128 0xb
 8719 008b 898201   		.uleb128 0x4109
 8720 008e 01       		.byte	0x1
 8721 008f 11       		.uleb128 0x11
 8722 0090 01       		.uleb128 0x1
 8723 0091 31       		.uleb128 0x31
 8724 0092 13       		.uleb128 0x13
 8725 0093 00       		.byte	0
 8726 0094 00       		.byte	0
 8727 0095 0C       		.uleb128 0xc
 8728 0096 2E       		.uleb128 0x2e
 8729 0097 01       		.byte	0x1
 8730 0098 3F       		.uleb128 0x3f
 8731 0099 19       		.uleb128 0x19
 8732 009a 03       		.uleb128 0x3
 8733 009b 0E       		.uleb128 0xe
 8734 009c 3A       		.uleb128 0x3a
 8735 009d 0B       		.uleb128 0xb
 8736 009e 3B       		.uleb128 0x3b
 8737 009f 0B       		.uleb128 0xb
 8738 00a0 27       		.uleb128 0x27
 8739 00a1 19       		.uleb128 0x19
 8740 00a2 11       		.uleb128 0x11
 8741 00a3 01       		.uleb128 0x1
 8742 00a4 12       		.uleb128 0x12
 8743 00a5 06       		.uleb128 0x6
 8744 00a6 40       		.uleb128 0x40
 8745 00a7 18       		.uleb128 0x18
 8746 00a8 9742     		.uleb128 0x2117
 8747 00aa 19       		.uleb128 0x19
 8748 00ab 01       		.uleb128 0x1
 8749 00ac 13       		.uleb128 0x13
 8750 00ad 00       		.byte	0
 8751 00ae 00       		.byte	0
 8752 00af 0D       		.uleb128 0xd
 8753 00b0 2E       		.uleb128 0x2e
 8754 00b1 01       		.byte	0x1
 8755 00b2 3F       		.uleb128 0x3f
 8756 00b3 19       		.uleb128 0x19
 8757 00b4 03       		.uleb128 0x3
ARM GAS  C:\Users\weiro\AppData\Local\Temp\ccSkAWeC.s 			page 178


 8758 00b5 0E       		.uleb128 0xe
 8759 00b6 3A       		.uleb128 0x3a
 8760 00b7 0B       		.uleb128 0xb
 8761 00b8 3B       		.uleb128 0x3b
 8762 00b9 05       		.uleb128 0x5
 8763 00ba 11       		.uleb128 0x11
 8764 00bb 01       		.uleb128 0x1
 8765 00bc 12       		.uleb128 0x12
 8766 00bd 06       		.uleb128 0x6
 8767 00be 40       		.uleb128 0x40
 8768 00bf 18       		.uleb128 0x18
 8769 00c0 9742     		.uleb128 0x2117
 8770 00c2 19       		.uleb128 0x19
 8771 00c3 01       		.uleb128 0x1
 8772 00c4 13       		.uleb128 0x13
 8773 00c5 00       		.byte	0
 8774 00c6 00       		.byte	0
 8775 00c7 0E       		.uleb128 0xe
 8776 00c8 2E       		.uleb128 0x2e
 8777 00c9 01       		.byte	0x1
 8778 00ca 3F       		.uleb128 0x3f
 8779 00cb 19       		.uleb128 0x19
 8780 00cc 03       		.uleb128 0x3
 8781 00cd 0E       		.uleb128 0xe
 8782 00ce 3A       		.uleb128 0x3a
 8783 00cf 0B       		.uleb128 0xb
 8784 00d0 3B       		.uleb128 0x3b
 8785 00d1 05       		.uleb128 0x5
 8786 00d2 27       		.uleb128 0x27
 8787 00d3 19       		.uleb128 0x19
 8788 00d4 11       		.uleb128 0x11
 8789 00d5 01       		.uleb128 0x1
 8790 00d6 12       		.uleb128 0x12
 8791 00d7 06       		.uleb128 0x6
 8792 00d8 40       		.uleb128 0x40
 8793 00d9 18       		.uleb128 0x18
 8794 00da 9642     		.uleb128 0x2116
 8795 00dc 19       		.uleb128 0x19
 8796 00dd 01       		.uleb128 0x1
 8797 00de 13       		.uleb128 0x13
 8798 00df 00       		.byte	0
 8799 00e0 00       		.byte	0
 8800 00e1 0F       		.uleb128 0xf
 8801 00e2 05       		.uleb128 0x5
 8802 00e3 00       		.byte	0
 8803 00e4 03       		.uleb128 0x3
 8804 00e5 0E       		.uleb128 0xe
 8805 00e6 3A       		.uleb128 0x3a
 8806 00e7 0B       		.uleb128 0xb
 8807 00e8 3B       		.uleb128 0x3b
 8808 00e9 05       		.uleb128 0x5
 8809 00ea 49       		.uleb128 0x49
 8810 00eb 13       		.uleb128 0x13
 8811 00ec 02       		.uleb128 0x2
 8812 00ed 17       		.uleb128 0x17
 8813 00ee 00       		.byte	0
 8814 00ef 00       		.byte	0
ARM GAS  C:\Users\weiro\AppData\Local\Temp\ccSkAWeC.s 			page 179


 8815 00f0 10       		.uleb128 0x10
 8816 00f1 34       		.uleb128 0x34
 8817 00f2 00       		.byte	0
 8818 00f3 03       		.uleb128 0x3
 8819 00f4 0E       		.uleb128 0xe
 8820 00f5 3A       		.uleb128 0x3a
 8821 00f6 0B       		.uleb128 0xb
 8822 00f7 3B       		.uleb128 0x3b
 8823 00f8 05       		.uleb128 0x5
 8824 00f9 49       		.uleb128 0x49
 8825 00fa 13       		.uleb128 0x13
 8826 00fb 02       		.uleb128 0x2
 8827 00fc 17       		.uleb128 0x17
 8828 00fd 00       		.byte	0
 8829 00fe 00       		.byte	0
 8830 00ff 11       		.uleb128 0x11
 8831 0100 2E       		.uleb128 0x2e
 8832 0101 01       		.byte	0x1
 8833 0102 3F       		.uleb128 0x3f
 8834 0103 19       		.uleb128 0x19
 8835 0104 03       		.uleb128 0x3
 8836 0105 0E       		.uleb128 0xe
 8837 0106 3A       		.uleb128 0x3a
 8838 0107 0B       		.uleb128 0xb
 8839 0108 3B       		.uleb128 0x3b
 8840 0109 05       		.uleb128 0x5
 8841 010a 11       		.uleb128 0x11
 8842 010b 01       		.uleb128 0x1
 8843 010c 12       		.uleb128 0x12
 8844 010d 06       		.uleb128 0x6
 8845 010e 40       		.uleb128 0x40
 8846 010f 18       		.uleb128 0x18
 8847 0110 9642     		.uleb128 0x2116
 8848 0112 19       		.uleb128 0x19
 8849 0113 01       		.uleb128 0x1
 8850 0114 13       		.uleb128 0x13
 8851 0115 00       		.byte	0
 8852 0116 00       		.byte	0
 8853 0117 12       		.uleb128 0x12
 8854 0118 34       		.uleb128 0x34
 8855 0119 00       		.byte	0
 8856 011a 03       		.uleb128 0x3
 8857 011b 0E       		.uleb128 0xe
 8858 011c 3A       		.uleb128 0x3a
 8859 011d 0B       		.uleb128 0xb
 8860 011e 3B       		.uleb128 0x3b
 8861 011f 05       		.uleb128 0x5
 8862 0120 49       		.uleb128 0x49
 8863 0121 13       		.uleb128 0x13
 8864 0122 1C       		.uleb128 0x1c
 8865 0123 0B       		.uleb128 0xb
 8866 0124 00       		.byte	0
 8867 0125 00       		.byte	0
 8868 0126 13       		.uleb128 0x13
 8869 0127 0B       		.uleb128 0xb
 8870 0128 01       		.byte	0x1
 8871 0129 55       		.uleb128 0x55
ARM GAS  C:\Users\weiro\AppData\Local\Temp\ccSkAWeC.s 			page 180


 8872 012a 17       		.uleb128 0x17
 8873 012b 01       		.uleb128 0x1
 8874 012c 13       		.uleb128 0x13
 8875 012d 00       		.byte	0
 8876 012e 00       		.byte	0
 8877 012f 14       		.uleb128 0x14
 8878 0130 2E       		.uleb128 0x2e
 8879 0131 01       		.byte	0x1
 8880 0132 3F       		.uleb128 0x3f
 8881 0133 19       		.uleb128 0x19
 8882 0134 03       		.uleb128 0x3
 8883 0135 08       		.uleb128 0x8
 8884 0136 3A       		.uleb128 0x3a
 8885 0137 0B       		.uleb128 0xb
 8886 0138 3B       		.uleb128 0x3b
 8887 0139 05       		.uleb128 0x5
 8888 013a 27       		.uleb128 0x27
 8889 013b 19       		.uleb128 0x19
 8890 013c 11       		.uleb128 0x11
 8891 013d 01       		.uleb128 0x1
 8892 013e 12       		.uleb128 0x12
 8893 013f 06       		.uleb128 0x6
 8894 0140 40       		.uleb128 0x40
 8895 0141 18       		.uleb128 0x18
 8896 0142 9742     		.uleb128 0x2117
 8897 0144 19       		.uleb128 0x19
 8898 0145 01       		.uleb128 0x1
 8899 0146 13       		.uleb128 0x13
 8900 0147 00       		.byte	0
 8901 0148 00       		.byte	0
 8902 0149 15       		.uleb128 0x15
 8903 014a 34       		.uleb128 0x34
 8904 014b 00       		.byte	0
 8905 014c 03       		.uleb128 0x3
 8906 014d 0E       		.uleb128 0xe
 8907 014e 3A       		.uleb128 0x3a
 8908 014f 0B       		.uleb128 0xb
 8909 0150 3B       		.uleb128 0x3b
 8910 0151 05       		.uleb128 0x5
 8911 0152 49       		.uleb128 0x49
 8912 0153 13       		.uleb128 0x13
 8913 0154 1C       		.uleb128 0x1c
 8914 0155 0A       		.uleb128 0xa
 8915 0156 00       		.byte	0
 8916 0157 00       		.byte	0
 8917 0158 16       		.uleb128 0x16
 8918 0159 2E       		.uleb128 0x2e
 8919 015a 01       		.byte	0x1
 8920 015b 3F       		.uleb128 0x3f
 8921 015c 19       		.uleb128 0x19
 8922 015d 03       		.uleb128 0x3
 8923 015e 0E       		.uleb128 0xe
 8924 015f 3A       		.uleb128 0x3a
 8925 0160 0B       		.uleb128 0xb
 8926 0161 3B       		.uleb128 0x3b
 8927 0162 05       		.uleb128 0x5
 8928 0163 49       		.uleb128 0x49
ARM GAS  C:\Users\weiro\AppData\Local\Temp\ccSkAWeC.s 			page 181


 8929 0164 13       		.uleb128 0x13
 8930 0165 11       		.uleb128 0x11
 8931 0166 01       		.uleb128 0x1
 8932 0167 12       		.uleb128 0x12
 8933 0168 06       		.uleb128 0x6
 8934 0169 40       		.uleb128 0x40
 8935 016a 18       		.uleb128 0x18
 8936 016b 9642     		.uleb128 0x2116
 8937 016d 19       		.uleb128 0x19
 8938 016e 01       		.uleb128 0x1
 8939 016f 13       		.uleb128 0x13
 8940 0170 00       		.byte	0
 8941 0171 00       		.byte	0
 8942 0172 17       		.uleb128 0x17
 8943 0173 2E       		.uleb128 0x2e
 8944 0174 01       		.byte	0x1
 8945 0175 3F       		.uleb128 0x3f
 8946 0176 19       		.uleb128 0x19
 8947 0177 03       		.uleb128 0x3
 8948 0178 0E       		.uleb128 0xe
 8949 0179 3A       		.uleb128 0x3a
 8950 017a 0B       		.uleb128 0xb
 8951 017b 3B       		.uleb128 0x3b
 8952 017c 05       		.uleb128 0x5
 8953 017d 27       		.uleb128 0x27
 8954 017e 19       		.uleb128 0x19
 8955 017f 11       		.uleb128 0x11
 8956 0180 01       		.uleb128 0x1
 8957 0181 12       		.uleb128 0x12
 8958 0182 06       		.uleb128 0x6
 8959 0183 40       		.uleb128 0x40
 8960 0184 18       		.uleb128 0x18
 8961 0185 9742     		.uleb128 0x2117
 8962 0187 19       		.uleb128 0x19
 8963 0188 01       		.uleb128 0x1
 8964 0189 13       		.uleb128 0x13
 8965 018a 00       		.byte	0
 8966 018b 00       		.byte	0
 8967 018c 18       		.uleb128 0x18
 8968 018d 0B       		.uleb128 0xb
 8969 018e 01       		.byte	0x1
 8970 018f 11       		.uleb128 0x11
 8971 0190 01       		.uleb128 0x1
 8972 0191 12       		.uleb128 0x12
 8973 0192 06       		.uleb128 0x6
 8974 0193 00       		.byte	0
 8975 0194 00       		.byte	0
 8976 0195 19       		.uleb128 0x19
 8977 0196 2E       		.uleb128 0x2e
 8978 0197 01       		.byte	0x1
 8979 0198 3F       		.uleb128 0x3f
 8980 0199 19       		.uleb128 0x19
 8981 019a 03       		.uleb128 0x3
 8982 019b 0E       		.uleb128 0xe
 8983 019c 3A       		.uleb128 0x3a
 8984 019d 0B       		.uleb128 0xb
 8985 019e 3B       		.uleb128 0x3b
ARM GAS  C:\Users\weiro\AppData\Local\Temp\ccSkAWeC.s 			page 182


 8986 019f 05       		.uleb128 0x5
 8987 01a0 27       		.uleb128 0x27
 8988 01a1 19       		.uleb128 0x19
 8989 01a2 49       		.uleb128 0x49
 8990 01a3 13       		.uleb128 0x13
 8991 01a4 8701     		.uleb128 0x87
 8992 01a6 19       		.uleb128 0x19
 8993 01a7 11       		.uleb128 0x11
 8994 01a8 01       		.uleb128 0x1
 8995 01a9 12       		.uleb128 0x12
 8996 01aa 06       		.uleb128 0x6
 8997 01ab 40       		.uleb128 0x40
 8998 01ac 18       		.uleb128 0x18
 8999 01ad 9642     		.uleb128 0x2116
 9000 01af 19       		.uleb128 0x19
 9001 01b0 01       		.uleb128 0x1
 9002 01b1 13       		.uleb128 0x13
 9003 01b2 00       		.byte	0
 9004 01b3 00       		.byte	0
 9005 01b4 1A       		.uleb128 0x1a
 9006 01b5 0B       		.uleb128 0xb
 9007 01b6 01       		.byte	0x1
 9008 01b7 11       		.uleb128 0x11
 9009 01b8 01       		.uleb128 0x1
 9010 01b9 12       		.uleb128 0x12
 9011 01ba 06       		.uleb128 0x6
 9012 01bb 01       		.uleb128 0x1
 9013 01bc 13       		.uleb128 0x13
 9014 01bd 00       		.byte	0
 9015 01be 00       		.byte	0
 9016 01bf 1B       		.uleb128 0x1b
 9017 01c0 34       		.uleb128 0x34
 9018 01c1 00       		.byte	0
 9019 01c2 03       		.uleb128 0x3
 9020 01c3 0E       		.uleb128 0xe
 9021 01c4 3A       		.uleb128 0x3a
 9022 01c5 0B       		.uleb128 0xb
 9023 01c6 3B       		.uleb128 0x3b
 9024 01c7 05       		.uleb128 0x5
 9025 01c8 49       		.uleb128 0x49
 9026 01c9 13       		.uleb128 0x13
 9027 01ca 3F       		.uleb128 0x3f
 9028 01cb 19       		.uleb128 0x19
 9029 01cc 3C       		.uleb128 0x3c
 9030 01cd 19       		.uleb128 0x19
 9031 01ce 00       		.byte	0
 9032 01cf 00       		.byte	0
 9033 01d0 1C       		.uleb128 0x1c
 9034 01d1 35       		.uleb128 0x35
 9035 01d2 00       		.byte	0
 9036 01d3 49       		.uleb128 0x49
 9037 01d4 13       		.uleb128 0x13
 9038 01d5 00       		.byte	0
 9039 01d6 00       		.byte	0
 9040 01d7 1D       		.uleb128 0x1d
 9041 01d8 34       		.uleb128 0x34
 9042 01d9 00       		.byte	0
ARM GAS  C:\Users\weiro\AppData\Local\Temp\ccSkAWeC.s 			page 183


 9043 01da 03       		.uleb128 0x3
 9044 01db 0E       		.uleb128 0xe
 9045 01dc 3A       		.uleb128 0x3a
 9046 01dd 0B       		.uleb128 0xb
 9047 01de 3B       		.uleb128 0x3b
 9048 01df 0B       		.uleb128 0xb
 9049 01e0 49       		.uleb128 0x49
 9050 01e1 13       		.uleb128 0x13
 9051 01e2 3F       		.uleb128 0x3f
 9052 01e3 19       		.uleb128 0x19
 9053 01e4 02       		.uleb128 0x2
 9054 01e5 18       		.uleb128 0x18
 9055 01e6 00       		.byte	0
 9056 01e7 00       		.byte	0
 9057 01e8 1E       		.uleb128 0x1e
 9058 01e9 01       		.uleb128 0x1
 9059 01ea 01       		.byte	0x1
 9060 01eb 49       		.uleb128 0x49
 9061 01ec 13       		.uleb128 0x13
 9062 01ed 01       		.uleb128 0x1
 9063 01ee 13       		.uleb128 0x13
 9064 01ef 00       		.byte	0
 9065 01f0 00       		.byte	0
 9066 01f1 1F       		.uleb128 0x1f
 9067 01f2 21       		.uleb128 0x21
 9068 01f3 00       		.byte	0
 9069 01f4 49       		.uleb128 0x49
 9070 01f5 13       		.uleb128 0x13
 9071 01f6 2F       		.uleb128 0x2f
 9072 01f7 0B       		.uleb128 0xb
 9073 01f8 00       		.byte	0
 9074 01f9 00       		.byte	0
 9075 01fa 20       		.uleb128 0x20
 9076 01fb 34       		.uleb128 0x34
 9077 01fc 00       		.byte	0
 9078 01fd 03       		.uleb128 0x3
 9079 01fe 08       		.uleb128 0x8
 9080 01ff 3A       		.uleb128 0x3a
 9081 0200 0B       		.uleb128 0xb
 9082 0201 3B       		.uleb128 0x3b
 9083 0202 0B       		.uleb128 0xb
 9084 0203 49       		.uleb128 0x49
 9085 0204 13       		.uleb128 0x13
 9086 0205 3F       		.uleb128 0x3f
 9087 0206 19       		.uleb128 0x19
 9088 0207 02       		.uleb128 0x2
 9089 0208 18       		.uleb128 0x18
 9090 0209 00       		.byte	0
 9091 020a 00       		.byte	0
 9092 020b 21       		.uleb128 0x21
 9093 020c 2E       		.uleb128 0x2e
 9094 020d 00       		.byte	0
 9095 020e 3F       		.uleb128 0x3f
 9096 020f 19       		.uleb128 0x19
 9097 0210 3C       		.uleb128 0x3c
 9098 0211 19       		.uleb128 0x19
 9099 0212 6E       		.uleb128 0x6e
ARM GAS  C:\Users\weiro\AppData\Local\Temp\ccSkAWeC.s 			page 184


 9100 0213 0E       		.uleb128 0xe
 9101 0214 03       		.uleb128 0x3
 9102 0215 0E       		.uleb128 0xe
 9103 0216 3A       		.uleb128 0x3a
 9104 0217 0B       		.uleb128 0xb
 9105 0218 3B       		.uleb128 0x3b
 9106 0219 0B       		.uleb128 0xb
 9107 021a 00       		.byte	0
 9108 021b 00       		.byte	0
 9109 021c 22       		.uleb128 0x22
 9110 021d 2E       		.uleb128 0x2e
 9111 021e 00       		.byte	0
 9112 021f 3F       		.uleb128 0x3f
 9113 0220 19       		.uleb128 0x19
 9114 0221 3C       		.uleb128 0x3c
 9115 0222 19       		.uleb128 0x19
 9116 0223 6E       		.uleb128 0x6e
 9117 0224 08       		.uleb128 0x8
 9118 0225 03       		.uleb128 0x3
 9119 0226 08       		.uleb128 0x8
 9120 0227 3A       		.uleb128 0x3a
 9121 0228 0B       		.uleb128 0xb
 9122 0229 3B       		.uleb128 0x3b
 9123 022a 0B       		.uleb128 0xb
 9124 022b 00       		.byte	0
 9125 022c 00       		.byte	0
 9126 022d 00       		.byte	0
 9127              		.section	.debug_loc,"",%progbits
 9128              	.Ldebug_loc0:
 9129              	.LLST0:
 9130 0000 00000000 		.4byte	.LVL73
 9131 0004 07000000 		.4byte	.LVL74-1
 9132 0008 0100     		.2byte	0x1
 9133 000a 50       		.byte	0x50
 9134 000b 07000000 		.4byte	.LVL74-1
 9135 000f 14010000 		.4byte	.LFE75
 9136 0013 0400     		.2byte	0x4
 9137 0015 F3       		.byte	0xf3
 9138 0016 01       		.uleb128 0x1
 9139 0017 50       		.byte	0x50
 9140 0018 9F       		.byte	0x9f
 9141 0019 00000000 		.4byte	0
 9142 001d 00000000 		.4byte	0
 9143              	.LLST1:
 9144 0021 00000000 		.4byte	.LVL73
 9145 0025 07000000 		.4byte	.LVL74-1
 9146 0029 0100     		.2byte	0x1
 9147 002b 51       		.byte	0x51
 9148 002c 07000000 		.4byte	.LVL74-1
 9149 0030 F6000000 		.4byte	.LVL105
 9150 0034 0100     		.2byte	0x1
 9151 0036 56       		.byte	0x56
 9152 0037 F6000000 		.4byte	.LVL105
 9153 003b 14010000 		.4byte	.LFE75
 9154 003f 0400     		.2byte	0x4
 9155 0041 F3       		.byte	0xf3
 9156 0042 01       		.uleb128 0x1
ARM GAS  C:\Users\weiro\AppData\Local\Temp\ccSkAWeC.s 			page 185


 9157 0043 51       		.byte	0x51
 9158 0044 9F       		.byte	0x9f
 9159 0045 00000000 		.4byte	0
 9160 0049 00000000 		.4byte	0
 9161              	.LLST2:
 9162 004d 70000000 		.4byte	.LVL87
 9163 0051 A0000000 		.4byte	.LVL91
 9164 0055 0600     		.2byte	0x6
 9165 0057 54       		.byte	0x54
 9166 0058 93       		.byte	0x93
 9167 0059 04       		.uleb128 0x4
 9168 005a 55       		.byte	0x55
 9169 005b 93       		.byte	0x93
 9170 005c 04       		.uleb128 0x4
 9171 005d AE000000 		.4byte	.LVL93
 9172 0061 B4000000 		.4byte	.LVL94
 9173 0065 0600     		.2byte	0x6
 9174 0067 54       		.byte	0x54
 9175 0068 93       		.byte	0x93
 9176 0069 04       		.uleb128 0x4
 9177 006a 55       		.byte	0x55
 9178 006b 93       		.byte	0x93
 9179 006c 04       		.uleb128 0x4
 9180 006d C2000000 		.4byte	.LVL96
 9181 0071 C8000000 		.4byte	.LVL97
 9182 0075 0600     		.2byte	0x6
 9183 0077 54       		.byte	0x54
 9184 0078 93       		.byte	0x93
 9185 0079 04       		.uleb128 0x4
 9186 007a 55       		.byte	0x55
 9187 007b 93       		.byte	0x93
 9188 007c 04       		.uleb128 0x4
 9189 007d DA000000 		.4byte	.LVL100
 9190 0081 E0000000 		.4byte	.LVL101
 9191 0085 0600     		.2byte	0x6
 9192 0087 54       		.byte	0x54
 9193 0088 93       		.byte	0x93
 9194 0089 04       		.uleb128 0x4
 9195 008a 55       		.byte	0x55
 9196 008b 93       		.byte	0x93
 9197 008c 04       		.uleb128 0x4
 9198 008d 00000000 		.4byte	0
 9199 0091 00000000 		.4byte	0
 9200              	.LLST3:
 9201 0095 96000000 		.4byte	.LVL90
 9202 0099 A7000000 		.4byte	.LVL92-1
 9203 009d 0600     		.2byte	0x6
 9204 009f 50       		.byte	0x50
 9205 00a0 93       		.byte	0x93
 9206 00a1 04       		.uleb128 0x4
 9207 00a2 51       		.byte	0x51
 9208 00a3 93       		.byte	0x93
 9209 00a4 04       		.uleb128 0x4
 9210 00a5 AE000000 		.4byte	.LVL93
 9211 00a9 BB000000 		.4byte	.LVL95-1
 9212 00ad 0600     		.2byte	0x6
 9213 00af 50       		.byte	0x50
ARM GAS  C:\Users\weiro\AppData\Local\Temp\ccSkAWeC.s 			page 186


 9214 00b0 93       		.byte	0x93
 9215 00b1 04       		.uleb128 0x4
 9216 00b2 51       		.byte	0x51
 9217 00b3 93       		.byte	0x93
 9218 00b4 04       		.uleb128 0x4
 9219 00b5 C2000000 		.4byte	.LVL96
 9220 00b9 D0000000 		.4byte	.LVL98
 9221 00bd 0600     		.2byte	0x6
 9222 00bf 50       		.byte	0x50
 9223 00c0 93       		.byte	0x93
 9224 00c1 04       		.uleb128 0x4
 9225 00c2 51       		.byte	0x51
 9226 00c3 93       		.byte	0x93
 9227 00c4 04       		.uleb128 0x4
 9228 00c5 DA000000 		.4byte	.LVL100
 9229 00c9 E8000000 		.4byte	.LVL102
 9230 00cd 0600     		.2byte	0x6
 9231 00cf 50       		.byte	0x50
 9232 00d0 93       		.byte	0x93
 9233 00d1 04       		.uleb128 0x4
 9234 00d2 51       		.byte	0x51
 9235 00d3 93       		.byte	0x93
 9236 00d4 04       		.uleb128 0x4
 9237 00d5 00000000 		.4byte	0
 9238 00d9 00000000 		.4byte	0
 9239              	.LLST4:
 9240 00dd 18000000 		.4byte	.LVL77
 9241 00e1 1A000000 		.4byte	.LVL78
 9242 00e5 0100     		.2byte	0x1
 9243 00e7 50       		.byte	0x50
 9244 00e8 1A000000 		.4byte	.LVL78
 9245 00ec 70000000 		.4byte	.LVL87
 9246 00f0 0100     		.2byte	0x1
 9247 00f2 55       		.byte	0x55
 9248 00f3 00000000 		.4byte	0
 9249 00f7 00000000 		.4byte	0
 9250              	.LLST5:
 9251 00fb 62000000 		.4byte	.LVL118
 9252 00ff 92000000 		.4byte	.LVL122
 9253 0103 0600     		.2byte	0x6
 9254 0105 54       		.byte	0x54
 9255 0106 93       		.byte	0x93
 9256 0107 04       		.uleb128 0x4
 9257 0108 55       		.byte	0x55
 9258 0109 93       		.byte	0x93
 9259 010a 04       		.uleb128 0x4
 9260 010b A0000000 		.4byte	.LVL124
 9261 010f A6000000 		.4byte	.LVL125
 9262 0113 0600     		.2byte	0x6
 9263 0115 54       		.byte	0x54
 9264 0116 93       		.byte	0x93
 9265 0117 04       		.uleb128 0x4
 9266 0118 55       		.byte	0x55
 9267 0119 93       		.byte	0x93
 9268 011a 04       		.uleb128 0x4
 9269 011b B4000000 		.4byte	.LVL127
 9270 011f BA000000 		.4byte	.LVL128
ARM GAS  C:\Users\weiro\AppData\Local\Temp\ccSkAWeC.s 			page 187


 9271 0123 0600     		.2byte	0x6
 9272 0125 54       		.byte	0x54
 9273 0126 93       		.byte	0x93
 9274 0127 04       		.uleb128 0x4
 9275 0128 55       		.byte	0x55
 9276 0129 93       		.byte	0x93
 9277 012a 04       		.uleb128 0x4
 9278 012b CC000000 		.4byte	.LVL131
 9279 012f D2000000 		.4byte	.LVL132
 9280 0133 0600     		.2byte	0x6
 9281 0135 54       		.byte	0x54
 9282 0136 93       		.byte	0x93
 9283 0137 04       		.uleb128 0x4
 9284 0138 55       		.byte	0x55
 9285 0139 93       		.byte	0x93
 9286 013a 04       		.uleb128 0x4
 9287 013b 00000000 		.4byte	0
 9288 013f 00000000 		.4byte	0
 9289              	.LLST6:
 9290 0143 88000000 		.4byte	.LVL121
 9291 0147 99000000 		.4byte	.LVL123-1
 9292 014b 0600     		.2byte	0x6
 9293 014d 50       		.byte	0x50
 9294 014e 93       		.byte	0x93
 9295 014f 04       		.uleb128 0x4
 9296 0150 51       		.byte	0x51
 9297 0151 93       		.byte	0x93
 9298 0152 04       		.uleb128 0x4
 9299 0153 A0000000 		.4byte	.LVL124
 9300 0157 AD000000 		.4byte	.LVL126-1
 9301 015b 0600     		.2byte	0x6
 9302 015d 50       		.byte	0x50
 9303 015e 93       		.byte	0x93
 9304 015f 04       		.uleb128 0x4
 9305 0160 51       		.byte	0x51
 9306 0161 93       		.byte	0x93
 9307 0162 04       		.uleb128 0x4
 9308 0163 B4000000 		.4byte	.LVL127
 9309 0167 C2000000 		.4byte	.LVL129
 9310 016b 0600     		.2byte	0x6
 9311 016d 50       		.byte	0x50
 9312 016e 93       		.byte	0x93
 9313 016f 04       		.uleb128 0x4
 9314 0170 51       		.byte	0x51
 9315 0171 93       		.byte	0x93
 9316 0172 04       		.uleb128 0x4
 9317 0173 CC000000 		.4byte	.LVL131
 9318 0177 DA000000 		.4byte	.LVL133
 9319 017b 0600     		.2byte	0x6
 9320 017d 50       		.byte	0x50
 9321 017e 93       		.byte	0x93
 9322 017f 04       		.uleb128 0x4
 9323 0180 51       		.byte	0x51
 9324 0181 93       		.byte	0x93
 9325 0182 04       		.uleb128 0x4
 9326 0183 00000000 		.4byte	0
 9327 0187 00000000 		.4byte	0
ARM GAS  C:\Users\weiro\AppData\Local\Temp\ccSkAWeC.s 			page 188


 9328              	.LLST7:
 9329 018b 84000000 		.4byte	.LVL150
 9330 018f B4000000 		.4byte	.LVL154
 9331 0193 0600     		.2byte	0x6
 9332 0195 54       		.byte	0x54
 9333 0196 93       		.byte	0x93
 9334 0197 04       		.uleb128 0x4
 9335 0198 55       		.byte	0x55
 9336 0199 93       		.byte	0x93
 9337 019a 04       		.uleb128 0x4
 9338 019b C2000000 		.4byte	.LVL156
 9339 019f C8000000 		.4byte	.LVL157
 9340 01a3 0600     		.2byte	0x6
 9341 01a5 54       		.byte	0x54
 9342 01a6 93       		.byte	0x93
 9343 01a7 04       		.uleb128 0x4
 9344 01a8 55       		.byte	0x55
 9345 01a9 93       		.byte	0x93
 9346 01aa 04       		.uleb128 0x4
 9347 01ab D6000000 		.4byte	.LVL159
 9348 01af DC000000 		.4byte	.LVL160
 9349 01b3 0600     		.2byte	0x6
 9350 01b5 54       		.byte	0x54
 9351 01b6 93       		.byte	0x93
 9352 01b7 04       		.uleb128 0x4
 9353 01b8 55       		.byte	0x55
 9354 01b9 93       		.byte	0x93
 9355 01ba 04       		.uleb128 0x4
 9356 01bb EE000000 		.4byte	.LVL163
 9357 01bf F4000000 		.4byte	.LVL164
 9358 01c3 0600     		.2byte	0x6
 9359 01c5 54       		.byte	0x54
 9360 01c6 93       		.byte	0x93
 9361 01c7 04       		.uleb128 0x4
 9362 01c8 55       		.byte	0x55
 9363 01c9 93       		.byte	0x93
 9364 01ca 04       		.uleb128 0x4
 9365 01cb 00000000 		.4byte	0
 9366 01cf 00000000 		.4byte	0
 9367              	.LLST8:
 9368 01d3 AA000000 		.4byte	.LVL153
 9369 01d7 BB000000 		.4byte	.LVL155-1
 9370 01db 0600     		.2byte	0x6
 9371 01dd 50       		.byte	0x50
 9372 01de 93       		.byte	0x93
 9373 01df 04       		.uleb128 0x4
 9374 01e0 51       		.byte	0x51
 9375 01e1 93       		.byte	0x93
 9376 01e2 04       		.uleb128 0x4
 9377 01e3 C2000000 		.4byte	.LVL156
 9378 01e7 CF000000 		.4byte	.LVL158-1
 9379 01eb 0600     		.2byte	0x6
 9380 01ed 50       		.byte	0x50
 9381 01ee 93       		.byte	0x93
 9382 01ef 04       		.uleb128 0x4
 9383 01f0 51       		.byte	0x51
 9384 01f1 93       		.byte	0x93
ARM GAS  C:\Users\weiro\AppData\Local\Temp\ccSkAWeC.s 			page 189


 9385 01f2 04       		.uleb128 0x4
 9386 01f3 D6000000 		.4byte	.LVL159
 9387 01f7 E4000000 		.4byte	.LVL161
 9388 01fb 0600     		.2byte	0x6
 9389 01fd 50       		.byte	0x50
 9390 01fe 93       		.byte	0x93
 9391 01ff 04       		.uleb128 0x4
 9392 0200 51       		.byte	0x51
 9393 0201 93       		.byte	0x93
 9394 0202 04       		.uleb128 0x4
 9395 0203 EE000000 		.4byte	.LVL163
 9396 0207 FC000000 		.4byte	.LVL165
 9397 020b 0600     		.2byte	0x6
 9398 020d 50       		.byte	0x50
 9399 020e 93       		.byte	0x93
 9400 020f 04       		.uleb128 0x4
 9401 0210 51       		.byte	0x51
 9402 0211 93       		.byte	0x93
 9403 0212 04       		.uleb128 0x4
 9404 0213 00000000 		.4byte	0
 9405 0217 00000000 		.4byte	0
 9406              	.LLST9:
 9407 021b 36000000 		.4byte	.LVL175
 9408 021f 66000000 		.4byte	.LVL179
 9409 0223 0600     		.2byte	0x6
 9410 0225 54       		.byte	0x54
 9411 0226 93       		.byte	0x93
 9412 0227 04       		.uleb128 0x4
 9413 0228 55       		.byte	0x55
 9414 0229 93       		.byte	0x93
 9415 022a 04       		.uleb128 0x4
 9416 022b 74000000 		.4byte	.LVL181
 9417 022f 7A000000 		.4byte	.LVL182
 9418 0233 0600     		.2byte	0x6
 9419 0235 54       		.byte	0x54
 9420 0236 93       		.byte	0x93
 9421 0237 04       		.uleb128 0x4
 9422 0238 55       		.byte	0x55
 9423 0239 93       		.byte	0x93
 9424 023a 04       		.uleb128 0x4
 9425 023b 88000000 		.4byte	.LVL184
 9426 023f 8E000000 		.4byte	.LVL185
 9427 0243 0600     		.2byte	0x6
 9428 0245 54       		.byte	0x54
 9429 0246 93       		.byte	0x93
 9430 0247 04       		.uleb128 0x4
 9431 0248 55       		.byte	0x55
 9432 0249 93       		.byte	0x93
 9433 024a 04       		.uleb128 0x4
 9434 024b A0000000 		.4byte	.LVL188
 9435 024f A6000000 		.4byte	.LVL189
 9436 0253 0600     		.2byte	0x6
 9437 0255 54       		.byte	0x54
 9438 0256 93       		.byte	0x93
 9439 0257 04       		.uleb128 0x4
 9440 0258 55       		.byte	0x55
 9441 0259 93       		.byte	0x93
ARM GAS  C:\Users\weiro\AppData\Local\Temp\ccSkAWeC.s 			page 190


 9442 025a 04       		.uleb128 0x4
 9443 025b 00000000 		.4byte	0
 9444 025f 00000000 		.4byte	0
 9445              	.LLST10:
 9446 0263 5C000000 		.4byte	.LVL178
 9447 0267 6D000000 		.4byte	.LVL180-1
 9448 026b 0600     		.2byte	0x6
 9449 026d 50       		.byte	0x50
 9450 026e 93       		.byte	0x93
 9451 026f 04       		.uleb128 0x4
 9452 0270 51       		.byte	0x51
 9453 0271 93       		.byte	0x93
 9454 0272 04       		.uleb128 0x4
 9455 0273 74000000 		.4byte	.LVL181
 9456 0277 81000000 		.4byte	.LVL183-1
 9457 027b 0600     		.2byte	0x6
 9458 027d 50       		.byte	0x50
 9459 027e 93       		.byte	0x93
 9460 027f 04       		.uleb128 0x4
 9461 0280 51       		.byte	0x51
 9462 0281 93       		.byte	0x93
 9463 0282 04       		.uleb128 0x4
 9464 0283 88000000 		.4byte	.LVL184
 9465 0287 96000000 		.4byte	.LVL186
 9466 028b 0600     		.2byte	0x6
 9467 028d 50       		.byte	0x50
 9468 028e 93       		.byte	0x93
 9469 028f 04       		.uleb128 0x4
 9470 0290 51       		.byte	0x51
 9471 0291 93       		.byte	0x93
 9472 0292 04       		.uleb128 0x4
 9473 0293 A0000000 		.4byte	.LVL188
 9474 0297 AE000000 		.4byte	.LVL190
 9475 029b 0600     		.2byte	0x6
 9476 029d 50       		.byte	0x50
 9477 029e 93       		.byte	0x93
 9478 029f 04       		.uleb128 0x4
 9479 02a0 51       		.byte	0x51
 9480 02a1 93       		.byte	0x93
 9481 02a2 04       		.uleb128 0x4
 9482 02a3 00000000 		.4byte	0
 9483 02a7 00000000 		.4byte	0
 9484              	.LLST11:
 9485 02ab 02000000 		.4byte	.LVL193
 9486 02af 32000000 		.4byte	.LVL198
 9487 02b3 0200     		.2byte	0x2
 9488 02b5 30       		.byte	0x30
 9489 02b6 9F       		.byte	0x9f
 9490 02b7 32000000 		.4byte	.LVL198
 9491 02bb 36000000 		.4byte	.LVL199
 9492 02bf 0300     		.2byte	0x3
 9493 02c1 08       		.byte	0x8
 9494 02c2 B4       		.byte	0xb4
 9495 02c3 9F       		.byte	0x9f
 9496 02c4 36000000 		.4byte	.LVL199
 9497 02c8 3C000000 		.4byte	.LVL200
 9498 02cc 0400     		.2byte	0x4
ARM GAS  C:\Users\weiro\AppData\Local\Temp\ccSkAWeC.s 			page 191


 9499 02ce 0A       		.byte	0xa
 9500 02cf 0E01     		.2byte	0x10e
 9501 02d1 9F       		.byte	0x9f
 9502 02d2 3C000000 		.4byte	.LVL200
 9503 02d6 3E000000 		.4byte	.LVL201
 9504 02da 0200     		.2byte	0x2
 9505 02dc 30       		.byte	0x30
 9506 02dd 9F       		.byte	0x9f
 9507 02de 3E000000 		.4byte	.LVL201
 9508 02e2 6C000000 		.4byte	.LVL207
 9509 02e6 0100     		.2byte	0x1
 9510 02e8 54       		.byte	0x54
 9511 02e9 86000000 		.4byte	.LVL212
 9512 02ed 9C000000 		.4byte	.LVL217
 9513 02f1 0100     		.2byte	0x1
 9514 02f3 54       		.byte	0x54
 9515 02f4 9C000000 		.4byte	.LVL217
 9516 02f8 A8000000 		.4byte	.LFE79
 9517 02fc 0200     		.2byte	0x2
 9518 02fe 30       		.byte	0x30
 9519 02ff 9F       		.byte	0x9f
 9520 0300 00000000 		.4byte	0
 9521 0304 00000000 		.4byte	0
 9522              	.LLST12:
 9523 0308 56000000 		.4byte	.LVL204
 9524 030c 63000000 		.4byte	.LVL205-1
 9525 0310 0100     		.2byte	0x1
 9526 0312 50       		.byte	0x50
 9527 0313 86000000 		.4byte	.LVL212
 9528 0317 8D000000 		.4byte	.LVL213-1
 9529 031b 0100     		.2byte	0x1
 9530 031d 50       		.byte	0x50
 9531 031e 90000000 		.4byte	.LVL214
 9532 0322 93000000 		.4byte	.LVL215-1
 9533 0326 0100     		.2byte	0x1
 9534 0328 50       		.byte	0x50
 9535 0329 00000000 		.4byte	0
 9536 032d 00000000 		.4byte	0
 9537              	.LLST13:
 9538 0331 02000000 		.4byte	.LVL218
 9539 0335 32000000 		.4byte	.LVL223
 9540 0339 0200     		.2byte	0x2
 9541 033b 30       		.byte	0x30
 9542 033c 9F       		.byte	0x9f
 9543 033d 32000000 		.4byte	.LVL223
 9544 0341 36000000 		.4byte	.LVL224
 9545 0345 0300     		.2byte	0x3
 9546 0347 08       		.byte	0x8
 9547 0348 B4       		.byte	0xb4
 9548 0349 9F       		.byte	0x9f
 9549 034a 36000000 		.4byte	.LVL224
 9550 034e 3C000000 		.4byte	.LVL225
 9551 0352 0400     		.2byte	0x4
 9552 0354 0A       		.byte	0xa
 9553 0355 0E01     		.2byte	0x10e
 9554 0357 9F       		.byte	0x9f
 9555 0358 3C000000 		.4byte	.LVL225
ARM GAS  C:\Users\weiro\AppData\Local\Temp\ccSkAWeC.s 			page 192


 9556 035c 3E000000 		.4byte	.LVL226
 9557 0360 0200     		.2byte	0x2
 9558 0362 30       		.byte	0x30
 9559 0363 9F       		.byte	0x9f
 9560 0364 3E000000 		.4byte	.LVL226
 9561 0368 6C000000 		.4byte	.LVL232
 9562 036c 0100     		.2byte	0x1
 9563 036e 54       		.byte	0x54
 9564 036f 86000000 		.4byte	.LVL237
 9565 0373 9C000000 		.4byte	.LVL242
 9566 0377 0100     		.2byte	0x1
 9567 0379 54       		.byte	0x54
 9568 037a 9C000000 		.4byte	.LVL242
 9569 037e A8000000 		.4byte	.LFE80
 9570 0382 0200     		.2byte	0x2
 9571 0384 30       		.byte	0x30
 9572 0385 9F       		.byte	0x9f
 9573 0386 00000000 		.4byte	0
 9574 038a 00000000 		.4byte	0
 9575              	.LLST14:
 9576 038e 56000000 		.4byte	.LVL229
 9577 0392 63000000 		.4byte	.LVL230-1
 9578 0396 0100     		.2byte	0x1
 9579 0398 50       		.byte	0x50
 9580 0399 86000000 		.4byte	.LVL237
 9581 039d 8D000000 		.4byte	.LVL238-1
 9582 03a1 0100     		.2byte	0x1
 9583 03a3 50       		.byte	0x50
 9584 03a4 90000000 		.4byte	.LVL239
 9585 03a8 93000000 		.4byte	.LVL240-1
 9586 03ac 0100     		.2byte	0x1
 9587 03ae 50       		.byte	0x50
 9588 03af 00000000 		.4byte	0
 9589 03b3 00000000 		.4byte	0
 9590              	.LLST15:
 9591 03b7 00000000 		.4byte	.LVL243
 9592 03bb 08000000 		.4byte	.LVL244
 9593 03bf 0100     		.2byte	0x1
 9594 03c1 50       		.byte	0x50
 9595 03c2 08000000 		.4byte	.LVL244
 9596 03c6 9C000000 		.4byte	.LVL255
 9597 03ca 0100     		.2byte	0x1
 9598 03cc 55       		.byte	0x55
 9599 03cd 9C000000 		.4byte	.LVL255
 9600 03d1 A0000000 		.4byte	.LFE81
 9601 03d5 0400     		.2byte	0x4
 9602 03d7 F3       		.byte	0xf3
 9603 03d8 01       		.uleb128 0x1
 9604 03d9 50       		.byte	0x50
 9605 03da 9F       		.byte	0x9f
 9606 03db 00000000 		.4byte	0
 9607 03df 00000000 		.4byte	0
 9608              	.LLST16:
 9609 03e3 00000000 		.4byte	.LVL243
 9610 03e7 08000000 		.4byte	.LVL244
 9611 03eb 0100     		.2byte	0x1
 9612 03ed 51       		.byte	0x51
ARM GAS  C:\Users\weiro\AppData\Local\Temp\ccSkAWeC.s 			page 193


 9613 03ee 08000000 		.4byte	.LVL244
 9614 03f2 9C000000 		.4byte	.LVL255
 9615 03f6 0100     		.2byte	0x1
 9616 03f8 56       		.byte	0x56
 9617 03f9 9C000000 		.4byte	.LVL255
 9618 03fd A0000000 		.4byte	.LFE81
 9619 0401 0400     		.2byte	0x4
 9620 0403 F3       		.byte	0xf3
 9621 0404 01       		.uleb128 0x1
 9622 0405 51       		.byte	0x51
 9623 0406 9F       		.byte	0x9f
 9624 0407 00000000 		.4byte	0
 9625 040b 00000000 		.4byte	0
 9626              	.LLST17:
 9627 040f 02000000 		.4byte	.LVL256
 9628 0413 6C000000 		.4byte	.LVL270
 9629 0417 0200     		.2byte	0x2
 9630 0419 31       		.byte	0x31
 9631 041a 9F       		.byte	0x9f
 9632 041b 6C000000 		.4byte	.LVL270
 9633 041f C6000000 		.4byte	.LVL282
 9634 0423 0200     		.2byte	0x2
 9635 0425 32       		.byte	0x32
 9636 0426 9F       		.byte	0x9f
 9637 0427 C6000000 		.4byte	.LVL282
 9638 042b 20010000 		.4byte	.LVL294
 9639 042f 0200     		.2byte	0x2
 9640 0431 33       		.byte	0x33
 9641 0432 9F       		.byte	0x9f
 9642 0433 20010000 		.4byte	.LVL294
 9643 0437 D0010000 		.4byte	.LFE82
 9644 043b 0200     		.2byte	0x2
 9645 043d 30       		.byte	0x30
 9646 043e 9F       		.byte	0x9f
 9647 043f 00000000 		.4byte	0
 9648 0443 00000000 		.4byte	0
 9649              	.LLST18:
 9650 0447 02000000 		.4byte	.LVL326
 9651 044b 08000000 		.4byte	.LVL327
 9652 044f 0200     		.2byte	0x2
 9653 0451 30       		.byte	0x30
 9654 0452 9F       		.byte	0x9f
 9655 0453 12000000 		.4byte	.LVL329
 9656 0457 19000000 		.4byte	.LVL330-1
 9657 045b 0600     		.2byte	0x6
 9658 045d 70       		.byte	0x70
 9659 045e 00       		.sleb128 0
 9660 045f 08       		.byte	0x8
 9661 0460 FF       		.byte	0xff
 9662 0461 1A       		.byte	0x1a
 9663 0462 9F       		.byte	0x9f
 9664 0463 1A000000 		.4byte	.LVL330
 9665 0467 21000000 		.4byte	.LVL331-1
 9666 046b 0100     		.2byte	0x1
 9667 046d 50       		.byte	0x50
 9668 046e 00000000 		.4byte	0
 9669 0472 00000000 		.4byte	0
ARM GAS  C:\Users\weiro\AppData\Local\Temp\ccSkAWeC.s 			page 194


 9670              	.LLST19:
 9671 0476 02000000 		.4byte	.LVL326
 9672 047a 40000000 		.4byte	.LVL336
 9673 047e 0600     		.2byte	0x6
 9674 0480 9E       		.byte	0x9e
 9675 0481 04       		.uleb128 0x4
 9676 0482 00000000 		.4byte	0
 9677 0486 40000000 		.4byte	.LVL336
 9678 048a 45000000 		.4byte	.LVL337-1
 9679 048e 0100     		.2byte	0x1
 9680 0490 50       		.byte	0x50
 9681 0491 00000000 		.4byte	0
 9682 0495 00000000 		.4byte	0
 9683              	.LLST20:
 9684 0499 02000000 		.4byte	.LVL326
 9685 049d 08000000 		.4byte	.LVL327
 9686 04a1 0600     		.2byte	0x6
 9687 04a3 9E       		.byte	0x9e
 9688 04a4 04       		.uleb128 0x4
 9689 04a5 00000000 		.4byte	0
 9690 04a9 08000000 		.4byte	.LVL327
 9691 04ad 2C000000 		.4byte	.LVL333
 9692 04b1 0100     		.2byte	0x1
 9693 04b3 55       		.byte	0x55
 9694 04b4 2C000000 		.4byte	.LVL333
 9695 04b8 2E000000 		.4byte	.LVL334
 9696 04bc 0100     		.2byte	0x1
 9697 04be 50       		.byte	0x50
 9698 04bf 2E000000 		.4byte	.LVL334
 9699 04c3 72000000 		.4byte	.LVL343
 9700 04c7 0100     		.2byte	0x1
 9701 04c9 55       		.byte	0x55
 9702 04ca 00000000 		.4byte	0
 9703 04ce 00000000 		.4byte	0
 9704              	.LLST21:
 9705 04d2 02000000 		.4byte	.LVL326
 9706 04d6 08000000 		.4byte	.LVL327
 9707 04da 0200     		.2byte	0x2
 9708 04dc 30       		.byte	0x30
 9709 04dd 9F       		.byte	0x9f
 9710 04de 08000000 		.4byte	.LVL327
 9711 04e2 7A000000 		.4byte	.LVL346
 9712 04e6 0100     		.2byte	0x1
 9713 04e8 54       		.byte	0x54
 9714 04e9 00000000 		.4byte	0
 9715 04ed 00000000 		.4byte	0
 9716              	.LLST22:
 9717 04f1 02000000 		.4byte	.LVL326
 9718 04f5 46000000 		.4byte	.LVL337
 9719 04f9 0600     		.2byte	0x6
 9720 04fb 9E       		.byte	0x9e
 9721 04fc 04       		.uleb128 0x4
 9722 04fd 00000000 		.4byte	0
 9723 0501 46000000 		.4byte	.LVL337
 9724 0505 49000000 		.4byte	.LVL338-1
 9725 0509 0100     		.2byte	0x1
 9726 050b 50       		.byte	0x50
ARM GAS  C:\Users\weiro\AppData\Local\Temp\ccSkAWeC.s 			page 195


 9727 050c 00000000 		.4byte	0
 9728 0510 00000000 		.4byte	0
 9729              	.LLST23:
 9730 0514 02000000 		.4byte	.LVL326
 9731 0518 72000000 		.4byte	.LVL343
 9732 051c 0600     		.2byte	0x6
 9733 051e 9E       		.byte	0x9e
 9734 051f 04       		.uleb128 0x4
 9735 0520 00000000 		.4byte	0
 9736 0524 72000000 		.4byte	.LVL343
 9737 0528 74000000 		.4byte	.LVL344
 9738 052c 0100     		.2byte	0x1
 9739 052e 50       		.byte	0x50
 9740 052f 74000000 		.4byte	.LVL344
 9741 0533 A8000000 		.4byte	.LVL352
 9742 0537 0100     		.2byte	0x1
 9743 0539 55       		.byte	0x55
 9744 053a A8000000 		.4byte	.LVL352
 9745 053e D4000000 		.4byte	.LFE85
 9746 0542 0100     		.2byte	0x1
 9747 0544 50       		.byte	0x50
 9748 0545 00000000 		.4byte	0
 9749 0549 00000000 		.4byte	0
 9750              	.LLST24:
 9751 054d 00000000 		.4byte	.LVL353
 9752 0551 08000000 		.4byte	.LVL355
 9753 0555 0100     		.2byte	0x1
 9754 0557 50       		.byte	0x50
 9755 0558 08000000 		.4byte	.LVL355
 9756 055c 96000000 		.4byte	.LVL373
 9757 0560 0100     		.2byte	0x1
 9758 0562 55       		.byte	0x55
 9759 0563 96000000 		.4byte	.LVL373
 9760 0567 A8000000 		.4byte	.LFE86
 9761 056b 0400     		.2byte	0x4
 9762 056d F3       		.byte	0xf3
 9763 056e 01       		.uleb128 0x1
 9764 056f 50       		.byte	0x50
 9765 0570 9F       		.byte	0x9f
 9766 0571 00000000 		.4byte	0
 9767 0575 00000000 		.4byte	0
 9768              	.LLST25:
 9769 0579 04000000 		.4byte	.LVL354
 9770 057d 08000000 		.4byte	.LVL355
 9771 0581 0200     		.2byte	0x2
 9772 0583 30       		.byte	0x30
 9773 0584 9F       		.byte	0x9f
 9774 0585 08000000 		.4byte	.LVL355
 9775 0589 96000000 		.4byte	.LVL373
 9776 058d 0100     		.2byte	0x1
 9777 058f 54       		.byte	0x54
 9778 0590 00000000 		.4byte	0
 9779 0594 00000000 		.4byte	0
 9780              	.LLST26:
 9781 0598 0C000000 		.4byte	.LVL356
 9782 059c 90000000 		.4byte	.LVL372
 9783 05a0 0200     		.2byte	0x2
ARM GAS  C:\Users\weiro\AppData\Local\Temp\ccSkAWeC.s 			page 196


 9784 05a2 31       		.byte	0x31
 9785 05a3 9F       		.byte	0x9f
 9786 05a4 00000000 		.4byte	0
 9787 05a8 00000000 		.4byte	0
 9788              	.LLST27:
 9789 05ac 0C000000 		.4byte	.LVL356
 9790 05b0 90000000 		.4byte	.LVL372
 9791 05b4 0200     		.2byte	0x2
 9792 05b6 34       		.byte	0x34
 9793 05b7 9F       		.byte	0x9f
 9794 05b8 00000000 		.4byte	0
 9795 05bc 00000000 		.4byte	0
 9796              	.LLST28:
 9797 05c0 D6000000 		.4byte	.LVL416
 9798 05c4 F2000000 		.4byte	.LVL420
 9799 05c8 0200     		.2byte	0x2
 9800 05ca 31       		.byte	0x31
 9801 05cb 9F       		.byte	0x9f
 9802 05cc 20010000 		.4byte	.LVL425
 9803 05d0 52010000 		.4byte	.LVL432
 9804 05d4 0200     		.2byte	0x2
 9805 05d6 31       		.byte	0x31
 9806 05d7 9F       		.byte	0x9f
 9807 05d8 DC010000 		.4byte	.LVL444
 9808 05dc FC010000 		.4byte	.LVL448
 9809 05e0 0200     		.2byte	0x2
 9810 05e2 31       		.byte	0x31
 9811 05e3 9F       		.byte	0x9f
 9812 05e4 82020000 		.4byte	.LVL461
 9813 05e8 B4020000 		.4byte	.LVL468
 9814 05ec 0200     		.2byte	0x2
 9815 05ee 31       		.byte	0x31
 9816 05ef 9F       		.byte	0x9f
 9817 05f0 C6020000 		.4byte	.LVL470
 9818 05f4 42030000 		.4byte	.LVL476
 9819 05f8 0200     		.2byte	0x2
 9820 05fa 30       		.byte	0x30
 9821 05fb 9F       		.byte	0x9f
 9822 05fc 8E030000 		.4byte	.LVL483
 9823 0600 A6030000 		.4byte	.LVL486
 9824 0604 0200     		.2byte	0x2
 9825 0606 30       		.byte	0x30
 9826 0607 9F       		.byte	0x9f
 9827 0608 2A040000 		.4byte	.LVL497
 9828 060c 50040000 		.4byte	.LVL502
 9829 0610 0200     		.2byte	0x2
 9830 0612 31       		.byte	0x31
 9831 0613 9F       		.byte	0x9f
 9832 0614 62040000 		.4byte	.LVL504
 9833 0618 88040000 		.4byte	.LVL509
 9834 061c 0200     		.2byte	0x2
 9835 061e 30       		.byte	0x30
 9836 061f 9F       		.byte	0x9f
 9837 0620 C0040000 		.4byte	.LVL514
 9838 0624 D8040000 		.4byte	.LVL517
 9839 0628 0200     		.2byte	0x2
 9840 062a 31       		.byte	0x31
ARM GAS  C:\Users\weiro\AppData\Local\Temp\ccSkAWeC.s 			page 197


 9841 062b 9F       		.byte	0x9f
 9842 062c 10050000 		.4byte	.LVL522
 9843 0630 28050000 		.4byte	.LVL525
 9844 0634 0200     		.2byte	0x2
 9845 0636 31       		.byte	0x31
 9846 0637 9F       		.byte	0x9f
 9847 0638 00000000 		.4byte	0
 9848 063c 00000000 		.4byte	0
 9849              	.LLST29:
 9850 0640 D6000000 		.4byte	.LVL416
 9851 0644 F2000000 		.4byte	.LVL420
 9852 0648 0200     		.2byte	0x2
 9853 064a 31       		.byte	0x31
 9854 064b 9F       		.byte	0x9f
 9855 064c 28010000 		.4byte	.LVL426
 9856 0650 3C010000 		.4byte	.LVL429
 9857 0654 0200     		.2byte	0x2
 9858 0656 30       		.byte	0x30
 9859 0657 9F       		.byte	0x9f
 9860 0658 3C010000 		.4byte	.LVL429
 9861 065c 52010000 		.4byte	.LVL432
 9862 0660 0200     		.2byte	0x2
 9863 0662 31       		.byte	0x31
 9864 0663 9F       		.byte	0x9f
 9865 0664 76010000 		.4byte	.LVL435
 9866 0668 8E010000 		.4byte	.LVL438
 9867 066c 0200     		.2byte	0x2
 9868 066e 31       		.byte	0x31
 9869 066f 9F       		.byte	0x9f
 9870 0670 E4010000 		.4byte	.LVL445
 9871 0674 FC010000 		.4byte	.LVL448
 9872 0678 0200     		.2byte	0x2
 9873 067a 30       		.byte	0x30
 9874 067b 9F       		.byte	0x9f
 9875 067c 2A030000 		.4byte	.LVL473
 9876 0680 42030000 		.4byte	.LVL476
 9877 0684 0100     		.2byte	0x1
 9878 0686 54       		.byte	0x54
 9879 0687 5E030000 		.4byte	.LVL478
 9880 068b 76030000 		.4byte	.LVL481
 9881 068f 0200     		.2byte	0x2
 9882 0691 31       		.byte	0x31
 9883 0692 9F       		.byte	0x9f
 9884 0693 A8040000 		.4byte	.LVL511
 9885 0697 D8040000 		.4byte	.LVL517
 9886 069b 0100     		.2byte	0x1
 9887 069d 54       		.byte	0x54
 9888 069e F8040000 		.4byte	.LVL519
 9889 06a2 28050000 		.4byte	.LVL525
 9890 06a6 0100     		.2byte	0x1
 9891 06a8 54       		.byte	0x54
 9892 06a9 00000000 		.4byte	0
 9893 06ad 00000000 		.4byte	0
 9894              	.LLST30:
 9895 06b1 20010000 		.4byte	.LVL425
 9896 06b5 52010000 		.4byte	.LVL432
 9897 06b9 0A00     		.2byte	0xa
ARM GAS  C:\Users\weiro\AppData\Local\Temp\ccSkAWeC.s 			page 198


 9898 06bb 9E       		.byte	0x9e
 9899 06bc 08       		.uleb128 0x8
 9900 06bd 00000000 		.4byte	0
 9901 06c1 00004940 		.4byte	0x40490000
 9902 06c5 DC010000 		.4byte	.LVL444
 9903 06c9 FC010000 		.4byte	.LVL448
 9904 06cd 0A00     		.2byte	0xa
 9905 06cf 9E       		.byte	0x9e
 9906 06d0 08       		.uleb128 0x8
 9907 06d1 00000000 		.4byte	0
 9908 06d5 00002140 		.4byte	0x40210000
 9909 06d9 82020000 		.4byte	.LVL461
 9910 06dd B4020000 		.4byte	.LVL468
 9911 06e1 0A00     		.2byte	0xa
 9912 06e3 9E       		.byte	0x9e
 9913 06e4 08       		.uleb128 0x8
 9914 06e5 00000000 		.4byte	0
 9915 06e9 00003240 		.4byte	0x40320000
 9916 06ed C6020000 		.4byte	.LVL470
 9917 06f1 42030000 		.4byte	.LVL476
 9918 06f5 0A00     		.2byte	0xa
 9919 06f7 9E       		.byte	0x9e
 9920 06f8 08       		.uleb128 0x8
 9921 06f9 00000000 		.4byte	0
 9922 06fd 00004940 		.4byte	0x40490000
 9923 0701 8E030000 		.4byte	.LVL483
 9924 0705 A6030000 		.4byte	.LVL486
 9925 0709 0A00     		.2byte	0xa
 9926 070b 9E       		.byte	0x9e
 9927 070c 08       		.uleb128 0x8
 9928 070d 00000000 		.4byte	0
 9929 0711 00805140 		.4byte	0x40518000
 9930 0715 2A040000 		.4byte	.LVL497
 9931 0719 50040000 		.4byte	.LVL502
 9932 071d 0A00     		.2byte	0xa
 9933 071f 9E       		.byte	0x9e
 9934 0720 08       		.uleb128 0x8
 9935 0721 00000000 		.4byte	0
 9936 0725 00003440 		.4byte	0x40340000
 9937 0729 62040000 		.4byte	.LVL504
 9938 072d 88040000 		.4byte	.LVL509
 9939 0731 0A00     		.2byte	0xa
 9940 0733 9E       		.byte	0x9e
 9941 0734 08       		.uleb128 0x8
 9942 0735 00000000 		.4byte	0
 9943 0739 00003440 		.4byte	0x40340000
 9944 073d C0040000 		.4byte	.LVL514
 9945 0741 D8040000 		.4byte	.LVL517
 9946 0745 0A00     		.2byte	0xa
 9947 0747 9E       		.byte	0x9e
 9948 0748 08       		.uleb128 0x8
 9949 0749 00000000 		.4byte	0
 9950 074d 00004940 		.4byte	0x40490000
 9951 0751 10050000 		.4byte	.LVL522
 9952 0755 28050000 		.4byte	.LVL525
 9953 0759 0A00     		.2byte	0xa
 9954 075b 9E       		.byte	0x9e
ARM GAS  C:\Users\weiro\AppData\Local\Temp\ccSkAWeC.s 			page 199


 9955 075c 08       		.uleb128 0x8
 9956 075d 00000000 		.4byte	0
 9957 0761 00004940 		.4byte	0x40490000
 9958 0765 00000000 		.4byte	0
 9959 0769 00000000 		.4byte	0
 9960              	.LLST31:
 9961 076d 2C020000 		.4byte	.LVL452
 9962 0771 70020000 		.4byte	.LVL459
 9963 0775 0200     		.2byte	0x2
 9964 0777 30       		.byte	0x30
 9965 0778 9F       		.byte	0x9f
 9966 0779 00000000 		.4byte	0
 9967 077d 00000000 		.4byte	0
 9968              	.LLST32:
 9969 0781 2C020000 		.4byte	.LVL452
 9970 0785 70020000 		.4byte	.LVL459
 9971 0789 0200     		.2byte	0x2
 9972 078b 32       		.byte	0x32
 9973 078c 9F       		.byte	0x9f
 9974 078d 00000000 		.4byte	0
 9975 0791 00000000 		.4byte	0
 9976              		.section	.debug_aranges,"",%progbits
 9977 0000 EC000000 		.4byte	0xec
 9978 0004 0200     		.2byte	0x2
 9979 0006 00000000 		.4byte	.Ldebug_info0
 9980 000a 04       		.byte	0x4
 9981 000b 00       		.byte	0
 9982 000c 0000     		.2byte	0
 9983 000e 0000     		.2byte	0
 9984 0010 00000000 		.4byte	.LFB64
 9985 0014 78000000 		.4byte	.LFE64-.LFB64
 9986 0018 00000000 		.4byte	.LFB65
 9987 001c C0000000 		.4byte	.LFE65-.LFB65
 9988 0020 00000000 		.4byte	.LFB66
 9989 0024 14000000 		.4byte	.LFE66-.LFB66
 9990 0028 00000000 		.4byte	.LFB67
 9991 002c 38000000 		.4byte	.LFE67-.LFB67
 9992 0030 00000000 		.4byte	.LFB68
 9993 0034 58020000 		.4byte	.LFE68-.LFB68
 9994 0038 00000000 		.4byte	.LFB69
 9995 003c 28000000 		.4byte	.LFE69-.LFB69
 9996 0040 00000000 		.4byte	.LFB70
 9997 0044 28000000 		.4byte	.LFE70-.LFB70
 9998 0048 00000000 		.4byte	.LFB71
 9999 004c 28000000 		.4byte	.LFE71-.LFB71
 10000 0050 00000000 		.4byte	.LFB72
 10001 0054 28000000 		.4byte	.LFE72-.LFB72
 10002 0058 00000000 		.4byte	.LFB73
 10003 005c 28000000 		.4byte	.LFE73-.LFB73
 10004 0060 00000000 		.4byte	.LFB74
 10005 0064 1C000000 		.4byte	.LFE74-.LFB74
 10006 0068 00000000 		.4byte	.LFB75
 10007 006c 14010000 		.4byte	.LFE75-.LFB75
 10008 0070 00000000 		.4byte	.LFB76
 10009 0074 00010000 		.4byte	.LFE76-.LFB76
 10010 0078 00000000 		.4byte	.LFB77
 10011 007c 30010000 		.4byte	.LFE77-.LFB77
ARM GAS  C:\Users\weiro\AppData\Local\Temp\ccSkAWeC.s 			page 200


 10012 0080 00000000 		.4byte	.LFB78
 10013 0084 D8000000 		.4byte	.LFE78-.LFB78
 10014 0088 00000000 		.4byte	.LFB79
 10015 008c A8000000 		.4byte	.LFE79-.LFB79
 10016 0090 00000000 		.4byte	.LFB80
 10017 0094 A8000000 		.4byte	.LFE80-.LFB80
 10018 0098 00000000 		.4byte	.LFB81
 10019 009c A0000000 		.4byte	.LFE81-.LFB81
 10020 00a0 00000000 		.4byte	.LFB82
 10021 00a4 D0010000 		.4byte	.LFE82-.LFB82
 10022 00a8 00000000 		.4byte	.LFB83
 10023 00ac 5E000000 		.4byte	.LFE83-.LFB83
 10024 00b0 00000000 		.4byte	.LFB84
 10025 00b4 28000000 		.4byte	.LFE84-.LFB84
 10026 00b8 00000000 		.4byte	.LFB85
 10027 00bc D4000000 		.4byte	.LFE85-.LFB85
 10028 00c0 00000000 		.4byte	.LFB86
 10029 00c4 A8000000 		.4byte	.LFE86-.LFB86
 10030 00c8 00000000 		.4byte	.LFB87
 10031 00cc 3C000000 		.4byte	.LFE87-.LFB87
 10032 00d0 00000000 		.4byte	.LFB88
 10033 00d4 3C000000 		.4byte	.LFE88-.LFB88
 10034 00d8 00000000 		.4byte	.LFB89
 10035 00dc 20000000 		.4byte	.LFE89-.LFB89
 10036 00e0 00000000 		.4byte	.LFB90
 10037 00e4 BC050000 		.4byte	.LFE90-.LFB90
 10038 00e8 00000000 		.4byte	0
 10039 00ec 00000000 		.4byte	0
 10040              		.section	.debug_ranges,"",%progbits
 10041              	.Ldebug_ranges0:
 10042 0000 3E000000 		.4byte	.LBB2
 10043 0004 64000000 		.4byte	.LBE2
 10044 0008 86000000 		.4byte	.LBB3
 10045 000c 9A000000 		.4byte	.LBE3
 10046 0010 00000000 		.4byte	0
 10047 0014 00000000 		.4byte	0
 10048 0018 3E000000 		.4byte	.LBB4
 10049 001c 64000000 		.4byte	.LBE4
 10050 0020 86000000 		.4byte	.LBB5
 10051 0024 9A000000 		.4byte	.LBE5
 10052 0028 00000000 		.4byte	0
 10053 002c 00000000 		.4byte	0
 10054 0030 00000000 		.4byte	.LFB64
 10055 0034 78000000 		.4byte	.LFE64
 10056 0038 00000000 		.4byte	.LFB65
 10057 003c C0000000 		.4byte	.LFE65
 10058 0040 00000000 		.4byte	.LFB66
 10059 0044 14000000 		.4byte	.LFE66
 10060 0048 00000000 		.4byte	.LFB67
 10061 004c 38000000 		.4byte	.LFE67
 10062 0050 00000000 		.4byte	.LFB68
 10063 0054 58020000 		.4byte	.LFE68
 10064 0058 00000000 		.4byte	.LFB69
 10065 005c 28000000 		.4byte	.LFE69
 10066 0060 00000000 		.4byte	.LFB70
 10067 0064 28000000 		.4byte	.LFE70
 10068 0068 00000000 		.4byte	.LFB71
ARM GAS  C:\Users\weiro\AppData\Local\Temp\ccSkAWeC.s 			page 201


 10069 006c 28000000 		.4byte	.LFE71
 10070 0070 00000000 		.4byte	.LFB72
 10071 0074 28000000 		.4byte	.LFE72
 10072 0078 00000000 		.4byte	.LFB73
 10073 007c 28000000 		.4byte	.LFE73
 10074 0080 00000000 		.4byte	.LFB74
 10075 0084 1C000000 		.4byte	.LFE74
 10076 0088 00000000 		.4byte	.LFB75
 10077 008c 14010000 		.4byte	.LFE75
 10078 0090 00000000 		.4byte	.LFB76
 10079 0094 00010000 		.4byte	.LFE76
 10080 0098 00000000 		.4byte	.LFB77
 10081 009c 30010000 		.4byte	.LFE77
 10082 00a0 00000000 		.4byte	.LFB78
 10083 00a4 D8000000 		.4byte	.LFE78
 10084 00a8 00000000 		.4byte	.LFB79
 10085 00ac A8000000 		.4byte	.LFE79
 10086 00b0 00000000 		.4byte	.LFB80
 10087 00b4 A8000000 		.4byte	.LFE80
 10088 00b8 00000000 		.4byte	.LFB81
 10089 00bc A0000000 		.4byte	.LFE81
 10090 00c0 00000000 		.4byte	.LFB82
 10091 00c4 D0010000 		.4byte	.LFE82
 10092 00c8 00000000 		.4byte	.LFB83
 10093 00cc 5E000000 		.4byte	.LFE83
 10094 00d0 00000000 		.4byte	.LFB84
 10095 00d4 28000000 		.4byte	.LFE84
 10096 00d8 00000000 		.4byte	.LFB85
 10097 00dc D4000000 		.4byte	.LFE85
 10098 00e0 00000000 		.4byte	.LFB86
 10099 00e4 A8000000 		.4byte	.LFE86
 10100 00e8 00000000 		.4byte	.LFB87
 10101 00ec 3C000000 		.4byte	.LFE87
 10102 00f0 00000000 		.4byte	.LFB88
 10103 00f4 3C000000 		.4byte	.LFE88
 10104 00f8 00000000 		.4byte	.LFB89
 10105 00fc 20000000 		.4byte	.LFE89
 10106 0100 00000000 		.4byte	.LFB90
 10107 0104 BC050000 		.4byte	.LFE90
 10108 0108 00000000 		.4byte	0
 10109 010c 00000000 		.4byte	0
 10110              		.section	.debug_line,"",%progbits
 10111              	.Ldebug_line0:
 10112 0000 A7080000 		.section	.debug_str,"MS",%progbits,1
 10112      0200E803 
 10112      00000201 
 10112      FB0E0D00 
 10112      01010101 
 10113              	.LASF99:
 10114 0000 64697265 		.ascii	"direction\000"
 10114      6374696F 
 10114      6E00
 10115              	.LASF105:
 10116 000a 646F776E 		.ascii	"down_big\000"
 10116      5F626967 
 10116      00
 10117              	.LASF137:
ARM GAS  C:\Users\weiro\AppData\Local\Temp\ccSkAWeC.s 			page 202


 10118 0013 43794465 		.ascii	"CyDelay\000"
 10118      6C617900 
 10119              	.LASF84:
 10120 001b 50574D5F 		.ascii	"PWM_Master\000"
 10120      4D617374 
 10120      657200
 10121              	.LASF120:
 10122 0026 6379636C 		.ascii	"cycles\000"
 10122      657300
 10123              	.LASF147:
 10124 002d 436F6E74 		.ascii	"Control_Reg_2_Write\000"
 10124      726F6C5F 
 10124      5265675F 
 10124      325F5772 
 10124      69746500 
 10125              	.LASF71:
 10126 0041 434D5F43 		.ascii	"CM_COUNT_CONV\000"
 10126      4F554E54 
 10126      5F434F4E 
 10126      5600
 10127              	.LASF190:
 10128 004f 6D61696E 		.ascii	"main.c\000"
 10128      2E6300
 10129              	.LASF53:
 10130 0056 53686172 		.ascii	"Sharp_IR_sum_a\000"
 10130      705F4952 
 10130      5F73756D 
 10130      5F6100
 10131              	.LASF180:
 10132 0065 50574D5F 		.ascii	"PWM_BigServo_Start\000"
 10132      42696753 
 10132      6572766F 
 10132      5F537461 
 10132      727400
 10133              	.LASF156:
 10134 0078 43535F4C 		.ascii	"CS_LED_Write\000"
 10134      45445F57 
 10134      72697465 
 10134      00
 10135              	.LASF56:
 10136 0085 53686172 		.ascii	"Sharp_IR_dist\000"
 10136      705F4952 
 10136      5F646973 
 10136      7400
 10137              	.LASF179:
 10138 0093 50574D5F 		.ascii	"PWM_SmallServo_Start\000"
 10138      536D616C 
 10138      6C536572 
 10138      766F5F53 
 10138      74617274 
 10139              	.LASF145:
 10140 00a8 51756164 		.ascii	"QuadDec_1_GetCounter\000"
 10140      4465635F 
 10140      315F4765 
 10140      74436F75 
 10140      6E746572 
 10141              	.LASF67:
ARM GAS  C:\Users\weiro\AppData\Local\Temp\ccSkAWeC.s 			page 203


 10142 00bd 43535F63 		.ascii	"CS_count_Red\000"
 10142      6F756E74 
 10142      5F526564 
 10142      00
 10143              	.LASF172:
 10144 00ca 6973725F 		.ascii	"isr_1_StartEx\000"
 10144      315F5374 
 10144      61727445 
 10144      7800
 10145              	.LASF113:
 10146 00d8 61727261 		.ascii	"array_1\000"
 10146      795F3100 
 10147              	.LASF64:
 10148 00e0 696E6974 		.ascii	"initial\000"
 10148      69616C00 
 10149              	.LASF9:
 10150 00e8 756E7369 		.ascii	"unsigned int\000"
 10150      676E6564 
 10150      20696E74 
 10150      00
 10151              	.LASF18:
 10152 00f5 53706565 		.ascii	"Speed_Control\000"
 10152      645F436F 
 10152      6E74726F 
 10152      6C00
 10153              	.LASF123:
 10154 0103 6572726F 		.ascii	"error_gyro\000"
 10154      725F6779 
 10154      726F00
 10155              	.LASF10:
 10156 010e 5F5F696E 		.ascii	"__int32_t\000"
 10156      7433325F 
 10156      7400
 10157              	.LASF13:
 10158 0118 696E7431 		.ascii	"int16\000"
 10158      3600
 10159              	.LASF152:
 10160 011e 49525F69 		.ascii	"IR_input_Read\000"
 10160      6E707574 
 10160      5F526561 
 10160      6400
 10161              	.LASF94:
 10162 012c 72696768 		.ascii	"right_measured\000"
 10162      745F6D65 
 10162      61737572 
 10162      656400
 10163              	.LASF83:
 10164 013b 74696D65 		.ascii	"timer_period\000"
 10164      725F7065 
 10164      72696F64 
 10164      00
 10165              	.LASF127:
 10166 0148 54696D65 		.ascii	"Timer_3_ReadStatusRegister\000"
 10166      725F335F 
 10166      52656164 
 10166      53746174 
 10166      75735265 
ARM GAS  C:\Users\weiro\AppData\Local\Temp\ccSkAWeC.s 			page 204


 10167              	.LASF181:
 10168 0163 51756164 		.ascii	"QuadDec_1_Start\000"
 10168      4465635F 
 10168      315F5374 
 10168      61727400 
 10169              	.LASF124:
 10170 0173 6572726F 		.ascii	"error_gyro_avg\000"
 10170      725F6779 
 10170      726F5F61 
 10170      766700
 10171              	.LASF62:
 10172 0182 466C6963 		.ascii	"Flick\000"
 10172      6B00
 10173              	.LASF164:
 10174 0188 6C65645F 		.ascii	"led_green_Write\000"
 10174      67726565 
 10174      6E5F5772 
 10174      69746500 
 10175              	.LASF79:
 10176 0198 6572726F 		.ascii	"error\000"
 10176      7200
 10177              	.LASF46:
 10178 019e 6D6F6465 		.ascii	"mode\000"
 10178      00
 10179              	.LASF104:
 10180 01a3 736C6974 		.ascii	"slit_detected\000"
 10180      5F646574 
 10180      65637465 
 10180      6400
 10181              	.LASF69:
 10182 01b1 43535F63 		.ascii	"CS_count_Green\000"
 10182      6F756E74 
 10182      5F477265 
 10182      656E00
 10183              	.LASF28:
 10184 01c0 72657365 		.ascii	"reset_count\000"
 10184      745F636F 
 10184      756E7400 
 10185              	.LASF68:
 10186 01cc 43535F63 		.ascii	"CS_count_Blue\000"
 10186      6F756E74 
 10186      5F426C75 
 10186      6500
 10187              	.LASF25:
 10188 01da 72657665 		.ascii	"reverse\000"
 10188      72736500 
 10189              	.LASF66:
 10190 01e2 57484545 		.ascii	"WHEEL_CIRCUMFERENCE\000"
 10190      4C5F4349 
 10190      5243554D 
 10190      46455245 
 10190      4E434500 
 10191              	.LASF136:
 10192 01f6 4932435F 		.ascii	"I2C_1_MasterSendStop\000"
 10192      315F4D61 
 10192      73746572 
 10192      53656E64 
ARM GAS  C:\Users\weiro\AppData\Local\Temp\ccSkAWeC.s 			page 205


 10192      53746F70 
 10193              	.LASF61:
 10194 020b 5075745F 		.ascii	"Put_Down_Puck\000"
 10194      446F776E 
 10194      5F507563 
 10194      6B00
 10195              	.LASF188:
 10196 0219 73747263 		.ascii	"strcpy\000"
 10196      707900
 10197              	.LASF57:
 10198 0220 46696E64 		.ascii	"Find_Puck\000"
 10198      5F507563 
 10198      6B00
 10199              	.LASF97:
 10200 022a 785F636F 		.ascii	"x_coord\000"
 10200      6F726400 
 10201              	.LASF23:
 10202 0232 73746F70 		.ascii	"stop\000"
 10202      00
 10203              	.LASF73:
 10204 0237 44495354 		.ascii	"DISTANCE_PT_TURN\000"
 10204      414E4345 
 10204      5F50545F 
 10204      5455524E 
 10204      00
 10205              	.LASF14:
 10206 0248 666C6F61 		.ascii	"float\000"
 10206      7400
 10207              	.LASF167:
 10208 024e 4144435F 		.ascii	"ADC_SAR_1_StartConvert\000"
 10208      5341525F 
 10208      315F5374 
 10208      61727443 
 10208      6F6E7665 
 10209              	.LASF122:
 10210 0265 636F756E 		.ascii	"count\000"
 10210      7400
 10211              	.LASF108:
 10212 026b 636C6F73 		.ascii	"close_small\000"
 10212      655F736D 
 10212      616C6C00 
 10213              	.LASF43:
 10214 0277 50545F54 		.ascii	"PT_TURN_COUNT\000"
 10214      55524E5F 
 10214      434F554E 
 10214      5400
 10215              	.LASF149:
 10216 0285 43794465 		.ascii	"CyDelayUs\000"
 10216      6C617955 
 10216      7300
 10217              	.LASF133:
 10218 028f 54696D65 		.ascii	"Timer_2_ReadStatusRegister\000"
 10218      725F325F 
 10218      52656164 
 10218      53746174 
 10218      75735265 
 10219              	.LASF8:
ARM GAS  C:\Users\weiro\AppData\Local\Temp\ccSkAWeC.s 			page 206


 10220 02aa 6C6F6E67 		.ascii	"long long unsigned int\000"
 10220      206C6F6E 
 10220      6720756E 
 10220      7369676E 
 10220      65642069 
 10221              	.LASF95:
 10222 02c1 6C656674 		.ascii	"left_measured\000"
 10222      5F6D6561 
 10222      73757265 
 10222      6400
 10223              	.LASF176:
 10224 02cf 50574D5F 		.ascii	"PWM_ColorSensor_Start\000"
 10224      436F6C6F 
 10224      7253656E 
 10224      736F725F 
 10224      53746172 
 10225              	.LASF89:
 10226 02e5 69735F6D 		.ascii	"is_moving\000"
 10226      6F76696E 
 10226      6700
 10227              	.LASF155:
 10228 02ef 53315F57 		.ascii	"S1_Write\000"
 10228      72697465 
 10228      00
 10229              	.LASF148:
 10230 02f8 54726967 		.ascii	"Trigger_Write\000"
 10230      6765725F 
 10230      57726974 
 10230      6500
 10231              	.LASF36:
 10232 0306 6D6F7665 		.ascii	"move2slit\000"
 10232      32736C69 
 10232      7400
 10233              	.LASF165:
 10234 0310 6C65645F 		.ascii	"led_blue_Write\000"
 10234      626C7565 
 10234      5F577269 
 10234      746500
 10235              	.LASF118:
 10236 031f 63757272 		.ascii	"current_reading\000"
 10236      656E745F 
 10236      72656164 
 10236      696E6700 
 10237              	.LASF189:
 10238 032f 474E5520 		.ascii	"GNU C11 5.4.1 20160609 (release) [ARM/embedded-5-br"
 10238      43313120 
 10238      352E342E 
 10238      31203230 
 10238      31363036 
 10239 0362 616E6368 		.ascii	"anch revision 237715] -mcpu=cortex-m3 -mthumb -g -O"
 10239      20726576 
 10239      6973696F 
 10239      6E203233 
 10239      37373135 
 10240 0395 67202D66 		.ascii	"g -ffunction-sections -ffat-lto-objects\000"
 10240      66756E63 
 10240      74696F6E 
ARM GAS  C:\Users\weiro\AppData\Local\Temp\ccSkAWeC.s 			page 207


 10240      2D736563 
 10240      74696F6E 
 10241              	.LASF80:
 10242 03bd 61636375 		.ascii	"accumulated_error\000"
 10242      6D756C61 
 10242      7465645F 
 10242      6572726F 
 10242      7200
 10243              	.LASF70:
 10244 03cf 434F554E 		.ascii	"COUNT_WHEEL\000"
 10244      545F5748 
 10244      45454C00 
 10245              	.LASF58:
 10246 03db 74617267 		.ascii	"target\000"
 10246      657400
 10247              	.LASF48:
 10248 03e2 466C6963 		.ascii	"Flicker_Function\000"
 10248      6B65725F 
 10248      46756E63 
 10248      74696F6E 
 10248      00
 10249              	.LASF130:
 10250 03f3 55415254 		.ascii	"UART_1_PutString\000"
 10250      5F315F50 
 10250      75745374 
 10250      72696E67 
 10250      00
 10251              	.LASF39:
 10252 0404 414E474C 		.ascii	"ANGLE_TOLERANCE\000"
 10252      455F544F 
 10252      4C455241 
 10252      4E434500 
 10253              	.LASF55:
 10254 0414 53686172 		.ascii	"Sharp_IR_volt\000"
 10254      705F4952 
 10254      5F766F6C 
 10254      7400
 10255              	.LASF168:
 10256 0422 4144435F 		.ascii	"ADC_SAR_1_IsEndConversion\000"
 10256      5341525F 
 10256      315F4973 
 10256      456E6443 
 10256      6F6E7665 
 10257              	.LASF170:
 10258 043c 50574D5F 		.ascii	"PWM_BigServo_WriteCompare\000"
 10258      42696753 
 10258      6572766F 
 10258      5F577269 
 10258      7465436F 
 10259              	.LASF47:
 10260 0456 4779726F 		.ascii	"Gyroscope_Function\000"
 10260      73636F70 
 10260      655F4675 
 10260      6E637469 
 10260      6F6E00
 10261              	.LASF34:
 10262 0469 64697374 		.ascii	"dist_count\000"
ARM GAS  C:\Users\weiro\AppData\Local\Temp\ccSkAWeC.s 			page 208


 10262      5F636F75 
 10262      6E7400
 10263              	.LASF54:
 10264 0474 53686172 		.ascii	"Sharp_IR_iter\000"
 10264      705F4952 
 10264      5F697465 
 10264      7200
 10265              	.LASF146:
 10266 0482 51756164 		.ascii	"QuadDec_2_GetCounter\000"
 10266      4465635F 
 10266      325F4765 
 10266      74436F75 
 10266      6E746572 
 10267              	.LASF139:
 10268 0497 4D6F746F 		.ascii	"Motor_1_IN_1_Write\000"
 10268      725F315F 
 10268      494E5F31 
 10268      5F577269 
 10268      746500
 10269              	.LASF115:
 10270 04aa 7961775F 		.ascii	"yaw_rate\000"
 10270      72617465 
 10270      00
 10271              	.LASF142:
 10272 04b3 4D6F746F 		.ascii	"Motor_2_IN_4_Write\000"
 10272      725F325F 
 10272      494E5F34 
 10272      5F577269 
 10272      746500
 10273              	.LASF131:
 10274 04c6 50574D5F 		.ascii	"PWM_ColorSensor_ReadStatusRegister\000"
 10274      436F6C6F 
 10274      7253656E 
 10274      736F725F 
 10274      52656164 
 10275              	.LASF159:
 10276 04e9 53335F57 		.ascii	"S3_Write\000"
 10276      72697465 
 10276      00
 10277              	.LASF15:
 10278 04f2 63686172 		.ascii	"char\000"
 10278      00
 10279              	.LASF40:
 10280 04f7 74617267 		.ascii	"targetAngle\000"
 10280      6574416E 
 10280      676C6500 
 10281              	.LASF35:
 10282 0503 6D6F7665 		.ascii	"move2wall\000"
 10282      3277616C 
 10282      6C00
 10283              	.LASF91:
 10284 050d 756C7472 		.ascii	"ultrasonic_measure\000"
 10284      61736F6E 
 10284      69635F6D 
 10284      65617375 
 10284      726500
 10285              	.LASF160:
ARM GAS  C:\Users\weiro\AppData\Local\Temp\ccSkAWeC.s 			page 209


 10286 0520 436F6E74 		.ascii	"Control_Reg_1_Write\000"
 10286      726F6C5F 
 10286      5265675F 
 10286      315F5772 
 10286      69746500 
 10287              	.LASF166:
 10288 0534 466C6963 		.ascii	"Flicker_Write\000"
 10288      6B65725F 
 10288      57726974 
 10288      6500
 10289              	.LASF185:
 10290 0542 54696D65 		.ascii	"Timer_2_Start\000"
 10290      725F325F 
 10290      53746172 
 10290      7400
 10291              	.LASF128:
 10292 0550 54696D65 		.ascii	"Timer_3_ReadCounter\000"
 10292      725F335F 
 10292      52656164 
 10292      436F756E 
 10292      74657200 
 10293              	.LASF119:
 10294 0564 68656164 		.ascii	"heading\000"
 10294      696E6700 
 10295              	.LASF173:
 10296 056c 6973725F 		.ascii	"isr_6_StartEx\000"
 10296      365F5374 
 10296      61727445 
 10296      7800
 10297              	.LASF7:
 10298 057a 6C6F6E67 		.ascii	"long long int\000"
 10298      206C6F6E 
 10298      6720696E 
 10298      7400
 10299              	.LASF52:
 10300 0588 53686172 		.ascii	"Sharp_IR_avg_a\000"
 10300      705F4952 
 10300      5F617667 
 10300      5F6100
 10301              	.LASF29:
 10302 0597 6D6F7665 		.ascii	"move_fixed_dist\000"
 10302      5F666978 
 10302      65645F64 
 10302      69737400 
 10303              	.LASF72:
 10304 05a7 44495354 		.ascii	"DISTANCE_BETW_WHEEL\000"
 10304      414E4345 
 10304      5F424554 
 10304      575F5748 
 10304      45454C00 
 10305              	.LASF138:
 10306 05bb 4932435F 		.ascii	"I2C_1_MasterReadByte\000"
 10306      315F4D61 
 10306      73746572 
 10306      52656164 
 10306      42797465 
 10307              	.LASF161:
ARM GAS  C:\Users\weiro\AppData\Local\Temp\ccSkAWeC.s 			page 210


 10308 05d0 436F756E 		.ascii	"Counter_ColorSensor_ReadCapture\000"
 10308      7465725F 
 10308      436F6C6F 
 10308      7253656E 
 10308      736F725F 
 10309              	.LASF44:
 10310 05f0 666C6167 		.ascii	"flag_CW\000"
 10310      5F435700 
 10311              	.LASF24:
 10312 05f8 666F7277 		.ascii	"forward\000"
 10312      61726400 
 10313              	.LASF100:
 10314 0600 73746570 		.ascii	"step\000"
 10314      00
 10315              	.LASF19:
 10316 0605 756C7472 		.ascii	"ultrasonic_echo\000"
 10316      61736F6E 
 10316      69635F65 
 10316      63686F00 
 10317              	.LASF30:
 10318 0615 64697374 		.ascii	"dist\000"
 10318      00
 10319              	.LASF116:
 10320 061a 7961775F 		.ascii	"yaw_angle\000"
 10320      616E676C 
 10320      6500
 10321              	.LASF20:
 10322 0624 436F6C6F 		.ascii	"Color_sensing\000"
 10322      725F7365 
 10322      6E73696E 
 10322      6700
 10323              	.LASF101:
 10324 0632 636F6D70 		.ascii	"compare_ready\000"
 10324      6172655F 
 10324      72656164 
 10324      7900
 10325              	.LASF129:
 10326 0640 73707269 		.ascii	"sprintf\000"
 10326      6E746600 
 10327              	.LASF22:
 10328 0648 4779726F 		.ascii	"Gyroscope\000"
 10328      73636F70 
 10328      6500
 10329              	.LASF171:
 10330 0652 50574D5F 		.ascii	"PWM_SmallServo_WriteCompare\000"
 10330      536D616C 
 10330      6C536572 
 10330      766F5F57 
 10330      72697465 
 10331              	.LASF16:
 10332 066e 6C6F6E67 		.ascii	"long double\000"
 10332      20646F75 
 10332      626C6500 
 10333              	.LASF109:
 10334 067a 73747269 		.ascii	"string_bt\000"
 10334      6E675F62 
 10334      7400
ARM GAS  C:\Users\weiro\AppData\Local\Temp\ccSkAWeC.s 			page 211


 10335              	.LASF175:
 10336 0684 6973725F 		.ascii	"isr_3_StartEx\000"
 10336      335F5374 
 10336      61727445 
 10336      7800
 10337              	.LASF27:
 10338 0692 7475726E 		.ascii	"turn_clockwise\000"
 10338      5F636C6F 
 10338      636B7769 
 10338      736500
 10339              	.LASF98:
 10340 06a1 795F636F 		.ascii	"y_coord\000"
 10340      6F726400 
 10341              	.LASF65:
 10342 06a9 57484545 		.ascii	"WHEEL_DIAMETER\000"
 10342      4C5F4449 
 10342      414D4554 
 10342      455200
 10343              	.LASF150:
 10344 06b8 46726F6E 		.ascii	"Front_Echo_1_Read\000"
 10344      745F4563 
 10344      686F5F31 
 10344      5F526561 
 10344      6400
 10345              	.LASF51:
 10346 06ca 53686172 		.ascii	"Sharp_IR_analogue\000"
 10346      705F4952 
 10346      5F616E61 
 10346      6C6F6775 
 10346      6500
 10347              	.LASF75:
 10348 06dc 436F756E 		.ascii	"Count_Slave\000"
 10348      745F536C 
 10348      61766500 
 10349              	.LASF49:
 10350 06e8 64697374 		.ascii	"dist_trav\000"
 10350      5F747261 
 10350      7600
 10351              	.LASF182:
 10352 06f2 51756164 		.ascii	"QuadDec_2_Start\000"
 10352      4465635F 
 10352      325F5374 
 10352      61727400 
 10353              	.LASF3:
 10354 0702 73686F72 		.ascii	"short int\000"
 10354      7420696E 
 10354      7400
 10355              	.LASF134:
 10356 070c 4932435F 		.ascii	"I2C_1_MasterSendStart\000"
 10356      315F4D61 
 10356      73746572 
 10356      53656E64 
 10356      53746172 
 10357              	.LASF59:
 10358 0722 6F626A65 		.ascii	"objective\000"
 10358      63746976 
 10358      6500
ARM GAS  C:\Users\weiro\AppData\Local\Temp\ccSkAWeC.s 			page 212


 10359              	.LASF5:
 10360 072c 6C6F6E67 		.ascii	"long int\000"
 10360      20696E74 
 10360      00
 10361              	.LASF63:
 10362 0735 49544D5F 		.ascii	"ITM_RxBuffer\000"
 10362      52784275 
 10362      66666572 
 10362      00
 10363              	.LASF151:
 10364 0742 4C656674 		.ascii	"Left_Echo_Read\000"
 10364      5F456368 
 10364      6F5F5265 
 10364      616400
 10365              	.LASF184:
 10366 0751 4932435F 		.ascii	"I2C_1_Start\000"
 10366      315F5374 
 10366      61727400 
 10367              	.LASF157:
 10368 075d 436F756E 		.ascii	"Counter_ColorSensor_Start\000"
 10368      7465725F 
 10368      436F6C6F 
 10368      7253656E 
 10368      736F725F 
 10369              	.LASF33:
 10370 0777 6176675F 		.ascii	"avg_dist\000"
 10370      64697374 
 10370      00
 10371              	.LASF114:
 10372 0780 74656D70 		.ascii	"temp\000"
 10372      00
 10373              	.LASF178:
 10374 0785 50574D5F 		.ascii	"PWM_Wheels_Start\000"
 10374      57686565 
 10374      6C735F53 
 10374      74617274 
 10374      00
 10375              	.LASF154:
 10376 0796 53305F57 		.ascii	"S0_Write\000"
 10376      72697465 
 10376      00
 10377              	.LASF87:
 10378 079f 50574D5F 		.ascii	"PWM_Master_puck\000"
 10378      4D617374 
 10378      65725F70 
 10378      75636B00 
 10379              	.LASF92:
 10380 07af 66726F6E 		.ascii	"front_measured_1\000"
 10380      745F6D65 
 10380      61737572 
 10380      65645F31 
 10380      00
 10381              	.LASF93:
 10382 07c0 66726F6E 		.ascii	"front_measured_2\000"
 10382      745F6D65 
 10382      61737572 
 10382      65645F32 
ARM GAS  C:\Users\weiro\AppData\Local\Temp\ccSkAWeC.s 			page 213


 10382      00
 10383              	.LASF38:
 10384 07d1 6779726F 		.ascii	"gyro_cal_1\000"
 10384      5F63616C 
 10384      5F3100
 10385              	.LASF42:
 10386 07dc 6779726F 		.ascii	"gyro_cal_2\000"
 10386      5F63616C 
 10386      5F3200
 10387              	.LASF107:
 10388 07e7 6F70656E 		.ascii	"open_small\000"
 10388      5F736D61 
 10388      6C6C00
 10389              	.LASF74:
 10390 07f2 436F756E 		.ascii	"Count_Master\000"
 10390      745F4D61 
 10390      73746572 
 10390      00
 10391              	.LASF37:
 10392 07ff 6D6F7665 		.ascii	"move2puck\000"
 10392      32707563 
 10392      6B00
 10393              	.LASF31:
 10394 0809 666C6167 		.ascii	"flag_FR\000"
 10394      5F465200 
 10395              	.LASF41:
 10396 0811 616E676C 		.ascii	"angleDifference\000"
 10396      65446966 
 10396      66657265 
 10396      6E636500 
 10397              	.LASF96:
 10398 0821 6563686F 		.ascii	"echo_select\000"
 10398      5F73656C 
 10398      65637400 
 10399              	.LASF162:
 10400 082d 436F756E 		.ascii	"Counter_ColorSensor_Stop\000"
 10400      7465725F 
 10400      436F6C6F 
 10400      7253656E 
 10400      736F725F 
 10401              	.LASF169:
 10402 0846 4144435F 		.ascii	"ADC_SAR_1_GetResult8\000"
 10402      5341525F 
 10402      315F4765 
 10402      74526573 
 10402      756C7438 
 10403              	.LASF183:
 10404 085b 55415254 		.ascii	"UART_1_Start\000"
 10404      5F315F53 
 10404      74617274 
 10404      00
 10405              	.LASF82:
 10406 0868 64657269 		.ascii	"derivative_error\000"
 10406      76617469 
 10406      76655F65 
 10406      72726F72 
 10406      00
ARM GAS  C:\Users\weiro\AppData\Local\Temp\ccSkAWeC.s 			page 214


 10407              	.LASF45:
 10408 0879 436F6C6F 		.ascii	"Color_Sensing_Function\000"
 10408      725F5365 
 10408      6E73696E 
 10408      675F4675 
 10408      6E637469 
 10409              	.LASF81:
 10410 0890 6C617374 		.ascii	"last_error\000"
 10410      5F657272 
 10410      6F7200
 10411              	.LASF17:
 10412 089b 73697A65 		.ascii	"sizetype\000"
 10412      74797065 
 10412      00
 10413              	.LASF177:
 10414 08a4 6973725F 		.ascii	"isr_7_StartEx\000"
 10414      375F5374 
 10414      61727445 
 10414      7800
 10415              	.LASF6:
 10416 08b2 6C6F6E67 		.ascii	"long unsigned int\000"
 10416      20756E73 
 10416      69676E65 
 10416      6420696E 
 10416      7400
 10417              	.LASF50:
 10418 08c4 53686172 		.ascii	"Sharp_IR\000"
 10418      705F4952 
 10418      00
 10419              	.LASF153:
 10420 08cd 50574D5F 		.ascii	"PWM_Wheels_WriteCompare1\000"
 10420      57686565 
 10420      6C735F57 
 10420      72697465 
 10420      436F6D70 
 10421              	.LASF126:
 10422 08e6 50574D5F 		.ascii	"PWM_Wheels_WriteCompare2\000"
 10422      57686565 
 10422      6C735F57 
 10422      72697465 
 10422      436F6D70 
 10423              	.LASF11:
 10424 08ff 696E7433 		.ascii	"int32_t\000"
 10424      325F7400 
 10425              	.LASF85:
 10426 0907 50574D5F 		.ascii	"PWM_Cal\000"
 10426      43616C00 
 10427              	.LASF163:
 10428 090f 6C65645F 		.ascii	"led_red_Write\000"
 10428      7265645F 
 10428      57726974 
 10428      6500
 10429              	.LASF86:
 10430 091d 50574D5F 		.ascii	"PWM_Slave\000"
 10430      536C6176 
 10430      6500
 10431              	.LASF102:
ARM GAS  C:\Users\weiro\AppData\Local\Temp\ccSkAWeC.s 			page 215


 10432 0927 636F6C6F 		.ascii	"color_detected\000"
 10432      725F6465 
 10432      74656374 
 10432      656400
 10433              	.LASF2:
 10434 0936 756E7369 		.ascii	"unsigned char\000"
 10434      676E6564 
 10434      20636861 
 10434      7200
 10435              	.LASF88:
 10436 0944 50574D5F 		.ascii	"PWM_Slave_puck\000"
 10436      536C6176 
 10436      655F7075 
 10436      636B00
 10437              	.LASF141:
 10438 0953 4D6F746F 		.ascii	"Motor_2_IN_3_Write\000"
 10438      725F325F 
 10438      494E5F33 
 10438      5F577269 
 10438      746500
 10439              	.LASF140:
 10440 0966 4D6F746F 		.ascii	"Motor_1_IN_2_Write\000"
 10440      725F315F 
 10440      494E5F32 
 10440      5F577269 
 10440      746500
 10441              	.LASF158:
 10442 0979 53325F57 		.ascii	"S2_Write\000"
 10442      72697465 
 10442      00
 10443              	.LASF144:
 10444 0982 51756164 		.ascii	"QuadDec_2_SetCounter\000"
 10444      4465635F 
 10444      325F5365 
 10444      74436F75 
 10444      6E746572 
 10445              	.LASF112:
 10446 0997 7461736B 		.ascii	"task_info\000"
 10446      5F696E66 
 10446      6F00
 10447              	.LASF187:
 10448 09a1 73747274 		.ascii	"strtok\000"
 10448      6F6B00
 10449              	.LASF143:
 10450 09a8 51756164 		.ascii	"QuadDec_1_SetCounter\000"
 10450      4465635F 
 10450      315F5365 
 10450      74436F75 
 10450      6E746572 
 10451              	.LASF135:
 10452 09bd 4932435F 		.ascii	"I2C_1_MasterWriteByte\000"
 10452      315F4D61 
 10452      73746572 
 10452      57726974 
 10452      65427974 
 10453              	.LASF121:
 10454 09d3 73747269 		.ascii	"string_gyro\000"
ARM GAS  C:\Users\weiro\AppData\Local\Temp\ccSkAWeC.s 			page 216


 10454      6E675F67 
 10454      79726F00 
 10455              	.LASF26:
 10456 09df 7475726E 		.ascii	"turn_anticlockwise\000"
 10456      5F616E74 
 10456      69636C6F 
 10456      636B7769 
 10456      736500
 10457              	.LASF125:
 10458 09f2 74687265 		.ascii	"threshold\000"
 10458      73686F6C 
 10458      6400
 10459              	.LASF32:
 10460 09fc 6176675F 		.ascii	"avg_count\000"
 10460      636F756E 
 10460      7400
 10461              	.LASF191:
 10462 0a06 433A5C55 		.ascii	"C:\\Users\\weiro\\code repository for ece4191\\ece4"
 10462      73657273 
 10462      5C776569 
 10462      726F5C63 
 10462      6F646520 
 10463 0a35 3139315C 		.ascii	"191\\DC_Motor_1\\Design01.cydsn\000"
 10463      44435F4D 
 10463      6F746F72 
 10463      5F315C44 
 10463      65736967 
 10464              	.LASF174:
 10465 0a53 54696D65 		.ascii	"Timer_1_Start\000"
 10465      725F315F 
 10465      53746172 
 10465      7400
 10466              	.LASF1:
 10467 0a61 7369676E 		.ascii	"signed char\000"
 10467      65642063 
 10467      68617200 
 10468              	.LASF4:
 10469 0a6d 73686F72 		.ascii	"short unsigned int\000"
 10469      7420756E 
 10469      7369676E 
 10469      65642069 
 10469      6E7400
 10470              	.LASF192:
 10471 0a80 6D61696E 		.ascii	"main\000"
 10471      00
 10472              	.LASF106:
 10473 0a85 75705F62 		.ascii	"up_big\000"
 10473      696700
 10474              	.LASF76:
 10475 0a8c 73747269 		.ascii	"string_1\000"
 10475      6E675F31 
 10475      00
 10476              	.LASF77:
 10477 0a95 73747269 		.ascii	"string_2\000"
 10477      6E675F32 
 10477      00
 10478              	.LASF78:
ARM GAS  C:\Users\weiro\AppData\Local\Temp\ccSkAWeC.s 			page 217


 10479 0a9e 73747269 		.ascii	"string_3\000"
 10479      6E675F33 
 10479      00
 10480              	.LASF90:
 10481 0aa7 756C7472 		.ascii	"ultrasonic_count\000"
 10481      61736F6E 
 10481      69635F63 
 10481      6F756E74 
 10481      00
 10482              	.LASF110:
 10483 0ab8 73746F70 		.ascii	"stop_bt\000"
 10483      5F627400 
 10484              	.LASF111:
 10485 0ac0 746F6B65 		.ascii	"tokenPtr\000"
 10485      6E507472 
 10485      00
 10486              	.LASF12:
 10487 0ac9 75696E74 		.ascii	"uint8\000"
 10487      3800
 10488              	.LASF0:
 10489 0acf 646F7562 		.ascii	"double\000"
 10489      6C6500
 10490              	.LASF132:
 10491 0ad6 55415254 		.ascii	"UART_1_GetChar\000"
 10491      5F315F47 
 10491      65744368 
 10491      617200
 10492              	.LASF21:
 10493 0ae5 426C7565 		.ascii	"Bluetooth\000"
 10493      746F6F74 
 10493      6800
 10494              	.LASF103:
 10495 0aef 77616C6C 		.ascii	"wall_detected_10\000"
 10495      5F646574 
 10495      65637465 
 10495      645F3130 
 10495      00
 10496              	.LASF60:
 10497 0b00 5069636B 		.ascii	"Pick_Up_Puck\000"
 10497      5F55705F 
 10497      5075636B 
 10497      00
 10498              	.LASF117:
 10499 0b0d 70726576 		.ascii	"previous_reading\000"
 10499      696F7573 
 10499      5F726561 
 10499      64696E67 
 10499      00
 10500              	.LASF186:
 10501 0b1e 73747263 		.ascii	"strcmp\000"
 10501      6D7000
 10502              		.ident	"GCC: (GNU Tools for ARM Embedded Processors) 5.4.1 20160609 (release) [ARM/embedded-5-bran
